(lp0
(lp1
S'C04-1089167'
p2
a(dp3
Vand
p4
F1.0
sVratio
p5
F1.0
sVfor
p6
F1.0
sV)
p7
F1.0
sV(
p8
F1.0
sVcognates
p9
F1.0
sVtheir
p10
F1.0
sVonly
p11
F1.0
sVvery
p12
F1.0
sVbut
p13
F1.0
sVclue
p14
F1.0
sVuses
p15
F1.0
sVlongest
p16
F1.0
sVwords
p17
F1.0
sVspelling
p18
F2.0
sVwith
p19
F1.0
sVT-FLOAT
p20
F1.0
sVa
p21
F1.0
sVsubsequence
p22
F1.0
sVcommon
p23
F1.0
sVthe
p24
F1.0
sVworks
p25
F1.0
sVsimilar
p26
F2.0
saa(lp27
S'C04-1089126'
p28
a(dp29
VT-FLOAT
p30
F1.0
sVprec
p31
F1.0
saa(lp32
S'C04-108928'
p33
a(dp34
g21
F1.0
sVir
p35
F1.0
sVe
p36
F2.0
sVconsidered
p37
F1.0
sVof
p38
F1.0
sVis
p39
F2.0
sVsince
p40
F1.0
sV,
p41
F1.0
sVcorrect
p42
F1.0
sVto
p43
F1.0
sVas
p44
F1.0
sVT-FLOAT
p45
F1.0
sVcontext
p46
F1.0
sVin
p47
F1.0
sVthe
p48
F2.0
sVdocument
p49
F1.0
sVsimilar
p50
F1.0
sVtranslation
p51
F1.0
saa(lp52
S'C04-108929'
p53
a(dp54
g21
F1.0
sVc
p55
F1.0
sg36
F1.0
sVhave
p56
F1.0
sVchinese
p57
F1.0
sVcontexts
p58
F1.0
sVof
p59
F1.0
sVis
p60
F1.0
sg41
F1.0
sVan
p61
F1.0
sVwill
p62
F1.0
sVT-FLOAT
p63
F1.0
sVthey
p64
F1.0
sVenglish
p65
F1.0
sVword
p66
F2.0
sVthe
p67
F1.0
sVsimilar
p68
F1.0
sVtranslation
p69
F1.0
sVif
p70
F1.0
saa(lp71
S'C04-108926'
p72
a(dp73
g21
F1.0
sg55
F1.0
sg7
F1.0
sg36
F1.0
sVwords
p74
F1.0
sVi
p75
F1.0
sg8
F1.0
sVis
p76
F1.0
sg41
F1.0
sVsurrounding
p77
F1.0
sVas
p78
F1.0
sVcontext
p79
F1.0
sVof
p80
F1.0
sVquery
p81
F1.0
sVthe
p82
F2.0
sVT-FLOAT
p83
F3.0
sVviewed
p84
F1.0
saa(lp85
S'C04-108927'
p86
a(dp87
g21
F1.0
sg36
F1.0
sV'
p88
F1.0
sVcandidate
p89
F1.0
sVof
p90
F1.0
sVis
p91
F1.0
sVT-FLOAT
p92
F1.0
sVas
p93
F1.0
sVcontext
p94
F1.0
sVeach
p95
F1.0
sVthe
p96
F1.0
sVdocument
p97
F1.0
sVtranslation
p98
F1.0
sVviewed
p99
F1.0
saa(lp100
S'C04-108924'
p101
a(dp102
Vand
p103
F1.0
sVchinese
p104
F1.0
sVis
p105
F1.0
sVrapp
p106
F2.0
sVyee
p107
F1.0
sVan
p108
F1.0
sVare
p109
F1.0
sVif
p110
F1.0
sg7
F1.0
sg8
F1.0
sg41
F4.0
sVT-INT
p111
F3.0
sV;
p112
F2.0
sVthen
p113
F1.0
sVthat
p114
F1.0
sVfung
p115
F1.0
sVtwo
p116
F1.0
sVwords
p117
F1.0
sg36
F1.0
sVtranslation
p118
F1.0
sVT-FLOAT
p119
F1.0
sg21
F1.0
sg55
F1.0
sVword
p120
F2.0
sVcontexts
p121
F1.0
sVof
p122
F3.0
sVwork
p123
F1.0
sVenglish
p124
F1.0
sVthe
p125
F4.0
sVsimilar
p126
F1.0
sVnoted
p127
F1.0
saa(lp128
S'C04-108925'
p129
a(dp130
g21
F1.0
sVwe
p131
F1.0
sVthis
p132
F1.0
sVcould
p133
F1.0
sVT-FLOAT
p134
F1.0
sVas
p135
F1.0
sVproblem
p136
F1.0
sVdocument
p137
F1.0
sVretrieval
p138
F1.0
sVview
p139
F1.0
saa(lp140
S'C04-108922'
p141
a(dp142
VT-FLOAT
p143
F1.0
sVwe
p144
F1.0
sVresults
p145
F1.0
sVencouraging
p146
F1.0
sVachieved
p147
F1.0
saa(lp148
S'C04-108923'
p149
a(dp150
Vand
p151
F1.0
sVon
p152
F1.0
sVwe
p153
F1.0
sVapplicable
p154
F1.0
sVto
p155
F1.0
sVlanguage
p156
F1.0
sVchinese-english
p157
F1.0
sVcomparable
p158
F1.0
sVis
p159
F1.0
sVcorpora
p160
F1.0
sVonly
p161
F1.0
sg41
F1.0
sVtested
p162
F1.0
sVwhile
p163
F1.0
sVother
p164
F1.0
sVhave
p165
F1.0
sVour
p166
F2.0
sVT-FLOAT
p167
F1.0
sVgeneral
p168
F1.0
sVmethod
p169
F2.0
sVpairs
p170
F1.0
saa(lp171
S'C04-108920'
p172
a(dp173
Vwe
p174
F1.0
sVchinese
p175
F1.0
sVinto
p176
F1.0
sVwords
p177
F1.0
sVenglish
p178
F1.0
sVtranslated
p179
F1.0
sVT-FLOAT
p180
F1.0
saa(lp181
S'C04-108921'
p182
a(dp183
Vand
p184
F1.0
sVlanguage
p185
F2.0
sVchinese
p186
F1.0
sVthat
p187
F1.0
sVis
p188
F3.0
sg41
F1.0
sVsource
p189
F1.0
sVenglish
p190
F1.0
sVthe
p191
F2.0
sVT-FLOAT
p192
F1.0
sVtarget
p193
F1.0
saa(lp194
S'C04-1089108'
p195
a(dp196
Vboth
p197
F1.0
sVappear
p198
F1.0
sVno
p199
F2.0
sVpositions
p200
F1.0
sVtop
p201
F1.0
sVwithin
p202
F1.0
sVm
p203
F1.0
sg41
F1.0
sVlists
p204
F1.0
sVoutput
p205
F1.0
sVT-FLOAT
p206
F1.0
sVranked
p207
F1.0
sVwords
p208
F1.0
sVin
p209
F1.0
sVtranslation
p210
F1.0
sVthe
p211
F1.0
sVthen
p212
F1.0
sVis
p213
F1.0
sVif
p214
F1.0
saa(lp215
S'C04-1089109'
p216
a(dp217
Vboth
p218
F1.0
sVpositions
p219
F1.0
sVword
p220
F1.0
sVfor
p221
F2.0
sVchinese
p222
F1.0
sVthat
p223
F1.0
sVappeared
p224
F1.0
sVmany
p225
F1.0
sVtop
p226
F1.0
sVwithin
p227
F1.0
sg203
F1.0
sg41
F1.0
sVlists
p228
F1.0
sVone
p229
F1.0
sVnote
p230
F1.0
sVonly
p231
F1.0
sVwords
p232
F1.0
sVenglish
p233
F1.0
sg36
F1.0
sVthe
p234
F1.0
sVT-FLOAT
p235
F1.0
saa(lp236
S'C04-1089104'
p237
a(dp238
Vand
p239
F2.0
sVeach
p240
F1.0
sVperiod
p241
F1.0
sVat
p242
F1.0
sVin
p243
F1.0
sVfor
p244
F1.0
sVselected
p245
F1.0
sg41
F2.0
sVleast
p246
F1.0
sVT-INT
p247
F3.0
sVthose
p248
F1.0
sVwe
p249
F2.0
sVused
p250
F1.0
sVdictionary
p251
F1.0
sVstop
p252
F1.0
sVwere
p253
F2.0
sV-word
p254
F1.0
sVchineseenglish
p255
F1.0
sVwords
p256
F2.0
sVnot
p257
F2.0
sVT-FLOAT
p258
F1.0
sVpresent
p259
F1.0
sVoccurring
p260
F1.0
sVtimes
p261
F1.0
sVenglish
p262
F1.0
sVthe
p263
F1.0
saa(lp264
S'C04-1089105'
p265
a(dp266
Vwe
p267
F1.0
sVchinese
p268
F1.0
sVsource
p269
F1.0
sVconsidered
p270
F1.0
sVof
p271
F1.0
sVtranslations
p272
F1.0
sVthese
p273
F1.0
sVas
p274
F1.0
sVpotential
p275
F1.0
sVwords
p276
F2.0
sVenglish
p277
F1.0
sVthe
p278
F1.0
sVT-FLOAT
p279
F1.0
saa(lp280
S'C04-1089106'
p281
a(dp282
Von
p283
F1.0
sVwe
p284
F1.0
sVused
p285
F1.0
sVbased
p286
F1.0
sVwords
p287
F1.0
sVcandidate
p288
F1.0
sVto
p289
F1.0
sg7
F1.0
sVsection
p290
F1.0
sg41
F1.0
sVrank
p291
F1.0
sVT-INT
p292
F1.0
sVcall
p293
F1.0
sVwhich
p294
F1.0
sVenglish
p295
F1.0
sVtransliteration
p296
F1.0
sVthe
p297
F1.0
sVwas
p298
F1.0
sVT-FLOAT
p299
F1.0
saa(lp300
S'C04-1089107'
p301
a(dp302
Vand
p303
F1.0
sVis
p304
F1.0
sVwithin
p305
F1.0
sVrank
p306
F1.0
sVas
p307
F1.0
sVin
p308
F1.0
sVT-FLOAT
p309
F1.0
sVdescribed
p310
F1.0
sVcandidate
p311
F1.0
sVchosen
p312
F1.0
sg8
F1.0
sVtop
p313
F1.0
sg41
F1.0
sVT-INT
p314
F1.0
sVfinally
p315
F1.0
sVsmallest
p316
F1.0
sVthat
p317
F1.0
sVof
p318
F1.0
sVlists
p319
F1.0
sVranked
p320
F1.0
sVtranslation
p321
F1.0
sVwith
p322
F1.0
sVappears
p323
F1.0
sVboth
p324
F1.0
sVword
p325
F1.0
sVpositions
p326
F1.0
sVaverage
p327
F1.0
sg203
F1.0
sg7
F1.0
sVenglish
p328
F2.0
sVposition
p329
F1.0
sVthe
p330
F4.0
sVsection
p331
F1.0
saa(lp332
S'C04-1089100'
p333
a(dp334
Vwe
p335
F1.0
sVchinese
p336
F1.0
sVthese
p337
F1.0
sVsource
p338
F1.0
sVcall
p339
F1.0
sVwords
p340
F2.0
sVT-FLOAT
p341
F1.0
saa(lp342
S'C04-1089101'
p343
a(dp344
Vwe
p345
F1.0
sVfrom
p346
F1.0
sVthey
p347
F1.0
sVthat
p348
F1.0
sVT-FLOAT
p349
F1.0
sVenglish
p350
F1.0
sVtranslations
p351
F1.0
sVcorpus
p352
F1.0
sVto
p353
F1.0
sVsupposed
p354
F1.0
sVwords
p355
F1.0
sVwere
p356
F2.0
sVthe
p357
F2.0
sVfind
p358
F1.0
saa(lp359
S'C04-1089102'
p360
a(dp361
Vand
p362
F2.0
sVcase
p363
F1.0
sVwe
p364
F1.0
sVmorphological
p365
F1.0
sVword
p366
F1.0
sVform
p367
F1.0
sVfor
p368
F1.0
sVsentence
p369
F1.0
sVsegmentation
p370
F1.0
sVlower
p371
F1.0
sVeach
p372
F1.0
sg41
F1.0
sVits
p373
F1.0
sVto
p374
F2.0
sVconverted
p375
F1.0
sVperformed
p376
F1.0
sVT-FLOAT
p377
F1.0
sVenglish
p378
F1.0
sVthe
p379
F1.0
sVroot
p380
F1.0
sVcorpus
p381
F1.0
saa(lp382
S'C04-1089103'
p383
a(dp384
g21
F1.0
sVwe
p385
F1.0
sVfrom
p386
F1.0
sVT-INT
p387
F1.0
sVtext
p388
F1.0
sVdivided
p389
F1.0
sVeach
p390
F1.0
sVhalf-month
p391
F1.0
sg41
F1.0
sVcontaining
p392
F1.0
sValso
p393
F1.0
sVperiod
p394
F1.0
sVperiods
p395
F1.0
sVT-FLOAT
p396
F1.0
sVenglish
p397
F1.0
sVinto
p398
F1.0
sVcorpus
p399
F1.0
sVthe
p400
F1.0
saa(lp401
S'C04-10897'
p402
a(dp403
Vlexicon
p404
F1.0
sg41
F1.0
sVin
p405
F1.0
sVits
p406
F1.0
sVneeds
p407
F1.0
sVfor
p408
F1.0
sVconstantly
p409
F1.0
sVsystem
p410
F1.0
sVmachine
p411
F1.0
sVto
p412
F2.0
sVcorrectly
p413
F1.0
sVnew
p414
F2.0
sVtranslate
p415
F1.0
sVbe
p416
F1.0
sVupdated
p417
F1.0
sVbilingual
p418
F1.0
sVtranslations
p419
F1.0
sVwords
p420
F1.0
sVtranslation
p421
F1.0
sVwith
p422
F1.0
sg21
F1.0
sVword
p423
F1.0
sVthese
p424
F1.0
sVT-FLOAT
p425
F1.0
sVorder
p426
F1.0
saa(lp427
S'C04-10896'
p428
a(dp429
Vfrequently
p430
F1.0
sVorganization
p431
F1.0
sVterms
p432
F1.0
sVappear
p433
F1.0
sVetc
p434
F1.0
sVtechnical
p435
F1.0
sg41
F3.0
sVperson
p436
F1.0
sVas
p437
F1.0
sVnames
p438
F2.0
sVwords
p439
F1.0
sVsuch
p440
F1.0
sVnew
p441
F1.0
sVT-FLOAT
p442
F2.0
saa(lp443
S'C04-10895'
p444
a(dp445
Vand
p446
F1.0
sVon
p447
F1.0
sVwe
p448
F1.0
sVmonths
p449
F1.0
sVchinese
p450
F1.0
sVwith
p451
F1.0
sVof
p452
F1.0
sVsix
p453
F1.0
sVresults
p454
F1.0
sg41
F1.0
sVevaluated
p455
F1.0
sVencouraging
p456
F1.0
sVenglish
p457
F1.0
sVgigaword
p458
F1.0
sVour
p459
F1.0
sVT-FLOAT
p460
F1.0
sVcorpora
p461
F1.0
sVapproach
p462
F1.0
saa(lp463
S'C04-10894'
p464
a(dp465
Vfrom
p466
F1.0
sVcomparable
p467
F1.0
sVpaper
p468
F1.0
sVin
p469
F1.0
sVmining
p470
F1.0
sVinformation
p471
F2.0
sVtransliteration
p472
F1.0
sg41
F2.0
sVto
p473
F2.0
sVnew
p474
F2.0
sVapproach
p475
F1.0
sVwe
p476
F1.0
sVcomplement
p477
F1.0
sVtranslations
p478
F1.0
sVusing
p479
F1.0
sVby
p480
F1.0
sVpresent
p481
F1.0
sg21
F1.0
sVword
p482
F1.0
sVthis
p483
F1.0
sVcorpora
p484
F1.0
sVcontext
p485
F1.0
sVT-FLOAT
p486
F1.0
saa(lp487
S'C04-10893'
p488
a(dp489
Vavailable
p490
F1.0
sVcomparable
p491
F1.0
sVdocuments
p492
F1.0
sVfrom
p493
F1.0
sVof
p494
F1.0
sVcorpora
p495
F1.0
sVperiod
p496
F1.0
sVsame
p497
F1.0
sVdifferent
p498
F1.0
sVas
p499
F1.0
sVagencies
p500
F1.0
sVnews
p501
F2.0
sVsuch
p502
F1.0
sVthe
p503
F1.0
sVreadily
p504
F1.0
sVT-FLOAT
p505
F1.0
sVare
p506
F1.0
saa(lp507
S'C04-10892'
p508
a(dp509
Vlexicon
p510
F1.0
sVsystem
p511
F1.0
sVas
p512
F1.0
sVconstantly
p513
F1.0
sg41
F1.0
sVmachine
p514
F1.0
sVto
p515
F1.0
sVbilingual
p516
F1.0
sVnew
p517
F1.0
sVhas
p518
F1.0
sVbe
p519
F1.0
sVupdated
p520
F1.0
sVtranslations
p521
F1.0
sVsuch
p522
F1.0
sVtranslation
p523
F1.0
sVwith
p524
F1.0
sVthe
p525
F1.0
sg21
F1.0
sVword
p526
F1.0
sVthese
p527
F1.0
sVof
p528
F1.0
sVT-FLOAT
p529
F1.0
saa(lp530
S'C04-10891'
p531
a(dp532
Vfrequently
p533
F1.0
sVterms
p534
F1.0
sVappear
p535
F1.0
sVtechnical
p536
F1.0
sg41
F2.0
sVetc
p537
F1.0
sVas
p538
F1.0
sVnames
p539
F1.0
sVwords
p540
F1.0
sVsuch
p541
F1.0
sVnew
p542
F1.0
sVT-FLOAT
p543
F1.0
saa(lp544
S'C04-10899'
p545
a(dp546
Vlan
p547
F1.0
sVespecially
p548
F1.0
sVfor
p549
F1.0
sVcorpora
p550
F1.0
sVguage
p551
F1.0
sg41
F1.0
sVbut
p552
F1.0
sVuncommon
p553
F1.0
sVare
p554
F1.0
sVscarce
p555
F1.0
sVT-FLOAT
p556
F1.0
sVparallel
p557
F1.0
sVresources
p558
F1.0
sVpairs
p559
F1.0
saa(lp560
S'C04-10898'
p561
a(dp562
Von
p563
F1.0
sVlexicons
p564
F1.0
sVmoore
p565
F1.0
sVT-INT
p566
F2.0
sg7
F1.0
sg8
F1.0
sVcorpora
p567
F1.0
sg41
F2.0
sVbeen
p568
F1.0
sVresearch
p569
F1.0
sVto
p570
F1.0
sVmuch
p571
F1.0
sVdone
p572
F1.0
sVT-FLOAT
p573
F1.0
sVbilingual
p574
F1.0
sVlearn
p575
F1.0
sVusing
p576
F1.0
sg112
F1.0
sVhas
p577
F1.0
sVmelamed
p578
F1.0
sVparallel
p579
F1.0
saa(lp580
S'C04-108939'
p581
a(dp582
g21
F1.0
sVmethods
p583
F1.0
sVthat
p584
F1.0
sg7
F1.0
sVof
p585
F1.0
sVis
p586
F1.0
sVmatches
p587
F1.0
sVtwo
p588
F1.0
sVone
p589
F1.0
sVq
p590
F1.0
sVp
p591
F1.0
sVT-FLOAT
p592
F1.0
sVindividual
p593
F1.0
sg8
F1.0
sVprovides
p594
F1.0
sVeach
p595
F1.0
sVquery
p596
F1.0
sVthe
p597
F3.0
sV|
p598
F1.0
sVbest
p599
F1.0
sVd
p600
F1.0
saa(lp601
S'C04-108938'
p602
a(dp603
Vgiven
p604
F1.0
sVdocument
p605
F1.0
sVsection
p606
F1.0
sVT-INT
p607
F1.0
sVin
p608
F1.0
sVthe
p609
F2.0
sVhighest
p610
F1.0
sVwith
p611
F1.0
sVT-FLOAT
p612
F1.0
saa(lp613
S'C04-108935'
p614
a(dp615
Vponte
p616
F1.0
sVis
p617
F1.0
sVir
p618
F1.0
sVT-FLOAT
p619
F1.0
sVuse
p620
F1.0
sVcroft
p621
F1.0
sV&
p622
F1.0
sg7
F1.0
sg8
F1.0
sVthere
p623
F1.0
sg41
F2.0
sVto
p624
F1.0
sVnew
p625
F1.0
sVdocument
p626
F1.0
sVapproach
p627
F2.0
sVwe
p628
F1.0
sVwithin
p629
F1.0
sVvariant
p630
F1.0
sVmodeling
p631
F1.0
sVT-INT
p632
F1.0
sg21
F2.0
sVlanguage
p633
F1.0
sVof
p634
F1.0
sVcalled
p635
F1.0
sVthe
p636
F1.0
sVretrieval
p637
F1.0
saa(lp638
S'C04-108934'
p639
a(dp640
Vitself
p641
F1.0
sVat
p642
F1.0
sVpronunciation
p643
F1.0
sVits
p644
F1.0
sVrely
p645
F1.0
sVwhen
p646
F1.0
sg41
F2.0
sVto
p647
F1.0
sVonly
p648
F1.0
sVother
p649
F1.0
sVlocate
p650
F1.0
sVwe
p651
F2.0
sVhand
p652
F1.0
sVtranslation
p653
F1.0
sVthe
p654
F3.0
sVon
p655
F2.0
sVword
p656
F1.0
sVlook
p657
F1.0
sVof
p658
F1.0
sVcan
p659
F1.0
sVw
p660
F2.0
sVT-FLOAT
p661
F1.0
saa(lp662
S'C04-108937'
p663
a(dp664
Vis
p665
F1.0
sVmore
p666
F1.0
sVare
p667
F1.0
sVT-FLOAT
p668
F1.0
sVestimated
p669
F1.0
sVdetails
p670
F1.0
saa(lp671
S'C04-108936'
p672
a(dp673
Vand
p674
F1.0
sVprobability
p675
F1.0
sVis
p676
F1.0
sVin
p677
F1.0
sVquery
p678
F1.0
sVT-FLOAT
p679
F2.0
sVtransliteration
p680
F1.0
sVproposed
p681
F1.0
sVT-INT
p682
F1.0
sg7
F2.0
sg8
F2.0
sVknight
p683
F1.0
sg41
F4.0
sVby
p684
F1.0
sVmachine
p685
F1.0
sVto
p686
F1.0
sVdocument
p687
F1.0
sVapproach
p688
F1.0
sVmethod
p689
F1.0
sVthen
p690
F1.0
sVgenerating
p691
F1.0
sVthat
p692
F1.0
sVderived
p693
F1.0
sVfrom
p694
F1.0
sVmodel
p695
F2.0
sg21
F1.0
sVgraehl
p696
F1.0
sg600
F2.0
sVlanguage
p697
F2.0
sVthis
p698
F1.0
sVof
p699
F1.0
sVaccording
p700
F1.0
sg590
F2.0
sg591
F1.0
sVeach
p701
F1.0
sVthe
p702
F3.0
sg598
F1.0
saa(lp703
S'C04-108931'
p704
a(dp705
g36
F1.0
sVenglish
p706
F1.0
sVword
p707
F1.0
sVthe
p708
F1.0
sVdocument
p709
F1.0
sVT-FLOAT
p710
F1.0
saa(lp711
S'C04-108930'
p712
a(dp713
Vand
p714
F1.0
sV*
p715
F1.0
sVretrieve
p716
F3.0
sVlikely
p717
F1.0
sVare
p718
F1.0
sVquery
p719
F3.0
sVbest
p720
F1.0
sVuse
p721
F2.0
sg7
F1.0
sg8
F1.0
sVe*
p722
F1.0
sVwhen
p723
F1.0
sg41
F1.0
sVto
p724
F3.0
sVdocument
p725
F1.0
sVwe
p726
F3.0
sVthat
p727
F1.0
sVmatches
p728
F1.0
sVmost
p729
F1.0
sVT-FLOAT
p730
F1.0
sg21
F1.0
sg55
F4.0
sg36
F1.0
sVof
p731
F3.0
sVas
p732
F1.0
sVtry
p733
F1.0
sVso
p734
F1.0
sVcontext
p735
F3.0
sVthe
p736
F7.0
sVsimilar
p737
F1.0
saa(lp738
S'C04-108933'
p739
a(dp740
Vgiven
p741
F1.0
sVsection
p742
F1.0
sVT-INT
p743
F1.0
sVare
p744
F1.0
sVin
p745
F1.0
sVT-FLOAT
p746
F1.0
sVmore
p747
F1.0
sVdetails
p748
F1.0
saa(lp749
S'C04-108932'
p750
a(dp751
Vand
p752
F1.0
sVponte
p753
F1.0
sVis
p754
F1.0
sVcroft
p755
F1.0
sVfor
p756
F1.0
sVto
p757
F1.0
sg7
F2.0
sg8
F2.0
sVe*
p758
F1.0
sg41
F2.0
sVng
p759
F1.0
sVT-INT
p760
F2.0
sg112
F1.0
sVdocument
p761
F1.0
sVapproach
p762
F1.0
sVwe
p763
F1.0
sVcorresponding
p764
F1.0
sVthat
p765
F1.0
sVproblem
p766
F1.0
sVmodeling
p767
F1.0
sVtranslation
p768
F1.0
sVT-FLOAT
p769
F2.0
sg55
F2.0
sVlanguage
p770
F1.0
sVthis
p771
F1.0
sVof
p772
F1.0
sVemploy
p773
F1.0
sVthe
p774
F2.0
sVretrieval
p775
F1.0
saa(lp776
S'C04-1089131'
p777
a(dp778
Vmanaged
p779
F1.0
sVchinese
p780
F1.0
sVdecember
p781
F1.0
sVcomparable
p782
F1.0
sVin
p783
F1.0
sVfind
p784
F1.0
sVfor
p785
F1.0
sVT-INT
p786
F1.0
sg41
F1.0
sVto
p787
F1.0
sVonly
p788
F1.0
sVwhich
p789
F1.0
sVwe
p790
F1.0
sVenglish
p791
F2.0
sVtranslations
p792
F1.0
sVperiod
p793
F1.0
sVwords
p794
F1.0
sVduring
p795
F1.0
sVT-FLOAT
p796
F1.0
sVpresent
p797
F1.0
sVof
p798
F1.0
sVcorpora
p799
F1.0
sVwere
p800
F1.0
sVthe
p801
F3.0
sVwhole
p802
F1.0
sVside
p803
F1.0
saa(lp804
S'C04-1089133'
p805
a(dp806
Vand
p807
F3.0
sVcompare
p808
F1.0
sVis
p809
F1.0
sVrapp
p810
F2.0
sVyee
p811
F1.0
sVit
p812
F1.0
sVpast
p813
F1.0
sVutilized
p814
F1.0
sVdirectly
p815
F1.0
sVour
p816
F1.0
sVinformation
p817
F1.0
sVdifferent
p818
F2.0
sVfrom
p819
F1.0
sVfor
p820
F1.0
sVto
p821
F1.0
sg7
F1.0
sg8
F1.0
sg41
F4.0
sVresearch
p822
F1.0
sVcurrent
p823
F1.0
sVT-INT
p824
F3.0
sVours
p825
F1.0
sg112
F2.0
sVwas
p826
F1.0
sVdifficult
p827
F1.0
sVtheirs
p828
F1.0
sVprecision
p829
F1.0
sVresults
p830
F1.0
sVfung
p831
F1.0
sValone
p832
F1.0
sVwith
p833
F1.0
sVT-FLOAT
p834
F1.0
sVon
p835
F1.0
sVrecall
p836
F1.0
sVcorpora
p837
F1.0
sg203
F1.0
sVso
p838
F1.0
sVevaluated
p839
F1.0
sVvalues
p840
F1.0
sVcontext
p841
F1.0
sVof
p842
F2.0
sVthe
p843
F1.0
saa(lp844
S'C04-1089132'
p845
a(dp846
Vwe
p847
F1.0
sVfor
p848
F1.0
sVthat
p849
F1.0
sVof
p850
F1.0
sVin
p851
F1.0
sVtranslations
p852
F1.0
sVcorpus
p853
F1.0
sVT-INT
p854
F1.0
sVpart
p855
F1.0
sVso
p856
F1.0
sVare
p857
F1.0
sVT-FLOAT
p858
F1.0
sVenglish
p859
F2.0
sVtable
p860
F1.0
sVestimate
p861
F1.0
sVthe
p862
F2.0
sVpresent
p863
F1.0
saa(lp864
S'C04-1089135'
p865
a(dp866
Vand
p867
F1.0
sVchinese
p868
F1.0
sVin
p869
F1.0
sVcomparable
p870
F1.0
sg41
F3.0
sVsources
p871
F1.0
sVindividual
p872
F1.0
sVhave
p873
F1.0
sVusing
p874
F1.0
sVinformation
p875
F2.0
sVtransliteration
p876
F2.0
sVto
p877
F1.0
sg7
F2.0
sg8
F2.0
sVtwo
p878
F1.0
sVhow
p879
F1.0
sVonly
p880
F1.0
sVcorpus
p881
F1.0
sVbe
p882
F1.0
sVwe
p883
F1.0
sVthat
p884
F1.0
sVenglish
p885
F1.0
sVtranslations
p886
F2.0
sVeffect
p887
F1.0
sVpart
p888
F1.0
sVwords
p889
F1.0
sValone
p890
F2.0
sVchecked
p891
F1.0
sVone
p892
F1.0
sVT-FLOAT
p893
F3.0
sVthose
p894
F1.0
sVon
p895
F1.0
sg36
F1.0
sg75
F1.0
sVof
p896
F4.0
sVcould
p897
F1.0
sVinvestigate
p898
F1.0
sVsource
p899
F1.0
sVcontext
p900
F2.0
sVmany
p901
F1.0
sVfound
p902
F1.0
sVthe
p903
F4.0
sVor
p904
F1.0
saa(lp905
S'C04-1089128'
p906
a(dp907
Vchecked
p908
F1.0
sVcorrectness
p909
F1.0
sVmanually
p910
F1.0
sVof
p911
F1.0
sVtranslations
p912
F1.0
sVenglish
p913
F1.0
sVthe
p914
F2.0
sVwas
p915
F1.0
sVT-FLOAT
p916
F1.0
saa(lp917
S'C04-1089137'
p918
a(dp919
Vshown
p920
F1.0
sVthis
p921
F1.0
sVof
p922
F1.0
sVis
p923
F1.0
sVlist
p924
F1.0
sVT-INT
p925
F2.0
sVwords
p926
F1.0
sVin
p927
F1.0
sVtable
p928
F1.0
sVT-FLOAT
p929
F1.0
saa(lp930
S'C04-1089136'
p931
a(dp932
Vchinese
p933
F1.0
sVmonth
p934
F1.0
sVas
p935
F1.0
sVare
p936
F1.0
sVhave
p937
F1.0
sVin
p938
F1.0
sVmentioned
p939
F1.0
sVfor
p940
F1.0
sVtheir
p941
F1.0
sVthere
p942
F1.0
sg41
F2.0
sVT-INT
p943
F2.0
sVcorpus
p944
F1.0
sVthat
p945
F1.0
sVearlier
p946
F1.0
sVtranslations
p947
F1.0
sVpart
p948
F1.0
sVwords
p949
F1.0
sValtogether
p950
F1.0
sVT-FLOAT
p951
F1.0
sVof
p952
F2.0
sVenglish
p953
F1.0
sVthe
p954
F3.0
sVdec
p955
F1.0
saa(lp956
S'C04-1089139'
p957
a(dp958
Vwe
p959
F1.0
sVcurrently
p960
F1.0
sVunigram
p961
F1.0
sVfor
p962
F1.0
sVfind
p963
F1.0
sVthese
p964
F1.0
sVtranslations
p965
F1.0
sVsince
p966
F1.0
sVable
p967
F1.0
sg41
F1.0
sVmethod
p968
F1.0
sVto
p969
F1.0
sVonly
p970
F1.0
sVare
p971
F1.0
sVwords
p972
F2.0
sVenglish
p973
F1.0
sVnot
p974
F1.0
sVour
p975
F1.0
sVT-FLOAT
p976
F1.0
sVconsiders
p977
F1.0
saa(lp978
S'C04-1089129'
p979
a(dp980
Vbecause
p981
F1.0
sVchinese
p982
F1.0
sVis
p983
F1.0
sVin
p984
F1.0
sVT-FLOAT
p985
F1.0
sVestimate
p986
F1.0
sVto
p987
F1.0
sVcorpus
p988
F1.0
sVdifficult
p989
F1.0
sVdo
p990
F1.0
sVwe
p991
F1.0
sVenglish
p992
F2.0
sVpart
p993
F1.0
sVknow
p994
F1.0
sVsomewhat
p995
F1.0
sVnot
p996
F1.0
sVtranslation
p997
F1.0
sVappears
p998
F1.0
sg21
F1.0
sVword
p999
F1.0
sVwhether
p1000
F1.0
sVrecall
p1001
F1.0
sVof
p1002
F2.0
sVthe
p1003
F3.0
saa(lp1004
S'C04-1089157'
p1005
a(dp1006
Vjust
p1007
F1.0
sVrank
p1008
F1.0
sVone
p1009
F1.0
sVas
p1010
F1.0
sVat
p1011
F1.0
sVhave
p1012
F1.0
sVin
p1013
F1.0
sVtable
p1014
F1.0
sVinformation
p1015
F1.0
sVshown
p1016
F1.0
sVchinese
p1017
F1.0
sVT-INT
p1018
F3.0
sg7
F1.0
sg8
F1.0
sg41
F2.0
sVtheir
p1019
F1.0
sVcorrect
p1020
F1.0
sVtranslations
p1021
F1.0
sVwords
p1022
F1.0
sValone
p1023
F1.0
sVusing
p1024
F1.0
sVT-FLOAT
p1025
F1.0
sVcontext
p1026
F1.0
sVenglish
p1027
F1.0
sVposition
p1028
F1.0
sVthe
p1029
F1.0
sVfirst
p1030
F1.0
saa(lp1031
S'C04-1089158'
p1032
a(dp1033
Vand
p1034
F1.0
sVinformation
p1035
F1.0
sVposition
p1036
F1.0
sVtransliteration
p1037
F1.0
sVchinese
p1038
F1.0
sVjust
p1039
F1.0
sVtheir
p1040
F1.0
sVtranslations
p1041
F1.0
sg41
F1.0
sVrank
p1042
F1.0
sVone
p1043
F1.0
sVT-INT
p1044
F1.0
sVhave
p1045
F1.0
sVat
p1046
F1.0
sVwords
p1047
F1.0
sVenglish
p1048
F1.0
sValone
p1049
F1.0
sVusing
p1050
F1.0
sVT-FLOAT
p1051
F1.0
sVcorrect
p1052
F1.0
saa(lp1053
S'C04-108988'
p1054
a(dp1055
g21
F1.0
sVcontext
p1056
F1.0
sVwe
p1057
F1.0
sVused
p1058
F1.0
sVfor
p1059
F1.0
sVdictionary
p1060
F1.0
sVin
p1061
F1.0
sVabout
p1062
F1.0
sg41
F1.0
sVtranslating
p1063
F1.0
sVT-INT
p1064
F2.0
sVcontained
p1065
F1.0
sVchineseenglish
p1066
F1.0
sVwhich
p1067
F1.0
sVentries
p1068
F1.0
sVthe
p1069
F2.0
sVwords
p1070
F1.0
sVT-FLOAT
p1071
F1.0
saa(lp1072
S'C04-108989'
p1073
a(dp1074
g21
F1.0
sVtraining
p1075
F1.0
sVtransliteration
p1076
F1.0
sVprobability
p1077
F1.0
sVfor
p1078
F1.0
sVwe
p1079
F1.0
sVof
p1080
F1.0
sVrequired
p1081
F1.0
sVlist
p1082
F1.0
sg41
F1.0
sVchineseenglish
p1083
F1.0
sVthe
p1084
F1.0
sVT-FLOAT
p1085
F1.0
sVname
p1086
F1.0
saa(lp1087
S'C04-1089124'
p1088
a(dp1089
V#
p1090
F1.0
sVof
p1091
F1.0
sVis
p1092
F1.0
sVtranslations
p1093
F1.0
sVnumber
p1094
F1.0
sVo
p1095
F1.0
sVenglish
p1096
F1.0
sVoutput
p1097
F1.0
sVthe
p1098
F1.0
sVtotal
p1099
F1.0
sVT-FLOAT
p1100
F1.0
saa(lp1101
S'C04-1089125'
p1102
a(dp1103
g1090
F1.0
sVcor
p1104
F1.0
sVof
p1105
F1.0
sVis
p1106
F1.0
sVtranslations
p1107
F1.0
sVnumber
p1108
F1.0
sVT-FLOAT
p1109
F1.0
sVenglish
p1110
F1.0
sVoutput
p1111
F1.0
sVthe
p1112
F1.0
sVcorrect
p1113
F1.0
saa(lp1114
S'C04-1089122'
p1115
a(dp1116
g1090
F1.0
sVchinese
p1117
F1.0
sVof
p1118
F1.0
sVis
p1119
F1.0
sg55
F1.0
sVnumber
p1120
F1.0
sVsource
p1121
F1.0
sVperiod
p1122
F1.0
sVwords
p1123
F1.0
sVin
p1124
F1.0
sVnew
p1125
F1.0
sVthe
p1126
F2.0
sVtotal
p1127
F1.0
sVT-FLOAT
p1128
F1.0
saa(lp1129
S'C04-1089123'
p1130
a(dp1131
g1090
F1.0
sg36
F1.0
sVof
p1132
F1.0
sVis
p1133
F1.0
sVin
p1134
F1.0
sVnumber
p1135
F1.0
sVperiod
p1136
F1.0
sVT-FLOAT
p1137
F1.0
sVcandidates
p1138
F1.0
sVenglish
p1139
F1.0
sVthe
p1140
F2.0
sVtotal
p1141
F1.0
sVtranslation
p1142
F1.0
saa(lp1143
S'C04-1089120'
p1144
a(dp1145
Vtable
p1146
F1.0
sVT-FLOAT
p1147
F1.0
sVT-INT
p1148
F1.0
saa(lp1149
S'C04-108980'
p1150
a(dp1151
Vchinese
p1152
F1.0
sVperiod
p1153
F1.0
sVdetermine
p1154
F1.0
sVif
p1155
F1.0
sVfrom
p1156
F2.0
sVjust
p1157
F1.0
sVto
p1158
F4.0
sg41
F2.0
sVjan
p1159
F2.0
sVT-INT
p1160
F3.0
sVnew
p1161
F1.0
sVcorpus
p1162
F1.0
sVwas
p1163
F2.0
sVused
p1164
F1.0
sVjun
p1165
F2.0
sVjul
p1166
F1.0
sVnot
p1167
F1.0
sg36
F1.0
sVT-FLOAT
p1168
F3.0
sVoccurring
p1169
F1.0
sg21
F1.0
sg55
F1.0
sVword
p1170
F1.0
sg75
F1.0
sVof
p1171
F1.0
sVthe
p1172
F2.0
sVdec
p1173
F1.0
saa(lp1174
S'C04-108982'
p1175
a(dp1176
Vldc
p1177
F1.0
sVgigaword
p1178
F1.0
sVwe
p1179
F1.0
sVused
p1180
F1.0
sVfrom
p1181
F1.0
sVfor
p1182
F1.0
sVT-INT
p1183
F1.0
sVT-FLOAT
p1184
F1.0
sg41
F1.0
sVjul
p1185
F1.0
sVto
p1186
F1.0
sVas
p1187
F1.0
sVenglish
p1188
F2.0
sVcorpus
p1189
F2.0
sVdec
p1190
F1.0
sVthe
p1191
F1.0
saa(lp1192
S'C04-108983'
p1193
a(dp1194
Vand
p1195
F1.0
sVassociated
p1196
F1.0
sVfour
p1197
F1.0
sVservices
p1198
F1.0
sVconsists
p1199
F1.0
sVtimes
p1200
F1.0
sVfrom
p1201
F1.0
sVservice
p1202
F4.0
sVagency
p1203
F1.0
sg41
F3.0
sVfrance
p1204
F1.0
sVagence
p1205
F1.0
sVnew
p1206
F1.0
sVcorpus
p1207
F1.0
sV:
p1208
F1.0
sVgigaword
p1209
F1.0
sVxinhua
p1210
F1.0
sVyork
p1211
F1.0
sVnewswire
p1212
F2.0
sVpress
p1213
F2.0
sVnews
p1214
F2.0
sVT-FLOAT
p1215
F1.0
sVof
p1216
F1.0
sVworldstream
p1217
F1.0
sVenglish
p1218
F4.0
sVthe
p1219
F1.0
saa(lp1220
S'C04-108984'
p1221
a(dp1222
Vthem
p1223
F1.0
sVtexts
p1224
F2.0
sVusing
p1225
F1.0
sVuse
p1226
F1.0
sVcandidate
p1227
F1.0
sVavoid
p1228
F1.0
sVagency
p1229
F1.0
sg41
F1.0
sVparallel
p1230
F1.0
sVto
p1231
F1.0
sVwe
p1232
F1.0
sVxinhua
p1233
F1.0
sVwords
p1234
F1.0
sVnot
p1235
F1.0
sVnews
p1236
F1.0
sVtranslation
p1237
F1.0
sVthe
p1238
F1.0
sVdid
p1239
F1.0
sVof
p1240
F1.0
sVaccidentally
p1241
F1.0
sVenglish
p1242
F1.0
sVT-FLOAT
p1243
F1.0
saa(lp1244
S'C04-108985'
p1245
a(dp1246
Vchinese
p1247
F1.0
sVwithin
p1248
F1.0
sVperiod
p1249
F2.0
sVin
p1250
F2.0
sVits
p1251
F1.0
sVdocuments
p1252
F1.0
sVfor
p1253
F2.0
sVT-INT
p1254
F2.0
sg41
F1.0
sVsame
p1255
F1.0
sVsource
p1256
F1.0
sVcandidates
p1257
F1.0
sVwe
p1258
F1.0
sVwords
p1259
F1.0
sVnews
p1260
F1.0
sVtranslation
p1261
F2.0
sVT-FLOAT
p1262
F3.0
sVoccurring
p1263
F2.0
sg21
F2.0
sVword
p1264
F1.0
sVcandidate
p1265
F1.0
sVlooked
p1266
F1.0
sg591
F2.0
sVhalfmonth
p1267
F1.0
sVenglish
p1268
F1.0
sVthe
p1269
F1.0
saa(lp1270
S'C04-108986'
p1271
a(dp1272
VT-FLOAT
p1273
F1.0
sVservice
p1274
F1.0
sVenglish
p1275
F1.0
saa(lp1276
S'C04-108987'
p1277
a(dp1278
Vand
p1279
F1.0
sVchinese
p1280
F2.0
sVbytes
p1281
F2.0
sVsize
p1282
F2.0
sVfrom
p1283
F2.0
sVto
p1284
F2.0
sg41
F1.0
sVT-INT
p1285
F4.0
sVcorpus
p1286
F2.0
sVwas
p1287
F3.0
sVenglish
p1288
F1.0
sVabout
p1289
F2.0
sVjul
p1290
F2.0
sVT-FLOAT
p1291
F1.0
sg21
F1.0
sg55
F1.0
sVword
p1292
F1.0
sVof
p1293
F2.0
sg203
F2.0
sVcontext
p1294
F1.0
sVcof
p1295
F1.0
sVthe
p1296
F5.0
sVdec
p1297
F2.0
sVcol
p1298
F1.0
saa(lp1299
S'C04-1089140'
p1300
a(dp1301
Vhandle
p1302
F1.0
sVextend
p1303
F1.0
sVthis
p1304
F1.0
sVT-FLOAT
p1305
F1.0
sVis
p1306
F1.0
sVit
p1307
F1.0
sVbut
p1308
F1.0
sVto
p1309
F2.0
sVnot
p1310
F1.0
sVour
p1311
F1.0
sVproblem
p1312
F1.0
sVmethod
p1313
F1.0
sVdifficult
p1314
F1.0
saa(lp1315
S'C04-1089141'
p1316
a(dp1317
g21
F1.0
sVand
p1318
F2.0
sVnamed
p1319
F1.0
sVnoun
p1320
F2.0
sVnames
p1321
F1.0
sVenglish
p1322
F1.0
sVphrases
p1323
F1.0
sVuse
p1324
F1.0
sVwe
p1325
F1.0
sVentity
p1326
F1.0
sVto
p1327
F1.0
sVcan
p1328
F1.0
sVchunker
p1329
F1.0
sVrecognizer
p1330
F1.0
sVphrase
p1331
F1.0
sVT-FLOAT
p1332
F1.0
sVextract
p1333
F1.0
sVfirst
p1334
F1.0
saa(lp1335
S'C04-1089144'
p1336
a(dp1337
Vriods
p1338
F1.0
sVsearch
p1339
F1.0
sVspace
p1340
F1.0
sVthis
p1341
F1.0
sVis
p1342
F1.0
sVdue
p1343
F1.0
sVbut
p1344
F1.0
sVto
p1345
F1.0
sVT-FLOAT
p1346
F1.0
saa(lp1347
S'C04-1089145'
p1348
a(dp1349
Vand
p1350
F1.0
sVfor
p1351
F1.0
sVtranslations
p1352
F1.0
sVcorrect
p1353
F1.0
sVT-INT
p1354
F1.0
sVprogram
p1355
F1.0
sVwords
p1356
F1.0
sVour
p1357
F1.0
sVT-FLOAT
p1358
F1.0
sVfinds
p1359
F1.0
saa(lp1360
S'C04-1089146'
p1361
a(dp1362
Vwe
p1363
F1.0
sV%
p1364
F1.0
sVfor
p1365
F1.0
sVthat
p1366
F1.0
sg7
F1.0
sg8
F1.0
sVis
p1367
F1.0
sg203
F1.0
sVapproximately
p1368
F1.0
sVT-INT
p1369
F5.0
sVso
p1370
F1.0
sV/
p1371
F1.0
sVrecall
p1372
F1.0
sVestimate
p1373
F1.0
sV=
p1374
F2.0
sVT-FLOAT
p1375
F3.0
sVpruning
p1376
F1.0
saa(lp1377
S'C04-1089147'
p1378
a(dp1379
Von
p1380
F1.0
sVwe
p1381
F2.0
sVthen
p1382
F1.0
sVthese
p1383
F1.0
sVtranslations
p1384
F1.0
sVin
p1385
F1.0
sVfind
p1386
F1.0
sVsearching
p1387
F1.0
sVcan
p1388
F1.0
sg41
F1.0
sVto
p1389
F1.0
sVwilling
p1390
F1.0
sVare
p1391
F1.0
sVtime
p1392
F1.0
sVprinciple
p1393
F1.0
sVT-FLOAT
p1394
F1.0
sVmore
p1395
F1.0
sVspend
p1396
F1.0
sVif
p1397
F1.0
saa(lp1398
S'C04-1089148'
p1399
a(dp1400
Vtable
p1401
F1.0
sVT-FLOAT
p1402
F1.0
sVT-INT
p1403
F1.0
saa(lp1404
S'C04-108917'
p1405
a(dp1406
Vand
p1407
F1.0
sVin
p1408
F1.0
sVcomparable
p1409
F1.0
sVpaper
p1410
F1.0
sVcombining
p1411
F1.0
sVT-FLOAT
p1412
F1.0
sVmining
p1413
F1.0
sVinformation
p1414
F1.0
sVfrom
p1415
F1.0
sVfor
p1416
F1.0
sg41
F2.0
sVnew
p1417
F2.0
sVapproach
p1418
F1.0
sVwe
p1419
F1.0
sVpropose
p1420
F1.0
sVtranslations
p1421
F1.0
sVtransliteration
p1422
F1.0
sVby
p1423
F1.0
sg21
F1.0
sVboth
p1424
F1.0
sVtask
p1425
F1.0
sVword
p1426
F1.0
sVthis
p1427
F1.0
sVof
p1428
F1.0
sVcorpora
p1429
F1.0
sVcontext
p1430
F1.0
sVthe
p1431
F1.0
saa(lp1432
S'C04-108916'
p1433
a(dp1434
Vand
p1435
F3.0
sVrapp
p1436
F2.0
sVyee
p1437
F1.0
sVsecond
p1438
F1.0
sVin
p1439
F1.0
sVits
p1440
F1.0
sVto
p1441
F1.0
sg7
F1.0
sg8
F1.0
sg41
F6.0
sVli
p1442
F1.0
sVT-INT
p1443
F5.0
sVother
p1444
F1.0
sg112
F4.0
sVlocate
p1445
F1.0
sVused
p1446
F1.0
sVkoehn
p1447
F1.0
sVcontext
p1448
F1.0
sVhand
p1449
F1.0
sVfung
p1450
F1.0
sVtranslation
p1451
F1.0
sVT-FLOAT
p1452
F1.0
sg21
F1.0
sVon
p1453
F1.0
sVlanguage
p1454
F1.0
sVof
p1455
F2.0
sVwork
p1456
F1.0
sVcao
p1457
F1.0
sg660
F1.0
sVknight
p1458
F1.0
sVthe
p1459
F3.0
saa(lp1460
S'C04-108915'
p1461
a(dp1462
Vand
p1463
F3.0
sVin
p1464
F1.0
sVfor
p1465
F1.0
sg7
F1.0
sg8
F1.0
sg41
F4.0
sVT-INT
p1466
F3.0
sVpronunciation
p1467
F1.0
sValonaizan
p1468
F2.0
sg112
F2.0
sVused
p1469
F1.0
sVgraehl
p1470
F1.0
sVtranslation
p1471
F1.0
sVthe
p1472
F2.0
sg21
F1.0
sVb
p1473
F1.0
sVof
p1474
F2.0
sVwork
p1475
F1.0
sg660
F1.0
sVknight
p1476
F3.0
sVT-FLOAT
p1477
F1.0
sVexample
p1478
F1.0
saa(lp1479
S'C04-108914'
p1480
a(dp1481
Vand
p1482
F1.0
sVneighborhood
p1483
F1.0
sVtwo
p1484
F2.0
sVtranslating
p1485
F1.0
sVsurrounding
p1486
F1.0
sVitself
p1487
F1.0
sVdetermine
p1488
F1.0
sVin
p1489
F1.0
sVits
p1490
F1.0
sVprevious
p1491
F1.0
sVinformation
p1492
F2.0
sg7
F1.0
sg8
F1.0
sVwhen
p1493
F1.0
sg41
F3.0
sVresearch
p1494
F1.0
sVto
p1495
F1.0
sVonly
p1496
F1.0
sg1208
F1.0
sVbe
p1497
F1.0
sVused
p1498
F1.0
sVcontext
p1499
F1.0
sVbut
p1500
F1.0
sVmost
p1501
F1.0
sVconsiders
p1502
F1.0
sVwords
p1503
F1.0
sVnot
p1504
F1.0
sg36
F1.0
sVtranslation
p1505
F1.0
sVone
p1506
F1.0
sVT-FLOAT
p1507
F4.0
sg21
F1.0
sVboth
p1508
F1.0
sVword
p1509
F2.0
sVsources
p1510
F2.0
sg75
F1.0
sVof
p1511
F4.0
sVcan
p1512
F1.0
sg660
F3.0
sVthe
p1513
F5.0
saa(lp1514
S'C04-108913'
p1515
a(dp1516
Vand
p1517
F1.0
sVon
p1518
F1.0
sVcomparable
p1519
F1.0
sVrapp
p1520
F2.0
sVacquiring
p1521
F1.0
sg7
F1.0
sg8
F1.0
sVcorpora
p1522
F1.0
sVtranslations
p1523
F1.0
sg41
F3.0
sVresearch
p1524
F1.0
sVT-INT
p1525
F3.0
sVfung
p1526
F1.0
sVT-FLOAT
p1527
F1.0
sVfrom
p1528
F1.0
sVefforts
p1529
F1.0
sVinclude
p1530
F1.0
sg112
F2.0
sVyee
p1531
F1.0
sVprevious
p1532
F1.0
saa(lp1533
S'C04-108912'
p1534
a(dp1535
Vless
p1536
F1.0
sVbeing
p1537
F1.0
sVthus
p1538
F1.0
sVpast
p1539
F1.0
sVdone
p1540
F1.0
sVare
p1541
F1.0
sVin
p1542
F1.0
sVT-FLOAT
p1543
F1.0
sVresearch
p1544
F1.0
sVrelatively
p1545
F1.0
sVhas
p1546
F1.0
sVfor
p1547
F1.0
sg41
F2.0
sVbeen
p1548
F1.0
sVthan
p1549
F1.0
sVnew
p1550
F1.0
sVreadily
p1551
F1.0
sVmore
p1552
F2.0
sVavailable
p1553
F1.0
sVcomparable
p1554
F2.0
sVtranslations
p1555
F1.0
sValthough
p1556
F1.0
sVword
p1557
F1.0
sVparallel
p1558
F1.0
sVon
p1559
F1.0
sVtask
p1560
F1.0
sVacquiring
p1561
F1.0
sVof
p1562
F1.0
sVcorpora
p1563
F3.0
sVthe
p1564
F2.0
sVsuitable
p1565
F1.0
saa(lp1566
S'C04-108911'
p1567
a(dp1568
Vand
p1569
F1.0
sVmajor
p1570
F1.0
sVin
p1571
F1.0
sVnews
p1572
F2.0
sVreadily
p1573
F1.0
sVdifferent
p1574
F1.0
sVdocuments
p1575
F1.0
sVfor
p1576
F1.0
sg41
F2.0
sVlanguages
p1577
F1.0
sVsource
p1578
F1.0
sVvarious
p1579
F1.0
sVevents
p1580
F1.0
sVavailable
p1581
F1.0
sVcomparable
p1582
F1.0
sVform
p1583
F1.0
sVagencies
p1584
F1.0
sVreport
p1585
F1.0
sVsuch
p1586
F1.0
sg21
F1.0
sVworld
p1587
F1.0
sVof
p1588
F1.0
sVcorpora
p1589
F1.0
sVT-FLOAT
p1590
F1.0
sVexample
p1591
F1.0
saa(lp1592
S'C04-108910'
p1593
a(dp1594
Vcomparable
p1595
F1.0
sVtexts
p1596
F1.0
sVT-FLOAT
p1597
F1.0
sVcorpora
p1598
F1.0
sVdirect
p1599
F1.0
sVbut
p1600
F1.0
sVtopic
p1601
F1.0
sVto
p1602
F1.0
sVthat
p1603
F1.0
sVare
p1604
F2.0
sVsame
p1605
F1.0
sVnot
p1606
F1.0
sVabout
p1607
F1.0
sVtranslation
p1608
F1.0
sVthe
p1609
F1.0
sVrefer
p1610
F1.0
saa(lp1611
S'C04-1089127'
p1612
a(dp1613
VT-FLOAT
p1614
F1.0
sVis
p1615
F1.0
sVthe
p1616
F1.0
sVprecision
p1617
F1.0
saa(lp1618
S'C04-108919'
p1619
a(dp1620
Vand
p1621
F1.0
sVon
p1622
F1.0
sVwe
p1623
F1.0
sVcomparable
p1624
F1.0
sVfully
p1625
F1.0
sVcorpora
p1626
F1.0
sVit
p1627
F1.0
sVtested
p1628
F1.0
sVchineseenglish
p1629
F1.0
sVour
p1630
F1.0
sVT-FLOAT
p1631
F1.0
sVimplemented
p1632
F1.0
sVmethod
p1633
F1.0
saa(lp1634
S'C04-108918'
p1635
a(dp1636
Vjust
p1637
F1.0
sVis
p1638
F1.0
sVsources
p1639
F1.0
sVare
p1640
F1.0
sVour
p1641
F1.0
sVT-FLOAT
p1642
F1.0
sVinformation
p1643
F2.0
sVtransliteration
p1644
F1.0
sVsince
p1645
F1.0
sg41
F1.0
sVbetter
p1646
F1.0
sVcombined
p1647
F1.0
sVapproach
p1648
F1.0
sVaccuracy
p1649
F2.0
sVcomplementary
p1650
F1.0
sValone
p1651
F1.0
sVusing
p1652
F1.0
sVthan
p1653
F1.0
sVboth
p1654
F1.0
sVof
p1655
F3.0
sVcontext
p1656
F1.0
sVthe
p1657
F2.0
sVor
p1658
F1.0
saa(lp1659
S'C04-108999'
p1660
a(dp1661
Vmade
p1662
F1.0
sVthese
p1663
F1.0
sVup
p1664
F1.0
sVset
p1665
F1.0
sVwords
p1666
F1.0
sVtest
p1667
F1.0
sVour
p1668
F1.0
sVT-FLOAT
p1669
F1.0
saa(lp1670
S'C04-108998'
p1671
a(dp1672
Vamong
p1673
F1.0
sVpreceded
p1674
F1.0
sVchinese
p1675
F2.0
sVappeared
p1676
F1.0
sVperiod
p1677
F2.0
sVperiods
p1678
F1.0
sVall
p1679
F1.0
sVin
p1680
F2.0
sVT-FLOAT
p1681
F3.0
sVany
p1682
F1.0
sVthese
p1683
F1.0
sVfrom
p1684
F1.0
sVT-INT
p1685
F2.0
sVselected
p1686
F1.0
sVhalf-month
p1687
F1.0
sg41
F2.0
sVleast
p1688
F1.0
sVjan
p1689
F1.0
sVto
p1690
F2.0
sVother
p1691
F1.0
sVnew
p1692
F3.0
sVrefer
p1693
F1.0
sVthen
p1694
F1.0
sVwe
p1695
F3.0
sVthat
p1696
F2.0
sVjun
p1697
F1.0
sVbut
p1698
F1.0
sVwords
p1699
F4.0
sVnot
p1700
F1.0
sVby
p1701
F1.0
sVthose
p1702
F2.0
sVoccurring
p1703
F1.0
sVthis
p1704
F1.0
sVtimes
p1705
F1.0
sg591
F3.0
sVdetermined
p1706
F1.0
sVeach
p1707
F1.0
sVthe
p1708
F1.0
sVor
p1709
F1.0
sVat
p1710
F1.0
saa(lp1711
S'C04-108997'
p1712
a(dp1713
Vand
p1714
F1.0
sVall
p1715
F1.0
sVchinese
p1716
F3.0
sVtext
p1717
F1.0
sVinto
p1718
F1.0
sVcalcu
p1719
F1.0
sVan
p1720
F1.0
sVas
p1721
F1.0
sVperiods
p1722
F1.0
sVin
p1723
F1.0
sVestimated
p1724
F1.0
sVits
p1725
F1.0
sVcontaining
p1726
F1.0
sVfrom
p1727
F2.0
sVT-INT
p1728
F2.0
sVfor
p1729
F2.0
sVto
p1730
F2.0
sg7
F2.0
sg8
F3.0
sVdivided
p1731
F1.0
sVhalf-month
p1732
F1.0
sg41
F3.0
sVsource
p1733
F2.0
sVcorpus
p1734
F1.0
sVthen
p1735
F1.0
sVwe
p1736
F3.0
sVeach
p1737
F3.0
sVjul
p1738
F1.0
sVperiod
p1739
F1.0
sVprobability
p1740
F1.0
sVranked
p1741
F1.0
sVwords
p1742
F1.0
sg36
F2.0
sVtranslation
p1743
F2.0
sVT-FLOAT
p1744
F2.0
sg21
F1.0
sValso
p1745
F1.0
sg55
F4.0
sVword
p1746
F3.0
sVcandidate
p1747
F2.0
sVdescribed
p1748
F1.0
sVaccording
p1749
F1.0
sVlated
p1750
F1.0
sg591
F2.0
sVenglish
p1751
F2.0
sVthe
p1752
F3.0
sVdec
p1753
F1.0
sg598
F2.0
saa(lp1754
S'C04-108996'
p1755
a(dp1756
Vand
p1757
F1.0
sVword
p1758
F2.0
sVfor
p1759
F1.0
sVchinese
p1760
F1.0
sVof
p1761
F1.0
sVenglish
p1762
F1.0
sVsource
p1763
F1.0
sVeach
p1764
F1.0
sVpair
p1765
F1.0
sVcandidate
p1766
F1.0
sVtranslation
p1767
F1.0
sVT-FLOAT
p1768
F1.0
saa(lp1769
S'C04-108995'
p1770
a(dp1771
Vand
p1772
F1.0
sVchinese
p1773
F2.0
sVtext
p1774
F1.0
sVentropy
p1775
F1.0
sVbased
p1776
F1.0
sg7
F1.0
sg8
F1.0
sg41
F1.0
sVng
p1777
F1.0
sVT-INT
p1778
F1.0
sVlow
p1779
F1.0
sVwas
p1780
F1.0
sVwe
p1781
F1.0
sVthat
p1782
F1.0
sVmodeling
p1783
F1.0
sVwith
p1784
F1.0
sg21
F1.0
sVon
p1785
F1.0
sVword
p1786
F1.0
sVsegmenter
p1787
F1.0
sVmaximum
p1788
F1.0
sVsegmented
p1789
F1.0
sVso
p1790
F1.0
sVT-FLOAT
p1791
F1.0
sVfirst
p1792
F1.0
saa(lp1793
S'C04-108994'
p1794
a(dp1795
Vcomposed
p1796
F1.0
sVunlike
p1797
F1.0
sVchinese
p1798
F2.0
sVno
p1799
F1.0
sVtext
p1800
F1.0
sVis
p1801
F1.0
sVof
p1802
F1.0
sVwords
p1803
F1.0
sg41
F1.0
sVfor
p1804
F1.0
sVdemarcation
p1805
F1.0
sVcharacters
p1806
F1.0
sVenglish
p1807
F1.0
sVT-FLOAT
p1808
F1.0
sVwith
p1809
F1.0
saa(lp1810
S'C04-108993'
p1811
a(dp1812
Vall
p1813
F1.0
sVmated
p1814
F1.0
sVesti
p1815
F1.0
sVas
p1816
F1.0
sVin
p1817
F1.0
sVcounts
p1818
F1.0
sVsize
p1819
F1.0
sVdescribed
p1820
F1.0
sg7
F1.0
sg8
F1.0
sVsection
p1821
F1.0
sg41
F2.0
sVT-INT
p1822
F4.0
sVwindow
p1823
F1.0
sVcollected
p1824
F1.0
sVwas
p1825
F1.0
sVwe
p1826
F1.0
sVafter
p1827
F1.0
sVpreprocessing
p1828
F1.0
sVwords
p1829
F1.0
sVT-FLOAT
p1830
F3.0
sg55
F2.0
sVenglish
p1831
F1.0
sVof
p1832
F1.0
sg591
F1.0
sVcontext
p1833
F1.0
sVwere
p1834
F1.0
sVthe
p1835
F2.0
sg598
F1.0
saa(lp1836
S'C04-108992'
p1837
a(dp1838
Vall
p1839
F1.0
sVan
p1840
F1.0
sVoccurrences
p1841
F1.0
sVcandidate
p1842
F1.0
sVsimilarly
p1843
F1.0
sg41
F2.0
sVto
p1844
F1.0
sVcollected
p1845
F1.0
sVwas
p1846
F1.0
sVthen
p1847
F1.0
sVform
p1848
F1.0
sVconcatenated
p1849
F1.0
sVwere
p1850
F1.0
sg36
F1.0
sVtranslation
p1851
F1.0
sVT-FLOAT
p1852
F2.0
sg21
F1.0
sg55
F3.0
sVword
p1853
F2.0
sVcontexts
p1854
F1.0
sVof
p1855
F3.0
sVtogether
p1856
F1.0
sVcontext
p1857
F1.0
sVenglish
p1858
F1.0
sVthe
p1859
F2.0
saa(lp1860
S'C04-108991'
p1861
a(dp1862
Vall
p1863
F1.0
sVset
p1864
F1.0
sVoccurrence
p1865
F1.0
sVchinese
p1866
F1.0
sVas
p1867
F1.0
sVat
p1868
F1.0
sVin
p1869
F2.0
sVsize
p1870
F1.0
sVfor
p1871
F1.0
sg41
F1.0
sVT-INT
p1872
F1.0
sVwindow
p1873
F1.0
sg1208
F1.0
sVwe
p1874
F3.0
sVused
p1875
F1.0
sVdictionary
p1876
F1.0
sVthat
p1877
F1.0
sVcentered
p1878
F1.0
sVlected
p1879
F1.0
sVeach
p1880
F1.0
sVwere
p1881
F1.0
sVcharacters
p1882
F1.0
sVnot
p1883
F1.0
sVthe
p1884
F3.0
sg21
F1.0
sg55
F2.0
sVfollows
p1885
F1.0
sVdiscarded
p1886
F1.0
sVcontext
p1887
F1.0
sVof
p1888
F2.0
sVT-FLOAT
p1889
F2.0
sVwords
p1890
F1.0
saa(lp1891
S'C04-108990'
p1892
a(dp1893
g21
F1.0
sVem
p1894
F1.0
sVwe
p1895
F1.0
sVused
p1896
F1.0
sVname
p1897
F1.0
sVfor
p1898
F1.0
sVof
p1899
F1.0
sVlist
p1900
F1.0
sg41
F1.0
sVT-INT
p1901
F2.0
sVas
p1902
F1.0
sVchineseenglish
p1903
F1.0
sVT-FLOAT
p1904
F1.0
sVtraining
p1905
F1.0
sVpairs
p1906
F1.0
sVthe
p1907
F1.0
sVdata
p1908
F1.0
sValgorithm
p1909
F1.0
saa(lp1910
S'C04-1089175'
p1911
a(dp1912
Vem
p1913
F1.0
sVwe
p1914
F1.0
sVtransliteration
p1915
F1.0
sVthank
p1916
F1.0
sVfor
p1917
F1.0
sVjia
p1918
F1.0
sVprobabilities
p1919
F1.0
sVli
p1920
F1.0
sVimplementing
p1921
F1.0
sVtrain
p1922
F1.0
sValgorithm
p1923
F1.0
sVthe
p1924
F1.0
sVT-FLOAT
p1925
F1.0
sVto
p1926
F1.0
saa(lp1927
S'C04-1089174'
p1928
a(dp1929
Vand
p1930
F1.0
sVon
p1931
F1.0
sVwe
p1932
F1.0
sVmonths
p1933
F1.0
sVchinese
p1934
F1.0
sVwith
p1935
F1.0
sVof
p1936
F1.0
sVsix
p1937
F1.0
sVresults
p1938
F1.0
sg41
F1.0
sVevaluated
p1939
F1.0
sVencouraging
p1940
F1.0
sVenglish
p1941
F1.0
sVgigaword
p1942
F1.0
sVour
p1943
F1.0
sVT-FLOAT
p1944
F1.0
sVcorpora
p1945
F1.0
sVapproach
p1946
F1.0
saa(lp1947
S'C04-1089176'
p1948
a(dp1949
g21
F1.0
sVacademic
p1950
F1.0
sVfrom
p1951
F1.0
sVuniversity
p1952
F1.0
sVsingapore
p1953
F1.0
sVgrant
p1954
F1.0
sVthis
p1955
F1.0
sVof
p1956
F1.0
sVis
p1957
F1.0
sVsupported
p1958
F1.0
sVfund
p1959
F1.0
sVresearch
p1960
F3.0
sVT-INT
p1961
F2.0
sVr
p1962
F1.0
sVnational
p1963
F1.0
sVT-FLOAT
p1964
F1.0
sVby
p1965
F1.0
sVpartially
p1966
F1.0
saa(lp1967
S'C04-1089171'
p1968
a(dp1969
Vand
p1970
F1.0
sVinformation
p1971
F1.0
sVuse
p1972
F1.0
sVmade
p1973
F1.0
sVpart-ofspeech
p1974
F1.0
sVnot
p1975
F1.0
sVof
p1976
F1.0
sVwhereas
p1977
F1.0
sVtagging
p1978
F1.0
sVit
p1979
F1.0
sg41
F1.0
sValso
p1980
F1.0
sVtag
p1981
F1.0
sVdoes
p1982
F1.0
sVpart-of-speech
p1983
F1.0
sVour
p1984
F1.0
sVT-FLOAT
p1985
F1.0
sVrequire
p1986
F1.0
sVmethod
p1987
F1.0
sVis
p1988
F1.0
sVsimpler
p1989
F1.0
saa(lp1990
S'C04-1089170'
p1991
a(dp1992
Vmeasuring
p1993
F1.0
sVdifferent
p1994
F1.0
sVsemantic
p1995
F1.0
sVto
p1996
F1.0
sVlanguage
p1997
F1.0
sVsimilarity
p1998
F2.0
sVis
p1999
F1.0
sVtheir
p2000
F1.0
sVmodeling
p2001
F1.0
sVcontext
p2002
F1.0
sVour
p2003
F1.0
sVfrom
p2004
F1.0
sVmodel
p2005
F1.0
sVapproach
p2006
F1.0
sVT-FLOAT
p2007
F1.0
sVcontextual
p2008
F1.0
saa(lp2009
S'C04-1089173'
p2010
a(dp2011
Vand
p2012
F1.0
sVproposed
p2013
F1.0
sVin
p2014
F1.0
sVmine
p2015
F1.0
sVsources
p2016
F1.0
sVpaper
p2017
F1.0
sVare
p2018
F1.0
sVcombining
p2019
F1.0
sVinformation
p2020
F2.0
sVtransliteration
p2021
F1.0
sVcomparable
p2022
F1.0
sg41
F3.0
sVto
p2023
F1.0
sVwhich
p2024
F1.0
sVnew
p2025
F2.0
sVmethod
p2026
F1.0
sVwe
p2027
F1.0
sVcomplementary
p2028
F1.0
sVtranslations
p2029
F1.0
sVfrom
p2030
F1.0
sVby
p2031
F1.0
sg21
F1.0
sVword
p2032
F1.0
sVthis
p2033
F1.0
sVof
p2034
F1.0
sVcorpora
p2035
F1.0
sVcontext
p2036
F1.0
sVT-FLOAT
p2037
F1.0
saa(lp2038
S'C04-1089172'
p2039
a(dp2040
Vinformation
p2041
F1.0
sVwe
p2042
F1.0
sVmade
p2043
F1.0
sVcombination
p2044
F1.0
sVfor
p2045
F1.0
sVweighting
p2046
F1.0
sVof
p2047
F2.0
sVwhereas
p2048
F1.0
sVuse
p2049
F1.0
sVtwo
p2050
F2.0
sVrank
p2051
F1.0
sg41
F1.0
sVsources
p2052
F1.0
sVT-FLOAT
p2053
F1.0
sVindividual
p2054
F1.0
sVcombined
p2055
F1.0
sVthey
p2056
F1.0
sVscores
p2057
F1.0
sVaverage
p2058
F1.0
sVthe
p2059
F3.0
sVby
p2060
F1.0
saa(lp2061
S'C04-108960'
p2062
a(dp2063
Vith
p2064
F1.0
sVsequence
p2065
F1.0
sVof
p2066
F1.0
sVis
p2067
F2.0
sVenglish
p2068
F1.0
sg41
F1.0
sVli
p2069
F1.0
sVapi
p2070
F1.0
sVletter
p2071
F1.0
sVpinyin
p2072
F1.0
sVble
p2073
F1.0
sVthe
p2074
F2.0
sVestimation
p2075
F1.0
sVsylla
p2076
F1.0
sVT-FLOAT
p2077
F1.0
saa(lp2078
S'C04-108966'
p2079
a(dp2080
Vmated
p2081
F1.0
sVchinese
p2082
F1.0
sVsequence
p2083
F1.0
sVis
p2084
F3.0
sVnumber
p2085
F1.0
sVan
p2086
F2.0
sVmates
p2087
F1.0
sVoccurrences
p2088
F1.0
sVanother
p2089
F1.0
sVin
p2090
F3.0
sVT-FLOAT
p2091
F1.0
sVcounting
p2092
F1.0
sVtranslation
p2093
F1.0
sVif
p2094
F1.0
sVsimilarly
p2095
F1.0
sg7
F5.0
sg8
F5.0
sg41
F4.0
sVT-INT
p2096
F3.0
sVpinyin
p2097
F1.0
sVcorpus
p2098
F1.0
sVtc
p2099
F5.0
sVthen
p2100
F1.0
sVto
p2101
F1.0
sVthat
p2102
F1.0
sVsyllable
p2103
F1.0
sVsequenc
p2104
F1.0
sVmapped
p2105
F1.0
sVoccurre
p2106
F1.0
sVterm
p2107
F1.0
sVesti
p2108
F1.0
sVletter
p2109
F2.0
sVword
p2110
F1.0
sVdt
p2111
F1.0
sVby
p2112
F1.0
sg55
F2.0
sg36
F5.0
sVof
p2113
F4.0
sVnces
p2114
F1.0
sVs
p2115
F1.0
sVenglish
p2116
F4.0
sVandpml
p2117
F1.0
sVthe
p2118
F6.0
sVwhole
p2119
F1.0
sVprecede
p2120
F1.0
saa(lp2121
S'C04-108964'
p2122
a(dp2123
Valso
p2124
F1.0
sVT-FLOAT
p2125
F1.0
saa(lp2126
S'C04-108965'
p2127
a(dp2128
Vdo
p2129
F1.0
sVwe
p2130
F1.0
sVgs
p2131
F1.0
sVmappin
p2132
F1.0
sVcross
p2133
F1.0
sVallow
p2134
F1.0
sVnot
p2135
F1.0
sVT-FLOAT
p2136
F1.0
saa(lp2137
S'C04-108968'
p2138
a(dp2139
Vand
p2140
F5.0
sVal
p2141
F1.0
sVin
p2142
F2.0
sVdiffers
p2143
F1.0
sVour
p2144
F2.0
sVing
p2145
F1.0
sVappearmodel
p2146
F1.0
sVuse
p2147
F1.0
sVfrom
p2148
F1.0
sVfor
p2149
F2.0
sVto
p2150
F1.0
sg7
F4.0
sg8
F5.0
sg41
F4.0
sVgenerate
p2151
F1.0
sVT-INT
p2152
F4.0
sVonly
p2153
F1.0
sVdoes
p2154
F1.0
sVcandidates
p2155
F2.0
sVestimatesp
p2156
F1.0
sValonaizan
p2157
F1.0
sVcorpus
p2158
F1.0
sVmethod
p2159
F2.0
sVmodel
p2160
F1.0
sVwe
p2161
F1.0
sVthat
p2162
F1.0
sVsyllable
p2163
F1.0
sVpinyin
p2164
F1.0
sVof
p2165
F1.0
sVbut
p2166
F1.0
sg1473
F1.0
sVnot
p2167
F1.0
sVtransliteration
p2168
F1.0
sVthe
p2169
F3.0
sVmust
p2170
F1.0
sg21
F1.0
sg55
F1.0
sVgraehl
p2171
F2.0
sg36
F3.0
sVenglish
p2172
F1.0
sVknight
p2173
F3.0
sVmodified
p2174
F1.0
sg598
F1.0
sVmapped
p2175
F1.0
sVT-FLOAT
p2176
F2.0
sVprecede
p2177
F1.0
saa(lp2178
S'C04-108969'
p2179
a(dp2180
Vand
p2181
F1.0
sg1473
F1.0
sVonaizan
p2182
F1.0
sg7
F1.0
sVknight
p2183
F1.0
sVis
p2184
F1.0
sg41
F1.0
sVT-INT
p2185
F1.0
sVanother
p2186
F1.0
sVT-FLOAT
p2187
F1.0
sVdifference
p2188
F1.0
saa(lp2189
S'C04-108971'
p2190
a(dp2191
g21
F1.0
sVand
p2192
F1.0
sVtask
p2193
F1.0
sVword
p2194
F1.0
sVtarget
p2195
F1.0
sVlanguage
p2196
F1.0
sVour
p2197
F1.0
sVthis
p2198
F1.0
sg8
F1.0
sVis
p2199
F1.0
sVenglish
p2200
F1.0
sg41
F2.0
sg75
F1.0
sVwritten
p2201
F1.0
sVpronounced
p2202
F1.0
sVT-FLOAT
p2203
F3.0
sVin
p2204
F3.0
sg36
F1.0
sVmodel
p2205
F1.0
sVthe
p2206
F1.0
sg7
F1.0
saa(lp2207
S'C04-108970'
p2208
a(dp2209
Vand
p2210
F1.0
sg21
F1.0
sVgraehl
p2211
F1.0
sVtransliteration
p2212
F1.0
sVfor
p2213
F1.0
sVproposed
p2214
F1.0
sVknight
p2215
F1.0
sVmachine
p2216
F1.0
sVmodel
p2217
F1.0
sVprobabilistic
p2218
F1.0
sVT-FLOAT
p2219
F1.0
saa(lp2220
S'C04-108973'
p2221
a(dp2222
VT-INT
p2223
F2.0
sVT-FLOAT
p2224
F2.0
sVresources
p2225
F1.0
saa(lp2226
S'C04-108972'
p2227
a(dp2228
Vand
p2229
F2.0
sVis
p2230
F1.0
sVestimates
p2231
F1.0
sVour
p2232
F1.0
sVto
p2233
F2.0
sg7
F1.0
sg8
F1.0
sVsource
p2234
F2.0
sVpronunciation
p2235
F2.0
sVmethod
p2236
F1.0
sVthen
p2237
F1.0
sVthat
p2238
F1.0
sg36
F1.0
sg55
F1.0
sVword
p2239
F1.0
sVlanguage
p2240
F2.0
sVthis
p2241
F1.0
sVof
p2242
F1.0
sg591
F2.0
sVconverted
p2243
F1.0
sVstead
p2244
F1.0
sVT-FLOAT
p2245
F1.0
sg598
F1.0
saa(lp2246
S'C04-108975'
p2247
a(dp2248
Vand
p2249
F2.0
sVsuggested
p2250
F1.0
sVskipped
p2251
F1.0
sVletters
p2252
F2.0
sVtarget
p2253
F1.0
sVlanguage
p2254
F2.0
sVthat
p2255
F1.0
sVknight
p2256
F1.0
sVT-FLOAT
p2257
F1.0
sVto
p2258
F1.0
sVpronunciation
p2259
F1.0
sVcan
p2260
F2.0
sVdirectly
p2261
F1.0
sVmapped
p2262
F1.0
sValonaizan
p2263
F1.0
sVbe
p2264
F2.0
sVthe
p2265
F1.0
sVsource
p2266
F1.0
saa(lp2267
S'C04-108974'
p2268
a(dp2269
g55
F1.0
sVtask
p2270
F1.0
sg36
F2.0
sg75
F1.0
sVchinese
p2271
F1.0
sg7
F2.0
sg8
F2.0
sg41
F2.0
sg591
F1.0
sVdirectly
p2272
F1.0
sVin
p2273
F2.0
sVour
p2274
F1.0
sVT-FLOAT
p2275
F3.0
sg598
F1.0
saa(lp2276
S'C04-108977'
p2277
a(dp2278
Vphonetic-based
p2279
F1.0
sVT-FLOAT
p2280
F1.0
sVis
p2281
F1.0
sVit
p2282
F1.0
saa(lp2283
S'C04-108976'
p2284
a(dp2285
Vchinese
p2286
F1.0
sVpinyin
p2287
F1.0
sVis
p2288
F1.0
sVsystem
p2289
F1.0
sVstandard
p2290
F1.0
sVromanization
p2291
F1.0
sVcharacters
p2292
F1.0
sVof
p2293
F1.0
sVthe
p2294
F1.0
sVT-FLOAT
p2295
F1.0
saa(lp2296
S'C04-108979'
p2297
a(dp2298
Vchinese
p2299
F1.0
sVinto
p2300
F1.0
sVperiod
p2301
F1.0
sVfor
p2302
F1.0
sVto
p2303
F2.0
sVcome
p2304
F1.0
sVT-INT
p2305
F1.0
sVnew
p2306
F1.0
sVcorpus
p2307
F1.0
sVwas
p2308
F1.0
sVused
p2309
F1.0
sVjul
p2310
F1.0
sVwords
p2311
F1.0
sVtranslation
p2312
F1.0
sVwith
p2313
F1.0
sVthe
p2314
F2.0
sg55
F1.0
sVof
p2315
F1.0
sVup
p2316
F1.0
sVenglish
p2317
F1.0
sVT-FLOAT
p2318
F1.0
sVdec
p2319
F1.0
saa(lp2320
S'C04-108944'
p2321
a(dp2322
Vand
p2323
F2.0
sVek
p2324
F1.0
sVis
p2325
F1.0
sVap
p2326
F1.0
sVas
p2327
F1.0
sVin
p2328
F3.0
sVquery
p2329
F1.0
sVT-FLOAT
p2330
F2.0
sVtop
p2331
F1.0
sg41
F3.0
sVby
p2332
F1.0
sVT-INT
p2333
F2.0
sVdocument
p2334
F1.0
sVmodel
p2335
F1.0
sVwe
p2336
F1.0
sVterms
p2337
F1.0
sVthat
p2338
F2.0
sVmultinomial
p2339
F1.0
sVpear
p2340
F1.0
sVlists
p2341
F2.0
sVgenerated
p2342
F1.0
sVwords
p2343
F1.0
sVdistribution
p2344
F1.0
sg21
F1.0
sVboth
p2345
F2.0
sg1208
F1.0
sg36
F1.0
sg600
F1.0
sVassume
p2346
F1.0
sVof
p2347
F1.0
sVfinde
p2348
F1.0
sg203
F1.0
sg590
F1.0
sVthis
p2349
F1.0
sVpositions
p2350
F1.0
sVthe
p2351
F1.0
sVview
p2352
F1.0
saa(lp2353
S'C04-108945'
p2354
a(dp2355
V!
p2356
F1.0
sVthen
p2357
F1.0
sVwe
p2358
F1.0
sVn
p2359
F1.0
saa(lp2360
S'C04-1089168'
p2361
a(dp2362
g41
F1.0
sg7
F1.0
sVto
p2363
F1.0
sVthat
p2364
F1.0
sVet
p2365
F1.0
sVof
p2366
F1.0
sVis
p2367
F2.0
sVwork
p2368
F1.0
sVal
p2369
F1.0
sVT-INT
p2370
F1.0
sVresearch
p2371
F1.0
sVmost
p2372
F1.0
sVhuang
p2373
F1.0
sg8
F1.0
sVours
p2374
F1.0
sVthe
p2375
F2.0
sVsimilar
p2376
F1.0
sVT-FLOAT
p2377
F2.0
sVrecent
p2378
F1.0
saa(lp2379
S'C04-1089169'
p2380
a(dp2381
Vand
p2382
F1.0
sVinformation
p2383
F1.0
sVnamed
p2384
F1.0
sVsemantic
p2385
F1.0
sVattempted
p2386
F1.0
sVentity
p2387
F1.0
sVto
p2388
F1.0
sVT-FLOAT
p2389
F1.0
sVthey
p2390
F1.0
sVcombining
p2391
F1.0
sVphonetic
p2392
F1.0
sVtranslation
p2393
F1.0
sVby
p2394
F1.0
sVimprove
p2395
F1.0
saa(lp2396
S'C04-108940'
p2397
a(dp2398
g21
F1.0
sVscore
p2399
F1.0
sVcandidate
p2400
F2.0
sVof
p2401
F1.0
sVparticular
p2402
F1.0
sVlist
p2403
F1.0
sg41
F1.0
sVmethod
p2404
F1.0
sVT-FLOAT
p2405
F1.0
sVranked
p2406
F1.0
sVassociating
p2407
F1.0
sVwords
p2408
F1.0
sVeach
p2409
F1.0
sVthe
p2410
F1.0
sVestimated
p2411
F1.0
sVwith
p2412
F1.0
sVby
p2413
F1.0
saa(lp2414
S'C04-108941'
p2415
a(dp2416
Vchinese
p2417
F1.0
sVbe
p2418
F1.0
sVindeed
p2419
F1.0
sVis
p2420
F1.0
sVgeneral
p2421
F1.0
sVhigh
p2422
F1.0
sVexpect
p2423
F1.0
sVin
p2424
F4.0
sVif
p2425
F1.0
sVwould
p2426
F1.0
sg41
F1.0
sVto
p2427
F1.0
sVthen
p2428
F1.0
sVwe
p2429
F1.0
sVvery
p2430
F1.0
sVlists
p2431
F1.0
sVranked
p2432
F1.0
sVword
p2433
F2.0
sVtranslation
p2434
F1.0
sVT-FLOAT
p2435
F1.0
sg21
F2.0
sVboth
p2436
F1.0
sg55
F1.0
sg36
F2.0
sVof
p2437
F1.0
sVenglish
p2438
F1.0
sVthe
p2439
F1.0
saa(lp2440
S'C04-108942'
p2441
a(dp2442
Vand
p2443
F1.0
sVadopt
p2444
F1.0
sVgive
p2445
F1.0
sVis
p2446
F1.0
sVir
p2447
F1.0
sVas
p2448
F1.0
sVbeen
p2449
F1.0
sVin
p2450
F1.0
sVour
p2451
F2.0
sVT-FLOAT
p2452
F1.0
sVwork
p2453
F1.0
sVsuperior
p2454
F1.0
sVshown
p2455
F1.0
sVcompared
p2456
F1.0
sVcroft
p2457
F1.0
sg622
F1.0
sg7
F1.0
sg8
F1.0
sVtop
p2458
F1.0
sVponte
p2459
F1.0
sg41
F5.0
sVspecifically
p2460
F1.0
sVng
p2461
F1.0
sVcurrent
p2462
F1.0
sVto
p2463
F2.0
sVperformance
p2464
F1.0
sg112
F1.0
sVhas
p2465
F1.0
sVapproach
p2466
F2.0
sVmethod
p2467
F1.0
sVmodel
p2468
F1.0
sVwe
p2469
F2.0
sVcombination
p2470
F1.0
sVmodeling
p2471
F1.0
sVwith
p2472
F1.0
sVT-INT
p2473
F2.0
sg1208
F1.0
sVlanguage
p2474
F1.0
sVthis
p2475
F1.0
sVfollows
p2476
F1.0
sVspace
p2477
F1.0
sg203
F1.0
sVexamine
p2478
F1.0
sVtraditional
p2479
F1.0
sVvector
p2480
F1.0
sVthe
p2481
F2.0
sVretrieval
p2482
F1.0
saa(lp2483
S'C04-108943'
p2484
a(dp2485
Vthe
p2486
F1.0
sVwe
p2487
F1.0
sg600
F1.0
sg591
F1.0
sg7
F2.0
sg8
F2.0
sVuse
p2488
F1.0
sg41
F2.0
sVng
p2489
F1.0
sg590
F1.0
sVto
p2490
F1.0
sVT-FLOAT
p2491
F1.0
sVof
p2492
F1.0
sVestimate
p2493
F1.0
sVapproach
p2494
F1.0
sg598
F1.0
sVT-INT
p2495
F1.0
saa(lp2496
S'C04-1089162'
p2497
a(dp2498
Vpointed
p2499
F1.0
sVsources
p2500
F1.0
sVas
p2501
F1.0
sVin
p2502
F1.0
sVconsiders
p2503
F1.0
sVprevious
p2504
F1.0
sVinformation
p2505
F2.0
sVtransliteration
p2506
F1.0
sg41
F2.0
sVresearch
p2507
F1.0
sVsource
p2508
F1.0
sVonly
p2509
F1.0
sVout
p2510
F1.0
sg660
F1.0
sVearlier
p2511
F1.0
sVbut
p2512
F1.0
sVmost
p2513
F1.0
sVnot
p2514
F1.0
sVtranslation
p2515
F1.0
sVT-FLOAT
p2516
F1.0
sg21
F1.0
sVboth
p2517
F1.0
sVword
p2518
F1.0
sVlanguage
p2519
F1.0
sVdetermining
p2520
F1.0
sVeither
p2521
F1.0
sVcontext
p2522
F1.0
sVof
p2523
F2.0
sVthe
p2524
F1.0
sVor
p2525
F1.0
saa(lp2526
S'C04-1089163'
p2527
a(dp2528
Vand
p2529
F3.0
sVin
p2530
F1.0
sVpronunciation
p2531
F1.0
sVtranslation
p2532
F1.0
sVfor
p2533
F1.0
sg7
F1.0
sg8
F1.0
sg41
F4.0
sVT-INT
p2534
F3.0
sVonly
p2535
F1.0
sValonaizan
p2536
F2.0
sg112
F2.0
sVused
p2537
F1.0
sVgraehl
p2538
F1.0
sVspelling
p2539
F1.0
sVT-FLOAT
p2540
F1.0
sg21
F1.0
sg1473
F1.0
sVof
p2541
F2.0
sVwork
p2542
F1.0
sVexample
p2543
F1.0
sg660
F1.0
sVknight
p2544
F3.0
sVthe
p2545
F2.0
sVor
p2546
F1.0
saa(lp2547
S'C04-1089161'
p2548
a(dp2549
Voutperforms
p2550
F1.0
sVboth
p2551
F1.0
sVinformation
p2552
F2.0
sVof
p2553
F2.0
sg41
F1.0
sVsources
p2554
F1.0
sVeither
p2555
F1.0
sVusing
p2556
F2.0
sVhence
p2557
F1.0
sVour
p2558
F1.0
sVT-FLOAT
p2559
F1.0
sValone
p2560
F1.0
sVmethod
p2561
F1.0
sVsource
p2562
F1.0
saa(lp2563
S'C04-108948'
p2564
a(dp2565
Vboth
p2566
F1.0
sVappear
p2567
F1.0
sVno
p2568
F2.0
sVpositions
p2569
F1.0
sVtop
p2570
F1.0
sVwithin
p2571
F1.0
sg203
F1.0
sg41
F1.0
sVlists
p2572
F1.0
sVoutput
p2573
F1.0
sVT-FLOAT
p2574
F1.0
sVwords
p2575
F1.0
sVin
p2576
F1.0
sVtranslation
p2577
F1.0
sVthe
p2578
F1.0
sVthen
p2579
F1.0
sVis
p2580
F1.0
sVif
p2581
F1.0
saa(lp2582
S'C04-108949'
p2583
a(dp2584
Vis
p2585
F1.0
sVwe
p2586
F1.0
sVexist
p2587
F1.0
sVare
p2588
F1.0
sVin
p2589
F1.0
sVsince
p2590
F1.0
sg41
F1.0
sVdoes
p2591
F1.0
sVnew
p2592
F1.0
sVcorpus
p2593
F1.0
sVcomparable
p2594
F1.0
sVthat
p2595
F1.0
sVpossible
p2596
F1.0
sVit
p2597
F1.0
sVnot
p2598
F1.0
sVusing
p2599
F1.0
sVtranslation
p2600
F1.0
sVT-FLOAT
p2601
F1.0
sg21
F1.0
sVword
p2602
F1.0
sVtarget
p2603
F1.0
sVof
p2604
F1.0
sVcorpora
p2605
F1.0
sVthe
p2606
F2.0
saa(lp2607
S'C04-1089164'
p2608
a(dp2609
Vand
p2610
F2.0
sVrapp
p2611
F2.0
sVyee
p2612
F1.0
sVsecond
p2613
F1.0
sVin
p2614
F1.0
sVits
p2615
F1.0
sVT-INT
p2616
F4.0
sg7
F1.0
sg8
F1.0
sg41
F5.0
sVli
p2617
F1.0
sVto
p2618
F1.0
sVonly
p2619
F1.0
sVother
p2620
F1.0
sg112
F3.0
sVlocate
p2621
F1.0
sVused
p2622
F1.0
sVcontext
p2623
F1.0
sVhand
p2624
F1.0
sVfung
p2625
F1.0
sVtranslation
p2626
F1.0
sVT-FLOAT
p2627
F1.0
sg21
F1.0
sVon
p2628
F1.0
sVlanguage
p2629
F1.0
sVof
p2630
F2.0
sVwork
p2631
F1.0
sVcao
p2632
F1.0
sg660
F1.0
sVthe
p2633
F3.0
saa(lp2634
S'C04-1089165'
p2635
a(dp2636
Vsources
p2637
F1.0
sVattempts
p2638
F1.0
sVin
p2639
F1.0
sVour
p2640
F1.0
sVinformation
p2641
F2.0
sVto
p2642
F1.0
sg41
F2.0
sVcurrent
p2643
F1.0
sVsource
p2644
F1.0
sVcombine
p2645
F1.0
sVcontrast
p2646
F1.0
sVaccuracy
p2647
F1.0
sVcomplementary
p2648
F1.0
sValone
p2649
F1.0
sVusing
p2650
F1.0
sVthan
p2651
F1.0
sVboth
p2652
F1.0
sVof
p2653
F2.0
sVwork
p2654
F1.0
sVyielding
p2655
F1.0
sVeither
p2656
F1.0
sVT-FLOAT
p2657
F1.0
sVhigher
p2658
F1.0
saa(lp2659
S'C04-1089134'
p2660
a(dp2661
Vand
p2662
F2.0
sValone
p2663
F1.0
sVdirectly
p2664
F1.0
sVinformation
p2665
F1.0
sVuse
p2666
F1.0
sVtransliteration
p2667
F1.0
sVsimilarly
p2668
F1.0
sg7
F1.0
sg8
F1.0
sg41
F1.0
sVT-INT
p2669
F2.0
sVonly
p2670
F1.0
sValonaizan
p2671
F1.0
sg112
F1.0
sVwas
p2672
F1.0
sVcomparable
p2673
F1.0
sVmade
p2674
F1.0
sVnot
p2675
F1.0
sg21
F1.0
sg1473
F1.0
sVknight
p2676
F1.0
sVso
p2677
F1.0
sVof
p2678
F1.0
sVT-FLOAT
p2679
F1.0
saa(lp2680
S'C04-108959'
p2681
a(dp2682
Vand
p2683
F1.0
sVall
p2684
F1.0
sVchinese
p2685
F2.0
sVmap
p2686
F1.0
sVis
p2687
F2.0
sVproduct
p2688
F1.0
sVan
p2689
F2.0
sVas
p2690
F1.0
sVin
p2691
F2.0
sVtimes
p2692
F1.0
sValignment
p2693
F1.0
sVif
p2694
F1.0
sV/k
p2695
F1.0
sVform
p2696
F1.0
sVfor
p2697
F2.0
sVT-INT
p2698
F1.0
sg7
F1.0
sg8
F1.0
sg41
F2.0
sVcounted
p2699
F1.0
sVby
p2700
F1.0
sVto
p2701
F1.0
sVlisted
p2702
F1.0
sVbilingual
p2703
F1.0
sVhas
p2704
F1.0
sVover
p2705
F1.0
sVthen
p2706
F1.0
sVwe
p2707
F1.0
sVdictionary
p2708
F1.0
sVthat
p2709
F1.0
sVpinyin
p2710
F1.0
sVenglish
p2711
F2.0
sVpossible
p2712
F1.0
sVmapping
p2713
F1.0
sVprobability
p2714
F2.0
sVpurpose
p2715
F1.0
sVwords
p2716
F2.0
sg36
F1.0
sVoccurring
p2717
F1.0
sVT-FLOAT
p2718
F2.0
sVcalculate
p2719
F1.0
sVambiguous
p2720
F1.0
sg55
F2.0
sVword
p2721
F2.0
sVthis
p2722
F1.0
sVof
p2723
F4.0
sVk
p2724
F2.0
sVlated
p2725
F1.0
sVtc
p2726
F1.0
sVcan
p2727
F1.0
sVeach
p2728
F3.0
sVtranslated
p2729
F1.0
sVthe
p2730
F6.0
sVtrans
p2731
F1.0
sValignments
p2732
F1.0
sVtaking
p2733
F1.0
saa(lp2734
S'C04-108958'
p2735
a(dp2736
Vthen
p2737
F1.0
sVwe
p2738
F1.0
sVdictionary
p2739
F1.0
sVsum
p2740
F1.0
sVlingual
p2741
F1.0
sVT-FLOAT
p2742
F1.0
saa(lp2743
S'C04-108953'
p2744
a(dp2745
Vand
p2746
F1.0
sVthe
p2747
F1.0
sg55
F2.0
sVis
p2748
F2.0
sg41
F1.0
sVT-FLOAT
p2749
F1.0
sVas
p2750
F2.0
sVquery
p2751
F1.0
sg21
F1.0
sVin
p2752
F1.0
sVour
p2753
F1.0
sVtranslation
p2754
F1.0
sVdocument
p2755
F1.0
sVproblem
p2756
F1.0
sVviewed
p2757
F2.0
saa(lp2758
S'C04-108952'
p2759
a(dp2760
Vthe
p2761
F1.0
sVtarget
p2762
F1.0
sVin
p2763
F1.0
sVenglish
p2764
F1.0
sVcorpus
p2765
F1.0
sVT-FLOAT
p2766
F1.0
saa(lp2767
S'C04-1089166'
p2768
a(dp2769
Vand
p2770
F2.0
sVkoehn
p2771
F1.0
sVknight
p2772
F1.0
sVclues
p2773
F1.0
sg41
F1.0
sVincluding
p2774
F1.0
sVto
p2775
F1.0
sVcombine
p2776
F1.0
sVcontext
p2777
F1.0
sVattempted
p2778
F1.0
sVmultiple
p2779
F1.0
sVspelling
p2780
F1.0
sVsimilar
p2781
F1.0
sVT-FLOAT
p2782
F1.0
saa(lp2783
S'C04-108957'
p2784
a(dp2785
Vchinese
p2786
F4.0
sVis
p2787
F3.0
sVnumber
p2788
F1.0
sVan
p2789
F1.0
sVtranslating
p2790
F1.0
sVsurrounding
p2791
F1.0
sVas
p2792
F1.0
sVin
p2793
F3.0
sVes
p2794
F1.0
sg7
F3.0
sg8
F3.0
sVcharacter
p2795
F1.0
sg41
F4.0
sVby
p2796
F2.0
sVto
p2797
F1.0
sVconverted
p2798
F1.0
sVtc
p2799
F3.0
sVobtained
p2800
F1.0
sVform
p2801
F1.0
sVoccurrenc
p2802
F1.0
sVpinyin
p2803
F1.0
sVeach
p2804
F2.0
sVbi
p2805
F1.0
sVwords
p2806
F3.0
sVword
p2807
F3.0
sVthe
p2808
F5.0
sg21
F3.0
sg55
F6.0
sg36
F1.0
sg75
F1.0
sVof
p2809
F5.0
sg590
F1.0
sVbag
p2810
F1.0
sVdetermined
p2811
F1.0
sVcontext
p2812
F1.0
sVenglish
p2813
F2.0
sVT-FLOAT
p2814
F5.0
sVfirst
p2815
F1.0
saa(lp2816
S'C04-108955'
p2817
a(dp2818
Vand
p2819
F2.0
sVrelevant
p2820
F1.0
sVis
p2821
F3.0
sVas
p2822
F1.0
sVin
p2823
F1.0
sVquery
p2824
F2.0
sVT-FLOAT
p2825
F1.0
sVestimated
p2826
F1.0
sVfind
p2827
F1.0
sg36
F2.0
sVinformation
p2828
F1.0
sVgiven
p2829
F1.0
sVdocuments
p2830
F1.0
sVfrom
p2831
F1.0
sVfor
p2832
F1.0
sg7
F2.0
sg8
F2.0
sg41
F2.0
sVto
p2833
F2.0
sg1208
F1.0
sVgives
p2834
F1.0
sVreturned
p2835
F1.0
sVthat
p2836
F1.0
sVour
p2837
F1.0
sVenglish
p2838
F1.0
sVcollection
p2839
F1.0
sVmost
p2840
F1.0
sVranked
p2841
F1.0
sVword
p2842
F1.0
sVhighest
p2843
F1.0
sVthe
p2844
F3.0
sg21
F4.0
sg55
F4.0
sVtask
p2845
F1.0
sVcompute
p2846
F1.0
sVdocument
p2847
F1.0
sVof
p2848
F1.0
sVlist
p2849
F1.0
sg598
F2.0
sg591
F2.0
sVeach
p2850
F1.0
sVproblem
p2851
F1.0
sVretrieval
p2852
F1.0
sVtypical
p2853
F1.0
saa(lp2854
S'C04-108954'
p2855
a(dp2856
Vso
p2857
F1.0
saa(lp2858
S'C04-1089119'
p2859
a(dp2860
Vwe
p2861
F1.0
sVinvestigated
p2862
F1.0
sVT-INT
p2863
F1.0
sVof
p2864
F1.0
sVin
p2865
F1.0
sg203
F1.0
sVeffect
p2866
F1.0
sVresults
p2867
F1.0
sValso
p2868
F1.0
sVare
p2869
F1.0
sVvarying
p2870
F1.0
sVtable
p2871
F1.0
sVthe
p2872
F2.0
sVT-FLOAT
p2873
F2.0
sVshown
p2874
F1.0
saa(lp2875
S'C04-1089118'
p2876
a(dp2877
Vwe
p2878
F1.0
sVset
p2879
F1.0
sVwhen
p2880
F1.0
sVin
p2881
F1.0
sg203
F1.0
sVresults
p2882
F1.0
sVT-INT
p2883
F2.0
sVare
p2884
F1.0
sVshown
p2885
F1.0
sVtable
p2886
F1.0
sVthe
p2887
F1.0
sg1374
F1.0
sVT-FLOAT
p2888
F1.0
saa(lp2889
S'C04-1089117'
p2890
a(dp2891
Von
p2892
F1.0
sVwe
p2893
F1.0
sVof
p2894
F1.0
sVevaluated
p2895
F1.0
sVT-INT
p2896
F1.0
sVhalfmonth
p2897
F1.0
sVperiods
p2898
F1.0
sVT-FLOAT
p2899
F1.0
sVeach
p2900
F1.0
sVour
p2901
F1.0
sVthe
p2902
F1.0
sVmethod
p2903
F1.0
saa(lp2904
S'C04-1089116'
p2905
a(dp2906
VT-INT
p2907
F2.0
sVT-FLOAT
p2908
F2.0
sVevaluation
p2909
F1.0
saa(lp2910
S'C04-1089115'
p2911
a(dp2912
Vboth
p2913
F1.0
sVT-FLOAT
p2914
F1.0
sVcorrect
p2915
F1.0
sVwere
p2916
F1.0
saa(lp2917
S'C04-1089114'
p2918
a(dp2919
Vand
p2920
F1.0
sVboth
p2921
F2.0
sVpositions
p2922
F1.0
sVappeared
p2923
F1.0
sVmirochina
p2924
F1.0
sVtop
p2925
F1.0
sVof
p2926
F1.0
sVlists
p2927
F1.0
sVT-INT
p2928
F1.0
sVin
p2929
F1.0
sVmiroshina
p2930
F1.0
sVT-FLOAT
p2931
F1.0
saa(lp2932
S'C04-1089112'
p2933
a(dp2934
Vmultiple
p2935
F1.0
sVname
p2936
F1.0
sVcould
p2937
F1.0
sVenglish
p2938
F1.0
sVtranslations
p2939
F1.0
sVhave
p2940
F1.0
sVin
p2941
F1.0
sVthe
p2942
F1.0
sVT-FLOAT
p2943
F1.0
saa(lp2944
S'C04-1089111'
p2945
a(dp2946
g21
F2.0
sVword
p2947
F1.0
sVchinese
p2948
F1.0
sVfor
p2949
F1.0
sVthis
p2950
F1.0
sVwhen
p2951
F1.0
sVname
p2952
F1.0
sVperson
p2953
F1.0
sVT-FLOAT
p2954
F1.0
sVnon-english
p2955
F1.0
sVwas
p2956
F1.0
sVexample
p2957
F1.0
sVhappened
p2958
F1.0
saa(lp2959
S'C04-1089110'
p2960
a(dp2961
Vand
p2962
F1.0
sVamong
p2963
F1.0
sVchinese
p2964
F1.0
sVappeared
p2965
F1.0
sVwithin
p2966
F1.0
sVone
p2967
F1.0
sVT-FLOAT
p2968
F1.0
sVfor
p2969
F1.0
sVtop
p2970
F1.0
sg41
F1.0
sVof
p2971
F1.0
sVmany
p2972
F1.0
sVmore
p2973
F1.0
sVmultiple
p2974
F1.0
sVenglish
p2975
F1.0
sVtranslations
p2976
F1.0
sVlists
p2977
F1.0
sVwords
p2978
F1.0
sVcases
p2979
F1.0
sVthan
p2980
F1.0
sVthose
p2981
F1.0
sg21
F1.0
sVboth
p2982
F1.0
sVword
p2983
F1.0
sVpositions
p2984
F1.0
sg203
F1.0
sVwere
p2985
F1.0
sVthe
p2986
F1.0
sVwhere
p2987
F1.0
saa.