(dp0
Vall
p1
F3.2188758248682006
sVmanaged
p2
F5.0106352940962555
sVchinese
p3
F1.6094379124341003
sVsimilarity
p4
F5.0106352940962555
sVvarying
p5
F5.0106352940962555
sVresults
p6
F3.2188758248682006
sVmonth
p7
F5.0106352940962555
sVfour
p8
F5.0106352940962555
sVentropy
p9
F5.0106352940962555
sVconsists
p10
F5.0106352940962555
sVquery
p11
F3.091042453358316
sVchinese-english
p12
F5.0106352940962555
sVcalculate
p13
F5.0106352940962555
sVlanguages
p14
F5.0106352940962555
sVto
p15
F1.0986122886681098
sVfinally
p16
F5.0106352940962555
sVprogram
p17
F5.0106352940962555
sVpresent
p18
F3.6375861597263857
sVinclude
p19
F5.0106352940962555
sVtc
p20
F3.912023005428146
sVresources
p21
F4.31748811353631
sVupdated
p22
F4.31748811353631
sVreturned
p23
F5.0106352940962555
sVvery
p24
F4.31748811353631
sV-word
p25
F5.0106352940962555
sVentries
p26
F5.0106352940962555
sVdifference
p27
F5.0106352940962555
sVtagging
p28
F5.0106352940962555
sVgraehl
p29
F3.4011973816621555
sVunigram
p30
F5.0106352940962555
sVdid
p31
F5.0106352940962555
sVpositions
p32
F3.091042453358316
sVlist
p33
F3.4011973816621555
sVapplicable
p34
F5.0106352940962555
sVtry
p35
F5.0106352940962555
sVp
p36
F2.70805020110221
sVhalfmonth
p37
F4.31748811353631
sVvector
p38
F5.0106352940962555
sVandpml
p39
F5.0106352940962555
sVnoted
p40
F5.0106352940962555
sVlocate
p41
F3.912023005428146
sVapproximately
p42
F5.0106352940962555
sVneighborhood
p43
F5.0106352940962555
sVoccurrence
p44
F5.0106352940962555
sVestimates
p45
F5.0106352940962555
sVdirect
p46
F5.0106352940962555
sVpast
p47
F4.31748811353631
sVsurrounding
p48
F3.912023005428146
sVlikely
p49
F5.0106352940962555
sVestimated
p50
F3.6375861597263857
sVemploy
p51
F5.0106352940962555
sVappear
p52
F3.6375861597263857
sVsection
p53
F3.4011973816621555
sVselected
p54
F4.31748811353631
sVcurrent
p55
F3.912023005428146
sValonaizan
p56
F3.4011973816621555
sVnew
p57
F2.302585092994046
sV;
p58
F2.6390573296152584
sVmethod
p59
F2.4849066497880004
sVcontrast
p60
F5.0106352940962555
sVsegmentation
p61
F5.0106352940962555
sVmultinomial
p62
F5.0106352940962555
sVlearn
p63
F5.0106352940962555
sValone
p64
F2.9444389791664403
sVratio
p65
F5.0106352940962555
sVappears
p66
F4.31748811353631
sVobtained
p67
F5.0106352940962555
sVsearch
p68
F5.0106352940962555
sVtrans
p69
F5.0106352940962555
sVtechnical
p70
F4.31748811353631
sVk
p71
F5.0106352940962555
sVromanization
p72
F5.0106352940962555
sVsuitable
p73
F5.0106352940962555
sVcomposed
p74
F5.0106352940962555
sVnamed
p75
F4.31748811353631
sVcalcu
p76
F5.0106352940962555
sVtexts
p77
F4.31748811353631
sVapi
p78
F5.0106352940962555
sVnames
p79
F3.912023005428146
sVcounts
p80
F5.0106352940962555
sVtotal
p81
F3.912023005428146
sVreadily
p82
F3.912023005428146
sVuse
p83
F2.833213344056216
sVfrom
p84
F2.0794415416798357
sVwould
p85
F5.0106352940962555
sV&
p86
F4.31748811353631
sVprobabilities
p87
F5.0106352940962555
sVgive
p88
F5.0106352940962555
sVtwo
p89
F3.4011973816621555
sVprec
p90
F5.0106352940962555
sVfrance
p91
F5.0106352940962555
sVcall
p92
F4.31748811353631
sVpart-of-speech
p93
F5.0106352940962555
sVmore
p94
F3.4011973816621555
sVpairs
p95
F3.912023005428146
sVclue
p96
F5.0106352940962555
sVtested
p97
F4.31748811353631
sVtrain
p98
F5.0106352940962555
sVparticular
p99
F5.0106352940962555
sVcases
p100
F5.0106352940962555
sVmust
p101
F5.0106352940962555
sVhigh
p102
F5.0106352940962555
sVword
p103
F1.6094379124341003
sVthis
p104
F2.1972245773362196
sVrecall
p105
F3.912023005428146
sVwork
p106
F2.9444389791664403
sVmodified
p107
F5.0106352940962555
sVvalues
p108
F5.0106352940962555
sVcan
p109
F3.2188758248682006
sVdetermining
p110
F5.0106352940962555
sVmiroshina
p111
F5.0106352940962555
sVT-FLOAT
p112
F0.6931471805599453
sVdec
p113
F3.2188758248682006
sVroot
p114
F5.0106352940962555
sVexample
p115
F3.6375861597263857
sVcompare
p116
F5.0106352940962555
sVponte
p117
F3.912023005428146
sVdecember
p118
F5.0106352940962555
sVrapp
p119
F3.4011973816621555
sVtopic
p120
F5.0106352940962555
sVweighting
p121
F5.0106352940962555
sVtag
p122
F5.0106352940962555
sVperformed
p123
F5.0106352940962555
sVphrase
p124
F5.0106352940962555
sVcounting
p125
F5.0106352940962555
sV!
p126
F5.0106352940962555
sVinformation
p127
F2.1972245773362196
sVneeds
p128
F5.0106352940962555
sVdivided
p129
F4.31748811353631
sVsix
p130
F4.31748811353631
sVmachine
p131
F3.6375861597263857
sVhow
p132
F5.0106352940962555
sVbilingual
p133
F3.6375861597263857
sVmap
p134
F5.0106352940962555
sVproduct
p135
F5.0106352940962555
sVtranslations
p136
F1.9459101490553132
sVafter
p137
F5.0106352940962555
sVvariant
p138
F5.0106352940962555
sVmapping
p139
F5.0106352940962555
sVcollection
p140
F5.0106352940962555
sVpreprocessing
p141
F5.0106352940962555
sVsuch
p142
F3.4011973816621555
sVspelling
p143
F3.912023005428146
sVdata
p144
F5.0106352940962555
sVparallel
p145
F3.6375861597263857
sVa
p146
F1.0986122886681098
sVambiguous
p147
F5.0106352940962555
sVnoun
p148
F5.0106352940962555
sVyielding
p149
F5.0106352940962555
sVq
p150
F3.4011973816621555
sVso
p151
F3.091042453358316
sVallow
p152
F5.0106352940962555
sVretrieval
p153
F3.4011973816621555
sVsemantic
p154
F4.31748811353631
sVtypical
p155
F5.0106352940962555
sVith
p156
F5.0106352940962555
sVindeed
p157
F5.0106352940962555
sVpointed
p158
F5.0106352940962555
sVentity
p159
F4.31748811353631
sVpaper
p160
F3.912023005428146
sVincluding
p161
F5.0106352940962555
sVmentioned
p162
F5.0106352940962555
sVits
p163
F2.9444389791664403
sVsuperior
p164
F5.0106352940962555
sVthank
p165
F5.0106352940962555
sVjia
p166
F5.0106352940962555
sVchosen
p167
F5.0106352940962555
sV,
p168
F0.6931471805599453
sVli
p169
F3.6375861597263857
sVbetter
p170
F5.0106352940962555
sVcognates
p171
F5.0106352940962555
sVwilling
p172
F5.0106352940962555
sVours
p173
F4.31748811353631
sVhappened
p174
F5.0106352940962555
sVthen
p175
F2.3978952727983707
sVthem
p176
F5.0106352940962555
sVskipped
p177
F5.0106352940962555
sVcombination
p178
F4.31748811353631
sVmatches
p179
F4.31748811353631
sVpropose
p180
F5.0106352940962555
sVencouraging
p181
F3.912023005428146
sVthey
p182
F3.6375861597263857
sVnot
p183
F2.302585092994046
sVterm
p184
F5.0106352940962555
sVname
p185
F3.6375861597263857
sVfully
p186
F5.0106352940962555
sVuniversity
p187
F5.0106352940962555
sVguage
p188
F5.0106352940962555
sVeach
p189
F2.302585092994046
sVphonetic
p190
F5.0106352940962555
sVfound
p191
F5.0106352940962555
sVdifficult
p192
F3.912023005428146
sVside
p193
F5.0106352940962555
sVem
p194
F4.31748811353631
sVpreceded
p195
F5.0106352940962555
sVretrieve
p196
F5.0106352940962555
sVdirectly
p197
F3.6375861597263857
sVek
p198
F5.0106352940962555
sVlan
p199
F5.0106352940962555
sVaccidentally
p200
F5.0106352940962555
sVused
p201
F2.4849066497880004
sVexpect
p202
F5.0106352940962555
sVcombining
p203
F3.912023005428146
sVour
p204
F1.9459101490553132
sVextract
p205
F5.0106352940962555
sVes
p206
F5.0106352940962555
sVout
p207
F5.0106352940962555
sVshown
p208
F3.4011973816621555
sV'
p209
F5.0106352940962555
sVspace
p210
F4.31748811353631
sVsince
p211
F3.6375861597263857
sVresearch
p212
F2.9444389791664403
sVcontained
p213
F5.0106352940962555
sVble
p214
F5.0106352940962555
sVevaluation
p215
F5.0106352940962555
sVcorrect
p216
F3.2188758248682006
sVearlier
p217
F4.31748811353631
sVdictionary
p218
F3.4011973816621555
sVe*
p219
F4.31748811353631
sVderived
p220
F5.0106352940962555
sVoccurre
p221
F5.0106352940962555
sVstandard
p222
F5.0106352940962555
sVyork
p223
F5.0106352940962555
sVestimate
p224
F3.6375861597263857
sVgenerate
p225
F5.0106352940962555
sVtraining
p226
F4.31748811353631
sVlanguage
p227
F2.4849066497880004
sVphrases
p228
F5.0106352940962555
sVcould
p229
F3.912023005428146
sVcorrectness
p230
F5.0106352940962555
sVlingual
p231
F5.0106352940962555
sVtimes
p232
F3.6375861597263857
sVperson
p233
F4.31748811353631
sVw
p234
F3.091042453358316
sVhence
p235
F5.0106352940962555
sVfirst
p236
F3.6375861597263857
sVmajor
p237
F5.0106352940962555
sVthere
p238
F4.31748811353631
sVprobability
p239
F3.6375861597263857
sVnumber
p240
F3.2188758248682006
sVrank
p241
F3.4011973816621555
sVone
p242
F3.091042453358316
sVutilized
p243
F5.0106352940962555
sVdone
p244
F4.31748811353631
sVoccurrences
p245
F4.31748811353631
sVanother
p246
F4.31748811353631
sVknight
p247
F2.70805020110221
sVsize
p248
F3.912023005428146
sVgiven
p249
F3.912023005428146
sVchecked
p250
F4.31748811353631
sVservice
p251
F4.31748811353631
sVsimilarly
p252
F3.912023005428146
sVtop
p253
F2.9444389791664403
sVsystem
p254
F3.912023005428146
sVleast
p255
F4.31748811353631
sVtheir
p256
F3.4011973816621555
sVlisted
p257
F5.0106352940962555
sVcorpus
p258
F2.1972245773362196
sVgives
p259
F5.0106352940962555
sVmining
p260
F4.31748811353631
sVthat
p261
F1.791759469228055
sVcentered
p262
F5.0106352940962555
sVlists
p263
F2.9444389791664403
sVpart
p264
F3.6375861597263857
sVchineseenglish
p265
F3.4011973816621555
sVsomewhat
p266
F5.0106352940962555
sVtranslation
p267
F1.6094379124341003
sVthan
p268
F3.6375861597263857
sVtranslating
p269
F3.912023005428146
sVb
p270
F3.4011973816621555
sVtarget
p271
F3.4011973816621555
sVrequire
p272
F5.0106352940962555
sVsecond
p273
F4.31748811353631
sVsubsequence
p274
F5.0106352940962555
sVdetermined
p275
F4.31748811353631
sVsupposed
p276
F5.0106352940962555
sVwere
p277
F2.9444389791664403
sVand
p278
F1.3862943611198906
sVmated
p279
F4.31748811353631
sVesti
p280
F4.31748811353631
sVoutperforms
p281
F5.0106352940962555
sVmates
p282
F5.0106352940962555
sVhave
p283
F3.091042453358316
sVany
p284
F5.0106352940962555
sVviewed
p285
F3.912023005428146
sVrelatively
p286
F5.0106352940962555
sVdocuments
p287
F3.6375861597263857
sVacademic
p288
F5.0106352940962555
sVtranslate
p289
F5.0106352940962555
sVagency
p290
F4.31748811353631
sVhalf-month
p291
F3.912023005428146
sVnote
p292
F5.0106352940962555
sValso
p293
F3.4011973816621555
sVpotential
p294
F5.0106352940962555
sVwhich
p295
F3.6375861597263857
sVagence
p296
F5.0106352940962555
sVperformance
p297
F5.0106352940962555
sV=
p298
F4.31748811353631
sVaccuracy
p299
F4.31748811353631
sVmultiple
p300
F3.912023005428146
sVsyllable
p301
F4.31748811353631
sVmost
p302
F3.4011973816621555
sVbut
p303
F2.833213344056216
sVletter
p304
F4.31748811353631
sVorganization
p305
F5.0106352940962555
sVservices
p306
F5.0106352940962555
sVprobabilistic
p307
F5.0106352940962555
sVmodel
p308
F3.091042453358316
sVcroft
p309
F3.912023005428146
sVespecially
p310
F5.0106352940962555
sVconsidered
p311
F4.31748811353631
sVaverage
p312
F4.31748811353631
sVadopt
p313
F5.0106352940962555
sVm
p314
F2.5649493574615367
sVorder
p315
F5.0106352940962555
sVlooked
p316
F5.0106352940962555
sVprinciple
p317
F5.0106352940962555
sVlated
p318
F4.31748811353631
sVriods
p319
F5.0106352940962555
sVlexicon
p320
F4.31748811353631
sVnewswire
p321
F5.0106352940962555
sVtext
p322
F3.6375861597263857
sVsupported
p323
F5.0106352940962555
sVattempts
p324
F5.0106352940962555
sVscarce
p325
F5.0106352940962555
sVfind
p326
F3.4011973816621555
sVbased
p327
F4.31748811353631
sVproposed
p328
F3.912023005428146
sV(
p329
F1.6094379124341003
sVsentence
p330
F5.0106352940962555
sVjan
p331
F4.31748811353631
sVT-INT
p332
F1.0986122886681098
sVonly
p333
F2.4849066497880004
sVsmallest
p334
F5.0106352940962555
sVcandidates
p335
F3.912023005428146
sVover
p336
F5.0106352940962555
sVdo
p337
F4.31748811353631
sVhandle
p338
F5.0106352940962555
sVlected
p339
F5.0106352940962555
sVmorphological
p340
F5.0106352940962555
sVstop
p341
F5.0106352940962555
sVmade
p342
F3.6375861597263857
sVlongest
p343
F5.0106352940962555
sVwords
p344
F1.3862943611198906
sValtogether
p345
F5.0106352940962555
sVreport
p346
F5.0106352940962555
sVduring
p347
F5.0106352940962555
sVdt
p348
F5.0106352940962555
sVcontextual
p349
F5.0106352940962555
sVbytes
p350
F5.0106352940962555
sVbag
p351
F5.0106352940962555
sVinvestigate
p352
F5.0106352940962555
sVstead
p353
F5.0106352940962555
sVcommon
p354
F5.0106352940962555
sVmapped
p355
F3.912023005428146
sVcounted
p356
F5.0106352940962555
sVwhere
p357
F5.0106352940962555
sVview
p358
F4.31748811353631
sVset
p359
F3.912023005428146
sVpart-ofspeech
p360
F5.0106352940962555
sVachieved
p361
F5.0106352940962555
sVnational
p362
F5.0106352940962555
sVtheirs
p363
F5.0106352940962555
sVwe
p364
F1.0986122886681098
sVup
p365
F4.31748811353631
sVdiffers
p366
F5.0106352940962555
sVindividual
p367
F3.912023005428146
sVare
p368
F2.1972245773362196
sVterms
p369
F3.912023005428146
sVbest
p370
F4.31748811353631
sV#
p371
F3.6375861597263857
sVtransliteration
p372
F2.3978952727983707
sVpurpose
p373
F5.0106352940962555
sVcurrently
p374
F5.0106352940962555
sVwritten
p375
F5.0106352940962555
sVscore
p376
F5.0106352940962555
sVvarious
p377
F5.0106352940962555
sVestimatesp
p378
F5.0106352940962555
sVcorrectly
p379
F5.0106352940962555
sVapproach
p380
F2.6390573296152584
sVavailable
p381
F3.912023005428146
sVcomparable
p382
F2.3978952727983707
sVkoehn
p383
F4.31748811353631
sVextend
p384
F5.0106352940962555
sVcomplementary
p385
F3.912023005428146
sVcomplement
p386
F5.0106352940962555
sVagencies
p387
F4.31748811353631
sVimplementing
p388
F5.0106352940962555
sVranked
p389
F3.2188758248682006
sVimplemented
p390
F5.0106352940962555
sVhuang
p391
F5.0106352940962555
sVclues
p392
F5.0106352940962555
sVnews
p393
F3.4011973816621555
sVcome
p394
F5.0106352940962555
sVproblem
p395
F3.4011973816621555
sVimprove
p396
F5.0106352940962555
sVsuggested
p397
F5.0106352940962555
sVboth
p398
F2.302585092994046
sVc
p399
F1.9459101490553132
sVcor
p400
F5.0106352940962555
sVacquiring
p401
F4.31748811353631
sVcao
p402
F4.31748811353631
sVtaking
p403
F5.0106352940962555
sVfinde
p404
F5.0106352940962555
sVaccording
p405
F4.31748811353631
sVworldstream
p406
F5.0106352940962555
sVetc
p407
F4.31748811353631
sVs
p408
F5.0106352940962555
sVcontext
p409
F1.9459101490553132
sVcof
p410
F5.0106352940962555
sVestimation
p411
F5.0106352940962555
sVwhole
p412
F4.31748811353631
sVcol
p413
F5.0106352940962555
sVamong
p414
F4.31748811353631
sVrelevant
p415
F5.0106352940962555
sVappeared
p416
F3.6375861597263857
sVperiod
p417
F2.6390573296152584
sVmodeling
p418
F3.4011973816621555
sVtable
p419
F3.091042453358316
sVconsiders
p420
F3.912023005428146
sVdescribed
p421
F3.912023005428146
sVdue
p422
F5.0106352940962555
sVbeen
p423
F3.912023005428146
sVmuch
p424
F5.0106352940962555
sVcombined
p425
F4.31748811353631
sVcollected
p426
F4.31748811353631
sVgenerating
p427
F5.0106352940962555
sVcorresponding
p428
F5.0106352940962555
sVpinyin
p429
F3.2188758248682006
sVprecision
p430
F4.31748811353631
sVuncommon
p431
F5.0106352940962555
sVmine
p432
F5.0106352940962555
sVfund
p433
F5.0106352940962555
sVfung
p434
F3.4011973816621555
sVan
p435
F3.091042453358316
sVthose
p436
F3.6375861597263857
sVcase
p437
F5.0106352940962555
sVlook
p438
F5.0106352940962555
sVunlike
p439
F5.0106352940962555
sVthese
p440
F2.9444389791664403
sVcorpora
p441
F2.1972245773362196
sVchunker
p442
F5.0106352940962555
sVevaluated
p443
F3.6375861597263857
sVn
p444
F5.0106352940962555
sVwill
p445
F5.0106352940962555
sVwhile
p446
F5.0106352940962555
sVmany
p447
F3.912023005428146
sVassociating
p448
F5.0106352940962555
sVprecede
p449
F4.31748811353631
sVperiods
p450
F3.6375861597263857
sVmanually
p451
F5.0106352940962555
sVis
p452
F1.3862943611198906
sVir
p453
F3.912023005428146
sVthus
p454
F5.0106352940962555
sVit
p455
F3.2188758248682006
sVitself
p456
F4.31748811353631
sVin
p457
F1.0986122886681098
sVpruning
p458
F5.0106352940962555
sVif
p459
F2.833213344056216
sVcontaining
p460
F4.31748811353631
sV/k
p461
F5.0106352940962555
sVgrant
p462
F5.0106352940962555
sV)
p463
F1.6094379124341003
sVcross
p464
F5.0106352940962555
sVsame
p465
F3.912023005428146
sVmirochina
p466
F5.0106352940962555
sVdocument
p467
F2.5649493574615367
sVevents
p468
F5.0106352940962555
sVhigher
p469
F5.0106352940962555
sVinvestigated
p470
F5.0106352940962555
sVsingapore
p471
F5.0106352940962555
sVoccurrenc
p472
F5.0106352940962555
sVeffect
p473
F4.31748811353631
sVhand
p474
F3.912023005428146
sVuses
p475
F5.0106352940962555
sVcontexts
p476
F3.912023005428146
sVcharacters
p477
F3.912023005428146
sVfrequently
p478
F4.31748811353631
sVrecent
p479
F5.0106352940962555
sVlower
p480
F5.0106352940962555
sVtask
p481
F3.4011973816621555
sVsegmenter
p482
F5.0106352940962555
sVi
p483
F3.091042453358316
sVnces
p484
F5.0106352940962555
sVfinds
p485
F5.0106352940962555
sVsegmented
p486
F5.0106352940962555
sVenglish
p487
F1.0986122886681098
sVposition
p488
F3.912023005428146
sVthe
p489
F0.6931471805599453
sVspend
p490
F5.0106352940962555
sVldc
p491
F5.0106352940962555
sVjust
p492
F3.6375861597263857
sVless
p493
F5.0106352940962555
sVbeing
p494
F5.0106352940962555
sVable
p495
F5.0106352940962555
sVyee
p496
F3.4011973816621555
sVsources
p497
F2.9444389791664403
sVusing
p498
F2.70805020110221
sValignment
p499
F5.0106352940962555
sVprevious
p500
F3.912023005428146
sVcandidate
p501
F2.833213344056216
sVonaizan
p502
F5.0106352940962555
sVcharacter
p503
F5.0106352940962555
sVsource
p504
F2.3978952727983707
sVcombine
p505
F4.31748811353631
sVhas
p506
F3.4011973816621555
sVgs
p507
F5.0106352940962555
sVpossible
p508
F4.31748811353631
sVknow
p509
F5.0106352940962555
sVpress
p510
F5.0106352940962555
sVworld
p511
F5.0106352940962555
sVoccurring
p512
F3.4011973816621555
sVd
p513
F3.6375861597263857
sVfollows
p514
F4.31748811353631
sVdiscarded
p515
F5.0106352940962555
sVeither
p516
F3.912023005428146
sVtranslated
p517
F4.31748811353631
sVoutput
p518
F3.6375861597263857
sVworks
p519
F5.0106352940962555
sValignments
p520
F5.0106352940962555
sVbecause
p521
F5.0106352940962555
sVmethods
p522
F5.0106352940962555
sVsequence
p523
F4.31748811353631
sVsearching
p524
F5.0106352940962555
sVpronounced
p525
F5.0106352940962555
sVfor
p526
F1.6094379124341003
sVavoid
p527
F5.0106352940962555
sV/
p528
F5.0106352940962555
sVconstantly
p529
F4.31748811353631
sVphonetic-based
p530
F5.0106352940962555
sVdoes
p531
F3.912023005428146
sVprovides
p532
F5.0106352940962555
sVrefer
p533
F4.31748811353631
sVmeasuring
p534
F5.0106352940962555
sVbe
p535
F3.2188758248682006
sVof
p536
F0.6931471805599453
sVbi
p537
F5.0106352940962555
sVconcatenated
p538
F5.0106352940962555
sValthough
p539
F5.0106352940962555
sVr
p540
F5.0106352940962555
sVby
p541
F2.4849066497880004
sVsimpler
p542
F5.0106352940962555
sVon
p543
F2.302585092994046
sVabout
p544
F3.912023005428146
sVdemarcation
p545
F5.0106352940962555
sVsylla
p546
F5.0106352940962555
sVmonths
p547
F4.31748811353631
sVo
p548
F5.0106352940962555
sV|
p549
F2.833213344056216
sVrecognizer
p550
F5.0106352940962555
sVefforts
p551
F5.0106352940962555
sVor
p552
F3.4011973816621555
sVletters
p553
F5.0106352940962555
sVinto
p554
F3.6375861597263857
sVwithin
p555
F3.091042453358316
sVpair
p556
F5.0106352940962555
sVdetermine
p557
F4.31748811353631
sVappearmodel
p558
F5.0106352940962555
sVrely
p559
F5.0106352940962555
sV*
p560
F5.0106352940962555
sVspecifically
p561
F5.0106352940962555
sVpronunciation
p562
F3.4011973816621555
sVwindow
p563
F4.31748811353631
sVlow
p564
F5.0106352940962555
sV:
p565
F3.2188758248682006
sVwas
p566
F2.6390573296152584
sVgigaword
p567
F3.6375861597263857
sVform
p568
F3.4011973816621555
sVattempted
p569
F4.31748811353631
sVjun
p570
F4.31748811353631
sVjul
p571
F3.4011973816621555
sVxinhua
p572
F4.31748811353631
sVhighest
p573
F4.31748811353631
sVwith
p574
F2.4849066497880004
sVpartially
p575
F5.0106352940962555
sVlexicons
p576
F5.0106352940962555
sVcompute
p577
F5.0106352940962555
sVwhether
p578
F5.0106352940962555
sVmaximum
p579
F5.0106352940962555
sVdifferent
p580
F3.6375861597263857
sVconverted
p581
F3.912023005428146
sVsum
p582
F5.0106352940962555
sVdistribution
p583
F5.0106352940962555
sVsimilar
p584
F3.091042453358316
sVcalled
p585
F5.0106352940962555
sVassociated
p586
F5.0106352940962555
sVmoore
p587
F5.0106352940962555
sVal
p588
F4.31748811353631
sVgeneral
p589
F4.31748811353631
sVap
p590
F5.0106352940962555
sVexamine
p591
F5.0106352940962555
sVexist
p592
F5.0106352940962555
sVat
p593
F3.2188758248682006
sVet
p594
F5.0106352940962555
sVing
p595
F5.0106352940962555
sVas
p596
F1.791759469228055
sVtraditional
p597
F5.0106352940962555
sVcompared
p598
F5.0106352940962555
sV%
p599
F5.0106352940962555
sVno
p600
F3.912023005428146
sVwhereas
p601
F4.31748811353631
sVwhen
p602
F3.4011973816621555
sVng
p603
F3.6375861597263857
sVother
p604
F3.4011973816621555
sVdetails
p605
F4.31748811353631
sVmappin
p606
F5.0106352940962555
sVtest
p607
F5.0106352940962555
sVsequenc
p608
F5.0106352940962555
sVpear
p609
F5.0106352940962555
sVgenerated
p610
F5.0106352940962555
sVscores
p611
F5.0106352940962555
sVmelamed
p612
F5.0106352940962555
sVe
p613
F1.9459101490553132
sVnon-english
p614
F5.0106352940962555
sValgorithm
p615
F4.31748811353631
sVassume
p616
F5.0106352940962555
sVrequired
p617
F5.0106352940962555
sVtogether
p618
F5.0106352940962555
sVtime
p619
F5.0106352940962555
s.