(lp0
(lp1
S'C94-215478'
p2
a(dp3
Vand
p4
F1.0
sVstates
p5
F1.0
sVval-lies
p6
F1.0
sV'
p7
F1.0
sV)
p8
F1.0
sVsul
p9
F1.0
sV,
p10
F1.0
sVspeciate
p11
F1.0
sVencode
p12
F1.0
sVtype
p13
F1.0
sVthat
p14
F2.0
sVspecifications
p15
F1.0
sVhowever
p16
F1.0
sVpart
p17
F1.0
sVT-FLOAT
p18
F1.0
sVtypes
p19
F1.0
sV''
p20
F1.0
sVfor
p21
F1.0
sVthese
p22
F1.0
sVof
p23
F2.0
sVlnust
p24
F1.0
sVp
p25
F1.0
sVt
p26
F3.0
sVthe
p27
F3.0
sVappropriateness
p28
F1.0
sVagree
p29
F1.0
saa(lp30
S'C94-215479'
p31
a(dp32
Vforced
p33
F1.0
sVwell-typability
p34
F1.0
sVconsiders
p35
F1.0
sVto
p36
F1.0
sVonly
p37
F1.0
sVT-FLOAT
p38
F1.0
sVspecies
p39
F1.0
sVif
p40
F1.0
saa(lp41
S'C94-215472'
p42
a(dp43
Vall
p44
F1.0
sVleets
p45
F1.0
sVerdemann
p46
F1.0
sVis
p47
F1.0
sVfeature
p48
F2.0
sV''
p49
F1.0
sVhave
p50
F1.0
sVshown
p51
F1.0
sV%
p52
F1.0
sVT-INT
p53
F1.0
sg10
F2.0
sValso
p54
F1.0
sVsatisfiable
p55
F1.0
sVstrtlcture
p56
F1.0
sVthat
p57
F1.0
sVencoded
p58
F1.0
sV[
p59
F1.0
sV]
p60
F2.0
sVT-FLOAT
p61
F1.0
sVstructure
p62
F1.0
sVa
p63
F1.0
sVking
p64
F1.0
sVc
p65
F1.0
sVl
p66
F1.0
sVfcrs
p67
F1.0
sVifl
p68
F1.0
sVthe
p69
F1.0
saa(lp70
S'C94-215473'
p71
a(dp72
Vtroll
p73
F1.0
sVon
p74
F1.0
sVbased
p75
F1.0
sVthis
p76
F1.0
sVresolution
p77
F1.0
sVis
p78
F1.0
sVsystem
p79
F1.0
sg10
F2.0
sVeffectively
p80
F1.0
sVinqflements
p81
F1.0
sVidea
p82
F1.0
sVwhich
p83
F1.0
sVthe
p84
F1.0
sVtype
p85
F1.0
sVT-FLOAT
p86
F1.0
saa(lp87
S'C94-215470'
p88
a(dp89
Vand
p90
F2.0
sVall
p91
F1.0
sVset
p92
F1.0
sVdeveloped
p93
F1.0
sVguided
p94
F1.0
sVsatisfiable
p95
F2.0
sVfeature
p96
F2.0
sVdrfs
p97
F1.0
sVtotal
p98
F1.0
sVall-or-nothing
p99
F1.0
sVresolvants
p100
F1.0
sVformulated
p101
F1.0
sV-
p102
F1.0
sg10
F1.0
sVby
p103
F1.0
sVT-INT
p104
F2.0
sVconditions
p105
F1.0
sVstructure
p106
F1.0
sV:
p107
F1.0
sVtype
p108
F1.0
sVis
p109
F2.0
sV>
p110
F1.0
sVfunction
p111
F1.0
sVbe
p112
F1.0
sVfs
p113
F1.0
sVthat
p114
F2.0
sVlet
p115
F1.0
sVsuch
p116
F2.0
sg59
F1.0
sg60
F1.0
sVT-FLOAT
p117
F2.0
sVsemantics
p118
F1.0
sg63
F3.0
sVking
p119
F1.0
sVhas
p120
F1.0
sVe
p121
F1.0
sVstructures
p122
F1.0
sVf
p123
F2.0
sVof
p124
F4.0
sVpartition
p125
F1.0
sViff
p126
F1.0
sVr
p127
F3.0
sVthe
p128
F3.0
sVresolution
p129
F1.0
sVnotion
p130
F1.0
saa(lp131
S'C94-215471'
p132
a(dp133
V$
p134
F1.0
sg7
F1.0
sVis
p135
F1.0
sVsatisfial~le
p136
F1.0
sVT-INT
p137
F2.0
sg26
F1.0
sg59
F1.0
sV~
p138
F2.0
sVT-FLOAT
p139
F1.0
sVif
p140
F1.0
saa(lp141
S'C94-215476'
p142
a(dp143
Vand
p144
F1.0
sVagain
p145
F1.0
sVconsider
p146
F1.0
sVencoding
p147
F1.0
sVof
p148
F1.0
sVfeature
p149
F1.0
sg25
F1.0
sVT-FLOAT
p150
F1.0
sVthe
p151
F2.0
sVT-INT
p152
F1.0
sVstructure
p153
F1.0
sg138
F1.0
saa(lp154
S'C94-215477'
p155
a(dp156
Vand
p157
F1.0
sVfeatures
p158
F1.0
sVan
p159
F1.0
sVboolean
p160
F1.0
sVtes
p161
F1.0
sVfor
p162
F1.0
sVdeserves
p163
F1.0
sg8
F2.0
sg10
F3.0
sVencode
p164
F1.0
sVvahles
p165
F1.0
sVeeifieations
p166
F1.0
sVtype
p167
F1.0
sVspeaking
p168
F1.0
sVtyl
p169
F1.0
sVthat
p170
F2.0
sVobject
p171
F1.0
sVpart
p172
F1.0
sVwith
p173
F1.0
sVT-FLOAT
p174
F1.0
sVboth
p175
F1.0
sg121
F1.0
sVsta
p176
F1.0
sVg
p177
F1.0
sg123
F1.0
sVof
p178
F2.0
sVloosely
p179
F1.0
sg25
F1.0
sg26
F2.0
sVsl
p180
F1.0
sVthe
p181
F2.0
sVappropriateness
p182
F1.0
saa(lp183
S'C94-215474'
p184
a(dp185
Vsucceed
p186
F1.0
sVtype
p187
F1.0
sVresohttion
p188
F1.0
sVdoes
p189
F1.0
sVT-FLOAT
p190
F1.0
sVwhere
p191
F1.0
sVwhy
p192
F1.0
saa(lp193
S'C94-215475'
p194
a(dp195
Vfails
p196
F1.0
sVinferencing
p197
F1.0
sVtype
p198
F1.0
sV?
p199
F1.0
saa(lp200
S'C94-21548'
p201
a(dp202
g63
F1.0
sVall
p203
F1.0
sVof
p204
F1.0
sVcollrsc
p205
F1.0
sVowll
p206
F1.0
sVmistakes
p207
F1.0
sVrc
p208
F1.0
sVour
p209
F1.0
sVT-FLOAT
p210
F2.0
saa(lp211
S'C94-21549'
p212
a(dp213
Viki
p214
F1.0
sVT-FLOAT
p215
F1.0
saa(lp216
S'C94-21546'
p217
a(dp218
Vspecifica
p219
F1.0
sVsllch
p220
F1.0
sVrol
p221
F1.0
sVrestrictioi
p222
F1.0
sVlrla
p223
F1.0
sVreentrancies
p224
F1.0
sVno
p225
F1.0
sg8
F2.0
sg10
F2.0
sVexpressed
p226
F2.0
sVpl
p227
F1.0
sVbe
p228
F2.0
sVriatleness
p229
F1.0
sVthough
p230
F1.0
sVmay
p231
F1.0
sVinvolving
p232
F1.0
sVsuch
p233
F1.0
sVwith
p234
F1.0
sVtion
p235
F1.0
sg63
F2.0
sVrestrictions
p236
F1.0
sVma
p237
F1.0
sVtly
p238
F1.0
sVn
p239
F1.0
sVs
p240
F1.0
sVy
p241
F1.0
sVT-FLOAT
p242
F6.0
saa(lp243
S'C94-21544'
p244
a(dp245
Vis
p246
F1.0
sVin
p247
F2.0
sV's
p248
F1.0
sVes
p249
F1.0
sVout
p250
F1.0
sVadding
p251
F1.0
sVforma
p252
F1.0
sVT-INT
p253
F1.0
sVfor
p254
F1.0
sVfea
p255
F1.0
sg8
F1.0
sV(
p256
F2.0
sg10
F2.0
sVto
p257
F3.0
sV;
p258
F1.0
sg107
F2.0
sVnt
p259
F1.0
sVtyl
p260
F1.0
sVm~l
p261
F1.0
sVon
p262
F1.0
sVnonexista
p263
F1.0
sVexpress
p264
F1.0
sVior
p265
F1.0
sVreason
p266
F1.0
sVobjects
p267
F1.0
sg59
F1.0
sg60
F1.0
sVT-FLOAT
p268
F4.0
sVtypes
p269
F1.0
sg63
F2.0
sVrestrictions
p270
F1.0
sVcooccurences
p271
F1.0
sVof
p272
F1.0
sg66
F1.0
sVrule
p273
F1.0
sg240
F1.0
sVlism
p274
F1.0
sVture
p275
F1.0
sVorder
p276
F1.0
sg138
F1.0
saa(lp277
S'C94-21542'
p278
a(dp279
V!
p280
F1.0
sVrestrictions
p281
F1.0
sVuse
p282
F1.0
sVand
p283
F1.0
sVwe
p284
F1.0
sg10
F1.0
sVillustration
p285
F1.0
sVfeature
p286
F1.0
sVas
p287
F1.0
sVcooccurence
p288
F1.0
sV'hroughout
p289
F1.0
sVlinguistic
p290
F1.0
sg59
F1.0
sVT-FLOAT
p291
F1.0
sVmotivation
p292
F1.0
saa(lp293
S'C94-21543'
p294
a(dp295
Vbe
p296
F1.0
sVtyped
p297
F1.0
sVma
p298
F1.0
sg123
F1.0
sg8
F1.0
sg256
F2.0
sVdcc~s
p299
F1.0
sg10
F3.0
sVor
p300
F1.0
sVT-INT
p301
F1.0
sVunification
p302
F1.0
sVeither
p303
F1.0
sVun-typed
p304
F1.0
sVlbrmmisms
p305
F1.0
sg241
F1.0
sVT-FLOAT
p306
F2.0
sVpatrii
p307
F1.0
sg258
F1.0
saa(lp308
S'C94-21541'
p309
a(dp310
Vspecifica
p311
F1.0
sVand
p312
F2.0
sVch
p313
F1.0
sVconsider
p314
F1.0
sVnd
p315
F1.0
sVtions
p316
F1.0
sVef'~
p317
F1.0
sg66
F1.0
sVin
p318
F1.0
sVticient
p319
F1.0
sVexpressive
p320
F1.0
sVtive
p321
F1.0
sVapproa
p322
F1.0
sVmternative
p323
F1.0
sVfor
p324
F1.0
sg8
F1.0
sVlterna
p325
F1.0
sVinferencing
p326
F1.0
sVrolwiateness
p327
F1.0
sg10
F6.0
sVper
p328
F1.0
sVthe
p329
F1.0
sVcombina
p330
F1.0
sVpa
p331
F1.0
sVincorrectly
p332
F1.0
sVea
p333
F1.0
sg258
F1.0
sVtype
p334
F1.0
sVcorrect
p335
F1.0
sVpl
p336
F1.0
sg63
F6.0
sVwe
p337
F1.0
sVtyped
p338
F1.0
sVype
p339
F1.0
sg59
F1.0
sVpromote
p340
F1.0
sVture
p341
F1.0
sVimplements
p342
F1.0
sVlimits
p343
F1.0
sVthis
p344
F2.0
sVstructures
p345
F1.0
sVtion
p346
F1.0
sg240
F1.0
sVunfilling
p347
F1.0
sg26
F1.0
sVof
p348
F2.0
sVT-FLOAT
p349
F10.0
sVargue
p350
F1.0
sVresolution
p351
F1.0
sVtha
p352
F1.0
saa(lp353
S'C94-215487'
p354
a(dp355
Vllfe
p356
F1.0
sVfeatur
p357
F1.0
sVbe
p358
F1.0
sVca
p359
F1.0
sV~t
p360
F1.0
sVfurther
p361
F1.0
sVet
p362
F1.0
sVsel
p363
F1.0
sV~d
p364
F3.0
sg280
F1.0
sV'll
p365
F1.0
sg7
F1.0
sVto
p366
F1.0
sg8
F4.0
sg256
F14.0
sg10
F8.0
sVre
p367
F1.0
sg239
F1.0
sVstructti
p368
F1.0
sVh
p369
F1.0
sVl'eatur
p370
F1.0
sg258
F4.0
sVrosetd
p371
F1.0
sVmore
p372
F1.0
sVnode
p373
F1.0
sVllows
p374
F1.0
sV~liugs
p375
F1.0
sVwhich
p376
F1.0
sVuntyl
p377
F1.0
sVoml
p378
F1.0
sVfesolv
p379
F1.0
sVusing
p380
F1.0
sg59
F1.0
sVnie
p381
F1.0
sg63
F5.0
sg107
F2.0
sg121
F1.0
sVd
p382
F2.0
sVpondlmt
p383
F1.0
sVi
p384
F1.0
sVsitlgle
p385
F1.0
sVla
p386
F1.0
sVmi
p387
F1.0
sg66
F4.0
sVrty
p388
F1.0
sVst
p389
F1.0
sg240
F1.0
sg127
F1.0
sVplus
p390
F1.0
sg26
F1.0
sVdisjultctivo
p391
F1.0
sVof
p392
F1.0
sVT-FLOAT
p393
F7.0
sVicieutly
p394
F1.0
sVdis
p395
F1.0
saa(lp396
S'C94-215486'
p397
a(dp398
Vand
p399
F2.0
sVdefined
p400
F1.0
sVis
p401
F1.0
sV''
p402
F6.0
sVT-FLOAT
p403
F2.0
sg7
F2.0
sVture
p404
F1.0
sg10
F1.0
sVuni/ication
p405
F1.0
sVT-INT
p406
F6.0
sVway
p407
F1.0
sg369
F1.0
sg107
F1.0
sV=
p408
F2.0
sV``
p409
F4.0
sVhere
p410
F1.0
sVstandard
p411
F1.0
sVfca
p412
F1.0
sg59
F1.0
sV{
p413
F1.0
sg177
F1.0
sVstructures
p414
F1.0
sg384
F1.0
sVof
p415
F2.0
sVill
p416
F1.0
sg66
F1.0
sg240
F4.0
sg26
F1.0
sVsets
p417
F1.0
sVthe
p418
F1.0
sV}
p419
F1.0
saa(lp420
S'C94-215485'
p421
a(dp422
Vit
p423
F1.0
sV''
p424
F2.0
sVin
p425
F1.0
sVsi~ow
p426
F1.0
sVif
p427
F1.0
sg7
F3.0
sVto
p428
F1.0
sg8
F4.0
sg256
F3.0
sVnd
p429
F1.0
sg10
F1.0
sVT-INT
p430
F5.0
sVtj
p431
F1.0
sg107
F1.0
sg408
F1.0
sVthen
p432
F1.0
sV``
p433
F4.0
sVfs
p434
F1.0
sVthat
p435
F1.0
sVfa
p436
F1.0
sg63
F1.0
sV~rl~
p437
F1.0
sg123
F3.0
sg384
F1.0
sg127
F2.0
sg26
F1.0
sVct
p438
F1.0
sVT-FLOAT
p439
F4.0
sg138
F3.0
saa(lp440
S'C94-215484'
p441
a(dp442
Vbe
p443
F1.0
sVwould
p444
F1.0
sVto
p445
F1.0
sVvery
p446
F1.0
sVof
p447
F2.0
sVwork
p448
F1.0
sVit
p449
F1.0
sVstructures
p450
F1.0
sg10
F2.0
sVlarge
p451
F1.0
sVcourse
p452
F1.0
sVefficient
p453
F1.0
sVnot
p454
F1.0
sVsuch
p455
F1.0
sVT-FLOAT
p456
F1.0
sVdisjunctions
p457
F1.0
sVwith
p458
F1.0
sVfeature
p459
F1.0
saa(lp460
S'C94-215483'
p461
a(dp462
Vand
p463
F1.0
sVdrfs
p464
F3.0
sVis
p465
F1.0
sVit
p466
F1.0
sVfeature
p467
F1.0
sVare
p468
F1.0
sVin
p469
F2.0
sVf'e
p470
F1.0
sVany
p471
F1.0
sVif
p472
F1.0
sVgiven
p473
F1.0
sVtype
p474
F1.0
sVadditional
p475
F1.0
sg7
F1.0
sVto
p476
F2.0
sVimplementation
p477
F1.0
sVinferencing
p478
F1.0
sg10
F3.0
sVclass
p479
F1.0
sVT-INT
p480
F1.0
sVmaintain
p481
F1.0
sVclosed
p482
F1.0
sVunder
p483
F1.0
sVconditions
p484
F1.0
sVresolved
p485
F1.0
sVthen
p486
F1.0
sVsatisfiability
p487
F1.0
sVthat
p488
F1.0
sVvery
p489
F1.0
sVuse
p490
F1.0
sVpossible
p491
F1.0
sVimportant
p492
F1.0
sVunification
p493
F1.0
sVthey
p494
F1.0
sVan
p495
F1.0
sVthe
p496
F2.0
sVhe
p497
F1.0
sg63
F1.0
sVappropriatenes
p498
F1.0
sg121
F2.0
sVwould
p499
F1.0
sVstructures
p500
F1.0
sg123
F3.0
sg384
F1.0
sVof
p501
F2.0
sVthis
p502
F1.0
sg240
F1.0
sVwithout
p503
F1.0
sVu
p504
F1.0
sVprinciple
p505
F1.0
sVdisjunctive
p506
F1.0
sVT-FLOAT
p507
F4.0
sVproperty
p508
F2.0
sVprocedure
p509
F1.0
saa(lp510
S'C94-215482'
p511
a(dp512
Vand
p513
F1.0
sVthus
p514
F1.0
sVT-FLOAT
p515
F1.0
sg7
F2.0
sVoverlook
p516
F1.0
sg10
F1.0
sVexclusively
p517
F1.0
sVT-INT
p518
F1.0
sVtile
p519
F1.0
sVtype
p520
F1.0
sg26
F2.0
sVspecifications
p521
F1.0
sVpart
p522
F1.0
sVnot
p523
F1.0
sVencoded
p524
F1.0
sVby
p525
F1.0
sVfor
p526
F1.0
sVof
p527
F1.0
sVresolving
p528
F1.0
sVo
p529
F1.0
sg25
F1.0
sVcan
p530
F1.0
sVthe
p531
F1.0
sVappropriateness
p532
F1.0
saa(lp533
S'C94-215481'
p534
a(dp535
Von
p536
F1.0
sVtype
p537
F1.0
sg10
F2.0
sVhand
p538
F1.0
sVT-FLOAT
p539
F1.0
sVother
p540
F1.0
sValways
p541
F1.0
sVspecies
p542
F1.0
sVthe
p543
F1.0
sVresolution
p544
F1.0
sVconsiders
p545
F1.0
saa(lp546
S'C94-215480'
p547
a(dp548
Vand
p549
F1.0
sVai
p550
F1.0
sVone
p551
F1.0
sV''
p552
F1.0
sVpropriateness
p553
F1.0
sVin
p554
F1.0
sVartition
p555
F1.0
sVfind
p556
F1.0
sVfor
p557
F1.0
sg8
F3.0
sVestahlished
p558
F1.0
sVwell-tyl
p559
F1.0
sg10
F3.0
sVspecies
p560
F1.0
sVto
p561
F1.0
sVsubsumed
p562
F1.0
sVforcing
p563
F1.0
sVtype
p564
F1.0
sVcan
p565
F1.0
sVbe
p566
F1.0
sVhy
p567
F1.0
sVspecifications
p568
F1.0
sVwell-typed
p569
F1.0
sg7
F1.0
sVoverlooks
p570
F1.0
sg63
F1.0
sValone
p571
F1.0
sVencoded
p572
F1.0
sVpart
p573
F1.0
sVby
p574
F2.0
sVcondition
p575
F1.0
sVcase
p576
F1.0
sVconsklering
p577
F1.0
sVwell-typability
p578
F1.0
sVof
p579
F1.0
sVexehisively
p580
F1.0
sg66
F1.0
sVT-FLOAT
p581
F2.0
sVwithout
p582
F1.0
sVoffl
p583
F1.0
sg26
F4.0
sVthe
p584
F4.0
sVahility
p585
F1.0
sVconsequently
p586
F1.0
sg138
F1.0
saa(lp587
S'C94-215489'
p588
a(dp589
g256
F16.0
sg10
F14.0
sVT-INT
p590
F4.0
sVtl
p591
F1.0
sVhas
p592
F1.0
sVtllsl
p593
F1.0
sVly
p594
F1.0
sViul
p595
F1.0
sVstrut
p596
F1.0
sVrosily
p597
F1.0
sVnow
p598
F1.0
sg382
F2.0
sg66
F3.0
sVstrlll
p599
F1.0
sVsee
p600
F1.0
sVshown
p601
F1.0
sg7
F3.0
sg258
F6.0
sVtur
p602
F1.0
sg26
F5.0
sVwe
p603
F1.0
sVnts
p604
F1.0
sVcoml
p605
F1.0
sg59
F4.0
sVila
p606
F1.0
sVk
p607
F1.0
sg529
F1.0
sViuto
p608
F1.0
sg240
F2.0
sVsjunci
p609
F1.0
sg413
F1.0
sVllallv
p610
F1.0
sVttlro
p611
F1.0
sVca
p612
F1.0
sVone
p613
F1.0
sVioli
p614
F1.0
sVps
p615
F1.0
sVfea
p616
F2.0
sVtwo
p617
F1.0
sg107
F12.0
sV-resentaj
p618
F1.0
sg110
F1.0
sV``
p619
F1.0
sVonly
p620
F1.0
sVhi
p621
F2.0
sVllll
p622
F1.0
sVho
p623
F1.0
sVha
p624
F2.0
sVwith
p625
F1.0
sVhe
p626
F1.0
sV''
p627
F2.0
sVfur
p628
F1.0
sg123
F2.0
sVthis
p629
F1.0
sVj
p630
F1.0
sg239
F1.0
sVbelow
p631
F1.0
sVcan
p632
F1.0
sVT-FLOAT
p633
F10.0
sVill
p634
F1.0
sg138
F2.0
sVis
p635
F1.0
sVvo
p636
F1.0
sVii
p637
F1.0
sVil
p638
F1.0
sVl'q
p639
F1.0
sV~d
p640
F1.0
sg280
F1.0
sVlie
p641
F1.0
sV'll
p642
F1.0
sVcolla
p643
F1.0
sg8
F6.0
sg102
F1.0
sVi'e
p644
F1.0
sVwhich
p645
F2.0
sVsolwl
p646
F1.0
sVt-lu
p647
F1.0
sVion
p648
F2.0
sg60
F3.0
sg63
F4.0
sVure
p649
F1.0
sg121
F1.0
sg384
F5.0
sg504
F1.0
sg419
F1.0
sVtha
p650
F1.0
saa(lp651
S'C94-215488'
p652
a(dp653
Vexanh
p654
F1.0
sVencoding
p655
F1.0
sV~solvc
p656
F1.0
sVea
p657
F1.0
sVin
p658
F1.0
sVour
p659
F1.0
sVructure
p660
F1.0
sVle
p661
F1.0
sg7
F2.0
sg8
F5.0
sg256
F8.0
sVsul
p662
F1.0
sg10
F9.0
sg127
F1.0
sVbool
p663
F2.0
sg258
F2.0
sg107
F1.0
sV\u005cv
p664
F1.0
sVjunction
p665
F1.0
sV,yl
p666
F1.0
sVusing
p667
F1.0
sg59
F4.0
sg60
F3.0
sVthe
p668
F1.0
sVfo
p669
F1.0
sg63
F1.0
sVurc
p670
F1.0
sg384
F3.0
sVi'~
p671
F1.0
sg123
F1.0
sg66
F2.0
sVst
p672
F1.0
sg25
F1.0
sg240
F1.0
sV're
p673
F1.0
sg26
F2.0
sVof
p674
F1.0
sVfl
p675
F1.0
sVT-FLOAT
p676
F2.0
sV~rdemann
p677
F1.0
sVos
p678
F1.0
sg138
F3.0
saa(lp679
S'C94-215469'
p680
a(dp681
Vrfs
p682
F1.0
sg63
F1.0
sVand
p683
F2.0
sVfs
p684
F1.0
sg121
F1.0
sg7
F2.0
sVthat
p685
F1.0
sVof
p686
F1.0
sVis
p687
F1.0
sg123
F5.0
sViff
p688
F1.0
sVsame
p689
F1.0
sVsay
p690
F1.0
sVunderlying
p691
F1.0
sVgraph
p692
F1.0
sVhave
p693
F1.0
sVresolvant
p694
F1.0
sVf'e
p695
F1.0
sVthe
p696
F1.0
sVT-FLOAT
p697
F1.0
sVsubsumes
p698
F1.0
saa(lp699
S'C94-215468'
p700
a(dp701
Vand
p702
F2.0
sV~vf
p703
F1.0
sVwe
p704
F1.0
sVfs
p705
F1.0
sg134
F1.0
sVfor
p706
F1.0
sg8
F1.0
sg65
F1.0
sVdisjunctive
p707
F1.0
sg10
F2.0
sV'd~
p708
F1.0
sVfeature
p709
F3.0
sVwrite
p710
F1.0
sVT-INT
p711
F1.0
sVcollections
p712
F1.0
sVrespectively
p713
F1.0
sVof
p714
F1.0
sVresolved
p715
F2.0
sVT-FLOAT
p716
F2.0
sVstructures
p717
F3.0
sVthe
p718
F1.0
saa(lp719
S'C94-215461'
p720
a(dp721
VT-INT
p722
F1.0
sg59
F1.0
sVsag
p723
F1.0
sVT-FLOAT
p724
F1.0
sg60
F1.0
saa(lp725
S'C94-215460'
p726
a(dp727
Vexplicitly
p728
F1.0
sVmade
p729
F1.0
sVart
p730
F1.0
sg382
F1.0
sg7
F1.0
sVcl
p731
F1.0
sg10
F4.0
sVassulnplions
p732
F1.0
sVpollard
p733
F1.0
sg240
F1.0
sVihesc
p734
F1.0
sg26
F1.0
sVin
p735
F1.0
sVworld
p736
F1.0
sVT-FLOAT
p737
F1.0
sV<
p738
F1.0
sg110
F1.0
saa(lp739
S'C94-215463'
p740
a(dp741
Vwell-typability
p742
F1.0
sVthat
p743
F1.0
sVis
p744
F1.0
sg10
F1.0
sVsatisfied
p745
F1.0
sVto
p746
F1.0
sVensure
p747
F1.0
sVare
p748
F1.0
sVdisjunctive
p749
F1.0
sVnot
p750
F1.0
sVfcrs
p751
F1.0
sVT-FLOAT
p752
F1.0
sVsufficient
p753
F1.0
sVunfortunately
p754
F1.0
saa(lp755
S'C94-215462'
p756
a(dp757
Vall
p758
F3.0
sVis
p759
F1.0
sg10
F3.0
sVare
p760
F2.0
sVin
p761
F2.0
sVsubsumes
p762
F1.0
sVfeature
p763
F4.0
sVto
p764
F1.0
sVtyped
p765
F1.0
sVemployed
p766
F1.0
sg107
F1.0
sVtype
p767
F1.0
sVthat
p768
F1.0
sVwell-typed
p769
F1.0
sVT-FLOAT
p770
F2.0
sVstructure
p771
F2.0
sg63
F1.0
sV--
p772
F1.0
sVstructures
p773
F2.0
sVwell
p774
F1.0
sViff
p775
F1.0
sVensure
p776
F1.0
sVinfereneing
p777
F1.0
sVthe
p778
F1.0
sVwell-typable
p779
F2.0
sVfact
p780
F1.0
saa(lp781
S'C94-215465'
p782
a(dp783
Vand
p784
F1.0
sVtrivially
p785
F1.0
sVwell-typed
p786
F1.0
sVis
p787
F1.0
sg10
F1.0
sVT-INT
p788
F1.0
sVhence
p789
F1.0
sVT-FLOAT
p790
F1.0
sVwell-typable
p791
F1.0
saa(lp792
S'C94-215464'
p793
a(dp794
Vand
p795
F1.0
sVconsider
p796
F1.0
sVature
p797
F1.0
sVencoding
p798
F1.0
sVis
p799
F1.0
sVour
p800
F1.0
sVfor
p801
F1.0
sV+
p802
F1.0
sg102
F1.0
sg10
F4.0
sVT-INT
p803
F2.0
sVexampie
p804
F1.0
sg107
F2.0
sVfcr
p805
F1.0
sVthat
p806
F1.0
sVfe
p807
F1.0
sg59
F1.0
sg60
F1.0
sVT-FLOAT
p808
F1.0
sVstructure
p809
F1.0
sg123
F1.0
sVof
p810
F1.0
sg25
F1.0
sVsuppose
p811
F1.0
sg26
F1.0
sVdisjunctive
p812
F1.0
sVthe
p813
F2.0
saa(lp814
S'C94-215467'
p815
a(dp816
Vand
p817
F1.0
sVdeciding
p818
F1.0
sVall
p819
F1.0
sVset
p820
F1.0
sVis
p821
F2.0
sVwithin
p822
F1.0
sVidea
p823
F1.0
sg10
F4.0
sVpaper
p824
F1.0
sVgraph
p825
F1.0
sVare
p826
F1.0
sVhave
p827
F1.0
sVin
p828
F3.0
sVT-FLOAT
p829
F1.0
sVspecies
p830
F1.0
sVtroll
p831
F1.0
sVdiffer
p832
F1.0
sVdescribed
p833
F1.0
sg8
F1.0
sVwith
p834
F1.0
sVlabellings
p835
F1.0
sVsystem
p836
F1.0
sVsame
p837
F1.0
sVunderlying
p838
F1.0
sVtheir
p839
F1.0
sVwell-formedness
p840
F1.0
sVcall
p841
F2.0
sg256
F1.0
sVwhich
p842
F2.0
sVnodes
p843
F1.0
sVhas
p844
F1.0
sVstructures
p845
F1.0
sg738
F1.0
sVcontrast
p846
F1.0
sg110
F1.0
sVresolved
p847
F3.0
sVonly
p848
F1.0
sVnode
p849
F1.0
sVthat
p850
F2.0
sVwell-typed
p851
F1.0
sVlabelled
p852
F1.0
sVthey
p853
F1.0
sVbased
p854
F1.0
sVan
p855
F1.0
sVrepresenting
p856
F1.0
sVby
p857
F1.0
sVstructure
p858
F4.0
sVefficiently
p859
F1.0
sg63
F4.0
sVon
p860
F1.0
sValgorithm
p861
F1.0
sg123
F1.0
sVthis
p862
F1.0
sVof
p863
F2.0
sVpossibilities
p864
F1.0
sg127
F1.0
sVetfeetive
p865
F1.0
sVdisjunctive
p866
F2.0
sVthe
p867
F4.0
sVfeature
p868
F5.0
saa(lp869
S'C94-215466'
p870
a(dp871
Vfcr
p872
F1.0
sVvb
p873
F1.0
sVas
p874
F1.0
sVunfortunately
p875
F1.0
sg25
F1.0
sVcould
p876
F1.0
sg10
F1.0
sVone
p877
F1.0
sVT-INT
p878
F1.0
sVonly
p879
F1.0
sVway
p880
F1.0
sVelates
p881
F1.0
sVdisjunctive
p882
F1.0
sVencoded
p883
F1.0
sVthe
p884
F2.0
sVwell-formed
p885
F1.0
sVT-FLOAT
p886
F2.0
sVinterpret
p887
F1.0
sg138
F1.0
saa(lp888
S'C94-2154109'
p889
a(dp890
Voll
p891
F1.0
sVoue
p892
F1.0
sVconsidm
p893
F1.0
sg7
F2.0
sg256
F6.0
sVll
p894
F1.0
sg10
F4.0
sVmight
p895
F1.0
sVowil
p896
F1.0
sVllollrecursiv
p897
F1.0
sVhi|
p898
F1.0
sV'y
p899
F1.0
sVdefiltcd
p900
F1.0
sVuew'rtholoss
p901
F1.0
sVhl
p902
F1.0
sg59
F2.0
sg60
F1.0
sg63
F3.0
sVypcs
p903
F1.0
sg123
F3.0
sVqy
p904
F1.0
sg66
F3.0
sg240
F1.0
sg26
F1.0
sVT-FLOAT
p905
F2.0
sV'oils
p906
F1.0
saa(lp907
S'C94-2154108'
p908
a(dp909
Vrecursiv
p910
F1.0
sVin
p911
F1.0
sVtroll
p912
F1.0
sg7
F1.0
sV'ly
p913
F1.0
sg8
F2.0
sg256
F4.0
sg10
F4.0
sVre
p914
F1.0
sg258
F2.0
sVlea
p915
F1.0
sV~olv
p916
F1.0
sVyl
p917
F1.0
sV~quii'oxl
p918
F1.0
sVnot
p919
F1.0
sVsuch
p920
F1.0
sg59
F2.0
sVthe
p921
F1.0
sg63
F2.0
sg384
F1.0
sVcould
p922
F1.0
sV-~nl
p923
F1.0
sg66
F2.0
sg529
F1.0
sg240
F1.0
sg127
F1.0
sVT-FLOAT
p924
F6.0
sVrecomlfiled
p925
F1.0
sg138
F3.0
saa(lp926
S'C94-2154105'
p927
a(dp928
Vilut
p929
F1.0
sVwhat
p930
F1.0
sVT-FLOAT
p931
F1.0
saa(lp932
S'C94-2154104'
p933
a(dp934
Vand
p935
F1.0
sV:~r
p936
F1.0
sV~ss
p937
F1.0
sVimlflemc
p938
F1.0
sVions
p939
F1.0
sVvol
p940
F1.0
sVraints
p941
F1.0
sVry
p942
F1.0
sg738
F1.0
sVutdlica
p943
F1.0
sVlion
p944
F1.0
sVapi
p945
F1.0
sV,ritna
p946
F1.0
sVvu
p947
F1.0
sVin
p948
F2.0
sVic
p949
F1.0
sVst
p950
F1.0
sV'-
p951
F1.0
sVru
p952
F1.0
sg52
F1.0
sg7
F1.0
sVul
p953
F1.0
sg8
F6.0
sVtyp
p954
F1.0
sg802
F1.0
sVrh~
p955
F1.0
sg10
F18.0
sVruct
p956
F1.0
sV\u005c
p957
F1.0
sg127
F2.0
sVcall
p958
F1.0
sVfeatu
p959
F1.0
sg258
F3.0
sg107
F3.0
sVconsl
p960
F1.0
sVnted
p961
F1.0
sV'actical
p962
F1.0
sVur
p963
F1.0
sVc~mdit
p964
F1.0
sVhavc~
p965
F1.0
sVity
p966
F1.0
sVu'a
p967
F1.0
sVkind
p968
F1.0
sVure~
p969
F1.0
sg110
F1.0
sV:y
p970
F1.0
sg121
F1.0
sV:'~
p971
F1.0
sg60
F1.0
sVT-FLOAT
p972
F15.0
sVhe
p973
F2.0
sg63
F2.0
sVon
p974
F1.0
sVi~al
p975
F1.0
sVol
p976
F1.0
sVt~ssihlo
p977
F1.0
sg382
F1.0
sV,n
p978
F1.0
sVthis
p979
F1.0
sVof
p980
F1.0
sVloyink
p981
F1.0
sVm
p982
F1.0
sg66
F2.0
sg239
F1.0
sV:~xl
p983
F1.0
sg384
F3.0
sg240
F2.0
sVsh
p984
F1.0
sg26
F6.0
sg256
F4.0
sVsle
p985
F1.0
sVthe
p986
F1.0
sVuf
p987
F1.0
sVor
p988
F1.0
sVtha
p989
F1.0
saa(lp990
S'C94-2154107'
p991
a(dp992
V:~s
p993
F1.0
sVrest
p994
F1.0
sVin
p995
F1.0
sVappend
p996
F1.0
sV~liniu/
p997
F1.0
sg7
F1.0
sg8
F1.0
sg256
F2.0
sg60
F1.0
sg10
F5.0
sVo~sihillty
p998
F1.0
sg107
F2.0
sg738
F1.0
sVleli
p999
F1.0
sVyl
p1000
F1.0
sVrecursivc
p1001
F1.0
sVsuch
p1002
F1.0
sg59
F1.0
sVnitkm
p1003
F1.0
sVT-FLOAT
p1004
F5.0
sg63
F1.0
sg121
F1.0
sg382
F1.0
sg123
F1.0
sg384
F1.0
sVof
p1005
F2.0
sVallows
p1006
F1.0
sg66
F1.0
sg240
F2.0
sVralid
p1007
F1.0
sVthe
p1008
F2.0
sg138
F1.0
saa(lp1009
S'C94-2154106'
p1010
a(dp1011
Viilol
p1012
F1.0
sVit~v
p1013
F1.0
sVncies
p1014
F1.0
sVilll
p1015
F1.0
sVcc'iih|
p1016
F1.0
sV~n
p1017
F1.0
sg7
F6.0
sV~enl
p1018
F1.0
sg8
F2.0
sg256
F5.0
sVies
p1019
F1.0
sg10
F3.0
sVntro
p1020
F1.0
sVra
p1021
F1.0
sg258
F3.0
sg107
F2.0
sVram
p1022
F1.0
sVreejh
p1023
F1.0
sVil~ciug
p1024
F1.0
sVyp
p1025
F1.0
sg59
F2.0
sVcoiii
p1026
F1.0
sg123
F1.0
sg384
F1.0
sVof
p1027
F1.0
sg66
F2.0
sV~lili|
p1028
F1.0
sVh~y
p1029
F1.0
sg127
F1.0
sV,q
p1030
F1.0
sVT-FLOAT
p1031
F6.0
sg138
F1.0
saa(lp1032
S'C94-2154101'
p1033
a(dp1034
Vil
p1035
F1.0
sV~d
p1036
F1.0
sVct
p1037
F1.0
sg280
F1.0
sg7
F2.0
sg8
F5.0
sg256
F4.0
sg60
F1.0
sg10
F2.0
sVonly
p1038
F1.0
sg258
F1.0
sV_c
p1039
F1.0
sg199
F1.0
sVbe
p1040
F1.0
sV``
p1041
F1.0
sVmded
p1042
F1.0
sVlmther
p1043
F1.0
sVjr
p1044
F1.0
sVoml
p1045
F1.0
sg59
F1.0
sVwith
p1046
F1.0
sVT-FLOAT
p1047
F5.0
sg63
F2.0
sVassuml
p1048
F1.0
sg384
F1.0
sg982
F1.0
sg66
F1.0
sg529
F1.0
sVwill
p1049
F1.0
sVext
p1050
F1.0
sg127
F1.0
sg26
F3.0
sg241
F1.0
sVtion
p1051
F1.0
sVtha
p1052
F1.0
sVunil'ying
p1053
F1.0
saa(lp1054
S'C94-2154100'
p1055
a(dp1056
Vin
p1057
F1.0
sVT-FLOAT
p1058
F1.0
sg280
F2.0
sVlc
p1059
F1.0
sg7
F1.0
sg8
F1.0
sg256
F2.0
sg802
F2.0
sVxalll
p1060
F1.0
sg107
F4.0
sg110
F1.0
sVc/
p1061
F1.0
sg59
F1.0
sg60
F3.0
sVthe
p1062
F1.0
sVt'ii
p1063
F1.0
sg630
F1.0
sg240
F1.0
sg26
F1.0
sg413
F2.0
sg419
F1.0
sVollowiug
p1064
F1.0
sg138
F2.0
saa(lp1065
S'C94-2154103'
p1066
a(dp1067
Vunlylmd
p1068
F1.0
sVtures
p1069
F1.0
sg256
F33.0
sVll
p1070
F1.0
sVhad
p1071
F1.0
sg10
F14.0
sVli
p1072
F2.0
sVT-INT
p1073
F4.0
sVlu
p1074
F2.0
sV~tll
p1075
F1.0
sVrelnov
p1076
F1.0
sVvery
p1077
F2.0
sVnot
p1078
F1.0
sVmsive
p1079
F1.0
sg382
F2.0
sg369
F1.0
sg66
F4.0
sg26
F1.0
sV|
p1080
F1.0
sVlips
p1081
F1.0
sVour
p1082
F1.0
sVev
p1083
F1.0
sVq'hus~
p1084
F1.0
sg7
F3.0
sVmerally
p1085
F1.0
sVsihle
p1086
F1.0
sV'en
p1087
F1.0
sV+s
p1088
F1.0
sVre
p1089
F2.0
sVunifica
p1090
F1.0
sg258
F4.0
sVtur
p1091
F2.0
sVm-tranci
p1092
F1.0
sVomi
p1093
F1.0
sVoen
p1094
F1.0
sg59
F3.0
sg177
F1.0
sVtlt
p1095
F1.0
sVinvolved
p1096
F1.0
sVfea
p1097
F1.0
sVql
p1098
F1.0
sg240
F1.0
sVatu
p1099
F1.0
sVlll'es
p1100
F1.0
sV~ra
p1101
F1.0
sVos
p1102
F1.0
sV'es
p1103
F1.0
sVnamed
p1104
F1.0
sVrchi
p1105
F1.0
sVwil
p1106
F1.0
sVthest~
p1107
F1.0
sVlisjunc-lions
p1108
F1.0
sVwould
p1109
F1.0
sVto
p1110
F1.0
sVsli'uc-l
p1111
F1.0
sg107
F5.0
sVtype
p1112
F1.0
sVpl
p1113
F1.0
sVmore
p1114
F1.0
sV``
p1115
F1.0
sVthat
p1116
F1.0
sVhi
p1117
F1.0
sVha
p1118
F3.0
sVwith
p1119
F1.0
sVhowover
p1120
F1.0
sVgt+tlera
p1121
F1.0
sg123
F1.0
sg239
F1.0
sVmt
p1122
F1.0
sVuo
p1123
F1.0
sV~xp
p1124
F1.0
sVof
p1125
F1.0
sVT-FLOAT
p1126
F15.0
sVeri
p1127
F1.0
sg138
F3.0
sVintrodu
p1128
F1.0
sVva
p1129
F1.0
sVh+x
p1130
F1.0
sVis
p1131
F1.0
sV~s
p1132
F1.0
sViu
p1133
F1.0
sVit
p1134
F1.0
sVuuilica
p1135
F1.0
sVif
p1136
F1.0
sg280
F2.0
sg8
F9.0
sVlim
p1137
F1.0
sVnd
p1138
F1.0
sVtim
p1139
F1.0
sVi'ow
p1140
F1.0
sVur
p1141
F2.0
sV's
p1142
F3.0
sVfu
p1143
F1.0
sVlmve
p1144
F1.0
sV'x
p1145
F1.0
sVion
p1146
F1.0
sV'e
p1147
F1.0
sg63
F2.0
sg121
F1.0
sg384
F8.0
sVexl
p1148
F1.0
sg982
F1.0
sVtit
p1149
F1.0
sVtha
p1150
F1.0
sVsl
p1151
F1.0
sVse
p1152
F1.0
saa(lp1153
S'C94-2154102'
p1154
a(dp1155
Vnamed
p1156
F1.0
sVsimple
p1157
F1.0
sVca
p1158
F1.0
sViu
p1159
F1.0
sVwer
p1160
F1.0
sg256
F2.0
sg10
F2.0
sVT-INT
p1161
F1.0
sVwhich
p1162
F1.0
sg107
F1.0
sVwa
p1163
F1.0
sVjun
p1164
F1.0
sVho
p1165
F1.0
sVremoved
p1166
F1.0
sVthe
p1167
F1.0
sg63
F2.0
sVthis
p1168
F1.0
sg369
F1.0
sVcould
p1169
F1.0
sVtion
p1170
F1.0
sg384
F1.0
sg240
F1.0
sVw
p1171
F1.0
sVof
p1172
F1.0
sVT-FLOAT
p1173
F7.0
sVse
p1174
F1.0
sVdis
p1175
F1.0
saa(lp1176
S'C94-215458'
p1177
a(dp1178
g63
F2.0
sVrodllced
p1179
F1.0
sVpart
p1180
F1.0
sVsl
p1181
F1.0
sg256
F1.0
sViou
p1182
F1.0
sVonilli
p1183
F1.0
sg102
F1.0
sVal
p1184
F1.0
sg529
F1.0
sVage
p1185
F1.0
sVhll
p1186
F1.0
sg258
F1.0
sg59
F2.0
sVT-FLOAT
p1187
F5.0
sg738
F1.0
saa(lp1188
S'C94-215459'
p1189
a(dp1190
Vhal
p1191
F1.0
sg384
F1.0
sVnob
p1192
F1.0
sVT-INT
p1193
F1.0
sVT-FLOAT
p1194
F2.0
sg107
F1.0
saa(lp1195
S'C94-215455'
p1196
a(dp1197
Vfor
p1198
F1.0
sg256
F1.0
sg10
F1.0
sVto
p1199
F1.0
sVllsllt't
p1200
F1.0
sVT-FLOAT
p1201
F1.0
sVthai
p1202
F1.0
sg107
F2.0
sVexample
p1203
F1.0
saa(lp1204
S'C94-215456'
p1205
a(dp1206
Vnlust
p1207
F1.0
sVapprop
p1208
F2.0
sVsubsuuied
p1209
F1.0
sVtirst
p1210
F1.0
sVhll
p1211
F1.0
sVchaiu
p1212
F1.0
sVducc
p1213
F1.0
sg52
F1.0
sVfor
p1214
F1.0
sg8
F3.0
sg256
F2.0
sg10
F6.0
sV/
p1215
F1.0
sVro
p1216
F1.0
sVtype
p1217
F1.0
sVvahie
p1218
F1.0
sVlakes
p1219
F1.0
sV'a
p1220
F1.0
sVpath
p1221
F1.0
sVone
p1222
F1.0
sVT-FLOAT
p1223
F5.0
sVhe
p1224
F1.0
sg63
F1.0
sg177
F1.0
sg123
F1.0
sg384
F2.0
sg408
F2.0
sg66
F1.0
sg241
F1.0
sVthe
p1225
F2.0
sg138
F1.0
saa(lp1226
S'C94-215457'
p1227
a(dp1228
Vlts
p1229
F1.0
sg280
F1.0
sg8
F1.0
sVsilch
p1230
F1.0
sg256
F1.0
sVll
p1231
F1.0
sVilil
p1232
F1.0
sg384
F1.0
sVcollid
p1233
F1.0
sVcrlllcdialc
p1234
F1.0
sVT-FLOAT
p1235
F2.0
sV'~'l
p1236
F1.0
saa(lp1237
S'C94-215450'
p1238
a(dp1239
Vrol
p1240
F1.0
sVis
p1241
F1.0
sVic
p1242
F1.0
sg59
F1.0
sVl'hc
p1243
F1.0
sg7
F1.0
sg8
F2.0
sg256
F2.0
sg10
F2.0
sVxpr
p1244
F1.0
sV``
p1245
F1.0
sV's
p1246
F1.0
sViiuguisl
p1247
F1.0
sVhowever
p1248
F1.0
sVl'cal
p1249
F1.0
sVjl/
p1250
F1.0
sg63
F1.0
sg65
F1.0
sVsshig
p1251
F1.0
sg123
F1.0
sg384
F1.0
sVprolileni
p1252
F1.0
sg529
F1.0
sVT-FLOAT
p1253
F4.0
sVlcin
p1254
F1.0
saa(lp1255
S'C94-215451'
p1256
a(dp1257
g384
F1.0
sVcopcstakc
p1258
F1.0
sg8
F1.0
sVas
p1259
F1.0
sg241
F1.0
sVT-FLOAT
p1260
F1.0
sVnoted
p1261
F1.0
saa(lp1262
S'C94-215452'
p1263
a(dp1264
Val
p1265
F1.0
sg10
F1.0
sVT-INT
p1266
F1.0
sVit
p1267
F1.0
sg59
F1.0
sg60
F1.0
sVT-FLOAT
p1268
F2.0
sVct
p1269
F1.0
saa(lp1270
S'C94-215453'
p1271
a(dp1272
g65
F1.0
sVxpress
p1273
F1.0
sg60
F1.0
sg384
F1.0
sg256
F1.0
sVinipossihlc
p1274
F1.0
sVom
p1275
F1.0
sg529
F1.0
sg8
F1.0
sV~ilii
p1276
F1.0
sg59
F1.0
sVihc
p1277
F1.0
sVT-FLOAT
p1278
F4.0
sVwas
p1279
F1.0
sVcv
p1280
F1.0
sV'ii
p1281
F1.0
saa(lp1282
S'C94-2154112'
p1283
a(dp1284
VT-FLOAT
p1285
F1.0
sVit
p1286
F1.0
saa(lp1287
S'C94-2154113'
p1288
a(dp1289
Vtat
p1290
F1.0
sVlclncut
p1291
F1.0
sViinl
p1292
F1.0
sVtsum
p1293
F1.0
sVko
p1294
F1.0
sVis
p1295
F1.0
sVericl~
p1296
F1.0
sVwiit-t
p1297
F1.0
sVsystem
p1298
F1.0
sV''
p1299
F1.0
sg7
F1.0
sVlhases
p1300
F1.0
sVlll
p1301
F2.0
sVihc
p1302
F1.0
sVcxl
p1303
F1.0
sVmalfl
p1304
F1.0
sVig
p1305
F1.0
sV~sti
p1306
F1.0
sVby
p1307
F1.0
sVi'hhard
p1308
F1.0
sVaud
p1309
F1.0
sVwould
p1310
F1.0
sg8
F6.0
sg256
F12.0
sg10
F10.0
sVfor
p1311
F1.0
sVcd
p1312
F1.0
sVto
p1313
F1.0
sV'n
p1314
F1.0
sVmcuh_
p1315
F1.0
sVditional
p1316
F1.0
sVwhich
p1317
F1.0
sVkazawa
p1318
F1.0
sVjustified
p1319
F1.0
sg107
F4.0
sVwas
p1320
F1.0
sg738
F1.0
sg110
F2.0
sg280
F1.0
sVilillrichs
p1321
F1.0
sV's
p1322
F1.0
sV'our
p1323
F1.0
sVmpl
p1324
F1.0
sVderived
p1325
F1.0
sVclmar
p1326
F1.0
sV'thef
p1327
F1.0
sVtest-i
p1328
F1.0
sVsuch
p1329
F1.0
sVwh
p1330
F1.0
sg258
F2.0
sVlar
p1331
F1.0
sg63
F3.0
sV'l'loll
p1332
F1.0
sg65
F1.0
sVflora
p1333
F1.0
sg121
F4.0
sg382
F2.0
sg177
F1.0
sg384
F6.0
sg630
F1.0
sg982
F1.0
sg66
F3.0
sVramul
p1334
F1.0
sV'imarily
p1335
F1.0
sVimfiial
p1336
F1.0
sVher
p1337
F1.0
sVna
p1338
F1.0
sg241
F2.0
sVT-FLOAT
p1339
F7.0
sVvcrh
p1340
F1.0
sV~xit
p1341
F1.0
sg138
F1.0
saa(lp1342
S'C94-2154110'
p1343
a(dp1344
Vva
p1345
F1.0
sVhold
p1346
F1.0
sVthen
p1347
F1.0
sVmliti
p1348
F1.0
sVii
p1349
F1.0
sVil
p1350
F1.0
sVresc
p1351
F1.0
sVtill't
p1352
F1.0
sVstill
p1353
F1.0
sVrticu
p1354
F1.0
sVnantcly
p1355
F1.0
sVha
p1356
F1.0
sg7
F2.0
sVuts
p1357
F1.0
sg8
F8.0
sg60
F1.0
sVll
p1358
F1.0
sVnd
p1359
F1.0
sg10
F7.0
sVsame
p1360
F1.0
sVl'eso
p1361
F1.0
sVtn
p1362
F1.0
sVT-INT
p1363
F2.0
sVpa
p1364
F1.0
sV~onll'all
p1365
F1.0
sVth
p1366
F1.0
sVfrail
p1367
F1.0
sVlon~e
p1368
F1.0
sg258
F1.0
sg107
F3.0
sVshal
p1369
F1.0
sVsonic
p1370
F1.0
sV``
p1371
F1.0
sVarises
p1372
F1.0
sVro/
p1373
F1.0
sVwith
p1374
F1.0
sVv
p1375
F1.0
sViliad
p1376
F1.0
sV:~
p1377
F1.0
sg59
F2.0
sg127
F1.0
sVqll'tlci
p1378
F1.0
sVthe
p1379
F1.0
sVlar
p1380
F1.0
sg63
F5.0
sVlhe
p1381
F1.0
sVwould
p1382
F1.0
sVof
p1383
F1.0
sVleul
p1384
F1.0
sg982
F1.0
sV\u005cvilh
p1385
F1.0
sVul
p1386
F1.0
sg240
F1.0
sVludcd
p1387
F1.0
sVlva
p1388
F1.0
sg256
F11.0
sg241
F1.0
sVT-FLOAT
p1389
F9.0
sVitts
p1390
F1.0
sVill
p1391
F1.0
sg138
F4.0
saa(lp1392
S'C94-2154111'
p1393
a(dp1394
Vit
p1395
F1.0
sVT-INT
p1396
F1.0
sVher
p1397
F1.0
sVno
p1398
F1.0
sg8
F5.0
sg256
F7.0
sg10
F9.0
sVvorsion
p1399
F1.0
sVtio
p1400
F1.0
sVlis
p1401
F1.0
sVloy
p1402
F1.0
sVmed
p1403
F1.0
sVmoue
p1404
F1.0
sVottkl
p1405
F1.0
sVcoml
p1406
F1.0
sg59
F1.0
sg60
F2.0
sg63
F2.0
sg107
F1.0
sg123
F1.0
sg384
F2.0
sVeml
p1407
F1.0
sVill
p1408
F1.0
sg66
F3.0
sg529
F1.0
sVq'or
p1409
F1.0
sVtit
p1410
F1.0
sg127
F1.0
sg26
F1.0
sg1375
F1.0
sVue
p1411
F1.0
sVx
p1412
F1.0
sVT-FLOAT
p1413
F8.0
sg138
F2.0
saa(lp1414
S'C94-2154116'
p1415
a(dp1416
g63
F1.0
sVwe
p1417
F1.0
sVjustification
p1418
F1.0
sVgeneral
p1419
F1.0
sVfor
p1420
F1.0
sVthis
p1421
F1.0
sVformalisms
p1422
F1.0
sVas
p1423
F1.0
sVtake
p1424
F1.0
sVin
p1425
F1.0
sVT-FLOAT
p1426
F1.0
sVappropriateness
p1427
F1.0
saa(lp1428
S'C94-2154117'
p1429
a(dp1430
Vand
p1431
F1.0
sVattachments
p1432
F1.0
sVit
p1433
F1.0
sVas
p1434
F1.0
sVanother
p1435
F1.0
sVsense
p1436
F1.0
sVclauses
p1437
F1.0
sV~d
p1438
F1.0
sVout
p1439
F1.0
sg8
F1.0
sVdefinite
p1440
F1.0
sg10
F2.0
sVto
p1441
F2.0
sVcomplex
p1442
F1.0
sVmore
p1443
F1.0
sVthen
p1444
F1.0
sVexpress
p1445
F1.0
sVprocessable
p1446
F1.0
sVsuch
p1447
F1.0
sVT-FLOAT
p1448
F1.0
sVefficiently
p1449
F1.0
sVof
p1450
F1.0
sVstraet
p1451
F1.0
sVmechalfism
p1452
F1.0
sVallow
p1453
F1.0
sVthe
p1454
F1.0
sVmakes
p1455
F1.0
sVconstraints
p1456
F2.0
saa(lp1457
S'C94-2154114'
p1458
a(dp1459
Vlimited
p1460
F1.0
sVhandle
p1461
F1.0
sVthis
p1462
F1.0
sVof
p1463
F1.0
sVreentrancyconstraints
p1464
F1.0
sVT-FLOAT
p1465
F1.0
sVclass
p1466
F1.0
saa(lp1467
S'C94-2154115'
p1468
a(dp1469
Vthen
p1470
F1.0
sVby
p1471
F1.0
sVpreeompiled
p1472
F1.0
sVthat
p1473
F3.0
sVbe
p1474
F2.0
sVof
p1475
F2.0
sVT-FLOAT
p1476
F1.0
sVefficiently
p1477
F1.0
sVseems
p1478
F1.0
sVit
p1479
F1.0
sVexpressed
p1480
F1.0
sg10
F1.0
sVto
p1481
F1.0
sVcorresponds
p1482
F1.0
sVcan
p1483
F2.0
sVclosely
p1484
F1.0
sVthe
p1485
F2.0
sVappropriateness
p1486
F1.0
sVconditions
p1487
F1.0
sVclass
p1488
F2.0
sVconstraints
p1489
F2.0
saa(lp1490
S'C94-215443'
p1491
a(dp1492
g63
F1.0
sVorlila
p1493
F1.0
sViiol
p1494
F1.0
sg241
F1.0
sg8
F1.0
sg10
F1.0
sVtill
p1495
F1.0
sVeness
p1496
F1.0
sVllia
p1497
F1.0
sg59
F1.0
sVriill
p1498
F1.0
sVT-FLOAT
p1499
F4.0
sg738
F1.0
sVlislll
p1500
F1.0
sVllln'ol
p1501
F1.0
saa(lp1502
S'C94-215442'
p1503
a(dp1504
Vition
p1505
F1.0
sVpria
p1506
F1.0
sVprl
p1507
F1.0
sVhlt
p1508
F1.0
sg66
F2.0
sV''
p1509
F1.0
sVcoll
p1510
F1.0
sVornia
p1511
F1.0
sVqeqll
p1512
F1.0
sVlld
p1513
F1.0
sVrt
p1514
F1.0
sg8
F4.0
sg256
F2.0
sg10
F6.0
sg1215
F1.0
sVT-INT
p1515
F1.0
sVelless
p1516
F1.0
sVdisjuncl
p1517
F1.0
sVencode
p1518
F1.0
sV--
p1519
F1.0
sg258
F1.0
sVselil
p1520
F1.0
sVlid
p1521
F1.0
sVi/lily
p1522
F1.0
sVrl
p1523
F1.0
sVproperly
p1524
F1.0
sVhi~t
p1525
F1.0
sg59
F2.0
sVan
p1526
F1.0
sg60
F1.0
sVthe
p1527
F3.0
sg63
F4.0
sVtion
p1528
F1.0
sg384
F3.0
sVill
p1529
F1.0
sVwilhout
p1530
F1.0
sVmi
p1531
F1.0
sVl/o
p1532
F1.0
sVcoll-d
p1533
F1.0
sg25
F1.0
sg240
F1.0
sg26
F2.0
sVoilly
p1534
F1.0
sVT-FLOAT
p1535
F9.0
sVi'el
p1536
F1.0
sVislli
p1537
F1.0
sVor
p1538
F1.0
saa(lp1539
S'C94-215441'
p1540
a(dp1541
Vci
p1542
F1.0
sVconsider
p1543
F1.0
sVfor
p1544
F1.0
sg384
F1.0
sVexalnple
p1545
F1.0
sg10
F1.0
sV''
p1546
F1.0
sVdisjunctive
p1547
F1.0
sg413
F1.0
sVT-FLOAT
p1548
F1.0
saa(lp1549
S'C94-215440'
p1550
a(dp1551
Vall
p1552
F2.0
sVapprop
p1553
F1.0
sVboth
p1554
F1.0
sVlll
p1555
F1.0
sVrtition
p1556
F1.0
sVboul
p1557
F1.0
sg256
F9.0
sg10
F20.0
sVT-INT
p1558
F10.0
sVti
p1559
F1.0
sVitd
p1560
F1.0
sVly
p1561
F1.0
sVdisjull
p1562
F1.0
sVevery
p1563
F1.0
sVnot
p1564
F1.0
sVtheu
p1565
F1.0
sVl/
p1566
F1.0
sg66
F5.0
sg25
F1.0
sVeither
p1567
F1.0
sVeach
p1568
F2.0
sVel
p1569
F1.0
sViecl
p1570
F1.0
sVsecond
p1571
F1.0
sVconditioii
p1572
F1.0
sVtes
p1573
F1.0
sV#
p1574
F1.0
sg7
F5.0
sVdoes
p1575
F1.0
sg258
F5.0
sVhellceforth
p1576
F1.0
sg26
F6.0
sVeliess
p1577
F1.0
sVslllile
p1578
F1.0
sVort
p1579
F1.0
sVltroltrim
p1580
F1.0
sVclosed-world
p1581
F1.0
sVkes
p1582
F1.0
sVby
p1583
F1.0
sVuieet
p1584
F1.0
sg65
F2.0
sVol
p1585
F1.0
sg177
F1.0
sVof
p1586
F1.0
sg529
F2.0
sVdeserves
p1587
F1.0
sg240
F2.0
sVture
p1588
F1.0
sVor
p1589
F1.0
sVogher
p1590
F1.0
sVch
p1591
F1.0
sVinll
p1592
F1.0
sVall-or-nothing
p1593
F1.0
sVsubsulned
p1594
F1.0
sg59
F4.0
sVllot
p1595
F1.0
sVfea
p1596
F1.0
sVtwo
p1597
F1.0
sVcclndition
p1598
F1.0
sg107
F3.0
sVtype
p1599
F3.0
sg110
F1.0
sVthat
p1600
F1.0
sVel|code
p1601
F1.0
sVouditions
p1602
F1.0
sVllla
p1603
F1.0
sViio
p1604
F1.0
sVtli~d
p1605
F1.0
sVhe
p1606
F1.0
sV''
p1607
F2.0
sVsta
p1608
F1.0
sg123
F1.0
sVthis
p1609
F1.0
sg239
F1.0
sVslll
p1610
F1.0
sV'five
p1611
F1.0
sVT-FLOAT
p1612
F20.0
sVsllc
p1613
F1.0
sVand
p1614
F1.0
sVirst
p1615
F1.0
sVis
p1616
F2.0
sVstates
p1617
F1.0
sVlroper
p1618
F1.0
sVina
p1619
F1.0
sVassumptious
p1620
F1.0
sVif
p1621
F1.0
sg8
F6.0
sVfeature
p1622
F1.0
sVpproa
p1623
F1.0
sVorli+ia
p1624
F1.0
sg408
F1.0
sVobject
p1625
F2.0
sg241
F2.0
sg60
F4.0
sVtypes
p1626
F2.0
sg63
F8.0
sVfor
p1627
F1.0
sg384
F1.0
sVq
p1628
F1.0
sVex-ax-i
p1629
F1.0
sVlisill
p1630
F1.0
sVspecies
p1631
F4.0
sVthe
p1632
F3.0
sVtha
p1633
F1.0
saa(lp1634
S'C94-215447'
p1635
a(dp1636
Vglllnlil
p1637
F1.0
sVit
p1638
F2.0
sVllol
p1639
F1.0
sVas
p1640
F1.0
sVin
p1641
F1.0
sVioli
p1642
F1.0
sVineel
p1643
F1.0
sg256
F2.0
sg10
F3.0
sVT-INT
p1644
F1.0
sVdoes
p1645
F1.0
sVclosed
p1646
F1.0
sg258
F2.0
sg107
F1.0
sVai+e
p1647
F1.0
sVn'liialislu
p1648
F1.0
sVhese
p1649
F1.0
sVworld
p1650
F1.0
sVha
p1651
F1.0
sg177
F1.0
sg123
F1.0
sg384
F1.0
sg369
F1.0
sV-/
p1652
F1.0
sg66
F1.0
sVo|
p1653
F1.0
sVT-FLOAT
p1654
F6.0
saa(lp1655
S'C94-215446'
p1656
a(dp1657
g63
F1.0
sg8
F1.0
sVbove
p1658
F1.0
sVexa
p1659
F1.0
sVai
p1660
F1.0
sVed
p1661
F1.0
sVis
p1662
F1.0
sVle
p1663
F1.0
sg10
F2.0
sVo|
p1664
F1.0
sg384
F1.0
sVas
p1665
F1.0
sVindicat
p1666
F1.0
sVilii
p1667
F1.0
sVit
p1668
F1.0
sVtlli
p1669
F1.0
sVT-FLOAT
p1670
F5.0
sg258
F1.0
saa(lp1671
S'C94-215445'
p1672
a(dp1673
g63
F1.0
sg65
F1.0
sVwilhoul
p1674
F1.0
sVion
p1675
F1.0
sg384
F1.0
sg256
F2.0
sg982
F1.0
sg10
F1.0
sVtil
p1676
F1.0
sg25
F1.0
sVo|
p1677
F1.0
sg258
F1.0
sg59
F1.0
sV-ol'-liot
p1678
F1.0
sVthe
p1679
F1.0
sVT-FLOAT
p1680
F3.0
sVhilig
p1681
F1.0
saa(lp1682
S'C94-215444'
p1683
a(dp1684
Vt~ii
p1685
F1.0
sV~t
p1686
F1.0
sVdeinanded
p1687
F1.0
sVllle/vii
p1688
F1.0
sVlll-
p1689
F1.0
sVcoli
p1690
F1.0
sVhle
p1691
F1.0
sg280
F1.0
sg8
F1.0
sg256
F2.0
sg10
F1.0
sVllrol
p1692
F1.0
sVencode
p1693
F1.0
sVdisjuncl
p1694
F1.0
sg107
F2.0
sg738
F1.0
sVqllelil
p1695
F1.0
sVerly
p1696
F1.0
sVem'h
p1697
F1.0
sVhi
p1698
F1.0
sg59
F1.0
sVT-FLOAT
p1699
F5.0
sVliirioii
p1700
F1.0
sg66
F1.0
sVliy
p1701
F1.0
sVthe
p1702
F2.0
saa(lp1703
S'C94-215449'
p1704
a(dp1705
Vquilt
p1706
F1.0
sVis
p1707
F2.0
sg7
F1.0
sVexanll
p1708
F1.0
sV'eal
p1709
F1.0
sVfurl
p1710
F1.0
sVfor
p1711
F1.0
sg8
F3.0
sg256
F2.0
sVnrl
p1712
F1.0
sg10
F3.0
sVl'lds
p1713
F1.0
sVsimph
p1714
F1.0
sg107
F2.0
sg110
F2.0
sVexlmsil
p1715
F1.0
sVory
p1716
F1.0
sVjr
p1717
F1.0
sVstrut
p1718
F1.0
sg59
F1.0
sg63
F1.0
sVurt~
p1719
F1.0
sVtire
p1720
F1.0
sg384
F1.0
sg369
F1.0
sVoses
p1721
F1.0
sg66
F1.0
sVher|note
p1722
F1.0
sVT-FLOAT
p1723
F3.0
saa(lp1724
S'C94-215448'
p1725
a(dp1726
Vapprop
p1727
F1.0
sVch
p1728
F1.0
sVis
p1729
F3.0
sVwil
p1730
F1.0
sVea
p1731
F2.0
sVarc
p1732
F1.0
sVil
p1733
F1.0
sVlld
p1734
F1.0
sVl'tlcl
p1735
F1.0
sVif
p1736
F1.0
sVimlelled
p1737
F1.0
sVfor
p1738
F1.0
sVi'llctlile
p1739
F1.0
sg8
F1.0
sg256
F5.0
sg10
F4.0
sg1215
F3.0
sVlien
p1740
F1.0
sVT-INT
p1741
F5.0
sVwon
p1742
F1.0
sVype
p1743
F1.0
sV'eli
p1744
F1.0
sg258
F3.0
sVte
p1745
F1.0
sVtype
p1746
F1.0
sg738
F1.0
sg110
F1.0
sVnode
p1747
F2.0
sViit
p1748
F1.0
sVure
p1749
F1.0
sVtyped
p1750
F1.0
sVlallelled
p1751
F1.0
sVsotll
p1752
F1.0
sVlabelled
p1753
F1.0
sg59
F3.0
sVwith
p1754
F2.0
sVT-FLOAT
p1755
F15.0
sVhe
p1756
F1.0
sg63
F1.0
sVtlr
p1757
F2.0
sg107
F1.0
sg7
F5.0
sVtlll
p1758
F1.0
sg123
F2.0
sg384
F1.0
sg369
F1.0
sV+d
p1759
F1.0
sg66
F2.0
sVst
p1760
F1.0
sVsi
p1761
F1.0
sVi'c
p1762
F1.0
sVl/
p1763
F1.0
sVifl
p1764
F1.0
sVthe
p1765
F3.0
sVtargel
p1766
F1.0
sg138
F3.0
saa(lp1767
S'C94-215436'
p1768
a(dp1769
Vva
p1770
F1.0
sV'and
p1771
F1.0
sVis
p1772
F1.0
sVal~r
p1773
F1.0
sV''
p1774
F1.0
sg280
F4.0
sVdisjunct
p1775
F1.0
sVwdues
p1776
F1.0
sg7
F1.0
sg8
F1.0
sg256
F6.0
sVll
p1777
F1.0
sg60
F1.0
sg10
F3.0
sV'lll'l
p1778
F1.0
sVT-INT
p1779
F1.0
sVaild
p1780
F1.0
sg110
F1.0
sVoth
p1781
F1.0
sVthat
p1782
F1.0
sV/ll
p1783
F1.0
sVlel'lllof
p1784
F1.0
sVi/
p1785
F1.0
sg59
F5.0
sVwith
p1786
F1.0
sVthe
p1787
F2.0
sg63
F2.0
sg121
F1.0
sg177
F1.0
sg123
F2.0
sg384
F3.0
sVof
p1788
F1.0
sg1628
F1.0
sViil/lsl
p1789
F1.0
sg240
F1.0
sVhies
p1790
F1.0
sg1171
F1.0
sVboolea
p1791
F1.0
sVT-FLOAT
p1792
F7.0
sg138
F1.0
saa(lp1793
S'C94-215437'
p1794
a(dp1795
Vva
p1796
F2.0
sVwdue
p1797
F1.0
sVsul/l
p1798
F1.0
sVis
p1799
F1.0
sV~s
p1800
F1.0
sVit
p1801
F2.0
sV''
p1802
F1.0
sVvalue
p1803
F1.0
sV+l
p1804
F1.0
sVif
p1805
F1.0
sg280
F1.0
sg1574
F2.0
sVto
p1806
F1.0
sVncode
p1807
F1.0
sg256
F3.0
sg802
F1.0
sVnd
p1808
F1.0
sg10
F6.0
sg26
F1.0
sVT-INT
p1809
F6.0
sVlue
p1810
F2.0
sg258
F1.0
sg107
F1.0
sVtype
p1811
F1.0
sg110
F1.0
sVthen
p1812
F1.0
sVll
p1813
F1.0
sViul
p1814
F1.0
sVobject
p1815
F1.0
sVi/
p1816
F1.0
sg121
F1.0
sg59
F3.0
sVwith
p1817
F4.0
sVdeserw
p1818
F2.0
sg63
F2.0
sVyltes
p1819
F1.0
sg123
F2.0
sg384
F1.0
sVof
p1820
F1.0
sV-iand
p1821
F1.0
sg66
F2.0
sg529
F2.0
sg1628
F1.0
sg8
F1.0
sg240
F1.0
sg504
F1.0
sVrodlice
p1822
F1.0
sVT-FLOAT
p1823
F7.0
sg138
F1.0
sVor
p1824
F1.0
sVfirst
p1825
F1.0
saa(lp1826
S'C94-215434'
p1827
a(dp1828
Vis
p1829
F1.0
sVdone
p1830
F1.0
sVT-FLOAT
p1831
F1.0
saa(lp1832
S'C94-215435'
p1833
a(dp1834
V~ul
p1835
F1.0
sVal
p1836
F1.0
sg66
F1.0
sVes
p1837
F1.0
sVif
p1838
F1.0
sg280
F1.0
sViecls
p1839
F1.0
sVhal
p1840
F1.0
sg7
F1.0
sg8
F1.0
sg256
F2.0
sg10
F2.0
sVT-INT
p1841
F2.0
sVtype
p1842
F1.0
sVthat
p1843
F1.0
sVpos
p1844
F1.0
sg59
F1.0
sg413
F1.0
sVdeserw
p1845
F1.0
sg123
F1.0
sg384
F1.0
sVob
p1846
F1.0
sg26
F1.0
sVsl
p1847
F1.0
sVT-FLOAT
p1848
F4.0
saa(lp1849
S'C94-215432'
p1850
a(dp1851
g63
F1.0
sg7
F1.0
sVless
p1852
F1.0
sg384
F1.0
sg256
F1.0
sVis
p1853
F1.0
sVit
p1854
F1.0
sVencodes
p1855
F1.0
sg10
F1.0
sV''
p1856
F1.0
sVT-INT
p1857
F1.0
sVso
p1858
F1.0
sVllow
p1859
F1.0
sg413
F1.0
sVT-FLOAT
p1860
F1.0
sVdisjuiictive
p1861
F1.0
saa(lp1862
S'C94-215433'
p1863
a(dp1864
Vusl
p1865
F1.0
sVi|
p1866
F1.0
sVexa
p1867
F1.0
sVral
p1868
F1.0
sVali
p1869
F1.0
sVit
p1870
F1.0
sVbest
p1871
F1.0
sVhow
p1872
F1.0
sVniple
p1873
F1.0
sVT-FLOAT
p1874
F2.0
sg60
F1.0
sg258
F2.0
sVes
p1875
F1.0
saa(lp1876
S'C94-215430'
p1877
a(dp1878
Vand
p1879
F1.0
sV''
p1880
F1.0
sg7
F1.0
sg123
F1.0
sVai
p1881
F1.0
sg256
F2.0
sg10
F5.0
sVill'pelilel
p1882
F1.0
sg240
F1.0
sVerdeliia
p1883
F1.0
sVT-FLOAT
p1884
F1.0
saa(lp1885
S'C94-215431'
p1886
a(dp1887
Vniples
p1888
F1.0
sVis
p1889
F1.0
sVenco
p1890
F1.0
sV~t
p1891
F1.0
sVloliess
p1892
F1.0
sVan
p1893
F1.0
sVteness
p1894
F1.0
sVare
p1895
F1.0
sVilla
p1896
F1.0
sVria
p1897
F1.0
sVtroll
p1898
F1.0
sg7
F1.0
sVbll
p1899
F1.0
sg8
F2.0
sg256
F5.0
sg10
F6.0
sVillilllenienl
p1900
F1.0
sVln'oprhi
p1901
F1.0
sV-t
p1902
F1.0
sg127
F1.0
sVlions
p1903
F1.0
sVlow
p1904
F1.0
sVislil
p1905
F1.0
sVpf
p1906
F1.0
sg258
F1.0
sg107
F2.0
sg738
F2.0
sg110
F1.0
sV|or
p1907
F1.0
sV's
p1908
F1.0
sVob\u005c
p1909
F1.0
sVles
p1910
F1.0
sVorniajisnl
p1911
F1.0
sVus~
p1912
F1.0
sg59
F2.0
sg60
F1.0
sV'i
p1913
F1.0
sg63
F4.0
sVro
p1914
F1.0
sg384
F4.0
sVill
p1915
F1.0
sg66
F1.0
sg240
F1.0
sVo|
p1916
F2.0
sVconjunctive
p1917
F1.0
sVT-FLOAT
p1918
F9.0
sVz
p1919
F1.0
sg1080
F1.0
sVex
p1920
F1.0
saa(lp1921
S'C94-215438'
p1922
a(dp1923
Vtyl
p1924
F1.0
sVthe
p1925
F1.0
sVch
p1926
F1.0
sg121
F1.0
sVof'p
p1927
F1.0
sg7
F2.0
sg8
F3.0
sg256
F1.0
sVsul
p1928
F1.0
sVea
p1929
F1.0
sg66
F1.0
sg10
F2.0
sVT-FLOAT
p1930
F1.0
sViu
p1931
F1.0
sg59
F1.0
sVdisjuuct
p1932
F1.0
sVcousequenl
p1933
F1.0
saa(lp1934
S'C94-215439'
p1935
a(dp1936
Vand
p1937
F1.0
sVirst
p1938
F1.0
sVnd
p1939
F1.0
sVapprop
p1940
F3.0
sV'ea
p1941
F1.0
sVil
p1942
F1.0
sVin
p1943
F2.0
sVT-FLOAT
p1944
F5.0
sVsecond
p1945
F1.0
sg280
F1.0
sVdis-juu
p1946
F1.0
sVdisjunct
p1947
F1.0
sg7
F2.0
sV~-a
p1948
F1.0
sg8
F3.0
sg256
F5.0
sg60
F1.0
sg10
F5.0
sg1215
F1.0
sVby
p1949
F1.0
sVilllis
p1950
F1.0
sVencode
p1951
F2.0
sg107
F3.0
sVconditions
p1952
F1.0
sg738
F1.0
sVthen
p1953
F1.0
sVi'eature/value
p1954
F1.0
sVputthlg
p1955
F1.0
sVputting
p1956
F1.0
sg59
F2.0
sV//~
p1957
F1.0
sV'e/wthl~
p1958
F1.0
sVthe
p1959
F3.0
sVhe
p1960
F1.0
sV'on
p1961
F1.0
sg123
F1.0
sg408
F1.0
sg66
F1.0
sV-+
p1962
F1.0
sg1628
F1.0
sg26
F3.0
sVtli
p1963
F1.0
sVily
p1964
F1.0
sg138
F1.0
saa(lp1965
S'C94-215425'
p1966
a(dp1967
Vand
p1968
F1.0
sVva
p1969
F1.0
sVlls
p1970
F1.0
sVis
p1971
F1.0
sV~s
p1972
F1.0
sVmid
p1973
F1.0
sV~il
p1974
F1.0
sViihly
p1975
F1.0
sg280
F1.0
sVlie
p1976
F1.0
sV-a
p1977
F1.0
sg7
F4.0
sVT-INT
p1978
F1.0
sg8
F1.0
sg256
F4.0
sg102
F1.0
sg10
F6.0
sViitl
p1979
F1.0
sVre
p1980
F1.0
sVverbs
p1981
F1.0
sVaux
p1982
F1.0
sg258
F3.0
sg107
F1.0
sVinv
p1983
F1.0
sVuxili
p1984
F1.0
sVl/ies
p1985
F1.0
sVwith
p1986
F1.0
sVsl
p1987
F1.0
sViug
p1988
F1.0
sVinverced
p1989
F1.0
sViid
p1990
F1.0
sVtries
p1991
F1.0
sVverb
p1992
F1.0
sVo|
p1993
F1.0
sg59
F1.0
sVha
p1994
F1.0
sVlilt|s
p1995
F1.0
sVthe
p1996
F1.0
sg63
F4.0
sVboth
p1997
F1.0
sVilitisl
p1998
F1.0
sg382
F1.0
sg384
F3.0
sVl-
p1999
F1.0
sg66
F2.0
sV|el'ills
p2000
F1.0
sVthese
p2001
F1.0
sV-respectivel
p2002
F1.0
sg26
F2.0
sVdisjunctive
p2003
F1.0
sg241
F1.0
sVT-FLOAT
p2004
F12.0
sVor
p2005
F2.0
sVtha
p2006
F1.0
sVtll
p2007
F1.0
saa(lp2008
S'C94-215424'
p2009
a(dp2010
Vvi
p2011
F1.0
sVwil
p2012
F1.0
sVit
p2013
F1.0
sVkhi
p2014
F1.0
sVleserw
p2015
F1.0
sVin
p2016
F1.0
sVps
p2017
F1.0
sVlo
p2018
F1.0
sg7
F1.0
sVfea
p2019
F1.0
sg8
F2.0
sg256
F4.0
sVll
p2020
F1.0
sg10
F5.0
sVT-INT
p2021
F2.0
sVother
p2022
F2.0
sVls
p2023
F1.0
sVcertain
p2024
F1.0
sg258
F3.0
sg107
F4.0
sg738
F1.0
sV~s
p2025
F1.0
sV:i
p2026
F1.0
sVllres
p2027
F1.0
sVfollowing
p2028
F1.0
sVexa~
p2029
F1.0
sV|/
p2030
F1.0
sg59
F2.0
sg60
F1.0
sVthe
p2031
F1.0
sg63
F1.0
sg123
F1.0
sg384
F2.0
sg369
F1.0
sVnple
p2032
F1.0
sg66
F1.0
sg529
F1.0
sg240
F2.0
sVperha
p2033
F1.0
sVerl
p2034
F1.0
sVT-FLOAT
p2035
F6.0
saa(lp2036
S'C94-215427'
p2037
a(dp2038
Vand
p2039
F1.0
sVapprop
p2040
F1.0
sV~s
p2041
F1.0
sVan
p2042
F1.0
sVteness
p2043
F1.0
sVfeat
p2044
F2.0
sVria
p2045
F1.0
sVial
p2046
F1.0
sVpprol
p2047
F1.0
sg8
F1.0
sg256
F1.0
sVrliilcl
p2048
F1.0
sg10
F2.0
sg1215
F1.0
sg258
F2.0
sVro
p2049
F1.0
sVtype
p2050
F2.0
sVparl
p2051
F1.0
sVion
p2052
F1.0
sg63
F1.0
sg107
F1.0
sVof
p2053
F1.0
sV-~
p2054
F1.0
sg26
F1.0
sg1412
F1.0
sVT-FLOAT
p2055
F7.0
sVtll
p2056
F1.0
saa(lp2057
S'C94-215426'
p2058
a(dp2059
Vrtia
p2060
F1.0
sVin
p2061
F1.0
sVfoi'llla
p2062
F1.0
sVeuiployhi
p2063
F1.0
sViislli
p2064
F1.0
sVsel
p2065
F1.0
sVlia
p2066
F1.0
sg7
F1.0
sVT-INT
p2067
F1.0
sg8
F1.0
sg256
F1.0
sg10
F3.0
sVexpressed
p2068
F1.0
sVtllldel
p2069
F1.0
sVfinite
p2070
F1.0
sVtype
p2071
F1.0
sg738
F1.0
sg110
F1.0
sVillnptioli
p2072
F1.0
sVfiiiil
p2073
F1.0
sg59
F1.0
sVtypes
p2074
F1.0
sVsub
p2075
F1.0
sg63
F2.0
sg121
F2.0
sVo|
p2076
F1.0
sVT-FLOAT
p2077
F5.0
sVorder
p2078
F1.0
sg138
F1.0
saa(lp2079
S'C94-215421'
p2080
a(dp2081
g63
F1.0
sVci
p2082
F1.0
sg384
F1.0
sV''
p2083
F1.0
sVdisjunctive
p2084
F1.0
sg413
F1.0
sVT-FLOAT
p2085
F1.0
saa(lp2086
S'C94-215420'
p2087
a(dp2088
Vcert~till
p2089
F1.0
sVand
p2090
F1.0
sVcerta
p2091
F1.0
sVint
p2092
F1.0
sVis
p2093
F3.0
sVtures
p2094
F1.0
sVan
p2095
F1.0
sVconjunctive
p2096
F1.0
sVin
p2097
F1.0
sg413
F1.0
sVing
p2098
F1.0
sVwdues
p2099
F1.0
sg7
F1.0
sVfea
p2100
F1.0
sVll
p2101
F1.0
sg10
F1.0
sVT-INT
p2102
F1.0
sVexample
p2103
F1.0
sVvalues
p2104
F1.0
sg258
F2.0
sg107
F3.0
sVfin
p2105
F1.0
sVthen
p2106
F1.0
sVstat
p2107
F1.0
sVkinds
p2108
F1.0
sV-respectively
p2109
F1.0
sVobject
p2110
F1.0
sVh~we
p2111
F1.0
sVverb
p2112
F1.0
sVconstra
p2113
F1.0
sVaand
p2114
F1.0
sVfci
p2115
F1.0
sg59
F1.0
sVwith
p2116
F2.0
sVthe
p2117
F1.0
sVmust
p2118
F1.0
sg63
F5.0
sVkind
p2119
F1.0
sg384
F1.0
sVof
p2120
F4.0
sVfornl
p2121
F1.0
sg239
F2.0
sVdeserves
p2122
F1.0
sVcert
p2123
F1.0
sVfci~
p2124
F1.0
sg1375
F1.0
sVfollowing
p2125
F1.0
sVT-FLOAT
p2126
F8.0
sVt'eatures
p2127
F1.0
sVill
p2128
F1.0
sVtha
p2129
F1.0
sg138
F1.0
saa(lp2130
S'C94-215423'
p2131
a(dp2132
Vcerta
p2133
F1.0
sVis
p2134
F1.0
sVahi
p2135
F1.0
sVit
p2136
F2.0
sVan
p2137
F1.0
sVin
p2138
F2.0
sVviiiues
p2139
F1.0
sVif
p2140
F1.0
sVperlla
p2141
F1.0
sVps
p2142
F1.0
sg8
F2.0
sVtll'c~s
p2143
F1.0
sVvmues
p2144
F1.0
sVcel'taiu
p2145
F1.0
sg256
F2.0
sg10
F4.0
sVT-INT
p2146
F2.0
sVother
p2147
F2.0
sVlis
p2148
F1.0
sg258
F3.0
sVca
p2149
F1.0
sVthen
p2150
F1.0
sVkinds
p2151
F2.0
sV\u005cvil
p2152
F1.0
sVkiud
p2153
F1.0
sVobject
p2154
F1.0
sVterra
p2155
F1.0
sVpei'ha
p2156
F1.0
sVhi
p2157
F1.0
sg59
F1.0
sVwith
p2158
F1.0
sg63
F2.0
sVof
p2159
F3.0
sVcerl
p2160
F2.0
sVfea
p2161
F1.0
sVdeserves
p2162
F2.0
sg504
F1.0
sVres
p2163
F1.0
sVT-FLOAT
p2164
F9.0
sg369
F1.0
sVor
p2165
F2.0
saa(lp2166
S'C94-215422'
p2167
a(dp2168
Vem
p2169
F1.0
sVthe
p2170
F1.0
sVis
p2171
F1.0
sVlerdemann
p2172
F1.0
sVin
p2173
F1.0
sVimplemented
p2174
F1.0
sg7
F1.0
sg256
F2.0
sg10
F1.0
sVrl'he
p2175
F1.0
sg107
F1.0
sVwas
p2176
F1.0
sVdale
p2177
F1.0
sV``
p2178
F1.0
sVform
p2179
F1.0
sVqysl
p2180
F1.0
sg59
F1.0
sg60
F2.0
sVby
p2181
F1.0
sVand
p2182
F1.0
sV'hilo
p2183
F1.0
sVof
p2184
F1.0
sg66
F1.0
sV'roll
p2185
F1.0
sVstz
p2186
F1.0
sVT-FLOAT
p2187
F2.0
sVquintus
p2188
F1.0
sVprolog
p2189
F1.0
saa(lp2190
S'C94-215429'
p2191
a(dp2192
Vliislll
p2193
F1.0
sV''
p2194
F1.0
sg8
F2.0
sg7
F1.0
sVol'tll
p2195
F1.0
sVi~
p2196
F1.0
sVi-i
p2197
F1.0
sVfol'lllil
p2198
F1.0
sVlll
p2199
F1.0
sVal
p2200
F1.0
sg10
F4.0
sg66
F2.0
sVii
p2201
F1.0
sg384
F1.0
sVolio
p2202
F1.0
sVT-FLOAT
p2203
F1.0
sV~/
p2204
F1.0
sVopl
p2205
F1.0
sg59
F1.0
sg60
F3.0
sg258
F3.0
saa(lp2206
S'C94-215428'
p2207
a(dp2208
Vapprop
p2209
F1.0
sg630
F1.0
sVi~
p2210
F1.0
sVvi
p2211
F1.0
sVca
p2212
F1.0
sVwil
p2213
F1.0
sVft
p2214
F1.0
sVit
p2215
F1.0
sV''
p2216
F2.0
sVil
p2217
F1.0
sVlize
p2218
F1.0
sVtype
p2219
F2.0
sVill
p2220
F2.0
sVlle
p2221
F1.0
sg280
F1.0
sVlie
p2222
F1.0
sVs/ic
p2223
F1.0
sg7
F5.0
sg8
F1.0
sg256
F4.0
sg802
F1.0
sg10
F8.0
sg1215
F1.0
sVli
p2224
F1.0
sVmso
p2225
F1.0
sVeaa
p2226
F1.0
sVcall
p2227
F1.0
sg258
F4.0
sg107
F2.0
sg408
F1.0
sg738
F1.0
sg110
F1.0
sVtyl
p2228
F1.0
sV@
p2229
F1.0
sVll
p2230
F1.0
sVkinds
p2231
F1.0
sg123
F2.0
sVuluitively
p2232
F1.0
sVylle
p2233
F1.0
sVobject
p2234
F1.0
sV'e
p2235
F1.0
sVobjecl
p2236
F1.0
sVurt~
p2237
F1.0
sg59
F3.0
sg60
F4.0
sVthe
p2238
F1.0
sVol
p2239
F1.0
sg121
F1.0
sg177
F1.0
sVoh
p2240
F1.0
sg384
F7.0
sVoil|eel
p2241
F1.0
sVfornla
p2242
F1.0
sVypes
p2243
F1.0
sg66
F4.0
sVor
p2244
F1.0
sVdeserves
p2245
F1.0
sg26
F4.0
sVof
p2246
F3.0
sVT-FLOAT
p2247
F9.0
sVnotion
p2248
F1.0
sg138
F1.0
saa(lp2249
S'C94-215490'
p2250
a(dp2251
Ven
p2252
F1.0
sVis
p2253
F1.0
sV~s
p2254
F1.0
sVih
p2255
F1.0
sVl'eseul
p2256
F1.0
sVfir
p2257
F1.0
sVaats
p2258
F1.0
sg7
F1.0
sg8
F4.0
sg256
F9.0
sg10
F5.0
sVshould
p2259
F1.0
sVnote
p2260
F1.0
sVT-INT
p2261
F1.0
sVonly
p2262
F1.0
sVtli'o~i
p2263
F1.0
sg258
F2.0
sg107
F3.0
sg110
F2.0
sVhit
p2264
F1.0
sViun
p2265
F1.0
sVion
p2266
F1.0
sV'oaj
p2267
F1.0
sVhie
p2268
F1.0
sg59
F1.0
sVha
p2269
F1.0
sg60
F1.0
sVthe
p2270
F1.0
sg63
F1.0
sVb
p2271
F1.0
sg177
F1.0
sVfills
p2272
F1.0
sg384
F1.0
sg369
F1.0
sg123
F1.0
sg66
F6.0
sg529
F3.0
sg26
F1.0
sg1171
F1.0
sg1375
F1.0
sVT-FLOAT
p2273
F3.0
sg138
F2.0
sVtha
p2274
F1.0
sVdis
p2275
F1.0
saa(lp2276
S'C94-215491'
p2277
a(dp2278
g280
F2.0
sVtilt
p2279
F1.0
sg240
F1.0
sg256
F1.0
saa(lp2280
S'C94-215492'
p2281
a(dp2282
Vej
p2283
F1.0
sVtures
p2284
F1.0
sVal
p2285
F2.0
sg10
F8.0
sV''
p2286
F1.0
sVim
p2287
F1.0
sVil
p2288
F1.0
sVjaxpcnl
p2289
F1.0
sVlial
p2290
F1.0
sg280
F1.0
sVial
p2291
F1.0
sVwould
p2292
F1.0
sg8
F3.0
sg256
F9.0
sVwtwe
p2293
F1.0
sVoilt
p2294
F1.0
sVT-INT
p2295
F4.0
sg258
F1.0
sg107
F3.0
sg738
F1.0
sVpres
p2296
F1.0
sVenforchl
p2297
F1.0
sV's
p2298
F2.0
sVyl
p2299
F1.0
sViug
p2300
F1.0
sVlllil
p2301
F1.0
sg59
F2.0
sg60
F2.0
sVilillst
p2302
F1.0
sVml
p2303
F1.0
sg63
F3.0
sVllowed
p2304
F1.0
sg121
F1.0
sVwhhth
p2305
F1.0
sVxluiroti
p2306
F1.0
sg384
F3.0
sg369
F1.0
sg66
F3.0
sg529
F2.0
sVqa
p2307
F1.0
sVmt
p2308
F1.0
sg240
F1.0
sg127
F1.0
sVilr
p2309
F1.0
sg1171
F2.0
sVres
p2310
F1.0
sg241
F1.0
sVeed
p2311
F1.0
sVT-FLOAT
p2312
F8.0
sVlcil
p2313
F1.0
sVql
p2314
F1.0
sg138
F2.0
saa(lp2315
S'C94-215493'
p2316
a(dp2317
Vall
p2318
F3.0
sVllit
p2319
F1.0
sVtt
p2320
F1.0
sVlly
p2321
F1.0
sV~l'e
p2322
F1.0
sV~qntuil
p2323
F1.0
sVto
p2324
F1.0
sVle
p2325
F1.0
sg134
F1.0
sVi'esolvalil
p2326
F1.0
sVngl
p2327
F1.0
sg256
F34.0
sVll
p2328
F2.0
sg10
F33.0
sVlh
p2329
F1.0
sVli
p2330
F1.0
sVT-INT
p2331
F10.0
sVlype
p2332
F1.0
sVth
p2333
F1.0
sV'llcttir
p2334
F1.0
sVilwir
p2335
F1.0
sVfax
p2336
F1.0
sV/'~
p2337
F1.0
sVlell
p2338
F1.0
sg369
F3.0
sVlist
p2339
F3.0
sg66
F8.0
sg26
F3.0
sVyliin
p2340
F1.0
sVql
p2341
F1.0
sVtlires
p2342
F1.0
sVel
p2343
F1.0
sVstl'u
p2344
F1.0
sVhore
p2345
F1.0
sVliot
p2346
F1.0
sVlnt
p2347
F1.0
sVvilli
p2348
F1.0
sVlilil
p2349
F1.0
sVarc
p2350
F1.0
sVilli
p2351
F1.0
sViu
p2352
F1.0
sVsel
p2353
F1.0
sVtota
p2354
F1.0
sVllipi
p2355
F1.0
sVfor
p2356
F1.0
sVsince
p2357
F1.0
sg127
F1.0
sVrc
p2358
F1.0
sVlliis
p2359
F1.0
sg258
F10.0
sVctiwqy
p2360
F1.0
sVbe
p2361
F1.0
sVwe
p2362
F2.0
sVlei
p2363
F1.0
sg59
F8.0
sV'tlir
p2364
F1.0
sg65
F1.0
sg177
F1.0
sVof
p2365
F4.0
sVill
p2366
F1.0
sVod
p2367
F1.0
sVrodundaui
p2368
F1.0
sg529
F2.0
sVlength
p2369
F1.0
sg1171
F2.0
sVlo
p2370
F2.0
sg413
F1.0
sVlillaj'y
p2371
F1.0
sVor
p2372
F1.0
sVsimple
p2373
F1.0
sVca
p2374
F1.0
sVwil
p2375
F1.0
sVinli
p2376
F1.0
sVincoinl
p2377
F1.0
sVart
p2378
F1.0
sVval
p2379
F1.0
sVquir
p2380
F1.0
sVyping
p2381
F1.0
sVxalli
p2382
F1.0
sg107
F3.0
sg110
F3.0
sV``
p2383
F1.0
sVota
p2384
F1.0
sVocifiod
p2385
F1.0
sVllliro
p2386
F1.0
sVtllros
p2387
F1.0
sVquiva
p2388
F1.0
sVresolul
p2389
F1.0
sVeat
p2390
F1.0
sV~xa
p2391
F1.0
sVllcs
p2392
F1.0
sg123
F1.0
sVthis
p2393
F1.0
sViyl
p2394
F1.0
sg630
F1.0
sVrequirc
p2395
F1.0
sVcil
p2396
F1.0
sVail
p2397
F1.0
sVun
p2398
F1.0
sVively
p2399
F1.0
sVT-FLOAT
p2400
F17.0
sg138
F3.0
sVix
p2401
F1.0
sVforce
p2402
F1.0
sVis
p2403
F5.0
sV~s
p2404
F1.0
sVthus
p2405
F1.0
sVit
p2406
F2.0
sV''
p2407
F1.0
sVil
p2408
F1.0
sVreliiovod
p2409
F1.0
sVif
p2410
F1.0
sg280
F7.0
sVlib
p2411
F1.0
sg8
F7.0
sg240
F1.0
sVyl
p2412
F1.0
sVtim
p2413
F1.0
sVui'cs
p2414
F1.0
sVwhich
p2415
F1.0
sV/v
p2416
F1.0
sVlllr
p2417
F1.0
sVi~s
p2418
F1.0
sV'~
p2419
F1.0
sVlisjtulcl
p2420
F1.0
sVion
p2421
F1.0
sViol
p2422
F1.0
sVlent
p2423
F1.0
sVdisjunction
p2424
F1.0
sg60
F4.0
sVlulid
p2425
F1.0
sVfo
p2426
F1.0
sg63
F10.0
sg121
F1.0
sg7
F10.0
sg384
F11.0
sg419
F1.0
sVwell
p2427
F3.0
sVst
p2428
F1.0
sVioli~
p2429
F1.0
sVlm~y
p2430
F1.0
sVhi
p2431
F1.0
sVso
p2432
F1.0
sVsl
p2433
F1.0
sVthe
p2434
F1.0
sVqhlce
p2435
F1.0
sVcouhl
p2436
F1.0
saa(lp2437
S'C94-215494'
p2438
a(dp2439
Vlemam
p2440
F1.0
sViilol
p2441
F1.0
sVfl'oui
p2442
F1.0
sVh'cl
p2443
F1.0
sVcr
p2444
F1.0
sVapproluiaic
p2445
F1.0
sVihc
p2446
F1.0
sVeul
p2447
F1.0
sg52
F1.0
sg7
F2.0
sg8
F1.0
sg256
F2.0
sg10
F7.0
sVpredictaldc
p2448
F1.0
sVT-INT
p2449
F3.0
sg258
F2.0
sg110
F1.0
sVgstz
p2450
F1.0
sV'c
p2451
F1.0
sg59
F2.0
sg60
F2.0
sVecificatim
p2452
F1.0
sg384
F1.0
sg607
F1.0
sg127
F1.0
sVsl
p2453
F1.0
sVT-FLOAT
p2454
F4.0
sVross
p2455
F1.0
saa(lp2456
S'C94-215495'
p2457
a(dp2458
Vihcforullllalioii
p2459
F1.0
sg107
F1.0
sg59
F1.0
sVhxx
p2460
F1.0
sVT-FLOAT
p2461
F1.0
saa(lp2462
S'C94-215497'
p2463
a(dp2464
Vsll'tl
p2465
F1.0
sVoi'i
p2466
F1.0
sVhave
p2467
F1.0
sVie
p2468
F1.0
sVwould
p2469
F1.0
sValso
p2470
F1.0
sg8
F1.0
sg256
F1.0
sg10
F3.0
sVltllc
p2471
F1.0
sVto
p2472
F1.0
sg107
F1.0
sg738
F2.0
sg110
F1.0
sVlife
p2473
F1.0
sVeiuai
p2474
F1.0
sV~iblc
p2475
F1.0
sVi*
p2476
F1.0
sVunlill
p2477
F1.0
sg2271
F1.0
sVlhc
p2478
F1.0
sg7
F1.0
sg384
F2.0
sVml
p2479
F1.0
sVsolviug
p2480
F1.0
sg66
F1.0
sVteal
p2481
F1.0
sVT-FLOAT
p2482
F3.0
sg138
F1.0
saa(lp2483
S'C94-215498'
p2484
a(dp2485
g121
F1.0
sg384
F1.0
sVi~
p2486
F1.0
sVthis
p2487
F1.0
sg10
F5.0
sg66
F1.0
sVllmvcvcr
p2488
F1.0
sVihvay~
p2489
F1.0
sV/snforl
p2490
F1.0
sg258
F2.0
sVunai
p2491
F1.0
sVT-FLOAT
p2492
F2.0
sg110
F1.0
sVly
p2493
F1.0
saa(lp2494
S'C94-215499'
p2495
a(dp2496
g280
F1.0
sg65
F1.0
sg8
F1.0
sg256
F2.0
sg10
F1.0
sg1080
F1.0
sVasc
p2497
F1.0
sVas
p2498
F1.0
sVlll
p2499
F1.0
sVthe
p2500
F1.0
sg107
F1.0
sg258
F1.0
saa(lp2501
S'C94-215418'
p2502
a(dp2503
Vand
p2504
F1.0
sV,~ctive
p2505
F1.0
sVwe
p2506
F1.0
sVco
p2507
F1.0
sVdi
p2508
F1.0
sVT-FLOAT
p2509
F2.0
sVdivided
p2510
F1.0
sg630
F1.0
sg10
F4.0
sg1628
F1.0
sVT-INT
p2511
F1.0
sVfcrs
p2512
F1.0
sVin
p2513
F1.0
sVct~sses
p2514
F1.0
sg59
F1.0
sV,ctive
p2515
F1.0
sg60
F1.0
sVinto
p2516
F1.0
saa(lp2517
S'C94-215419'
p2518
a(dp2519
g63
F1.0
sVT-FLOAT
p2520
F1.0
sVfci/
p2521
F1.0
sVconjunctive
p2522
F1.0
saa(lp2523
S'C94-215410'
p2524
a(dp2525
VT-FLOAT
p2526
F1.0
sVwilhehnstr
p2527
F1.0
saa(lp2528
S'C94-215411'
p2529
a(dp2530
Vg'~sfs
p2531
F1.0
sVking
p2532
F1.0
sVde
p2533
F1.0
sVuni-i
p2534
F1.0
sVny
p2535
F1.0
sg8
F1.0
sg256
F1.0
sVphil
p2536
F1.0
sg10
F6.0
sV,ge
p2537
F1.0
sVT-INT
p2538
F2.0
sVuebingen
p2539
F1.0
sVrig
p2540
F1.0
sVtfilfi
p2541
F1.0
sg413
F1.0
sVT-FLOAT
p2542
F5.0
sg239
F1.0
sg419
F1.0
sg1080
F1.0
sVlerma
p2543
F1.0
saa(lp2544
S'C94-215412'
p2545
a(dp2546
g63
F1.0
sg8
F1.0
sVspecification
p2547
F1.0
sg239
F2.0
sVteness
p2548
F1.0
sVpropria
p2549
F1.0
sVT-FLOAT
p2550
F3.0
saa(lp2551
S'C94-215413'
p2552
a(dp2553
Vl'ro
p2554
F1.0
sVcons|fronts
p2555
F1.0
sVbe
p2556
F1.0
sVsystem
p2557
F1.0
sVas
p2558
F1.0
sVin
p2559
F2.0
sVexemplilied
p2560
F1.0
sg7
F1.0
sVT-INT
p2561
F3.0
sVna
p2562
F1.0
sg10
F1.0
sVined
p2563
F1.0
sVdiscuss
p2564
F1.0
sVhow
p2565
F1.0
sVd~rsing/generation
p2566
F1.0
sVunder
p2567
F1.0
sVmainta
p2568
F1.0
sVthen
p2569
F1.0
sVwe
p2570
F1.0
sVlinty
p2571
F1.0
sVunification
p2572
F1.0
sVsuch
p2573
F1.0
sg59
F1.0
sg60
F2.0
sVT-FLOAT
p2574
F5.0
sVlanguage
p2575
F1.0
sVtype
p2576
F1.0
sg66
F1.0
sVthe
p2577
F1.0
sVtura
p2578
F1.0
sg138
F1.0
saa(lp2579
S'C94-215414'
p2580
a(dp2581
Vlimited
p2582
F1.0
sVall
p2583
F1.0
sVis
p2584
F1.0
sVnamed
p2585
F1.0
sVas
p2586
F1.0
sg256
F1.0
sVresol
p2587
F1.0
sVprevious
p2588
F1.0
sVtroll
p2589
F1.0
sVpossibilities
p2590
F1.0
sVT-INT
p2591
F5.0
sg8
F1.0
sVinste~m
p2592
F1.0
sg10
F7.0
sVny
p2593
F1.0
sVdoes
p2594
F1.0
sVsystems
p2595
F1.0
sg107
F1.0
sVtype
p2596
F2.0
sVto
p2597
F1.0
sVnot
p2598
F1.0
sVsuch
p2599
F1.0
sg59
F3.0
sVdisjunction
p2600
F1.0
sg60
F3.0
sVtion
p2601
F1.0
sg63
F2.0
sVunlike
p2602
F1.0
sVinfereneing
p2603
F1.0
sVemploy
p2604
F1.0
sVrecord
p2605
F1.0
sVamount
p2606
F1.0
sg504
F1.0
sVof
p2607
F1.0
sVT-FLOAT
p2608
F2.0
sVintroduced
p2609
F1.0
saa(lp2610
S'C94-215415'
p2611
a(dp2612
g63
F2.0
sg10
F1.0
sVkept
p2613
F1.0
sg177
F1.0
sVlnount
p2614
F1.0
sVof
p2615
F2.0
sVis
p2616
F1.0
sVtechnique
p2617
F1.0
sVunlilli
p2618
F1.0
sVby
p2619
F1.0
sVT-INT
p2620
F1.0
sVin
p2621
F1.0
sVlso
p2622
F1.0
sVsmall
p2623
F1.0
sVdescribed
p2624
F1.0
sVthe
p2625
F2.0
sVdisjunction
p2626
F1.0
sg60
F1.0
sVT-FLOAT
p2627
F3.0
sg59
F1.0
saa(lp2628
S'C94-215417'
p2629
a(dp2630
Vions
p2631
F1.0
sVrol
p2632
F1.0
sVca
p2633
F1.0
sViu
p2634
F1.0
sVone
p2635
F1.0
sVrestrict
p2636
F1.0
sVas
p2637
F2.0
sVcooccurence
p2638
F1.0
sVco
p2639
F1.0
sVria
p2640
F1.0
sVstyle
p2641
F1.0
sVlelining
p2642
F1.0
sVfea
p2643
F1.0
sg8
F1.0
sg256
F1.0
sg10
F3.0
sVT-INT
p2644
F2.0
sVtl
p2645
F1.0
sg258
F1.0
sg107
F1.0
sVgerdemann
p2646
F1.0
sVpl
p2647
F1.0
sVlditions
p2648
F1.0
sVgpsg
p2649
F1.0
sVre
p2650
F1.0
sg59
F2.0
sg60
F1.0
sg63
F1.0
sVking
p2651
F1.0
sVdiscussed
p2652
F1.0
sVteness
p2653
F1.0
sg239
F1.0
sVT-FLOAT
p2654
F4.0
sg138
F1.0
sg419
F1.0
sVview
p2655
F1.0
saa.