(dp0
Vall
p1
F2.833213344056216
sVchain
p2
F4.174387269895637
sVqueri
p3
F4.867534450455582
sVlack
p4
F4.867534450455582
sVyellow
p5
F4.867534450455582
sVfour
p6
F4.174387269895637
sVnottingham
p7
F4.867534450455582
sVsignific
p8
F4.867534450455582
sVsupplement
p9
F4.867534450455582
sVfollow
p10
F4.174387269895637
sVhierarch
p11
F4.174387269895637
sVgraph
p12
F4.867534450455582
sVspecif
p13
F4.867534450455582
sVarticl
p14
F3.258096538021482
sVto
p15
F1.3862943611198906
sVthose
p16
F3.784189633918261
sVunder
p17
F4.174387269895637
sVpreprocess
p18
F4.867534450455582
sV@
p19
F4.867534450455582
sVnormalis
p20
F4.867534450455582
sVend
p21
F4.867534450455582
sVtrough
p22
F1.9459101490553132
sVretriev
p23
F3.784189633918261
sVrelev
p24
F4.174387269895637
sVlevel
p25
F4.174387269895637
sVfewer
p26
F4.867534450455582
sVcorrel
p27
F4.867534450455582
sVyaari
p28
F4.867534450455582
sVimpli
p29
F4.867534450455582
sVrepres
p30
F3.784189633918261
sVconsequ
p31
F4.174387269895637
sVrate
p32
F3.258096538021482
sVstreet
p33
F4.867534450455582
sVtrent
p34
F4.867534450455582
sVfurther
p35
F4.867534450455582
sVindex
p36
F4.867534450455582
sVundetect
p37
F4.867534450455582
sVcroft
p38
F4.867534450455582
sVcompar
p39
F3.091042453358316
sVcurrent
p40
F4.174387269895637
sVconduct
p41
F4.174387269895637
sVnew
p42
F4.867534450455582
sVmethod
p43
F3.091042453358316
sVderiv
p44
F3.784189633918261
sVcolloc
p45
F1.9459101490553132
sVcooccur
p46
F4.867534450455582
sVratio
p47
F4.867534450455582
sVcoincid
p48
F4.174387269895637
sVvalu
p49
F4.867534450455582
sVproduc
p50
F4.174387269895637
sVdiscount
p51
F4.867534450455582
sVlarger
p52
F4.867534450455582
sVprecis
p53
F3.091042453358316
sVamount
p54
F4.174387269895637
sVchang
p55
F1.9459101490553132
sVsemant
p56
F2.833213344056216
sVdepart
p57
F4.867534450455582
sValthough
p58
F4.174387269895637
sVappli
p59
F4.867534450455582
sVtransit
p60
F4.867534450455582
sVinappropri
p61
F4.867534450455582
sVdemonstr
p62
F4.174387269895637
sVtotal
p63
F3.784189633918261
sVselect
p64
F4.867534450455582
sVplot
p65
F4.867534450455582
sVuse
p66
F1.9459101490553132
sVfrom
p67
F2.70805020110221
sVdistinct
p68
F4.867534450455582
sVunivers
p69
F4.867534450455582
sVtwo
p70
F2.9444389791664403
sVby
p71
F1.791759469228055
sVpredict
p72
F4.867534450455582
sVtype
p73
F3.258096538021482
sVmetric
p74
F4.174387269895637
sVminor
p75
F4.174387269895637
sVmore
p76
F3.4965075614664802
sVon
p77
F2.302585092994046
sVinflect
p78
F4.867534450455582
sVrelat
p79
F1.3862943611198906
sVknown
p80
F2.9444389791664403
sVhigh
p81
F4.867534450455582
sVword
p82
F1.3862943611198906
sVthis
p83
F2.302585092994046
sVwork
p84
F2.9444389791664403
sVdev
p85
F4.867534450455582
sVconceptu
p86
F4.867534450455582
sVremain
p87
F4.867534450455582
sVcan
p88
F2.70805020110221
sVpurpos
p89
F4.867534450455582
sVunreli
p90
F4.867534450455582
sVnearest
p91
F4.867534450455582
sVpmtion
p92
F4.867534450455582
sVgive
p93
F4.174387269895637
sVprocess
p94
F4.867534450455582
sVpont
p95
F4.867534450455582
sVindic
p96
F3.091042453358316
sVtopic
p97
F4.174387269895637
sVattain
p98
F4.174387269895637
sVoccur
p99
F4.174387269895637
sVmultipl
p100
F4.867534450455582
sVdivid
p101
F4.867534450455582
sVrather
p102
F4.867534450455582
sVanoth
p103
F3.784189633918261
sVclassifi
p104
F4.174387269895637
sVhow
p105
F4.867534450455582
sVplace
p106
F2.302585092994046
sVmay
p107
F4.867534450455582
sVafter
p108
F4.867534450455582
sVsuch
p109
F4.174387269895637
sVdata
p110
F3.4965075614664802
sVaverag
p111
F4.867534450455582
sVa
p112
F1.0986122886681098
sVnoun
p113
F4.174387269895637
sVcorrespond
p114
F4.867534450455582
sVelement
p115
F4.867534450455582
sVinform
p116
F3.091042453358316
sVcombin
p117
F2.70805020110221
sVincorpor
p118
F4.174387269895637
sVlindsay
p119
F4.867534450455582
sVorang
p120
F3.784189633918261
sVbecaus
p121
F3.258096538021482
sVthrough
p122
F4.174387269895637
sVflexibl
p123
F4.867534450455582
sVhirst
p124
F4.867534450455582
sVconjunct
p125
F4.867534450455582
sVgroup
p126
F4.867534450455582
sV,
p127
F1.0986122886681098
sVquantit
p128
F4.867534450455582
sVbetter
p129
F4.867534450455582
sVwindow
p130
F3.091042453358316
sVtherefor
p131
F4.867534450455582
sVsubtop
p132
F4.867534450455582
sVrecal
p133
F3.091042453358316
sVsentenc
p134
F2.70805020110221
sVbreak
p135
F4.867534450455582
sVthey
p136
F4.174387269895637
sVnot
p137
F3.091042453358316
sVdiscuss
p138
F4.174387269895637
sVgrammat
p139
F3.784189633918261
sVachiev
p140
F3.4965075614664802
sVeach
p141
F2.70805020110221
sVfound
p142
F3.784189633918261
sVwent
p143
F4.867534450455582
sVside
p144
F4.174387269895637
sVmean
p145
F4.174387269895637
sVweight
p146
F2.3978952727983707
sVindividu
p147
F3.4965075614664802
sVsubseg
p148
F4.867534450455582
sVconnect
p149
F4.867534450455582
sVfluctuat
p150
F4.867534450455582
sVextract
p151
F3.4965075614664802
sVout
p152
F3.784189633918261
sVrt
p153
F3.091042453358316
sVshown
p154
F4.867534450455582
sVcooccurr
p155
F4.867534450455582
sVnetwork
p156
F4.867534450455582
sV'
p157
F4.867534450455582
sVquantifi
p158
F4.867534450455582
sVcorrect
p159
F4.867534450455582
sVred
p160
F4.867534450455582
sVpredispos
p161
F4.867534450455582
sVmillion
p162
F4.867534450455582
sVntu
p163
F4.867534450455582
sVgiven
p164
F4.867534450455582
sVfree
p165
F4.867534450455582
sVbase
p166
F3.258096538021482
sVtheori
p167
F4.867534450455582
sVnearsynonym
p168
F4.867534450455582
sVfrequenc
p169
F4.867534450455582
sVcould
p170
F2.9444389791664403
sVlength
p171
F4.174387269895637
sVorganis
p172
F4.867534450455582
sVsubtl
p173
F4.867534450455582
sVfirst
p174
F4.174387269895637
sVrang
p175
F4.867534450455582
sVnumber
p176
F3.784189633918261
sVone
p177
F3.4965075614664802
sVrestrict
p178
F4.867534450455582
sVinstruct
p179
F4.867534450455582
sVsummaris
p180
F4.174387269895637
sVleast
p181
F4.174387269895637
sVmiss
p182
F4.867534450455582
sVsize
p183
F4.867534450455582
sVdiffer
p184
F3.784189633918261
sVassoci
p185
F4.174387269895637
sVtop
p186
F4.867534450455582
sVreli
p187
F4.867534450455582
sVconstruct
p188
F4.867534450455582
sVtheir
p189
F3.784189633918261
sVtoo
p190
F4.867534450455582
sVtwenti
p191
F4.867534450455582
sVcorpus
p192
F4.867534450455582
sVhearst
p193
F3.4965075614664802
sVinclud
p194
F3.4965075614664802
sVthat
p195
F2.1972245773362196
sVbuckley
p196
F4.867534450455582
sVthan
p197
F3.4965075614664802
sVstd
p198
F4.867534450455582
sVwide
p199
F4.867534450455582
sVprovid
p200
F3.4965075614664802
sVcataphor
p201
F4.867534450455582
sVsecond
p202
F4.867534450455582
sVstructur
p203
F3.4965075614664802
sVwere
p204
F1.9459101490553132
sVheadword
p205
F4.867534450455582
sVseri
p206
F4.174387269895637
sVand
p207
F1.3862943611198906
sVfunction
p208
F4.867534450455582
sVcomput
p209
F4.867534450455582
sVhave
p210
F3.784189633918261
sVcohes
p211
F1.791759469228055
sVentireti
p212
F4.867534450455582
sValso
p213
F3.784189633918261
sVwhich
p214
F3.4965075614664802
sVgreen
p215
F4.867534450455582
sVconcern
p216
F4.867534450455582
sVplay
p217
F4.867534450455582
sVallow
p218
F3.784189633918261
sVobject
p219
F4.867534450455582
sVlexic
p220
F1.791759469228055
sVregular
p221
F4.867534450455582
sVreynar
p222
F4.174387269895637
sVpair
p223
F3.784189633918261
sVsegment
p224
F1.3862943611198906
sVclass
p225
F3.4965075614664802
sVsynonym
p226
F3.784189633918261
sVdoc
p227
F4.867534450455582
sVadopt
p228
F4.867534450455582
sVdoe
p229
F4.867534450455582
sVdetermin
p230
F2.9444389791664403
sVusual
p231
F4.867534450455582
sVfact
p232
F4.867534450455582
sVlexicon
p233
F3.258096538021482
sVshow
p234
F3.784189633918261
sVtext
p235
F1.3862943611198906
sVrandom
p236
F4.867534450455582
sVempir
p237
F4.867534450455582
sVthreshold
p238
F4.174387269895637
sVfine
p239
F4.867534450455582
sVonli
p240
F3.784189633918261
sVlocat
p241
F2.5649493574615367
sVactiv
p242
F4.867534450455582
sVngi
p243
F4.867534450455582
sVshould
p244
F4.867534450455582
sVfactor
p245
F4.867534450455582
sVsalton
p246
F4.867534450455582
sVinferior
p247
F4.174387269895637
sVdo
p248
F4.867534450455582
sVsatisfact
p249
F4.867534450455582
sVunderrepres
p250
F4.867534450455582
sVexpress
p251
F4.174387269895637
sVautom
p252
F4.174387269895637
sVreport
p253
F4.174387269895637
sVroget
p254
F4.867534450455582
sVcommon
p255
F4.867534450455582
sVlinguist
p256
F2.5649493574615367
sVwhere
p257
F3.4965075614664802
sVvalid
p258
F4.867534450455582
sVare
p259
F2.4849066497880004
sVclose
p260
F4.867534450455582
sVbest
p261
F3.784189633918261
sVsubject
p262
F1.6094379124341003
sVdetect
p263
F2.9444389791664403
sVheterogen
p264
F4.867534450455582
sVtend
p265
F3.4965075614664802
sVstate
p266
F4.867534450455582
sVscore
p267
F3.258096538021482
sVbetween
p268
F2.302585092994046
sVanaphor
p269
F4.867534450455582
sVexperi
p270
F4.174387269895637
sVapproach
p271
F3.258096538021482
sVacross
p272
F3.784189633918261
sVattribut
p273
F4.867534450455582
sVaccord
p274
F4.867534450455582
sVweak
p275
F4.867534450455582
sVisol
p276
F4.867534450455582
sVaddit
p277
F4.867534450455582
sVboth
p278
F3.784189633918261
sVhowev
p279
F4.174387269895637
sValon
p280
F4.174387269895637
sVutilis
p281
F4.867534450455582
sVinstanc
p282
F4.174387269895637
sVmani
p283
F4.174387269895637
sVfigur
p284
F4.174387269895637
sVwall
p285
F4.867534450455582
sVfeatur
p286
F2.302585092994046
sVcommenc
p287
F4.867534450455582
sVrespect
p288
F4.867534450455582
sVlongman
p289
F4.867534450455582
sVdue
p290
F4.867534450455582
sVbeen
p291
F4.867534450455582
sVcompon
p292
F4.867534450455582
sVtreat
p293
F4.867534450455582
sValphabeticallyord
p294
F4.867534450455582
sVlife
p295
F4.867534450455582
sVneighbour
p296
F4.867534450455582
sVrepetit
p297
F1.9459101490553132
sVan
p298
F2.70805020110221
sVpresent
p299
F4.174387269895637
sVident
p300
F4.867534450455582
sVlook
p301
F4.174387269895637
sVthese
p302
F2.70805020110221
sVcontextu
p303
F4.867534450455582
sVcalcul
p304
F3.091042453358316
sVpairwis
p305
F2.9444389791664403
sVerror
p306
F3.4965075614664802
sVmargin
p307
F3.4965075614664802
sVseven
p308
F3.784189633918261
sVthen
p309
F4.867534450455582
sVis
p310
F1.9459101490553132
sVtabl
p311
F3.4965075614664802
sVhenc
p312
F4.174387269895637
sVit
p313
F2.70805020110221
sVcluster
p314
F4.867534450455582
sVarchiv
p315
F4.867534450455582
sVin
p316
F1.3862943611198906
sVwordnet
p317
F4.867534450455582
sVresult
p318
F2.70805020110221
sVdevelop
p319
F3.4965075614664802
sVperform
p320
F4.174387269895637
sVmake
p321
F4.867534450455582
sVsame
p322
F3.4965075614664802
sVdocument
p323
F3.784189633918261
sVhyponym
p324
F4.867534450455582
sVdifficult
p325
F4.867534450455582
sVevid
p326
F4.867534450455582
sVevett
p327
F4.867534450455582
sVeffect
p328
F4.174387269895637
sVuser
p329
F4.867534450455582
sVimprov
p330
F3.784189633918261
sVtypic
p331
F4.867534450455582
sVexpand
p332
F4.867534450455582
sVlower
p333
F4.174387269895637
sVi
p334
F4.867534450455582
sVwell
p335
F4.867534450455582
sVexampl
p336
F3.258096538021482
sVenglish
p337
F4.174387269895637
sVthe
p338
F0.6931471805599453
sVpropos
p339
F4.174387269895637
sVidentifi
p340
F1.791759469228055
sVjust
p341
F4.867534450455582
sVless
p342
F4.867534450455582
sVlanguag
p343
F4.867534450455582
sVprevious
p344
F3.784189633918261
sVweb
p345
F4.867534450455582
sVpoint
p346
F2.0794415416798357
sVspread
p347
F4.867534450455582
sVhas
p348
F4.174387269895637
sVapproxim
p349
F4.867534450455582
sVmatch
p350
F3.258096538021482
sVapplic
p351
F4.867534450455582
sVterm
p352
F3.784189633918261
sVfive
p353
F3.784189633918261
sVbackground
p354
F4.867534450455582
sVworld
p355
F4.867534450455582
sVmeasur
p356
F4.867534450455582
sVtlex
p357
F4.867534450455582
sVlike
p358
F4.867534450455582
sVsuccess
p359
F4.174387269895637
sVsignal
p360
F4.867534450455582
sVlje
p361
F4.867534450455582
sVcollect
p362
F4.867534450455582
sVeither
p363
F3.784189633918261
sVoutput
p364
F4.867534450455582
sVdecis
p365
F4.867534450455582
sVcaptur
p366
F3.784189633918261
sVsome
p367
F4.867534450455582
sVsampl
p368
F4.867534450455582
sVscale
p369
F4.867534450455582
sVfor
p370
F1.9459101490553132
sVper
p371
F4.174387269895637
sVrefer
p372
F3.4965075614664802
sVbe
p373
F2.302585092994046
sVwho
p374
F4.867534450455582
sVpeel
p375
F4.174387269895637
sVjournal
p376
F4.867534450455582
sVagreement
p377
F4.867534450455582
sVstem
p378
F4.174387269895637
sVbu
p379
F4.867534450455582
sVstep
p380
F4.867534450455582
sVinvestig
p381
F3.091042453358316
sVfulli
p382
F4.867534450455582
sVmajor
p383
F4.867534450455582
sVsuperordin
p384
F3.784189633918261
sVcomparison
p385
F3.258096538021482
sVabout
p386
F4.867534450455582
sVactual
p387
F4.867534450455582
sVmorri
p388
F4.867534450455582
sVof
p389
F0.6931471805599453
sVhasan
p390
F3.784189633918261
sVdegre
p391
F3.784189633918261
sVsuprasententi
p392
F4.867534450455582
sVor
p393
F3.4965075614664802
sVconsid
p394
F3.091042453358316
sVinto
p395
F3.258096538021482
sVautomat
p396
F3.091042453358316
sVthree
p397
F2.70805020110221
sVassess
p398
F4.867534450455582
sVellipsi
p399
F4.867534450455582
sVarea
p400
F3.258096538021482
sVsententi
p401
F4.867534450455582
sVstart
p402
F4.867534450455582
sVadjac
p403
F3.784189633918261
sVlow
p404
F4.867534450455582
sV:
p405
F2.1972245773362196
sVwas
p406
F2.0794415416798357
sVanalysi
p407
F4.174387269895637
sVform
p408
F4.867534450455582
sVexcerpt
p409
F4.867534450455582
sVthesaurus
p410
F3.258096538021482
sVbut
p411
F3.784189633918261
sVwith
p412
F2.833213344056216
sVconclus
p413
F4.867534450455582
sVconcaten
p414
F4.174387269895637
sVmade
p415
F4.867534450455582
sVfurthermor
p416
F4.867534450455582
sVconsist
p417
F3.784189633918261
sVpossibl
p418
F4.174387269895637
sVwhether
p419
F4.174387269895637
sVj
p420
F4.867534450455582
sVup
p421
F4.174387269895637
sVreiter
p422
F3.258096538021482
sVrecord
p423
F4.867534450455582
sVlimit
p424
F4.867534450455582
sVuk
p425
F4.867534450455582
sVproblem
p426
F4.867534450455582
sVsimilar
p427
F3.258096538021482
sVac
p428
F4.867534450455582
sVlater
p429
F4.174387269895637
sVevalu
p430
F4.174387269895637
sVabstract
p431
F4.867534450455582
sVgeneral
p432
F3.4965075614664802
sVas
p433
F2.9444389791664403
sVexist
p434
F4.174387269895637
sVat
p435
F3.091042453358316
sVgenerat
p436
F3.784189633918261
sVhalliday
p437
F3.784189633918261
sVproport
p438
F4.174387269895637
sVlemon
p439
F4.867534450455582
sVno
p440
F4.174387269895637
sVwhen
p441
F4.867534450455582
sVother
p442
F4.174387269895637
sVrole
p443
F4.867534450455582
sVfutur
p444
F4.867534450455582
sVtest
p445
F2.4849066497880004
sVtie
p446
F3.784189633918261
sVtic
p447
F4.867534450455582
sV's
p448
F3.4965075614664802
sVsubdivid
p449
F4.867534450455582
sVintent
p450
F4.867534450455582
sVpeak
p451
F4.867534450455582
sVvocabulari
p452
F4.867534450455582
sVusmg
p453
F4.867534450455582
sVlonger
p454
F4.174387269895637
sValgorithm
p455
F1.791759469228055
sVreliabl
p456
F4.867534450455582
sVpotenti
p457
F4.867534450455582
sVdegrad
p458
F4.867534450455582
sVdaili
p459
F4.867534450455582
s.