(dp0
Vrepresent
p1
F5.049856007249537
sVall
p2
F2.772588722239781
sVpartial
p3
F5.049856007249537
sVgr
p4
F5.049856007249537
sVillustr
p5
F4.356708826689592
sVgu
p6
F5.049856007249537
sVtrigram
p7
F5.049856007249537
sVfollow
p8
F3.9512437185814275
sVrow
p9
F4.356708826689592
sVhierarch
p10
F5.049856007249537
sVdepend
p11
F2.8903717578961645
sVto
p12
F1.6094379124341003
sVprogram
p13
F5.049856007249537
sVtj
p14
F4.356708826689592
sVpresent
p15
F4.356708826689592
sVlarg
p16
F5.049856007249537
sVmkcls
p17
F5.049856007249537
sVsent
p18
F5.049856007249537
sVeveryth
p19
F5.049856007249537
sVsourc
p20
F3.258096538021482
sVstring
p21
F5.049856007249537
sVstraightforward
p22
F5.049856007249537
sVfar
p23
F5.049856007249537
sVquasisynchron
p24
F5.049856007249537
sVdistort
p25
F5.049856007249537
sVutil
p26
F5.049856007249537
sVnovel
p27
F5.049856007249537
sVveri
p28
F5.049856007249537
sVaffect
p29
F5.049856007249537
sVsyntaxbas
p30
F3.6635616461296463
sVreconcil
p31
F5.049856007249537
sVlist
p32
F3.4657359027997265
sVp
p33
F4.356708826689592
sVform
p34
F4.356708826689592
sVsmall
p35
F5.049856007249537
sVcmu
p36
F5.049856007249537
sVrefer
p37
F5.049856007249537
sVthe
p38
F1.0986122886681098
sVimpli
p39
F3.9512437185814275
sVbe
p40
F2.70805020110221
sVtrend
p41
F4.356708826689592
sVcfg
p42
F5.049856007249537
sVted
p43
F5.049856007249537
sVdirect
p44
F4.356708826689592
sVsecond
p45
F4.356708826689592
sVmonolingu
p46
F5.049856007249537
sVrati
p47
F5.049856007249537
sVeven
p48
F5.049856007249537
sVerrorr
p49
F5.049856007249537
sVappear
p50
F5.049856007249537
sVcompar
p51
F3.4657359027997265
sVsum
p52
F3.258096538021482
sVfind
p53
F4.356708826689592
sVcurrent
p54
F5.049856007249537
sVexperiment
p55
F3.9512437185814275
sVconduct
p56
F5.049856007249537
sV;
p57
F2.995732273553991
sVpublic
p58
F5.049856007249537
sVcontrast
p59
F5.049856007249537
sVderiv
p60
F3.9512437185814275
sVvariat
p61
F4.356708826689592
sVnever
p62
F5.049856007249537
sVlem
p63
F5.049856007249537
sVhere
p64
F4.356708826689592
sVlet
p65
F5.049856007249537
sVaddress
p66
F5.049856007249537
sVlex
p67
F4.356708826689592
sVbecom
p68
F4.356708826689592
sVmodifi
p69
F5.049856007249537
sVsinc
p70
F4.356708826689592
sVvalu
p71
F4.356708826689592
sV/ch
p72
F5.049856007249537
sVsearch
p73
F4.356708826689592
sVglm
p74
F5.049856007249537
sVk
p75
F3.1354942159291497
sVlefttoright
p76
F5.049856007249537
sVpermit
p77
F3.1354942159291497
sVimplement
p78
F5.049856007249537
sVisomorph
p79
F3.9512437185814275
sV|a|
p80
F5.049856007249537
sVapproxim
p81
F3.1354942159291497
sVtreetotre
p82
F3.9512437185814275
sVoverfit
p83
F5.049856007249537
sVheurist
p84
F5.049856007249537
sVtotal
p85
F5.049856007249537
sVselect
p86
F5.049856007249537
sVuse
p87
F1.791759469228055
sVphraseand
p88
F5.049856007249537
sVfrom
p89
F2.995732273553991
sVdescrib
p90
F5.049856007249537
sVtwo
p91
F3.9512437185814275
sVcoverag
p92
F3.9512437185814275
sVnext
p93
F4.356708826689592
sVcall
p94
F5.049856007249537
sVtype
p95
F5.049856007249537
sVreorder
p96
F3.9512437185814275
sVmore
p97
F2.995732273553991
sVqdg
p98
F3.9512437185814275
sVcaseinsensit
p99
F5.049856007249537
sVdesir
p100
F5.049856007249537
sVon
p101
F2.4849066497880004
sVrelat
p102
F5.049856007249537
sVyahoo
p103
F5.049856007249537
sVprobabilist
p104
F4.356708826689592
sVit
p105
F3.258096538021482
sVtrain
p106
F2.8903717578961645
sVexamin
p107
F5.049856007249537
sVparticular
p108
F4.356708826689592
sVme
p109
F5.049856007249537
sVnonisomorph
p110
F3.6635616461296463
sVword
p111
F2.70805020110221
sVibm
p112
F5.049856007249537
sVaugment
p113
F5.049856007249537
sVf
p114
F2.995732273553991
sVthis
p115
F2.3978952727983707
sVwork
p116
F3.4657359027997265
sVmi
p117
F5.049856007249537
sVmt
p118
F3.1354942159291497
sVremain
p119
F5.049856007249537
sVcan
p120
F2.995732273553991
sVlearn
p121
F3.6635616461296463
sVroot
p122
F4.356708826689592
sVcontrol
p123
F3.9512437185814275
sVtab
p124
F3.1354942159291497
sVgive
p125
F5.049856007249537
sVunavail
p126
F5.049856007249537
sVexplor
p127
F3.9512437185814275
sVonlin
p128
F5.049856007249537
sVphrase
p129
F2.5649493574615367
sVdavid
p130
F5.049856007249537
sVhuge
p131
F5.049856007249537
sVend
p132
F5.049856007249537
sVrather
p133
F5.049856007249537
sVtravel
p134
F5.049856007249537
sVatt
p135
F5.049856007249537
sValway
p136
F4.356708826689592
sVent
p137
F5.049856007249537
sVforest
p138
F5.049856007249537
sVinstead
p139
F5.049856007249537
sVwidespread
p140
F5.049856007249537
sVparameter
p141
F5.049856007249537
sVgreor
p142
F5.049856007249537
sVexpress
p143
F4.356708826689592
sVresourc
p144
F5.049856007249537
sVmay
p145
F5.049856007249537
sVgiza++
p146
F5.049856007249537
sVsuch
p147
F3.6635616461296463
sVassoci
p148
F5.049856007249537
sVparallel
p149
F5.049856007249537
sVman
p150
F5.049856007249537
sVa
p151
F1.6094379124341003
sVsy
p152
F5.049856007249537
sVpractic
p153
F4.356708826689592
sVthird
p154
F5.049856007249537
sVexplicit
p155
F5.049856007249537
sVgtran
p156
F5.049856007249537
sVq
p157
F5.049856007249537
sVinform
p158
F4.356708826689592
sVmaintain
p159
F5.049856007249537
sVso
p160
F3.9512437185814275
sVincorpor
p161
F4.356708826689592
sVsa
p162
F5.049856007249537
sVkneserney
p163
F5.049856007249537
sVorder
p164
F5.049856007249537
sVoper
p165
F5.049856007249537
sVhelp
p166
F3.9512437185814275
sVover
p167
F3.1354942159291497
sVbecaus
p168
F4.356708826689592
sVtargetsid
p169
F5.049856007249537
sVpaper
p170
F4.356708826689592
sVthrough
p171
F3.6635616461296463
sVvari
p172
F4.356708826689592
sVdynam
p173
F5.049856007249537
sVparamet
p174
F5.049856007249537
sVgroup
p175
F5.049856007249537
sVthank
p176
F5.049856007249537
sVhow
p177
F3.9512437185814275
sVchosen
p178
F5.049856007249537
sVfix
p179
F5.049856007249537
sV,
p180
F1.0986122886681098
sVwordclass
p181
F5.049856007249537
sVls
p182
F5.049856007249537
sVhidden
p183
F3.6635616461296463
sVtherefor
p184
F4.356708826689592
sVmight
p185
F4.356708826689592
sVthem
p186
F3.258096538021482
sVclariti
p187
F5.049856007249537
sVhandl
p188
F3.9512437185814275
sVsentenc
p189
F2.8903717578961645
sVoveral
p190
F5.049856007249537
sVframework
p191
F3.6635616461296463
sVnsf
p192
F5.049856007249537
sVthey
p193
F3.258096538021482
sVnot
p194
F2.8903717578961645
sVdataset
p195
F5.049856007249537
sVdiscuss
p196
F3.9512437185814275
sVchoic
p197
F3.4657359027997265
sVterm
p198
F4.356708826689592
sVgrammar
p199
F3.9512437185814275
sVtran
p200
F5.049856007249537
sVnfi
p201
F5.049856007249537
sVsepar
p202
F4.356708826689592
sVeach
p203
F3.1354942159291497
sVprohibit
p204
F5.049856007249537
sVweight
p205
F3.9512437185814275
sVemnlp
p206
F5.049856007249537
sVindividu
p207
F5.049856007249537
sVhard
p208
F4.356708826689592
sVcontinu
p209
F5.049856007249537
sVprocedur
p210
F5.049856007249537
sVour
p211
F2.3978952727983707
sVeq
p212
F2.5649493574615367
sVevent
p213
F5.049856007249537
sVout
p214
F4.356708826689592
sVvariabl
p215
F3.9512437185814275
sVshown
p216
F3.6635616461296463
sVaccomplish
p217
F5.049856007249537
sVitem
p218
F5.049856007249537
sVgradient
p219
F4.356708826689592
sVresearch
p220
F3.9512437185814275
sVcategori
p221
F4.356708826689592
sVsever
p222
F5.049856007249537
sVlattic
p223
F2.995732273553991
sVquantifi
p224
F5.049856007249537
sVqd
p225
F5.049856007249537
sVinsid
p226
F5.049856007249537
sVstandard
p227
F4.356708826689592
sVreason
p228
F5.049856007249537
sVbase
p229
F3.4657359027997265
sVbeliev
p230
F5.049856007249537
sVlikelihood
p231
F5.049856007249537
sVgreedi
p232
F5.049856007249537
sVperform
p233
F3.4657359027997265
sVg
p234
F3.9512437185814275
sVcould
p235
F4.356708826689592
sVsynchron
p236
F5.049856007249537
sVkeep
p237
F5.049856007249537
sVfilter
p238
F5.049856007249537
sVturn
p239
F5.049856007249537
sVlength
p240
F5.049856007249537
sVoutsid
p241
F5.049856007249537
sVprincipl
p242
F3.9512437185814275
sVfrequent
p243
F5.049856007249537
sVfirst
p244
F4.356708826689592
sVxj
p245
F5.049856007249537
sVrang
p246
F5.049856007249537
sVindepend
p247
F5.049856007249537
sVqualiti
p248
F4.356708826689592
sVone
p249
F3.4657359027997265
sVrestrict
p250
F3.6635616461296463
sVloglinear
p251
F4.356708826689592
sVsize
p252
F5.049856007249537
sVdiffer
p253
F3.6635616461296463
sVconvent
p254
F5.049856007249537
sVtheir
p255
F3.4657359027997265
sVdata
p256
F3.6635616461296463
sVsystem
p257
F2.772588722239781
sVattach
p258
F5.049856007249537
sVstephan
p259
F5.049856007249537
sVcorpus
p260
F3.6635616461296463
sVfinal
p261
F5.049856007249537
sVthat
p262
F2.0794415416798357
sVet
p263
F3.6635616461296463
sVspecifi
p264
F5.049856007249537
sVpart
p265
F3.9512437185814275
sVpars
p266
F2.70805020110221
sVthan
p267
F3.4657359027997265
sVwide
p268
F4.356708826689592
sVprune
p269
F3.9512437185814275
sVprovid
p270
F3.9512437185814275
sVremov
p271
F5.049856007249537
sVtree
p272
F2.772588722239781
sVricher
p273
F5.049856007249537
sVstructur
p274
F3.1354942159291497
sVexampl
p275
F3.9512437185814275
sVr
p276
F5.049856007249537
sVposit
p277
F4.356708826689592
sVtion
p278
F4.356708826689592
sVtargetlanguag
p279
F4.356708826689592
sVare
p280
F1.791759469228055
sVand
p281
F1.0986122886681098
sVmini
p282
F5.049856007249537
sVcomput
p283
F3.9512437185814275
sVani
p284
F3.9512437185814275
sVhave
p285
F2.70805020110221
sVtabl
p286
F3.6635616461296463
sVneed
p287
F5.049856007249537
sVseen
p288
F5.049856007249537
sVseem
p289
F5.049856007249537
sVnull
p290
F5.049856007249537
sVseek
p291
F5.049856007249537
sVcaus
p292
F4.356708826689592
sVtechniqu
p293
F3.9512437185814275
sVlin
p294
F5.049856007249537
sVviolat
p295
F5.049856007249537
sVsourcesid
p296
F3.6635616461296463
sVnote
p297
F5.049856007249537
sValso
p298
F3.9512437185814275
sVdenomin
p299
F3.9512437185814275
sVpseudolikelihood
p300
F3.9512437185814275
sVtake
p301
F5.049856007249537
sVwhich
p302
F2.995732273553991
sVcombin
p303
F3.6635616461296463
sV=
p304
F3.9512437185814275
sVchannel
p305
F5.049856007249537
sVmose
p306
F4.356708826689592
sVblue
p307
F5.049856007249537
sVpipelin
p308
F5.049856007249537
sVunless
p309
F5.049856007249537
sVallow
p310
F3.9512437185814275
sVthough
p311
F5.049856007249537
sVtrigam
p312
F5.049856007249537
sVobject
p313
F5.049856007249537
sVchart
p314
F5.049856007249537
sVlexic
p315
F3.1354942159291497
sVmost
p316
F4.356708826689592
sVregular
p317
F5.049856007249537
sVeight
p318
F4.356708826689592
sVplan
p319
F5.049856007249537
sVpair
p320
F3.9512437185814275
sVsist
p321
F5.049856007249537
sVsegment
p322
F5.049856007249537
sVclass
p323
F4.356708826689592
sVrequir
p324
F3.258096538021482
sVsynonym
p325
F5.049856007249537
sVclear
p326
F5.049856007249537
sVm
p327
F4.356708826689592
sVphrasebas
p328
F3.4657359027997265
sVdoe
p329
F3.9512437185814275
sVdenc
p330
F5.049856007249537
sVeffect
p331
F3.258096538021482
sVpropos
p332
F4.356708826689592
sV}
p333
F4.356708826689592
sV+
p334
F4.356708826689592
sVdist
p335
F5.049856007249537
sVtranslat
p336
F2.1972245773362196
sVnlp
p337
F5.049856007249537
sVlexicon
p338
F5.049856007249537
sVshow
p339
F3.258096538021482
sVgerman
p340
F5.049856007249537
sVsyntax
p341
F3.1354942159291497
sVfine
p342
F5.049856007249537
sVthicker
p343
F5.049856007249537
sVfeedback
p344
F5.049856007249537
sVinvolv
p345
F4.356708826689592
sVabsolut
p346
F4.356708826689592
sVonli
p347
F3.258096538021482
sVlatent
p348
F5.049856007249537
sVment
p349
F4.356708826689592
sV(
p350
F3.258096538021482
sVexplain
p351
F5.049856007249537
sVconfigur
p352
F2.8903717578961645
sVsolut
p353
F5.049856007249537
sVshould
p354
F5.049856007249537
sVversion
p355
F5.049856007249537
sVblack
p356
F5.049856007249537
sVrich
p357
F5.049856007249537
sVfactor
p358
F2.8903717578961645
sVlocal
p359
F3.4657359027997265
sVdo
p360
F3.6635616461296463
sVcube
p361
F2.995732273553991
sVcontribut
p362
F5.049856007249537
sVklein
p363
F5.049856007249537
sValbeit
p364
F5.049856007249537
sVde
p365
F5.049856007249537
sVrepr
p366
F5.049856007249537
sVincreas
p367
F5.049856007249537
sVsymmetr
p368
F5.049856007249537
sVdp
p369
F3.9512437185814275
sVtarget
p370
F3.1354942159291497
sVreveal
p371
F5.049856007249537
sVpossibl
p372
F3.258096538021482
sVmethod
p373
F3.9512437185814275
sVcommon
p374
F5.049856007249537
sVqg
p375
F3.4657359027997265
sVcontain
p376
F4.356708826689592
sVx
p377
F5.049856007249537
sVwhere
p378
F5.049856007249537
sVnist
p379
F5.049856007249537
sVview
p380
F5.049856007249537
sVbleu
p381
F3.9512437185814275
sVset
p382
F2.70805020110221
sVargmax
p383
F5.049856007249537
sVaccord
p384
F5.049856007249537
sVup
p385
F5.049856007249537
sVnul
p386
F5.049856007249537
sVarc
p387
F4.356708826689592
sVresult
p388
F3.6635616461296463
sVark
p389
F5.049856007249537
sVbest
p390
F4.356708826689592
sVchose
p391
F5.049856007249537
sV)
p392
F2.70805020110221
sVpattern
p393
F5.049856007249537
sVreview
p394
F5.049856007249537
sVfigur
p395
F3.9512437185814275
sVscore
p396
F3.9512437185814275
sVvarious
p397
F3.9512437185814275
sVbetween
p398
F3.6635616461296463
sVmum
p399
F5.049856007249537
sVprogress
p400
F5.049856007249537
sVneither
p401
F5.049856007249537
sVexperi
p402
F3.1354942159291497
sVapproach
p403
F3.6635616461296463
sValtern
p404
F4.356708826689592
sVwe
p405
F1.3862943611198906
sVsyntact
p406
F2.4849066497880004
sVnumer
p407
F4.356708826689592
sVdisallow
p408
F5.049856007249537
sVby
p409
F2.3978952727983707
sVcycl
p410
F5.049856007249537
sVkey
p411
F5.049856007249537
sVcomplementari
p412
F4.356708826689592
sVsolv
p413
F4.356708826689592
sVcondi
p414
F5.049856007249537
sVaddit
p415
F3.9512437185814275
sVboth
p416
F3.258096538021482
sVild
p417
F5.049856007249537
sVstochast
p418
F5.049856007249537
sVhowev
p419
F5.049856007249537
sVs
p420
F3.6635616461296463
sVinconsist
p421
F5.049856007249537
sVstateoftheart
p422
F5.049856007249537
sVmani
p423
F3.4657359027997265
sVcomment
p424
F5.049856007249537
sVco
p425
F5.049856007249537
sVinstanti
p426
F4.356708826689592
sVresidu
p427
F5.049856007249537
sVexploit
p428
F4.356708826689592
sVsuppli
p429
F5.049856007249537
sVcs
p430
F5.049856007249537
sVrespect
p431
F4.356708826689592
sVchildgener
p432
F5.049856007249537
sVassum
p433
F4.356708826689592
sVscov
p434
F5.049856007249537
sVdue
p435
F5.049856007249537
sVbeen
p436
F3.9512437185814275
sVmuch
p437
F4.356708826689592
sVinterest
p438
F4.356708826689592
sVbasic
p439
F5.049856007249537
sVfig
p440
F5.049856007249537
sVoth
p441
F5.049856007249537
sVfire
p442
F5.049856007249537
sVc
p443
F5.049856007249537
sVgap
p444
F5.049856007249537
sVchild
p445
F5.049856007249537
sVthissacrific
p446
F5.049856007249537
sVan
p447
F3.4657359027997265
sVformer
p448
F5.049856007249537
sVthose
p449
F5.049856007249537
sVident
p450
F5.049856007249537
sVthese
p451
F2.70805020110221
sValign
p452
F2.70805020110221
sVn
p453
F3.9512437185814275
sVwill
p454
F4.356708826689592
sVdefin
p455
F3.9512437185814275
sVwhile
p456
F5.049856007249537
sVreport
p457
F5.049856007249537
sVdecreas
p458
F5.049856007249537
sVanonym
p459
F5.049856007249537
sVmargin
p460
F4.356708826689592
sVadvantag
p461
F5.049856007249537
sVis
p462
F2.0794415416798357
sVhenc
p463
F5.049856007249537
sVtoolkit
p464
F5.049856007249537
sVii
p465
F5.049856007249537
sVgermanenglish
p466
F5.049856007249537
sVsubstanti
p467
F3.9512437185814275
sVin
p468
F1.0986122886681098
sVwordnet
p469
F5.049856007249537
sVif
p470
F4.356708826689592
sVpar
p471
F5.049856007249537
sVdevelop
p472
F4.356708826689592
sVgrant
p473
F5.049856007249537
sVgeneric
p474
F5.049856007249537
sVsuggest
p475
F5.049856007249537
sVmake
p476
F3.9512437185814275
sVsame
p477
F4.356708826689592
sVbinari
p478
F5.049856007249537
sVdecod
p479
F2.0794415416798357
sVprobabl
p480
F3.258096538021482
sVinfer
p481
F2.8903717578961645
sVhighestscor
p482
F4.356708826689592
sVappreci
p483
F5.049856007249537
sVsee
p484
F5.049856007249537
sVoptim
p485
F5.049856007249537
sVsyn
p486
F5.049856007249537
sVimprov
p487
F3.9512437185814275
sVphr
p488
F4.356708826689592
sVtypic
p489
F3.9512437185814275
sVrecent
p490
F4.356708826689592
sVtask
p491
F5.049856007249537
sVmachineri
p492
F5.049856007249537
sVwell
p493
F3.9512437185814275
sVparenthes
p494
F5.049856007249537
sVeisner
p495
F3.6635616461296463
sVwithout
p496
F5.049856007249537
sVexpens
p497
F5.049856007249537
sVenglish
p498
F5.049856007249537
sVy
p499
F5.049856007249537
sVmodel
p500
F2.1972245773362196
sVusual
p501
F5.049856007249537
sVnullalign
p502
F5.049856007249537
sVless
p503
F5.049856007249537
sVwhen
p504
F3.258096538021482
sVobtain
p505
F3.9512437185814275
sVrest
p506
F5.049856007249537
sVrelianc
p507
F5.049856007249537
sV{
p508
F5.049856007249537
sVlanguag
p509
F3.4657359027997265
sVprevious
p510
F5.049856007249537
sVrapid
p511
F4.356708826689592
sVma
p512
F5.049856007249537
sVsmith
p513
F3.6635616461296463
sVadd
p514
F5.049856007249537
sVother
p515
F3.6635616461296463
sVinput
p516
F5.049856007249537
sVhas
p517
F4.356708826689592
sVmatch
p518
F5.049856007249537
sVopt
p519
F5.049856007249537
sVquirk
p520
F5.049856007249537
sVagnost
p521
F5.049856007249537
sVgrammat
p522
F5.049856007249537
sVarguabl
p523
F5.049856007249537
sVfive
p524
F5.049856007249537
sVelabor
p525
F5.049856007249537
sVformal
p526
F3.6635616461296463
sVmeasur
p527
F5.049856007249537
sVlike
p528
F5.049856007249537
sVspecif
p529
F5.049856007249537
sVarbitrari
p530
F4.356708826689592
sVnegat
p531
F5.049856007249537
sVnecessari
p532
F4.356708826689592
sVsingl
p533
F4.356708826689592
sVoutput
p534
F3.9512437185814275
sVmanag
p535
F5.049856007249537
sVwww
p536
F5.049856007249537
sVoften
p537
F3.9512437185814275
sVsome
p538
F4.356708826689592
sVunderstood
p539
F5.049856007249537
sVascent
p540
F5.049856007249537
sVsummat
p541
F4.356708826689592
sVfor
p542
F1.791759469228055
sVavoid
p543
F5.049856007249537
sVestim
p544
F3.1354942159291497
sVleav
p545
F4.356708826689592
sVsequenc
p546
F4.356708826689592
sVcondit
p547
F4.356708826689592
sVnovelti
p548
F5.049856007249537
sVporter
p549
F5.049856007249537
sVt
p550
F4.356708826689592
sVmachin
p551
F3.6635616461296463
sVcore
p552
F5.049856007249537
sVrun
p553
F5.049856007249537
sVpower
p554
F5.049856007249537
sVslight
p555
F4.356708826689592
sVbl
p556
F5.049856007249537
sVsourceand
p557
F5.049856007249537
sVgcov
p558
F5.049856007249537
sVels
p559
F5.049856007249537
sVstem
p560
F5.049856007249537
sVedu/quipu
p561
F5.049856007249537
sVgermantoenglish
p562
F5.049856007249537
sVimpos
p563
F5.049856007249537
sVproceed
p564
F5.049856007249537
sVcomparison
p565
F3.4657359027997265
sVabout
p566
F5.049856007249537
sVrare
p567
F5.049856007249537
sVvogel
p568
F5.049856007249537
sVconstraint
p569
F3.258096538021482
sVcolumn
p570
F5.049856007249537
sVof
p571
F1.3862943611198906
sVsri
p572
F5.049856007249537
sVo
p573
F4.356708826689592
sVlation
p574
F5.049856007249537
sVou
p575
F5.049856007249537
sVproduc
p576
F5.049856007249537
sVown
p577
F5.049856007249537
sVeffici
p578
F3.9512437185814275
sVinto
p579
F3.9512437185814275
sVwithin
p580
F5.049856007249537
sVencod
p581
F5.049856007249537
sVautomat
p582
F3.6635616461296463
sVthree
p583
F5.049856007249537
sVval
p584
F5.049856007249537
sVassumpt
p585
F4.356708826689592
sVsupport
p586
F4.356708826689592
sVthere
p587
F3.6635616461296463
sVfast
p588
F5.049856007249537
sVavail
p589
F5.049856007249537
sVstart
p590
F5.049856007249537
sVor
p591
F5.049856007249537
sVsib
p592
F5.049856007249537
sVinclud
p593
F2.995732273553991
sVway
p594
F3.9512437185814275
sV:
p595
F3.258096538021482
sVwas
p596
F5.049856007249537
sVfunction
p597
F3.9512437185814275
sVdistancebas
p598
F5.049856007249537
sVoffer
p599
F4.356708826689592
sVhr
p600
F5.049856007249537
sVbundl
p601
F5.049856007249537
sVbut
p602
F3.258096538021482
sVgain
p603
F4.356708826689592
sVwith
p604
F2.1972245773362196
sVmade
p605
F5.049856007249537
sVstanford
p606
F5.049856007249537
sVsmooth
p607
F5.049856007249537
sVmaximum
p608
F5.049856007249537
sVus
p609
F5.049856007249537
sVvalenc
p610
F5.049856007249537
sVotherwis
p611
F5.049856007249537
sVproblem
p612
F3.6635616461296463
sV>
p613
F4.356708826689592
sVsimilar
p614
F3.9512437185814275
sVfeatur
p615
F1.0986122886681098
sVbigram
p616
F4.356708826689592
sVad
p617
F3.6635616461296463
sVevalu
p618
F4.356708826689592
sVclassic
p619
F5.049856007249537
sVcertain
p620
F4.356708826689592
sVdure
p621
F3.6635616461296463
sVparser
p622
F4.356708826689592
sVal
p623
F3.9512437185814275
sVgeneral
p624
F5.049856007249537
sVas
p625
F2.302585092994046
sVar
p626
F5.049856007249537
sVexist
p627
F5.049856007249537
sVat
p628
F3.6635616461296463
sVgenerat
p629
F5.049856007249537
sVgram
p630
F5.049856007249537
sVdenot
p631
F4.356708826689592
sV%
p632
F5.049856007249537
sVgoogl
p633
F5.049856007249537
sVno
p634
F5.049856007249537
sVnc
p635
F5.049856007249537
sVnd
p636
F5.049856007249537
sVfeaturerich
p637
F5.049856007249537
sVvalid
p638
F5.049856007249537
sVkbest
p639
F3.6635616461296463
sVfutur
p640
F3.9512437185814275
sVmeteor
p641
F4.356708826689592
sVtest
p642
F5.049856007249537
sVignor
p643
F5.049856007249537
sVer
p644
F5.049856007249537
sVgtree
p645
F5.049856007249537
sVnonloc
p646
F2.995732273553991
sVbinat
p647
F5.049856007249537
sVconsid
p648
F5.049856007249537
sVe
p649
F5.049856007249537
sVfaster
p650
F5.049856007249537
sValgorithm
p651
F3.1354942159291497
sVspace
p652
F5.049856007249537
sVrule
p653
F4.356708826689592
sVdiscrimin
p654
F5.049856007249537
sVportion
p655
F5.049856007249537
sVu
p656
F5.049856007249537
sVtime
p657
F4.356708826689592
s.