(dp0
Vall
p1
F3.295836866004329
sVchain
p2
F4.382026634673881
sVscratch
p3
F5.0689042022202315
sVfour
p4
F5.0689042022202315
sVhmmf
p5
F4.382026634673881
sVabil
p6
F4.382026634673881
sVfollow
p7
F4.382026634673881
sVaccur
p8
F4.382026634673881
sVto
p9
F1.3862943611198906
sVprogram
p10
F5.0689042022202315
sVth
p11
F5.0689042022202315
sVbrown
p12
F3.970291913552122
sVsourc
p13
F3.1354942159291497
sVdistort
p14
F3.970291913552122
sVnonempti
p15
F5.0689042022202315
sVveri
p16
F3.970291913552122
sVexact
p17
F4.382026634673881
sVmultinomi
p18
F4.382026634673881
sVtri
p19
F5.0689042022202315
sVlevel
p20
F5.0689042022202315
sVdid
p21
F5.0689042022202315
sViter
p22
F3.6888794541139363
sVp
p23
F2.995732273553991
sVsmall
p24
F5.0689042022202315
sVmarkov
p25
F2.3978952727983707
sVrefer
p26
F3.970291913552122
sVimpli
p27
F4.382026634673881
sVneighborhood
p28
F4.382026634673881
sVdirect
p29
F3.970291913552122
sVjump
p30
F5.0689042022202315
sVrate
p31
F3.970291913552122
sVfurther
p32
F5.0689042022202315
sVter
p33
F5.0689042022202315
sVcarlo
p34
F4.382026634673881
sVeven
p35
F5.0689042022202315
sVwhat
p36
F5.0689042022202315
sVappear
p37
F5.0689042022202315
sVcompar
p38
F5.0689042022202315
sV+
p39
F3.1354942159291497
sVlead
p40
F5.0689042022202315
sVabl
p41
F5.0689042022202315
sVwhile
p42
F3.970291913552122
sVuniform
p43
F5.0689042022202315
sVgrowdiagfin
p44
F5.0689042022202315
sVney
p45
F4.382026634673881
sV;
p46
F3.1354942159291497
sVmethod
p47
F3.4657359027997265
sVdefici
p48
F5.0689042022202315
sVdespit
p49
F5.0689042022202315
sVhere
p50
F5.0689042022202315
sVsatisfi
p51
F5.0689042022202315
sVlet
p52
F5.0689042022202315
sVbecom
p53
F5.0689042022202315
sVvalu
p54
F5.0689042022202315
sVbox
p55
F5.0689042022202315
sVk
p56
F5.0689042022202315
sVlarger
p57
F3.6888794541139363
sVamount
p58
F4.382026634673881
sVpoisson
p59
F5.0689042022202315
sVchang
p60
F5.0689042022202315
sVappli
p61
F5.0689042022202315
sVprefer
p62
F5.0689042022202315
sVheurist
p63
F5.0689042022202315
sVtotal
p64
F5.0689042022202315
sVuse
p65
F1.791759469228055
sVfrom
p66
F2.8903717578961645
sVwould
p67
F5.0689042022202315
sVgive
p68
F5.0689042022202315
sVtwo
p69
F3.6888794541139363
sVthrow
p70
F5.0689042022202315
sVfew
p71
F4.382026634673881
sVpostprocess
p72
F5.0689042022202315
sVtaken
p73
F5.0689042022202315
sVrepres
p74
F5.0689042022202315
sVsimpler
p75
F4.382026634673881
sVdenero
p76
F5.0689042022202315
sVmore
p77
F2.995732273553991
sVhenc
p78
F5.0689042022202315
sVnotic
p79
F5.0689042022202315
sVtrain
p80
F2.8903717578961645
sVword
p81
F1.6094379124341003
sVibm
p82
F1.3862943611198906
sVf
p83
F3.970291913552122
sVthis
p84
F2.70805020110221
sVwork
p85
F3.970291913552122
sVremain
p86
F5.0689042022202315
sVitself
p87
F5.0689042022202315
sVcan
p88
F2.8903717578961645
sVlearn
p89
F2.995732273553991
sVnearest
p90
F5.0689042022202315
sVtar
p91
F4.382026634673881
sVscan
p92
F5.0689042022202315
sVwant
p93
F4.382026634673881
sVphrase
p94
F5.0689042022202315
sVsimul
p95
F5.0689042022202315
sVend
p96
F5.0689042022202315
sVgoal
p97
F5.0689042022202315
sVhow
p98
F5.0689042022202315
sVcriterion
p99
F5.0689042022202315
sVinstead
p100
F5.0689042022202315
sVupdat
p101
F5.0689042022202315
sVproduct
p102
F5.0689042022202315
sVmat
p103
F5.0689042022202315
sVmay
p104
F5.0689042022202315
sVgiza++
p105
F5.0689042022202315
sVdate
p106
F5.0689042022202315
sVsuch
p107
F3.970291913552122
sVfj
p108
F3.295836866004329
sVdata
p109
F3.4657359027997265
sVparallel
p110
F5.0689042022202315
sVman
p111
F5.0689042022202315
sVa
p112
F1.9459101490553132
sVessenti
p113
F3.970291913552122
sVpractic
p114
F5.0689042022202315
sVthird
p115
F5.0689042022202315
sVexplicit
p116
F5.0689042022202315
sVcorrespond
p117
F5.0689042022202315
sVelement
p118
F5.0689042022202315
sVcaus
p119
F5.0689042022202315
sV)
p120
F4.382026634673881
sVcombin
p121
F5.0689042022202315
sVallow
p122
F5.0689042022202315
sVorder
p123
F3.970291913552122
sVhelp
p124
F5.0689042022202315
sVitg
p125
F5.0689042022202315
sVover
p126
F5.0689042022202315
sVbecaus
p127
F3.295836866004329
sVthrough
p128
F5.0689042022202315
sVdynam
p129
F5.0689042022202315
sVparamet
p130
F2.5649493574615367
sVthank
p131
F5.0689042022202315
sValway
p132
F5.0689042022202315
sV,
p133
F1.0986122886681098
sVbetter
p134
F2.772588722239781
sVhidden
p135
F2.4849066497880004
sVtherefor
p136
F5.0689042022202315
sVeasier
p137
F3.6888794541139363
sVthen
p138
F5.0689042022202315
sVsentenc
p139
F2.772588722239781
sViniti
p140
F3.295836866004329
sVdevel
p141
F5.0689042022202315
sVthey
p142
F3.970291913552122
sVnot
p143
F2.1972245773362196
sVachiev
p144
F3.4657359027997265
sVeach
p145
F2.4849066497880004
sVfound
p146
F5.0689042022202315
sVsubset
p147
F5.0689042022202315
sVen
p148
F5.0689042022202315
sVei
p149
F4.382026634673881
sVchung
p150
F5.0689042022202315
sVdue
p151
F4.382026634673881
sVreplac
p152
F5.0689042022202315
sVhard
p153
F5.0689042022202315
sVexpect
p154
F2.995732273553991
sVyear
p155
F5.0689042022202315
sVour
p156
F1.9459101490553132
sVcollector
p157
F4.382026634673881
sVout
p158
F5.0689042022202315
sVvariabl
p159
F5.0689042022202315
sVshown
p160
F3.970291913552122
sVcontigu
p161
F5.0689042022202315
sVspace
p162
F5.0689042022202315
sVresearch
p163
F3.970291913552122
sVbiliti
p164
F5.0689042022202315
sVreason
p165
F4.382026634673881
sVbeliev
p166
F5.0689042022202315
sVlikelihood
p167
F5.0689042022202315
sVomit
p168
F5.0689042022202315
sVkeep
p169
F4.382026634673881
sVlength
p170
F4.382026634673881
sVunabl
p171
F5.0689042022202315
sVprincipl
p172
F4.382026634673881
sVfirst
p173
F3.6888794541139363
sVsoftwar
p174
F5.0689042022202315
sVqualiti
p175
F4.382026634673881
sVnumber
p176
F3.970291913552122
sVone
p177
F2.8903717578961645
sVunlik
p178
F5.0689042022202315
sVdone
p179
F5.0689042022202315
sVslower
p180
F5.0689042022202315
sVmiss
p181
F5.0689042022202315
sVdiffer
p182
F3.6888794541139363
sVcartesian
p183
F5.0689042022202315
sVexponenti
p184
F5.0689042022202315
sVassoci
p185
F5.0689042022202315
sVsystem
p186
F4.382026634673881
sVtheir
p187
F5.0689042022202315
sVnecessarili
p188
F5.0689042022202315
sVcorpus
p189
F3.4657359027997265
sVway
p190
F3.970291913552122
sVthat
p191
F1.791759469228055
sVet
p192
F3.4657359027997265
sVtagyoung
p193
F5.0689042022202315
sVchineseenglish
p194
F3.970291913552122
sVopti
p195
F5.0689042022202315
sVthan
p196
F1.9459101490553132
sValignwher
p197
F5.0689042022202315
sVkind
p198
F4.382026634673881
sVcontrari
p199
F5.0689042022202315
sVtarget
p200
F2.8903717578961645
sVwhenev
p201
F5.0689042022202315
sVprovid
p202
F4.382026634673881
sVremov
p203
F4.382026634673881
sVzero
p204
F4.382026634673881
sVi
p205
F2.772588722239781
sVwere
p206
F5.0689042022202315
sVposit
p207
F4.382026634673881
sVtoward
p208
F5.0689042022202315
sVresult
p209
F2.5649493574615367
sVand
p210
F1.3862943611198906
sVcomput
p211
F2.3978952727983707
sVinfluenti
p212
F5.0689042022202315
sVviterbi
p213
F2.8903717578961645
sVmultipl
p214
F4.382026634673881
sVani
p215
F4.382026634673881
sVpackag
p216
F5.0689042022202315
sVhave
p217
F2.995732273553991
sVtabl
p218
F3.6888794541139363
sVneed
p219
F3.4657359027997265
sVfertil
p220
F1.3862943611198906
sVbuilt
p221
F5.0689042022202315
sVinform
p222
F4.382026634673881
sVaccuraci
p223
F4.382026634673881
sValso
p224
F2.70805020110221
sVwithout
p225
F4.382026634673881
sVtake
p226
F4.382026634673881
sVwhich
p227
F2.995732273553991
sVso
p228
F3.970291913552122
sV=
p229
F3.4657359027997265
sVmose
p230
F5.0689042022202315
sVsure
p231
F5.0689042022202315
sVdistribut
p232
F3.6888794541139363
sVhandalign
p233
F5.0689042022202315
sVlexic
p234
F3.6888794541139363
sVmost
p235
F3.6888794541139363
sVpair
p236
F4.382026634673881
sVmodel
p237
F1.0986122886681098
sVtradit
p238
F4.382026634673881
sVmoor
p239
F5.0689042022202315
sVdoe
p240
F3.6888794541139363
sVdetermin
p241
F5.0689042022202315
sVfbis
p242
F5.0689042022202315
sVaway
p243
F5.0689042022202315
sVfact
p244
F3.970291913552122
sVshow
p245
F3.970291913552122
sVproba
p246
F5.0689042022202315
sVlabel
p247
F5.0689042022202315
sVfind
p248
F5.0689042022202315
sVoch
p249
F4.382026634673881
sVonli
p250
F2.995732273553991
sVment
p251
F5.0689042022202315
sV(
p252
F4.382026634673881
sVfigur
p253
F4.382026634673881
sVshould
p254
F5.0689042022202315
sVblack
p255
F5.0689042022202315
sVlocal
p256
F3.6888794541139363
sVdo
p257
F3.4657359027997265
sVget
p258
F3.970291913552122
sVjoint
p259
F5.0689042022202315
sVsymmetr
p260
F5.0689042022202315
sVrestart
p261
F4.382026634673881
sVaer
p262
F2.772588722239781
sVoutperform
p263
F5.0689042022202315
sVsum
p264
F4.382026634673881
sVqc
p265
F5.0689042022202315
sVstatist
p266
F4.382026634673881
sVlinguist
p267
F5.0689042022202315
sVbleu
p268
F4.382026634673881
sVj=
p269
F4.382026634673881
sVset
p270
F4.382026634673881
sVart
p271
F5.0689042022202315
sVdecompos
p272
F5.0689042022202315
sVsee
p273
F3.6888794541139363
sVare
p274
F2.1972245773362196
sVclose
p275
F5.0689042022202315
sVanalog
p276
F5.0689042022202315
sVbitext
p277
F5.0689042022202315
sVreview
p278
F5.0689042022202315
sVtend
p279
F5.0689042022202315
sVstate
p280
F5.0689042022202315
sVscore
p281
F5.0689042022202315
sVbetween
p282
F3.970291913552122
sVimport
p283
F5.0689042022202315
sVexperi
p284
F5.0689042022202315
sVapproach
p285
F5.0689042022202315
sVacross
p286
F5.0689042022202315
sVwe
p287
F1.0986122886681098
sVsolv
p288
F5.0689042022202315
sVboth
p289
F2.995732273553991
sVhowev
p290
F3.4657359027997265
sVs
p291
F5.0689042022202315
sVequat
p292
F3.4657359027997265
sVimprov
p293
F3.970291913552122
sVcomment
p294
F5.0689042022202315
sVpoint
p295
F5.0689042022202315
sVexploit
p296
F5.0689042022202315
sVassum
p297
F3.970291913552122
sVinvert
p298
F3.970291913552122
sVinvers
p299
F5.0689042022202315
sVempti
p300
F2.995732273553991
sVmuch
p301
F3.1354942159291497
sVtreat
p302
F5.0689042022202315
sVinterest
p303
F5.0689042022202315
sVhmm
p304
F1.6094379124341003
sVunderstand
p305
F3.295836866004329
sVgeneral
p306
F5.0689042022202315
sVdecad
p307
F5.0689042022202315
sVthose
p308
F5.0689042022202315
sVcase
p309
F5.0689042022202315
sVident
p310
F5.0689042022202315
sVthese
p311
F4.382026634673881
sValign
p312
F1.3862943611198906
sVproperti
p313
F4.382026634673881
sVn
p314
F5.0689042022202315
sVwill
p315
F3.4657359027997265
sVdefin
p316
F4.382026634673881
sVcalcul
p317
F5.0689042022202315
sVabov
p318
F3.970291913552122
sVerror
p319
F3.970291913552122
sVanonym
p320
F5.0689042022202315
sVcoher
p321
F5.0689042022202315
sVadvantag
p322
F5.0689042022202315
sValmost
p323
F5.0689042022202315
sVis
p324
F1.3862943611198906
sVthus
p325
F5.0689042022202315
sVit
p326
F2.302585092994046
sVii
p327
F5.0689042022202315
sVarchiv
p328
F5.0689042022202315
sVmotiv
p329
F5.0689042022202315
sVin
p330
F1.6094379124341003
sVsever
p331
F4.382026634673881
sVif
p332
F3.6888794541139363
sVdevelop
p333
F4.382026634673881
sVgrant
p334
F5.0689042022202315
sVperform
p335
F3.4657359027997265
sVsuggest
p336
F5.0689042022202315
sVmake
p337
F3.6888794541139363
sVmont
p338
F4.382026634673881
sVsame
p339
F3.1354942159291497
sVheuristicbas
p340
F5.0689042022202315
sVcomplex
p341
F3.4657359027997265
sVdecod
p342
F3.6888794541139363
sVestep
p343
F3.970291913552122
sVdifficult
p344
F4.382026634673881
sVi=
p345
F5.0689042022202315
sVpairop
p346
F5.0689042022202315
sVoptim
p347
F4.382026634673881
sVwherea
p348
F5.0689042022202315
sVmani
p349
F3.6888794541139363
sVrecent
p350
F5.0689042022202315
sVlower
p351
F3.1354942159291497
sVundesir
p352
F5.0689042022202315
sVnevertheless
p353
F5.0689042022202315
sVwell
p354
F5.0689042022202315
sVexampl
p355
F5.0689042022202315
sVexpens
p356
F5.0689042022202315
sVchoos
p357
F3.970291913552122
sVthe
p358
F0.6931471805599453
sVjust
p359
F5.0689042022202315
sVless
p360
F3.970291913552122
sVobtain
p361
F5.0689042022202315
sV|f
p362
F5.0689042022202315
sVhuman
p363
F5.0689042022202315
sVlanguag
p364
F4.382026634673881
sVprevious
p365
F4.382026634673881
sVeasi
p366
F5.0689042022202315
sVexcept
p367
F4.382026634673881
sVadd
p368
F5.0689042022202315
sVinput
p369
F5.0689042022202315
sVhas
p370
F2.6390573296152584
sVbuild
p371
F4.382026634673881
sVfortun
p372
F5.0689042022202315
sVbig
p373
F5.0689042022202315
sVloss
p374
F5.0689042022202315
sVlike
p375
F4.382026634673881
sVt
p376
F3.4657359027997265
sVoutput
p377
F5.0689042022202315
sVoften
p378
F5.0689042022202315
sVacknowledg
p379
F5.0689042022202315
sVsome
p380
F4.382026634673881
sVmaxim
p381
F3.970291913552122
sVsampl
p382
F2.0794415416798357
sVsurpris
p383
F5.0689042022202315
sVfor
p384
F1.3862943611198906
sVestim
p385
F3.295836866004329
sVlarg
p386
F4.382026634673881
sVcorespond
p387
F5.0689042022202315
sVthree
p388
F4.382026634673881
sVeither
p389
F3.970291913552122
sVmachin
p390
F3.295836866004329
sVbe
p391
F2.6390573296152584
sVrun
p392
F3.1354942159291497
sVgarbag
p393
F4.382026634673881
sVbi
p394
F5.0689042022202315
sValthough
p395
F4.382026634673881
sVpost
p396
F5.0689042022202315
sVby
p397
F2.772588722239781
sVstage
p398
F3.4657359027997265
sVon
p399
F3.295836866004329
sVrare
p400
F5.0689042022202315
sVconstraint
p401
F4.382026634673881
sVof
p402
F1.9459101490553132
sVo
p403
F4.382026634673881
sVunfortun
p404
F4.382026634673881
sVneighbor
p405
F4.382026634673881
sVor
p406
F3.4657359027997265
sVem
p407
F4.382026634673881
sVeffici
p408
F5.0689042022202315
sVinto
p409
F5.0689042022202315
sVnsf
p410
F5.0689042022202315
sVdataset
p411
F5.0689042022202315
sVbeen
p412
F3.970291913552122
sVcate
p413
F5.0689042022202315
sVsupport
p414
F5.0689042022202315
sVthere
p415
F3.6888794541139363
sVinclud
p416
F4.382026634673881
sVliang
p417
F5.0689042022202315
sV:
p418
F3.295836866004329
sVwas
p419
F5.0689042022202315
sVago
p420
F5.0689042022202315
sVgibb
p421
F3.295836866004329
sVenough
p422
F4.382026634673881
sVforc
p423
F5.0689042022202315
sVconclud
p424
F5.0689042022202315
sVbut
p425
F2.70805020110221
sVtranslat
p426
F2.995732273553991
sVwith
p427
F2.70805020110221
sVcount
p428
F3.6888794541139363
sVconsist
p429
F4.382026634673881
sVpossibl
p430
F3.6888794541139363
sVj
p431
F2.8903717578961645
sVsmooth
p432
F5.0689042022202315
sVup
p433
F4.382026634673881
sVuntil
p434
F5.0689042022202315
sVlimit
p435
F5.0689042022202315
sVfundament
p436
F5.0689042022202315
sVproblem
p437
F4.382026634673881
sVsimilar
p438
F3.970291913552122
sVfeatur
p439
F5.0689042022202315
sVconstant
p440
F4.382026634673881
sVad
p441
F3.970291913552122
sVevalu
p442
F3.4657359027997265
sVaj
p443
F2.6390573296152584
sVal
p444
F3.4657359027997265
sVan
p445
F3.970291913552122
sVas
p446
F2.3978952727983707
sVdecreas
p447
F4.382026634673881
sVat
p448
F4.382026634673881
sVgenerat
p449
F5.0689042022202315
sVprobabl
p450
F3.6888794541139363
sVdenot
p451
F5.0689042022202315
sVno
p452
F3.6888794541139363
sVwhen
p453
F3.970291913552122
sVdetail
p454
F4.382026634673881
sVnewswir
p455
F5.0689042022202315
sVother
p456
F3.6888794541139363
sVcommunic
p457
F5.0689042022202315
sVtest
p458
F3.295836866004329
sVbaselin
p459
F4.382026634673881
sVdraw
p460
F5.0689042022202315
sVmatt
p461
F5.0689042022202315
sVconsid
p462
F3.970291913552122
sVreduc
p463
F4.382026634673881
sVinfrequ
p464
F4.382026634673881
sVe
p465
F3.970291913552122
sVfaster
p466
F2.6390573296152584
sValgorithm
p467
F2.70805020110221
sVreliabl
p468
F4.382026634673881
sVpotenti
p469
F5.0689042022202315
sVtime
p470
F2.5649493574615367
sVpush
p471
F5.0689042022202315
s.