(lp0
(lp1
S'E03-102035'
p2
a(dp3
Vhappens
p4
F0.043478260869565216
sVa
p5
F0.043478260869565216
sV``
p6
F0.08695652173913043
sVvia
p7
F0.043478260869565216
sVgroup
p8
F0.043478260869565216
sVbuilding
p9
F0.043478260869565216
sVlinked
p10
F0.043478260869565216
sVof
p11
F0.043478260869565216
sVpolitical
p12
F0.043478260869565216
sVsame
p13
F0.043478260869565216
sVand
p14
F0.043478260869565216
sV''
p15
F0.08695652173913043
sVT-FLOAT
p16
F0.043478260869565216
sVpart
p17
F0.043478260869565216
sVare
p18
F0.043478260869565216
sVwhich
p19
F0.043478260869565216
sVpolicy
p20
F0.043478260869565216
sVthe
p21
F0.043478260869565216
sVwith
p22
F0.043478260869565216
sVwing
p23
F0.08695652173913043
saa(lp24
S'E03-102034'
p25
a(dp26
Veven
p27
F0.05
sVvia
p28
F0.05
sVare
p29
F0.05
sVof
p30
F0.1
sVafter
p31
F0.05
sV,
p32
F0.1
sVremoval
p33
F0.05
sVT-FLOAT
p34
F0.05
sVmeaning
p35
F0.05
sVwing-node
p36
F0.05
sVtail
p37
F0.05
sVtherefore
p38
F0.05
sVthe
p39
F0.1
sVstill
p40
F0.05
sVlinked
p41
F0.05
sVtwo
p42
F0.05
sVareas
p43
F0.05
saa(lp44
S'E03-102037'
p45
a(dp46
Vdeveloped
p47
F0.03333333333333333
sVcluster
p48
F0.03333333333333333
sVin
p49
F0.03333333333333333
sVour
p50
F0.03333333333333333
sVT-FLOAT
p51
F0.03333333333333333
sVclustering
p52
F0.03333333333333333
sVdifferent
p53
F0.03333333333333333
sVdetect
p54
F0.03333333333333333
sVvan
p55
F0.03333333333333333
sVfor
p56
F0.03333333333333333
sV)
p57
F0.03333333333333333
sV(
p58
F0.03333333333333333
sg32
F0.06666666666666667
sVby
p59
F0.03333333333333333
sVto
p60
F0.03333333333333333
sVlocal
p61
F0.03333333333333333
sVwe
p62
F0.03333333333333333
sVmcl
p63
F0.03333333333333333
sVuse
p64
F0.03333333333333333
sVdongen
p65
F0.03333333333333333
sVmeaning
p66
F0.03333333333333333
sVmarkov
p67
F0.03333333333333333
sVareas
p68
F0.03333333333333333
sg5
F0.03333333333333333
sValgorithm
p69
F0.03333333333333333
sVof
p70
F0.03333333333333333
sVgraphs
p71
F0.06666666666666667
sVthe
p72
F0.03333333333333333
saa(lp73
S'E03-102036'
p74
a(dp75
Vlinks
p76
F0.037037037037037035
sVis
p77
F0.037037037037037035
sVwithin
p78
F0.037037037037037035
sVnumber
p79
F0.037037037037037035
sVan
p80
F0.037037037037037035
sVare
p81
F0.037037037037037035
sVdifferent
p82
F0.037037037037037035
sVarea
p83
F0.037037037037037035
sVwhereas
p84
F0.037037037037037035
sVthere
p85
F0.07407407407407407
sg32
F0.07407407407407407
sVonly
p86
F0.037037037037037035
sVbetween
p87
F0.037037037037037035
sVhowever
p88
F0.037037037037037035
sVmeaning
p89
F0.07407407407407407
sVedges
p90
F0.037037037037037035
sVareas
p91
F0.037037037037037035
sg5
F0.037037037037037035
sVmany
p92
F0.037037037037037035
sVof
p93
F0.1111111111111111
sVsmall
p94
F0.037037037037037035
sVT-FLOAT
p95
F0.037037037037037035
saa(lp96
S'E03-102031'
p97
a(dp98
VT-FLOAT
p99
F0.5
sVe
p100
F0.25
sVg
p101
F0.25
saa(lp102
S'E03-102030'
p103
a(dp104
Vof
p105
F0.14285714285714285
sVthere
p106
F0.07142857142857142
sg32
F0.14285714285714285
sVcf
p107
F0.07142857142857142
sVpolysemy
p108
F0.07142857142857142
sVcourse
p109
F0.07142857142857142
sVare
p110
F0.07142857142857142
sVmany
p111
F0.07142857142857142
sg58
F0.07142857142857142
sVT-FLOAT
p112
F0.07142857142857142
sVtypes
p113
F0.07142857142857142
sVmore
p114
F0.07142857142857142
saa(lp115
S'E03-102033'
p116
a(dp117
Vfigure
p118
F0.03225806451612903
sVis
p119
F0.06451612903225806
sVrelated
p120
F0.03225806451612903
sV''
p121
F0.06451612903225806
sVas
p122
F0.06451612903225806
sVin
p123
F0.03225806451612903
sVseen
p124
F0.03225806451612903
sVT-INT
p125
F0.03225806451612903
sg32
F0.06451612903225806
sVto
p126
F0.03225806451612903
sVtail
p127
F0.03225806451612903
sVbird
p128
F0.03225806451612903
sVbe
p129
F0.03225806451612903
sV``
p130
F0.06451612903225806
sVplane
p131
F0.03225806451612903
sVclosely
p132
F0.03225806451612903
sg5
F0.06451612903225806
sVof
p133
F0.06451612903225806
sVpart
p134
F0.06451612903225806
sVcan
p135
F0.03225806451612903
sVT-FLOAT
p136
F0.03225806451612903
sVwing
p137
F0.06451612903225806
saa(lp138
S'E03-102032'
p139
a(dp140
Vkilgarriff
p141
F0.14285714285714285
sg57
F0.2857142857142857
sg58
F0.14285714285714285
sg32
F0.14285714285714285
sVT-INT
p142
F0.14285714285714285
sVT-FLOAT
p143
F0.14285714285714285
saa(lp144
S'E03-102039'
p145
a(dp146
Vand
p147
F0.06666666666666667
sVmcl
p148
F0.06666666666666667
sVfrom
p149
F0.06666666666666667
sVdescription
p150
F0.06666666666666667
sVnotation
p151
F0.06666666666666667
sVheavily
p152
F0.06666666666666667
sVof
p153
F0.06666666666666667
sVdongen
p154
F0.06666666666666667
sVborrows
p155
F0.06666666666666667
sVvan
p156
F0.06666666666666667
sVfollowing
p157
F0.06666666666666667
sValgorithm
p158
F0.06666666666666667
sVthe
p159
F0.13333333333333333
sVT-FLOAT
p160
F0.06666666666666667
saa(lp161
S'E03-102038'
p162
a(dp163
Vis
p164
F0.038461538461538464
sVwithin
p165
F0.038461538461538464
sVidea
p166
F0.038461538461538464
sVjump
p167
F0.038461538461538464
sVcluster
p168
F0.038461538461538464
sVunderlying
p169
F0.038461538461538464
sVin
p170
F0.038461538461538464
sVT-FLOAT
p171
F0.038461538461538464
sVrather
p172
F0.038461538461538464
sVgraph
p173
F0.038461538461538464
sVsame
p174
F0.038461538461538464
sVtend
p175
F0.038461538461538464
sVto
p176
F0.038461538461538464
sVwalks
p177
F0.038461538461538464
sVbetween
p178
F0.038461538461538464
sVclusters
p179
F0.038461538461538464
sVmcl-algorithm
p180
F0.038461538461538464
sVrandom
p181
F0.038461538461538464
sVthat
p182
F0.038461538461538464
sVstay
p183
F0.038461538461538464
sVthan
p184
F0.038461538461538464
sVwill
p185
F0.038461538461538464
sVthe
p186
F0.15384615384615385
saa(lp187
S'E03-102080'
p188
a(dp189
Von
p190
F0.0625
sVwe
p191
F0.0625
sVused
p192
F0.0625
sVbased
p193
F0.0625
sVsimple
p194
F0.0625
sVgraph
p195
F0.0625
sVin
p196
F0.0625
sVcf
p197
F0.0625
sVlists
p198
F0.0625
sVco-occurrences
p199
F0.0625
sVT-FLOAT
p200
F0.0625
sg58
F0.0625
sVnouns
p201
F0.0625
sVof
p202
F0.0625
sVmodel
p203
F0.0625
sVthe
p204
F0.0625
saa(lp205
S'E03-102081'
p206
a(dp207
Vfor
p208
F0.14285714285714285
sg57
F0.14285714285714285
sVsection
p209
F0.14285714285714285
sVT-INT
p210
F0.14285714285714285
sVexperiment
p211
F0.14285714285714285
sVour
p212
F0.14285714285714285
sVT-FLOAT
p213
F0.14285714285714285
saa(lp214
S'E03-102082'
p215
a(dp216
Vnouns
p217
F0.03125
sVarms
p218
F0.03125
sVfrom
p219
F0.03125
sg57
F0.0625
sg58
F0.0625
sg32
F0.03125
sVto
p220
F0.03125
sVambiguity
p221
F0.03125
sVhomonymy
p222
F0.03125
sVwe
p223
F0.03125
sVdegree
p224
F0.03125
sVgathered
p225
F0.03125
sVpolysemy
p226
F0.03125
sVsystematic
p227
F0.03125
sVvarying
p228
F0.03125
sVwith
p229
F0.03125
sg5
F0.03125
sg100
F0.0625
sg101
F0.0625
sVof
p230
F0.0625
sVlist
p231
F0.03125
sVcherry
p232
F0.03125
sVT-FLOAT
p233
F0.15625
saa(lp234
S'E03-102083'
p235
a(dp236
Vsense
p237
F0.022222222222222223
sVtwo
p238
F0.022222222222222223
sVin
p239
F0.044444444444444446
sViii
p240
F0.022222222222222223
sVour
p241
F0.022222222222222223
sVextract
p242
F0.022222222222222223
sVparameters
p243
F0.022222222222222223
sVto
p244
F0.044444444444444446
sg57
F0.022222222222222223
sg58
F0.022222222222222223
sVtop
p245
F0.022222222222222223
sg32
F0.06666666666666667
sVT-INT
p246
F0.15555555555555556
sVonly
p247
F0.022222222222222223
sVclusters
p248
F0.022222222222222223
sV=
p249
F0.08888888888888889
sVwith
p250
F0.022222222222222223
sVT-FLOAT
p251
F0.06666666666666667
sVapplied
p252
F0.022222222222222223
sVword
p253
F0.022222222222222223
sValgorithm
p254
F0.022222222222222223
sVwas
p255
F0.022222222222222223
sVk
p256
F0.022222222222222223
sVlist
p257
F0.022222222222222223
sVn
p258
F0.022222222222222223
sVr
p259
F0.022222222222222223
sVeach
p260
F0.022222222222222223
sVthe
p261
F0.044444444444444446
sVorder
p262
F0.022222222222222223
saa(lp263
S'E03-102084'
p264
a(dp265
Vthen
p266
F0.07142857142857142
sVwe
p267
F0.07142857142857142
sVT-FLOAT
p268
F0.07142857142857142
sVsynsets
p269
F0.07142857142857142
sVmost
p270
F0.07142857142857142
sVdetermined
p271
F0.07142857142857142
sVcharacterized
p272
F0.07142857142857142
sVwhich
p273
F0.07142857142857142
sVsense
p274
F0.07142857142857142
sVclusters
p275
F0.07142857142857142
sVthe
p276
F0.14285714285714285
sVadequately
p277
F0.07142857142857142
sVwordnet
p278
F0.07142857142857142
saa(lp279
S'E03-102085'
p280
a(dp281
Vof
p282
F0.09090909090909091
sVis
p283
F0.09090909090909091
sVresults
p284
F0.09090909090909091
sVan
p285
F0.09090909090909091
sVT-INT
p286
F0.09090909090909091
sVlisted
p287
F0.09090909090909091
sVin
p288
F0.09090909090909091
sVtable
p289
F0.09090909090909091
sVthe
p290
F0.09090909090909091
sVextract
p291
F0.09090909090909091
sVT-FLOAT
p292
F0.09090909090909091
saa(lp293
S'E03-102086'
p294
a(dp295
Vshoes
p296
F0.0035842293906810036
sVfounder
p297
F0.0035842293906810036
sVwillow
p298
F0.0035842293906810036
sVfood
p299
F0.0035842293906810036
sVoak
p300
F0.0035842293906810036
sVexecutive
p301
F0.0035842293906810036
sVmama
p302
F0.0035842293906810036
sVfoodstuff
p303
F0.0035842293906810036
sVcommittee
p304
F0.0035842293906810036
sVskin
p305
F0.0035842293906810036
sVjapan
p306
F0.0035842293906810036
sVcaptain
p307
F0.0035842293906810036
sVcyprus
p308
F0.0035842293906810036
sVmilk
p309
F0.0035842293906810036
sVyew
p310
F0.0035842293906810036
sVprincipal
p311
F0.0035842293906810036
sVtoast
p312
F0.0035842293906810036
sVgrape
p313
F0.0035842293906810036
sVham
p314
F0.0035842293906810036
sVelm
p315
F0.0035842293906810036
sVjustice
p316
F0.0035842293906810036
sVcherry
p317
F0.0035842293906810036
sVsupply
p318
F0.0035842293906810036
sg32
F0.0035842293906810036
sVwatercolour
p319
F0.0035842293906810036
sVpullover
p320
F0.0035842293906810036
sVT-INT
p321
F0.0035842293906810036
sVaus
p322
F0.0035842293906810036
sVbases
p323
F0.0035842293906810036
sVtrousers
p324
F0.0035842293906810036
sVmaim
p325
F0.0035842293906810036
sVclusters
p326
F0.0035842293906810036
sVnorway
p327
F0.0035842293906810036
sVbelly
p328
F0.0035842293906810036
sVkingdom
p329
F0.0035842293906810036
sVapron
p330
F0.0035842293906810036
sVhawthorn
p331
F0.007168458781362007
sVfire
p332
F0.0035842293906810036
sVceo
p333
F0.0035842293906810036
sVchancellor
p334
F0.0035842293906810036
sValder
p335
F0.0035842293906810036
sVprojectiles
p336
F0.0035842293906810036
sVident
p337
F0.0035842293906810036
sVflint
p338
F0.0035842293906810036
sVbreast
p339
F0.0035842293906810036
sVholly
p340
F0.007168458781362007
sVbelgium
p341
F0.0035842293906810036
sVtunic
p342
F0.0035842293906810036
sVwalnut
p343
F0.0035842293906810036
sVwings
p344
F0.0035842293906810036
sVbread
p345
F0.0035842293906810036
sVbiceps
p346
F0.0035842293906810036
sVnetherlands
p347
F0.0035842293906810036
sVmeat
p348
F0.0035842293906810036
sVclass-label
p349
F0.0035842293906810036
sVspine
p350
F0.0035842293906810036
sVdenmark
p351
F0.0035842293906810036
sVbracelet
p352
F0.0035842293906810036
sVcurator
p353
F0.0035842293906810036
sVbrarian
p354
F0.0035842293906810036
sVteak
p355
F0.0035842293906810036
sVsand
p356
F0.0035842293906810036
sVthighs
p357
F0.0035842293906810036
sVbombs
p358
F0.0035842293906810036
sVdrainage
p359
F0.0035842293906810036
sVswitzerland
p360
F0.0035842293906810036
sVoutput
p361
F0.0035842293906810036
sVpresperson
p362
F0.0035842293906810036
sVside
p363
F0.0035842293906810036
sVsecretary
p364
F0.0035842293906810036
sVmidhair
p365
F0.0035842293906810036
sVankles
p366
F0.0035842293906810036
sVbill
p367
F0.0035842293906810036
sVengland
p368
F0.0035842293906810036
sVmethods
p369
F0.0035842293906810036
sVcollage
p370
F0.0035842293906810036
sVgarment
p371
F0.0035842293906810036
sVmahogany
p372
F0.0035842293906810036
sVbacon
p373
F0.0035842293906810036
sVback
p374
F0.0035842293906810036
sVadministrator
p375
F0.0035842293906810036
sVchocolate
p376
F0.0035842293906810036
sVgreece
p377
F0.0035842293906810036
sVacid
p378
F0.0035842293906810036
sVinsurance
p379
F0.0035842293906810036
sVcanada
p380
F0.0035842293906810036
sVknees
p381
F0.0035842293906810036
sVspruce
p382
F0.0035842293906810036
sVshrub
p383
F0.0035842293906810036
sVlime
p384
F0.0035842293906810036
sVsycamore
p385
F0.0035842293906810036
sVdiesel
p386
F0.0035842293906810036
sVmines
p387
F0.0035842293906810036
sVhazel
p388
F0.007168458781362007
sVweapons
p389
F0.0035842293906810036
sVtail
p390
F0.0035842293906810036
sVmaple
p391
F0.0035842293906810036
sVrel
p392
F0.0035842293906810036
sVyogurt
p393
F0.0035842293906810036
sVtimber
p394
F0.0035842293906810036
sVbody
p395
F0.007168458781362007
sVfir
p396
F0.0035842293906810036
sVhose
p397
F0.0035842293906810036
sVpower
p398
F0.0035842293906810036
sVblackcurrant
p399
F0.0035842293906810036
sVabdomen
p400
F0.0035842293906810036
sVwater
p401
F0.007168458781362007
sVblackthorn
p402
F0.0035842293906810036
sVclustering
p403
F0.0035842293906810036
sVmuskets
p404
F0.0035842293906810036
sV[
p405
F0.0035842293906810036
sVash
p406
F0.0035842293906810036
sVtable
p407
F0.0035842293906810036
sVjam
p408
F0.0035842293906810036
sVbeef
p409
F0.0035842293906810036
sVof
p410
F0.0035842293906810036
sVfinland
p411
F0.0035842293906810036
sVheating
p412
F0.0035842293906810036
sVbow
p413
F0.0035842293906810036
sVmauritius
p414
F0.0035842293906810036
sVelectricity
p415
F0.0035842293906810036
sVjelly
p416
F0.0035842293906810036
sVpudding
p417
F0.0035842293906810036
sVcrucifix
p418
F0.0035842293906810036
sVhead
p419
F0.0035842293906810036
sVjersey
p420
F0.0035842293906810036
sVcheese
p421
F0.0035842293906810036
sVfamily
p422
F0.0035842293906810036
sVdeputy
p423
F0.0035842293906810036
sVhornbeam
p424
F0.0035842293906810036
sVtralia
p425
F0.0035842293906810036
sVfeet
p426
F0.0035842293906810036
sVelder
p427
F0.0035842293906810036
sVaustria
p428
F0.0035842293906810036
sVlau
p429
F0.0035842293906810036
sVgrain
p430
F0.0035842293906810036
sVli
p431
F0.0035842293906810036
sVthorn
p432
F0.0035842293906810036
sVbelt
p433
F0.0035842293906810036
sVturkey
p434
F0.0035842293906810036
sVpatron
p435
F0.0035842293906810036
sVusa
p436
F0.0035842293906810036
sVvirgin
p437
F0.0035842293906810036
sVsweater
p438
F0.0035842293906810036
sVpetroleum
p439
F0.0035842293906810036
sVarms
p440
F0.0035842293906810036
sVfrance
p441
F0.0035842293906810036
sVpaint
p442
F0.0035842293906810036
sVmerica
p443
F0.0035842293906810036
sVgibraltar
p444
F0.0035842293906810036
sVbutter
p445
F0.0035842293906810036
sVsuit
p446
F0.0035842293906810036
sVrump
p447
F0.0035842293906810036
sVyoghurt
p448
F0.0035842293906810036
sVlegs
p449
F0.0035842293906810036
sVsyrup
p450
F0.0035842293906810036
sVhorses
p451
F0.0035842293906810036
sVzealand
p452
F0.0035842293906810036
sVshoulders
p453
F0.0035842293906810036
sVwaistcoat
p454
F0.0035842293906810036
sVinches
p455
F0.0035842293906810036
sVdrugs
p456
F0.0035842293906810036
sVposter
p457
F0.0035842293906810036
sVkerosene
p458
F0.0035842293906810036
sVgas
p459
F0.0035842293906810036
sVtelephone
p460
F0.0035842293906810036
sVfuel
p461
F0.0035842293906810036
sVtreasurer
p462
F0.0035842293906810036
sVpart
p463
F0.007168458781362007
sVtempera
p464
F0.0035842293906810036
sVbeech
p465
F0.0035842293906810036
sVsprinkling
p466
F0.0035842293906810036
sVspain
p467
F0.0035842293906810036
sVneck
p468
F0.0035842293906810036
sVsteel
p469
F0.0035842293906810036
sVwood
p470
F0.007168458781362007
sVfleece
p471
F0.0035842293906810036
sVbuttocks
p472
F0.0035842293906810036
sVword
p473
F0.007168458781362007
sVholland
p474
F0.0035842293906810036
sVhat
p475
F0.0035842293906810036
sVruler
p476
F0.0035842293906810036
sVcap
p477
F0.0035842293906810036
sVgovernor
p478
F0.0035842293906810036
sVair
p479
F0.0035842293906810036
sVlarch
p480
F0.0035842293906810036
sVcolomho
p481
F0.0035842293906810036
sVknives
p482
F0.0035842293906810036
sVuk
p483
F0.0035842293906810036
sVcake
p484
F0.007168458781362007
sVT-FLOAT
p485
F0.0035842293906810036
sVvoice
p486
F0.0035842293906810036
sVtorso
p487
F0.0035842293906810036
sVweapon
p488
F0.0035842293906810036
sVgroin
p489
F0.0035842293906810036
sVchestnut
p490
F0.0035842293906810036
sVuniforms
p491
F0.0035842293906810036
sVportugal
p492
F0.0035842293906810036
sVpie
p493
F0.007168458781362007
sVhafoodstuff
p494
F0.0035842293906810036
sVpremier
p495
F0.0035842293906810036
sVtax
p496
F0.0035842293906810036
sVisrael
p497
F0.0035842293906810036
sVcommander
p498
F0.0035842293906810036
sVhoney
p499
F0.007168458781362007
sVthroat
p500
F0.0035842293906810036
sVbritain
p501
F0.0035842293906810036
sVnecks
p502
F0.0035842293906810036
sVsense
p503
F0.007168458781362007
sVbones
p504
F0.0035842293906810036
sVstomach
p505
F0.0035842293906810036
sVirecountry
p506
F0.0035842293906810036
sVcream
p507
F0.007168458781362007
sVspeculum
p508
F0.0035842293906810036
sVhelmet
p509
F0.0035842293906810036
sVmissiles
p510
F0.0035842293906810036
sVitaly
p511
F0.0035842293906810036
sVshirt
p512
F0.0035842293906810036
sV:
p513
F0.0035842293906810036
sVscotland
p514
F0.0035842293906810036
sVbacks
p515
F0.0035842293906810036
sVpine
p516
F0.0035842293906810036
sVanorak
p517
F0.0035842293906810036
sVequipment
p518
F0.0035842293906810036
sVchest
p519
F0.0035842293906810036
sVfirearms
p520
F0.0035842293906810036
sVassistant
p521
F0.0035842293906810036
sVtie
p522
F0.0035842293906810036
sVacrylic
p523
F0.0035842293906810036
sVeuropean
p524
F0.0035842293906810036
sVelbows
p525
F0.0035842293906810036
sVoil
p526
F0.0035842293906810036
sVwrists
p527
F0.0035842293906810036
sVpastel
p528
F0.0035842293906810036
sVpetrol
p529
F0.0035842293906810036
sViceland
p530
F0.0035842293906810036
sVobject
p531
F0.0035842293906810036
sVbreasts
p532
F0.0035842293906810036
sVsteam
p533
F0.0035842293906810036
sVgermany
p534
F0.0035842293906810036
sVbirch
p535
F0.0035842293906810036
sVdust
p536
F0.0035842293906810036
sVlemon
p537
F0.0035842293906810036
sVswede
p538
F0.0035842293906810036
sVcollar
p539
F0.007168458781362007
sVexplosives
p540
F0.0035842293906810036
sg5
F0.0035842293906810036
sVluxeinhourg
p541
F0.0035842293906810036
sVland
p542
F0.0035842293906810036
sVwaist
p543
F0.0035842293906810036
sVgouache
p544
F0.0035842293906810036
sVcharges
p545
F0.0035842293906810036
sVlight
p546
F0.0035842293906810036
sVpoland
p547
F0.0035842293906810036
sVconstable
p548
F0.0035842293906810036
sVheat
p549
F0.0035842293906810036
sVface
p550
F0.0035842293906810036
sVjacket
p551
F0.0035842293906810036
sVcoal
p552
F0.0035842293906810036
sVchief
p553
F0.0035842293906810036
sVpoplar
p554
F0.0035842293906810036
sVscarf
p555
F0.0035842293906810036
sVguernsey
p556
F0.0035842293906810036
sVcedar
p557
F0.0035842293906810036
sVhips
p558
F0.0035842293906810036
saa(lp559
S'E03-102087'
p560
a(dp561
Vdata-driven
p562
F0.05
sVand
p563
F0.05
sVgreat
p564
F0.05
sVwould
p565
F0.05
sVbenefits
p566
F0.05
sVlanguage
p567
F0.05
sVfor
p568
F0.05
sVbe
p569
F0.05
sVvery
p570
F0.05
sVof
p571
F0.05
sVprocessing
p572
F0.05
sg32
F0.05
sVnatural
p573
F0.05
sVlexicography
p574
F0.05
sVsense
p575
F0.05
sVword
p576
F0.05
sVthe
p577
F0.05
sVautomatic
p578
F0.05
sVT-FLOAT
p579
F0.05
sVdiscovery
p580
F0.05
saa(lp581
S'E03-102088'
p582
a(dp583
g5
F0.08333333333333333
sVwe
p584
F0.08333333333333333
sVfew
p585
F0.08333333333333333
sVof
p586
F0.08333333333333333
sVwork
p587
F0.08333333333333333
sVdirect
p588
F0.08333333333333333
sVhere
p589
F0.08333333333333333
sVresults
p590
F0.08333333333333333
sVmention
p591
F0.08333333333333333
sVonly
p592
F0.08333333333333333
sVour
p593
F0.08333333333333333
sVT-FLOAT
p594
F0.08333333333333333
saa(lp595
S'E03-102089'
p596
a(dp597
Vbecause
p598
F0.022222222222222223
sVmembers
p599
F0.022222222222222223
sVcertain
p600
F0.022222222222222223
sVis
p601
F0.022222222222222223
sVit
p602
F0.022222222222222223
sVan
p603
F0.022222222222222223
sVcluster
p604
F0.022222222222222223
sVappropriate
p605
F0.022222222222222223
sVsense
p606
F0.022222222222222223
sVour
p607
F0.022222222222222223
sVT-FLOAT
p608
F0.022222222222222223
sVfeatures
p609
F0.022222222222222223
sVgiven
p610
F0.022222222222222223
sValso
p611
F0.022222222222222223
sVprovide
p612
F0.022222222222222223
sg32
F0.044444444444444446
sVto
p613
F0.022222222222222223
sVonly
p614
F0.022222222222222223
sVdoes
p615
F0.022222222222222223
sVambiguity
p616
F0.022222222222222223
sVshared
p617
F0.022222222222222223
sVreading
p618
F0.022222222222222223
sVbe
p619
F0.022222222222222223
sVused
p620
F0.022222222222222223
sVwhich
p621
F0.022222222222222223
sVbut
p622
F0.022222222222222223
sVrecognise
p623
F0.022222222222222223
sVnot
p624
F0.022222222222222223
sVstrong
p625
F0.022222222222222223
sVby
p626
F0.022222222222222223
sg5
F0.022222222222222223
sVambiguous
p627
F0.022222222222222223
sVresolve
p628
F0.022222222222222223
sVword
p629
F0.022222222222222223
sValgorithm
p630
F0.022222222222222223
sVof
p631
F0.06666666666666667
sVindication
p632
F0.022222222222222223
sVcan
p633
F0.022222222222222223
sVcontext
p634
F0.022222222222222223
sVeach
p635
F0.022222222222222223
sVthe
p636
F0.044444444444444446
saa(lp637
S'E03-102097'
p638
a(dp639
Vapplied
p640
F0.0625
sVrelationships
p641
F0.0625
sVwe
p642
F0.0625
sValgorithm
p643
F0.0625
sVprepare
p644
F0.0625
sVof
p645
F0.0625
sVcf
p646
F0.0625
sVan
p647
F0.0625
sVto
p648
F0.0625
sVas
p649
F0.0625
sg58
F0.0625
sVcollocation
p650
F0.0625
sVour
p651
F0.0625
sVthe
p652
F0.0625
sVevaluation
p653
F0.0625
sVT-FLOAT
p654
F0.0625
saa(lp655
S'E03-102096'
p656
a(dp657
Vdescribe
p658
F0.038461538461538464
sVan
p659
F0.038461538461538464
sVaddressed
p660
F0.038461538461538464
sVin
p661
F0.038461538461538464
sVT-FLOAT
p662
F0.038461538461538464
sVclustering
p663
F0.038461538461538464
sVby
p664
F0.038461538461538464
sVto
p665
F0.07692307692307693
sVcorpus
p666
F0.038461538461538464
sVbe
p667
F0.038461538461538464
sVused
p668
F0.038461538461538464
sVmeanings
p669
F0.038461538461538464
sVaccurately
p670
F0.038461538461538464
sVparticular
p671
F0.038461538461538464
sVresource
p672
F0.038461538461538464
sVexisting
p673
F0.038461538461538464
sVthe
p674
F0.07692307692307693
sg5
F0.038461538461538464
sVword
p675
F0.038461538461538464
sVusing
p676
F0.038461538461538464
sVcan
p677
F0.038461538461538464
sVattune
p678
F0.038461538461538464
sVsense
p679
F0.038461538461538464
sVproblem
p680
F0.038461538461538464
saa(lp681
S'E03-102095'
p682
a(dp683
Vsenses
p684
F0.047619047619047616
sVrare
p685
F0.047619047619047616
sVoften
p686
F0.047619047619047616
sVfor
p687
F0.047619047619047616
sVthat
p688
F0.047619047619047616
sVrelevant
p689
F0.047619047619047616
sVmany
p690
F0.047619047619047616
sVT-FLOAT
p691
F0.047619047619047616
sVcorpora
p692
F0.047619047619047616
sg32
F0.047619047619047616
sVbut
p693
F0.047619047619047616
sVspecific
p694
F0.047619047619047616
sVdomains
p695
F0.047619047619047616
sVones
p696
F0.047619047619047616
sVsame
p697
F0.047619047619047616
sVthey
p698
F0.047619047619047616
sVcontain
p699
F0.047619047619047616
sVnot
p700
F0.047619047619047616
sVthe
p701
F0.047619047619047616
sVor
p702
F0.047619047619047616
sVare
p703
F0.047619047619047616
saa(lp704
S'E03-102094'
p705
a(dp706
Vnlp
p707
F0.07692307692307693
sVoff-the-shelf
p708
F0.07692307692307693
sVfor
p709
F0.07692307692307693
sVbeing
p710
F0.07692307692307693
sVlexical
p711
F0.07692307692307693
sVwithout
p712
F0.07692307692307693
sVtasks
p713
F0.07692307692307693
sVare
p714
F0.07692307692307693
sVadequate
p715
F0.07692307692307693
sVrarely
p716
F0.07692307692307693
sVadapted
p717
F0.07692307692307693
sVT-FLOAT
p718
F0.07692307692307693
sVresources
p719
F0.07692307692307693
saa(lp720
S'E03-102093'
p721
a(dp722
Vshow
p723
F0.038461538461538464
sVbeing
p724
F0.038461538461538464
sVis
p725
F0.038461538461538464
sVsenses
p726
F0.038461538461538464
sVin
p727
F0.038461538461538464
sVtable
p728
F0.038461538461538464
sVindicate
p729
F0.038461538461538464
sVdifferent
p730
F0.038461538461538464
sVT-INT
p731
F0.038461538461538464
sVto
p732
F0.038461538461538464
sVneighbours
p733
F0.038461538461538464
sVobservations
p734
F0.038461538461538464
sVwhich
p735
F0.038461538461538464
sVaccuracy
p736
F0.038461538461538464
sVbe
p737
F0.038461538461538464
sVused
p738
F0.07692307692307693
sVthat
p739
F0.038461538461538464
sVpreliminary
p740
F0.038461538461538464
sVwith
p741
F0.038461538461538464
sVT-FLOAT
p742
F0.038461538461538464
sVgreat
p743
F0.038461538461538464
sVof
p744
F0.038461538461538464
sVcan
p745
F0.038461538461538464
sVthe
p746
F0.07692307692307693
saa(lp747
S'E03-102092'
p748
a(dp749
Vand
p750
F0.0625
sVboth
p751
F0.0625
sVcombines
p752
F0.0625
sVbenefits
p753
F0.0625
sVthis
p754
F0.0625
sVof
p755
F0.0625
sVdisambiguation
p756
F0.0625
sVapproaches
p757
F0.0625
sV's
p758
F0.125
sVto
p759
F0.0625
sVschtitze
p760
F0.0625
sVyarowsky
p761
F0.0625
sVthe
p762
F0.0625
sVapproach
p763
F0.0625
sVT-FLOAT
p764
F0.0625
saa(lp765
S'E03-102091'
p766
a(dp767
Vbe
p768
F0.03571428571428571
sVtaxonomy
p769
F0.03571428571428571
sVinto
p770
F0.03571428571428571
sVdiscovered
p771
F0.03571428571428571
sVused
p772
F0.03571428571428571
sVin
p773
F0.03571428571428571
sVsense-distinctions
p774
F0.03571428571428571
sVto
p775
F0.10714285714285714
sVrecognised
p776
F0.03571428571428571
sVmap
p777
F0.03571428571428571
sVsenses
p778
F0.03571428571428571
sVability
p779
F0.03571428571428571
sVthat
p780
F0.03571428571428571
sVdifferences
p781
F0.03571428571428571
sVmeaning
p782
F0.03571428571428571
sVusing
p783
F0.03571428571428571
sVT-FLOAT
p784
F0.03571428571428571
sg5
F0.03571428571428571
sValgorithm
p785
F0.03571428571428571
sVclass-labelling
p786
F0.03571428571428571
sVcorrespond
p787
F0.03571428571428571
sVensure
p788
F0.03571428571428571
sVcan
p789
F0.03571428571428571
sVthe
p790
F0.10714285714285714
saa(lp791
S'E03-102090'
p792
a(dp793
Von
p794
F0.045454545454545456
sVword
p795
F0.045454545454545456
sVtrained
p796
F0.045454545454545456
sValgorithm
p797
F0.045454545454545456
sVunsupervised
p798
F0.045454545454545456
sVthis
p799
F0.045454545454545456
sVdata
p800
F0.045454545454545456
sVdisambiguation
p801
F0.045454545454545456
sVrise
p802
F0.045454545454545456
sg32
F0.045454545454545456
sVan
p803
F0.045454545454545456
sVto
p804
F0.09090909090909091
sVT-FLOAT
p805
F0.045454545454545456
sVwhich
p806
F0.045454545454545456
sVsense
p807
F0.045454545454545456
sVdisambiguated
p808
F0.045454545454545456
sVthe
p809
F0.045454545454545456
sVautomatic
p810
F0.045454545454545456
sVis
p811
F0.045454545454545456
sVbe
p812
F0.045454545454545456
sVgives
p813
F0.045454545454545456
saa(lp814
S'E03-102098'
p815
a(dp816
Vand
p817
F0.047619047619047616
sVclustering
p818
F0.047619047619047616
sVwe
p819
F0.047619047619047616
sVfor
p820
F0.047619047619047616
sValgorithm
p821
F0.047619047619047616
sVto
p822
F0.047619047619047616
sg57
F0.047619047619047616
sVevaluate
p823
F0.047619047619047616
sVsection
p824
F0.047619047619047616
sVunsupervised
p825
F0.047619047619047616
sg32
F0.047619047619047616
sVthoroughly
p826
F0.047619047619047616
sVT-INT
p827
F0.047619047619047616
sVuses
p828
F0.047619047619047616
sVplan
p829
F0.047619047619047616
sVT-FLOAT
p830
F0.047619047619047616
sVof
p831
F0.047619047619047616
sVour
p832
F0.047619047619047616
sVthe
p833
F0.047619047619047616
sVdisambiguation
p834
F0.047619047619047616
sVmore
p835
F0.047619047619047616
saa(lp836
S'E03-102019'
p837
a(dp838
Vand
p839
F0.022222222222222223
sVintuition
p840
F0.022222222222222223
sVoften
p841
F0.022222222222222223
sVfrom
p842
F0.022222222222222223
sV``
p843
F0.022222222222222223
sVrelated
p844
F0.022222222222222223
sV''
p845
F0.022222222222222223
sVrat
p846
F0.022222222222222223
sVare
p847
F0.022222222222222223
sVin
p848
F0.022222222222222223
sVgenomic
p849
F0.022222222222222223
sVco-occur
p850
F0.022222222222222223
sVdna
p851
F0.022222222222222223
sVextract
p852
F0.022222222222222223
sVand/or
p853
F0.022222222222222223
sVbased
p854
F0.022222222222222223
sVmouse
p855
F0.022222222222222223
sg32
F0.1111111111111111
sVwhich
p856
F0.022222222222222223
sVsemantically
p857
F0.022222222222222223
sVwe
p858
F0.022222222222222223
sVform
p859
F0.022222222222222223
sVthat
p860
F0.022222222222222223
sVnouns
p861
F0.022222222222222223
sg100
F0.022222222222222223
sVT-FLOAT
p862
F0.08888888888888889
sg5
F0.022222222222222223
sVon
p863
F0.022222222222222223
sVnoun
p864
F0.06666666666666667
sg101
F0.022222222222222223
sVcontexts
p865
F0.022222222222222223
sVof
p866
F0.022222222222222223
sVlist
p867
F0.022222222222222223
sVdog
p868
F0.022222222222222223
sVthe
p869
F0.044444444444444446
saa(lp870
S'E03-102018'
p871
a(dp872
Vtagged
p873
F0.038461538461538464
sVnational
p874
F0.038461538461538464
sVdiscover
p875
F0.038461538461538464
sVfrom
p876
F0.07692307692307693
sVbuilt
p877
F0.038461538461538464
sVfor
p878
F0.038461538461538464
sVdistinct
p879
F0.038461538461538464
sg32
F0.038461538461538464
sVparts
p880
F0.038461538461538464
sVspeech
p881
F0.038461538461538464
sVwhich
p882
F0.07692307692307693
sVcorpus
p883
F0.038461538461538464
sVis
p884
F0.07692307692307693
sVmodel
p885
F0.038461538461538464
sVwe
p886
F0.038461538461538464
sVsenses
p887
F0.038461538461538464
sVthe
p888
F0.07692307692307693
sVword
p889
F0.038461538461538464
sVof
p890
F0.038461538461538464
sVbritish
p891
F0.038461538461538464
sVT-FLOAT
p892
F0.038461538461538464
sVautomatically
p893
F0.038461538461538464
saa(lp894
S'E03-102017'
p895
a(dp896
Vsketches
p897
F0.07142857142857142
sVand
p898
F0.07142857142857142
sValgorithm
p899
F0.07142857142857142
sVapplications
p900
F0.07142857142857142
sVof
p901
F0.07142857142857142
sVsection
p902
F0.07142857142857142
sVwork
p903
F0.07142857142857142
sg32
F0.07142857142857142
sVT-INT
p904
F0.07142857142857142
sVfinally
p905
F0.07142857142857142
sVfuture
p906
F0.07142857142857142
sVthe
p907
F0.07142857142857142
sVdiscusses
p908
F0.07142857142857142
sVT-FLOAT
p909
F0.07142857142857142
saa(lp910
S'E03-102016'
p911
a(dp912
Vand
p913
F0.07692307692307693
sg5
F0.07692307692307693
sVdescribes
p914
F0.07692307692307693
sVsection
p915
F0.07692307692307693
sVresults
p916
F0.07692307692307693
sVpresents
p917
F0.07692307692307693
sVT-INT
p918
F0.07692307692307693
sVsample
p919
F0.07692307692307693
sVexperiment
p920
F0.07692307692307693
sVof
p921
F0.07692307692307693
sVthe
p922
F0.15384615384615385
sVT-FLOAT
p923
F0.07692307692307693
saa(lp924
S'E03-102015'
p925
a(dp926
g5
F0.08695652173913043
sVon
p927
F0.043478260869565216
sVwe
p928
F0.043478260869565216
sVset
p929
F0.043478260869565216
sVdegree
p930
F0.043478260869565216
sValgorithm
p931
F0.043478260869565216
sVof
p932
F0.13043478260869565
sVvarying
p933
F0.043478260869565216
sVexamine
p934
F0.043478260869565216
sVto
p935
F0.043478260869565216
sVconducted
p936
F0.043478260869565216
sVexperiment
p937
F0.043478260869565216
sVwords
p938
F0.043478260869565216
sVour
p939
F0.043478260869565216
sVperformance
p940
F0.043478260869565216
sVthe
p941
F0.043478260869565216
sVambiguity
p942
F0.043478260869565216
sVwith
p943
F0.043478260869565216
sVT-FLOAT
p944
F0.043478260869565216
sVpilot
p945
F0.043478260869565216
saa(lp946
S'E03-102014'
p947
a(dp948
g5
F0.05263157894736842
sVwe
p949
F0.05263157894736842
sVword
p950
F0.05263157894736842
sVoutline
p951
F0.05263157894736842
sValgorithm
p952
F0.05263157894736842
sVof
p953
F0.05263157894736842
sVsection
p954
F0.05263157894736842
sVsense
p955
F0.05263157894736842
sg32
F0.05263157894736842
sVtuning
p956
F0.05263157894736842
sVT-INT
p957
F0.05263157894736842
sVT-FLOAT
p958
F0.05263157894736842
sVwhich
p959
F0.05263157894736842
sVin
p960
F0.05263157894736842
sVbypasses
p961
F0.05263157894736842
sVthe
p962
F0.05263157894736842
sVparameter
p963
F0.05263157894736842
sVproblem
p964
F0.05263157894736842
sVdiscovery
p965
F0.05263157894736842
saa(lp966
S'E03-102013'
p967
a(dp968
Vclustering
p969
F0.041666666666666664
sVstrongly
p970
F0.041666666666666664
sVand
p971
F0.041666666666666664
sVparameters
p972
F0.041666666666666664
sVon
p973
F0.041666666666666664
sVof
p974
F0.08333333333333333
sVfactor
p975
F0.041666666666666664
sVas
p976
F0.041666666666666664
sVlocal
p977
F0.041666666666666664
sVT-FLOAT
p978
F0.041666666666666664
sVdepends
p979
F0.041666666666666664
sVgraph
p980
F0.041666666666666664
sg5
F0.041666666666666664
sVgranularity
p981
F0.041666666666666664
sVsuch
p982
F0.041666666666666664
sVthe
p983
F0.16666666666666666
sVseveral
p984
F0.041666666666666664
sVquality
p985
F0.041666666666666664
sVmarkov
p986
F0.041666666666666664
sVsize
p987
F0.041666666666666664
saa(lp988
S'E03-102012'
p989
a(dp990
Vdivide
p991
F0.034482758620689655
sVinto
p992
F0.034482758620689655
sVsurrounding
p993
F0.034482758620689655
sVT-FLOAT
p994
F0.034482758620689655
sVclustering
p995
F0.034482758620689655
sVdifferent
p996
F0.06896551724137931
sVvan
p997
F0.034482758620689655
sVto
p998
F0.034482758620689655
sg57
F0.034482758620689655
sg58
F0.034482758620689655
sVsection
p999
F0.034482758620689655
sg32
F0.06896551724137931
sVT-INT
p1000
F0.06896551724137931
sVdescribes
p1001
F0.034482758620689655
sVway
p1002
F0.034482758620689655
sVwe
p1003
F0.034482758620689655
sVsenses
p1004
F0.034482758620689655
sVcorresponding
p1005
F0.034482758620689655
sVdongen
p1006
F0.034482758620689655
sVwords
p1007
F0.034482758620689655
sVusing
p1008
F0.034482758620689655
sVthe
p1009
F0.034482758620689655
sVareas
p1010
F0.034482758620689655
sVambiguous
p1011
F0.034482758620689655
sVgraphs
p1012
F0.034482758620689655
sVmarkov
p1013
F0.034482758620689655
saa(lp1014
S'E03-102011'
p1015
a(dp1016
Vwe
p1017
F0.125
sVsenses
p1018
F0.0625
sVfrom
p1019
F0.0625
sVgraph
p1020
F0.0625
sVsection
p1021
F0.0625
sg32
F0.0625
sVdiscover
p1022
F0.0625
sVT-INT
p1023
F0.0625
sVT-FLOAT
p1024
F0.0625
sVwhich
p1025
F0.0625
sVin
p1026
F0.0625
sVword
p1027
F0.0625
sVthe
p1028
F0.0625
sVmodel
p1029
F0.0625
sVpresent
p1030
F0.0625
saa(lp1031
S'E03-102010'
p1032
a(dp1033
Vthis
p1034
F0.14285714285714285
sVfollows
p1035
F0.14285714285714285
sVis
p1036
F0.14285714285714285
sVas
p1037
F0.14285714285714285
sVpaper
p1038
F0.14285714285714285
sVorganised
p1039
F0.14285714285714285
sVT-FLOAT
p1040
F0.14285714285714285
saa(lp1041
S'E03-102068'
p1042
a(dp1043
Vand
p1044
F0.041666666666666664
sVtaxonomy
p1045
F0.041666666666666664
sVcluster
p1046
F0.041666666666666664
sVsee
p1047
F0.041666666666666664
sVthrough
p1048
F0.041666666666666664
sVgo
p1049
F0.041666666666666664
sg57
F0.041666666666666664
sg58
F0.041666666666666664
sVto
p1050
F0.041666666666666664
sVclusters
p1051
F0.041666666666666664
sVfinal
p1052
F0.041666666666666664
sVusing
p1053
F0.041666666666666664
sVT-FLOAT
p1054
F0.041666666666666664
sg5
F0.08333333333333333
sVbroad-coverage
p1055
F0.041666666666666664
sVname
p1056
F0.041666666666666664
sVof
p1057
F0.041666666666666664
sVlist
p1058
F0.041666666666666664
sVl
p1059
F0.041666666666666664
sVbelow
p1060
F0.041666666666666664
sVeach
p1061
F0.041666666666666664
sVthe
p1062
F0.041666666666666664
sVassign
p1063
F0.041666666666666664
saa(lp1064
S'E03-102069'
p1065
a(dp1066
Vand
p1067
F0.07407407407407407
sVsemantic
p1068
F0.037037037037037035
sVtaxonomy-based
p1069
F0.037037037037037035
sVcluster
p1070
F0.037037037037037035
sVmeasure
p1071
F0.037037037037037035
sVclose
p1072
F0.037037037037037035
sVT-FLOAT
p1073
F0.037037037037037035
sVhirst
p1074
F0.037037037037037035
sVto
p1075
F0.037037037037037035
sg57
F0.037037037037037035
sg58
F0.037037037037037035
sg32
F0.037037037037037035
sVT-INT
p1076
F0.037037037037037035
sVclusters
p1077
F0.037037037037037035
sVsemantically
p1078
F0.037037037037037035
sVformed
p1079
F0.037037037037037035
sVusing
p1080
F0.037037037037037035
sVnewly
p1081
F0.037037037037037035
sg5
F0.07407407407407407
sVdistance
p1082
F0.037037037037037035
sVclass-label
p1083
F0.037037037037037035
sVbudanitsky
p1084
F0.037037037037037035
sVmerge
p1085
F0.037037037037037035
sVthe
p1086
F0.037037037037037035
sVassign
p1087
F0.037037037037037035
saa(lp1088
S'E03-102062'
p1089
a(dp1090
Vall
p1091
F0.1
sVdegree
p1092
F0.1
sVof
p1093
F0.1
sVrecursively
p1094
F0.1
sVremove
p1095
F0.1
sVone
p1096
F0.1
sVT-INT
p1097
F0.1
sVT-FLOAT
p1098
F0.2
sVnodes
p1099
F0.1
saa(lp1100
S'E03-102063'
p1101
a(dp1102
Vnode
p1103
F0.08333333333333333
sVthen
p1104
F0.08333333333333333
sVcorresponding
p1105
F0.08333333333333333
sg101
F0.08333333333333333
sVremove
p1106
F0.08333333333333333
sVT-INT
p1107
F0.08333333333333333
sVw
p1108
F0.08333333333333333
sVfrom
p1109
F0.08333333333333333
sVthe
p1110
F0.08333333333333333
sVwith
p1111
F0.08333333333333333
sVT-FLOAT
p1112
F0.16666666666666666
saa(lp1113
S'E03-102060'
p1114
a(dp1115
Valgorithm
p1116
F0.1
sVT-INT
p1117
F0.1
sVof
p1118
F0.1
sVfollowing
p1119
F0.1
sVsteps
p1120
F0.1
sVconsists
p1121
F0.1
sVthe
p1122
F0.2
sg513
F0.1
sVT-FLOAT
p1123
F0.1
saa(lp1124
S'E03-102061'
p1125
a(dp1126
Vgw
p1127
F0.030303030303030304
sVand
p1128
F0.030303030303030304
sVset
p1129
F0.030303030303030304
sVfeatures
p1130
F0.030303030303030304
sVsimilarity
p1131
F0.030303030303030304
sVis
p1132
F0.030303030303030304
sVgo
p1133
F0.030303030303030304
sVthreshold
p1134
F0.030303030303030304
sVits
p1135
F0.030303030303030304
sVif
p1136
F0.030303030303030304
sVT-INT
p1137
F0.030303030303030304
sVgraph
p1138
F0.030303030303030304
sVto
p1139
F0.030303030303030304
sVbetween
p1140
F0.030303030303030304
sVlocal
p1141
F0.030303030303030304
sVaround
p1142
F0.030303030303030304
sVclosest
p1143
F0.030303030303030304
sVneighbour
p1144
F0.030303030303030304
sVusing
p1145
F0.030303030303030304
sVT-FLOAT
p1146
F0.06060606060606061
sg5
F0.06060606060606061
sVcompute
p1147
F0.030303030303030304
sVf
p1148
F0.030303030303030304
sVof
p1149
F0.030303030303030304
sVbelow
p1150
F0.030303030303030304
sg1108
F0.06060606060606061
sVsmall
p1151
F0.030303030303030304
sVthe
p1152
F0.06060606060606061
sVfixed
p1153
F0.030303030303030304
saa(lp1154
S'E03-102066'
p1155
a(dp1156
Vstrongly
p1157
F0.023809523809523808
sVgw
p1158
F0.023809523809523808
sVfeatures
p1159
F0.023809523809523808
sVis
p1160
F0.023809523809523808
sVremove/devalue
p1161
F0.023809523809523808
sVit
p1162
F0.023809523809523808
sVone
p1163
F0.023809523809523808
sV''
p1164
F0.023809523809523808
sVcluster
p1165
F0.023809523809523808
sVin
p1166
F0.023809523809523808
sVits
p1167
F0.023809523809523808
sVbest
p1168
F0.023809523809523808
sVbefore
p1169
F0.023809523809523808
sVfrom
p1170
F0.023809523809523808
sVT-INT
p1171
F0.023809523809523808
sg57
F0.023809523809523808
sg58
F0.023809523809523808
sg32
F0.023809523809523808
sVremoval
p1172
F0.023809523809523808
sVto
p1173
F0.047619047619047616
sVadd
p1174
F0.023809523809523808
sVtake
p1175
F0.023809523809523808
sVclusters
p1176
F0.023809523809523808
sVfinal
p1177
F0.023809523809523808
sV``
p1178
F0.023809523809523808
sVthat
p1179
F0.023809523809523808
sVmost
p1180
F0.023809523809523808
sVconnected
p1181
F0.023809523809523808
sVT-FLOAT
p1182
F0.047619047619047616
sVand
p1183
F0.023809523809523808
sg1148
F0.023809523809523808
sVof
p1184
F0.047619047619047616
sVlist
p1185
F0.023809523809523808
sg1059
F0.023809523809523808
sg1108
F0.047619047619047616
sVthe
p1186
F0.07142857142857142
saa(lp1187
S'E03-102067'
p1188
a(dp1189
Vset
p1190
F0.07142857142857142
sVreduced/devalued
p1191
F0.07142857142857142
sVT-INT
p1192
F0.14285714285714285
sVof
p1193
F0.07142857142857142
sg1148
F0.07142857142857142
sVback
p1194
F0.07142857142857142
sVto
p1195
F0.07142857142857142
sVgo
p1196
F0.07142857142857142
sVthe
p1197
F0.07142857142857142
sVwith
p1198
F0.07142857142857142
sVT-FLOAT
p1199
F0.14285714285714285
sVfeatures
p1200
F0.07142857142857142
saa(lp1201
S'E03-102064'
p1202
a(dp1203
Vgw
p1204
F0.06666666666666667
sg5
F0.06666666666666667
sg259
F0.06666666666666667
sVmcl
p1205
F0.06666666666666667
sVfairly
p1206
F0.06666666666666667
sVbig
p1207
F0.06666666666666667
sVis
p1208
F0.06666666666666667
sVto
p1209
F0.06666666666666667
sVinflation
p1210
F0.06666666666666667
sVwhich
p1211
F0.06666666666666667
sVfixed
p1212
F0.06666666666666667
sVapply
p1213
F0.06666666666666667
sVT-FLOAT
p1214
F0.06666666666666667
sVparameter
p1215
F0.06666666666666667
sVwith
p1216
F0.06666666666666667
saa(lp1217
S'E03-102065'
p1218
a(dp1219
VT-INT
p1220
F0.5
sVT-FLOAT
p1221
F0.5
saa(lp1222
S'E03-10209'
p1223
a(dp1224
Vinto
p1225
F0.02857142857142857
sVin
p1226
F0.02857142857142857
sVevidence
p1227
F0.02857142857142857
sVused
p1228
F0.02857142857142857
sVsense
p1229
F0.02857142857142857
sVclustering
p1230
F0.02857142857142857
sVgiven
p1231
F0.02857142857142857
sVT-INT
p1232
F0.02857142857142857
sVdistinct
p1233
F0.02857142857142857
sg58
F0.02857142857142857
sg32
F0.02857142857142857
sVsame
p1234
F0.02857142857142857
sVto
p1235
F0.05714285714285714
sVwhich
p1236
F0.05714285714285714
sVcorpus
p1237
F0.02857142857142857
sVsupports
p1238
F0.02857142857142857
sVis
p1239
F0.02857142857142857
sVbe
p1240
F0.02857142857142857
sVsenses
p1241
F0.02857142857142857
sVschiitze
p1242
F0.02857142857142857
sVdecide
p1243
F0.02857142857142857
sVan
p1244
F0.02857142857142857
sVT-FLOAT
p1245
F0.02857142857142857
sg5
F0.05714285714285714
sVambiguous
p1246
F0.02857142857142857
sVword
p1247
F0.02857142857142857
sVof
p1248
F0.02857142857142857
sg57
F0.02857142857142857
sVcan
p1249
F0.02857142857142857
sVcontext
p1250
F0.02857142857142857
sVthe
p1251
F0.02857142857142857
sVreferred
p1252
F0.02857142857142857
saa(lp1253
S'E03-10208'
p1254
a(dp1255
g5
F0.043478260869565216
sVand
p1256
F0.043478260869565216
sVused
p1257
F0.043478260869565216
sV's
p1258
F0.043478260869565216
sVbe
p1259
F0.043478260869565216
sVlexicographer
p1260
F0.043478260869565216
sVwork
p1261
F0.043478260869565216
sVit
p1262
F0.043478260869565216
sVconstruct
p1263
F0.043478260869565216
sVexisting
p1264
F0.043478260869565216
sVcorpus-based
p1265
F0.043478260869565216
sVto
p1266
F0.08695652173913043
sVones
p1267
F0.043478260869565216
sVgreatly
p1268
F0.043478260869565216
sVtune
p1269
F0.043478260869565216
sVT-FLOAT
p1270
F0.043478260869565216
sVtaxonomies
p1271
F0.043478260869565216
sVfacilitate
p1272
F0.043478260869565216
sVor
p1273
F0.043478260869565216
sVautomatically
p1274
F0.043478260869565216
sVcan
p1275
F0.08695652173913043
saa(lp1276
S'E03-10207'
p1277
a(dp1278
Vword
p1279
F0.1
sVof
p1280
F0.1
sVmany
p1281
F0.1
sVapplications
p1282
F0.1
sVsense
p1283
F0.1
sVkinds
p1284
F0.1
sVT-FLOAT
p1285
F0.1
sVhas
p1286
F0.1
sVautomatic
p1287
F0.1
sVdiscovery
p1288
F0.1
saa(lp1289
S'E03-10206'
p1290
a(dp1291
Vand
p1292
F0.038461538461538464
sVtext
p1293
F0.038461538461538464
sVan
p1294
F0.038461538461538464
sVappropriate
p1295
F0.038461538461538464
sVpaper
p1296
F0.038461538461538464
sVfrom
p1297
F0.038461538461538464
sVmaps
p1298
F0.038461538461538464
sVto
p1299
F0.038461538461538464
sVdescribes
p1300
F0.038461538461538464
sVdiscovers
p1301
F0.038461538461538464
sVwhich
p1302
F0.038461538461538464
sVtaxonomies
p1303
F0.038461538461538464
sVthem
p1304
F0.038461538461538464
sVsenses
p1305
F0.038461538461538464
sVfree
p1306
F0.038461538461538464
sVentries
p1307
F0.038461538461538464
sVexisting
p1308
F0.038461538461538464
sVT-FLOAT
p1309
F0.038461538461538464
sVword
p1310
F0.038461538461538464
sValgorithm
p1311
F0.038461538461538464
sVthis
p1312
F0.038461538461538464
sVof
p1313
F0.038461538461538464
sVdictionaries
p1314
F0.038461538461538464
sVthe
p1315
F0.038461538461538464
sVor
p1316
F0.038461538461538464
sVautomatically
p1317
F0.038461538461538464
saa(lp1318
S'E03-10205'
p1319
a(dp1320
Vand
p1321
F0.08333333333333333
sVboth
p1322
F0.08333333333333333
sVwe
p1323
F0.08333333333333333
sVfor
p1324
F0.08333333333333333
sVrecognising
p1325
F0.08333333333333333
sVresolving
p1326
F0.08333333333333333
sVuse
p1327
F0.08333333333333333
sVsame
p1328
F0.08333333333333333
sVambiguity
p1329
F0.08333333333333333
sVthe
p1330
F0.08333333333333333
sVdata
p1331
F0.08333333333333333
sVT-FLOAT
p1332
F0.08333333333333333
saa(lp1333
S'E03-10204'
p1334
a(dp1335
Vsenses
p1336
F0.07692307692307693
sVto
p1337
F0.07692307692307693
sVpreviously
p1338
F0.07692307692307693
sVdiscrimination
p1339
F0.07692307692307693
sVdiscover
p1340
F0.07692307692307693
sVagainst
p1341
F0.07692307692307693
sVextracted
p1342
F0.07692307692307693
sVus
p1343
F0.07692307692307693
sVsense
p1344
F0.07692307692307693
sVclusters
p1345
F0.07692307692307693
sVT-FLOAT
p1346
F0.07692307692307693
sVenables
p1347
F0.07692307692307693
sVnew
p1348
F0.07692307692307693
saa(lp1349
S'E03-10203'
p1350
a(dp1351
Vclustering
p1352
F0.05555555555555555
sVambiguous
p1353
F0.05555555555555555
sVword
p1354
F0.05555555555555555
sVcomputed
p1355
F0.05555555555555555
sVsimilar
p1356
F0.05555555555555555
sVgraph
p1357
F0.05555555555555555
sVof
p1358
F0.05555555555555555
sVan
p1359
F0.05555555555555555
sVT-FLOAT
p1360
F0.05555555555555555
sVare
p1361
F0.05555555555555555
sVwords
p1362
F0.05555555555555555
sVsense
p1363
F0.05555555555555555
sVclusters
p1364
F0.05555555555555555
sVthe
p1365
F0.05555555555555555
sViteratively
p1366
F0.05555555555555555
sVlocal
p1367
F0.05555555555555555
sVby
p1368
F0.05555555555555555
sVaround
p1369
F0.05555555555555555
saa(lp1370
S'E03-10202'
p1371
a(dp1372
g5
F0.06666666666666667
sVon
p1373
F0.06666666666666667
sVand
p1374
F0.06666666666666667
sVbased
p1375
F0.06666666666666667
sValgorithm
p1376
F0.06666666666666667
sVrelationships
p1377
F0.06666666666666667
sVgraph
p1378
F0.06666666666666667
sVis
p1379
F0.06666666666666667
sVthem
p1380
F0.06666666666666667
sVT-FLOAT
p1381
F0.06666666666666667
sVwords
p1382
F0.06666666666666667
sVbetween
p1383
F0.06666666666666667
sVthe
p1384
F0.06666666666666667
sVrepresenting
p1385
F0.06666666666666667
sVmodel
p1386
F0.06666666666666667
saa(lp1387
S'E03-10201'
p1388
a(dp1389
Vsenses
p1390
F0.07142857142857142
sVword
p1391
F0.07142857142857142
sValgorithm
p1392
F0.07142857142857142
sVunsupervised
p1393
F0.07142857142857142
sVthis
p1394
F0.07142857142857142
sVtext
p1395
F0.07142857142857142
sVan
p1396
F0.07142857142857142
sVpresents
p1397
F0.07142857142857142
sVpaper
p1398
F0.07142857142857142
sVdiscovers
p1399
F0.07142857142857142
sVwhich
p1400
F0.07142857142857142
sVfrom
p1401
F0.07142857142857142
sVT-FLOAT
p1402
F0.07142857142857142
sVautomatically
p1403
F0.07142857142857142
saa(lp1404
S'E03-102079'
p1405
a(dp1406
Vand
p1407
F0.0625
sVon
p1408
F0.0625
sVwe
p1409
F0.0625
sValgorithm
p1410
F0.0625
sVof
p1411
F0.0625
sVsoon
p1412
F0.0625
sVthorough
p1413
F0.0625
sVwill
p1414
F0.0625
sVreport
p1415
F0.0625
sg5
F0.0625
sVour
p1416
F0.0625
sVcarry
p1417
F0.0625
sVanalysis
p1418
F0.0625
sVT-FLOAT
p1419
F0.0625
sVmore
p1420
F0.0625
sVout
p1421
F0.0625
saa(lp1422
S'E03-102078'
p1423
a(dp1424
Vand
p1425
F0.06666666666666667
sVwe
p1426
F0.06666666666666667
sVinitial
p1427
F0.06666666666666667
sVthis
p1428
F0.06666666666666667
sVsection
p1429
F0.06666666666666667
sVdescribe
p1430
F0.06666666666666667
sVresults
p1431
F0.06666666666666667
sg32
F0.06666666666666667
sVan
p1432
F0.06666666666666667
sVexperiment
p1433
F0.06666666666666667
sVin
p1434
F0.06666666666666667
sVthe
p1435
F0.06666666666666667
sVevaluation
p1436
F0.06666666666666667
sVT-FLOAT
p1437
F0.06666666666666667
sVpresent
p1438
F0.06666666666666667
saa(lp1439
S'E03-102071'
p1440
a(dp1441
Vrepresent
p1442
F0.058823529411764705
sVdifferent
p1443
F0.058823529411764705
sVsenses
p1444
F0.058823529411764705
sg1108
F0.058823529411764705
sVof
p1445
F0.11764705882352941
sVlist
p1446
F0.058823529411764705
sVT-FLOAT
p1447
F0.058823529411764705
sVwhich
p1448
F0.058823529411764705
sVin
p1449
F0.058823529411764705
sVclass-labels
p1450
F0.058823529411764705
sVoutput
p1451
F0.058823529411764705
sVthe
p1452
F0.17647058823529413
sVcorpus
p1453
F0.058823529411764705
sVbest
p1454
F0.058823529411764705
saa(lp1455
S'E03-102070'
p1456
a(dp1457
VT-INT
p1458
F0.5
sVT-FLOAT
p1459
F0.5
saa(lp1460
S'E03-102073'
p1461
a(dp1462
Vloosen
p1463
F0.02564102564102564
sValready
p1464
F0.02564102564102564
sVsignificantly
p1465
F0.02564102564102564
sVpointing
p1466
F0.02564102564102564
sVat
p1467
F0.02564102564102564
sVdifferent
p1468
F0.02564102564102564
sVfrom
p1469
F0.05128205128205128
sVaway
p1470
F0.02564102564102564
sg32
F0.02564102564102564
sVleast
p1471
F0.02564102564102564
sVremoval
p1472
F0.02564102564102564
sVT-INT
p1473
F0.02564102564102564
sVbetween
p1474
F0.02564102564102564
sVnodes
p1475
F0.02564102564102564
sVnoisy
p1476
F0.02564102564102564
sVmight
p1477
F0.02564102564102564
sVthem
p1478
F0.02564102564102564
sVseparate
p1479
F0.02564102564102564
sVremoves
p1480
F0.02564102564102564
sVbut
p1481
F0.02564102564102564
sVmeaning
p1482
F0.02564102564102564
sVties
p1483
F0.02564102564102564
sVT-FLOAT
p1484
F0.05128205128205128
sVareas
p1485
F0.02564102564102564
sg101
F0.05128205128205128
sVof
p1486
F0.07692307692307693
sVstep
p1487
F0.02564102564102564
sVwill
p1488
F0.02564102564102564
sg1108
F0.05128205128205128
sVthe
p1489
F0.07692307692307693
sVstrings
p1490
F0.02564102564102564
saa(lp1491
S'E03-102072'
p1492
a(dp1493
Vand
p1494
F0.019230769230769232
sV``
p1495
F0.019230769230769232
sV''
p1496
F0.019230769230769232
sVcluster
p1497
F0.019230769230769232
sVin
p1498
F0.057692307692307696
sVconsists
p1499
F0.019230769230769232
sVfind
p1500
F0.019230769230769232
sVbest
p1501
F0.019230769230769232
sVrelatively
p1502
F0.019230769230769232
sVni
p1503
F0.019230769230769232
sVT-INT
p1504
F0.057692307692307696
sVgraph
p1505
F0.038461538461538464
sVsince
p1506
F0.019230769230769232
sg32
F0.038461538461538464
sVto
p1507
F0.038461538461538464
sVneighbours
p1508
F0.057692307692307696
sVbuild
p1509
F0.019230769230769232
sVlocal
p1510
F0.019230769230769232
sVwe
p1511
F0.019230769230769232
sVonly
p1512
F0.019230769230769232
sVit
p1513
F0.019230769230769232
sVstep
p1514
F0.019230769230769232
sVT-FLOAT
p1515
F0.038461538461538464
sg5
F0.019230769230769232
sVsuffices
p1516
F0.019230769230769232
sVattempt
p1517
F0.019230769230769232
sVof
p1518
F0.07692307692307693
sViteration
p1519
F0.019230769230769232
sg258
F0.019230769230769232
sg1108
F0.057692307692307696
sVeach
p1520
F0.019230769230769232
sVsmall
p1521
F0.019230769230769232
sVthe
p1522
F0.09615384615384616
saa(lp1523
S'E03-102075'
p1524
a(dp1525
Vspecially
p1526
F0.04
sVdeveloped
p1527
F0.04
sVis
p1528
F0.04
sVusing
p1529
F0.08
sVtaxonomic
p1530
F0.04
sVwordnet
p1531
F0.04
sVfor
p1532
F0.04
sg57
F0.04
sg58
F0.04
sg32
F0.04
sVT-INT
p1533
F0.04
sVstep
p1534
F0.04
sVpurpose
p1535
F0.04
sVrobust
p1536
F0.04
sVT-FLOAT
p1537
F0.04
sVstructure
p1538
F0.04
sg5
F0.04
sValgorithm
p1539
F0.04
sVthis
p1540
F0.04
sVof
p1541
F0.04
sVclass-labelling
p1542
F0.04
sVaccomplished
p1543
F0.04
sVthe
p1544
F0.08
saa(lp1545
S'E03-102074'
p1546
a(dp1547
Vrestriction
p1548
F0.02127659574468085
sValready
p1549
F0.02127659574468085
sVoften
p1550
F0.02127659574468085
sVsimple
p1551
F0.02127659574468085
sVcorresponds
p1552
F0.02127659574468085
sVcluster
p1553
F0.02127659574468085
sVco-occur
p1554
F0.02127659574468085
sVat
p1555
F0.02127659574468085
sVin
p1556
F0.06382978723404255
sVour
p1557
F0.02127659574468085
sVextracted
p1558
F0.02127659574468085
sVany
p1559
F0.02127659574468085
sVbased
p1560
F0.02127659574468085
sVT-INT
p1561
F0.02127659574468085
sg57
F0.02127659574468085
sVgraph
p1562
F0.0425531914893617
sg32
F0.02127659574468085
sVleast
p1563
F0.02127659574468085
sVto
p1564
F0.02127659574468085
sVunder
p1565
F0.02127659574468085
sVnew
p1566
F0.02127659574468085
sVnodes
p1567
F0.02127659574468085
sVrebuilding
p1568
F0.02127659574468085
sVthat
p1569
F0.02127659574468085
sVvery
p1570
F0.02127659574468085
sVlists
p1571
F0.02127659574468085
sVstep
p1572
F0.02127659574468085
sVmembers
p1573
F0.02127659574468085
sVnot
p1574
F0.0425531914893617
sVwith
p1575
F0.02127659574468085
sVmodel
p1576
F0.02127659574468085
sVon
p1577
F0.02127659574468085
sVnoun
p1578
F0.02127659574468085
sVof
p1579
F0.02127659574468085
sVor
p1580
F0.02127659574468085
sVT-FLOAT
p1581
F0.02127659574468085
sg58
F0.02127659574468085
sVthe
p1582
F0.10638297872340426
sVco-occurrences
p1583
F0.02127659574468085
saa(lp1584
S'E03-102077'
p1585
a(dp1586
Vdescribed
p1587
F0.07142857142857142
sVfamily
p1588
F0.07142857142857142
sg57
F0.07142857142857142
sVof
p1589
F0.07142857142857142
sVis
p1590
F0.07142857142857142
sg32
F0.07142857142857142
sVwiddows
p1591
F0.07142857142857142
sVT-INT
p1592
F0.07142857142857142
sValgorithms
p1593
F0.07142857142857142
sg58
F0.07142857142857142
sVin
p1594
F0.07142857142857142
sVsuch
p1595
F0.07142857142857142
sVthe
p1596
F0.07142857142857142
sVT-FLOAT
p1597
F0.07142857142857142
saa(lp1598
S'E03-102076'
p1599
a(dp1600
Vand
p1601
F0.038461538461538464
sVsubsumes
p1602
F0.038461538461538464
sVmembers
p1603
F0.038461538461538464
sVclass-label
p1604
F0.038461538461538464
sVchosen
p1605
F0.038461538461538464
sVmany
p1606
F0.038461538461538464
sVis
p1607
F0.038461538461538464
sVtree
p1608
F0.038461538461538464
sVpossible
p1609
F0.07692307692307693
sVclosely
p1610
F0.038461538461538464
sVcluster
p1611
F0.038461538461538464
sVas
p1612
F0.19230769230769232
sVdoes
p1613
F0.038461538461538464
sVso
p1614
F0.038461538461538464
sVwhich
p1615
F0.038461538461538464
sVin
p1616
F0.038461538461538464
sVtaxonomic
p1617
F0.038461538461538464
sVthe
p1618
F0.07692307692307693
sVhypemym
p1619
F0.038461538461538464
sVT-FLOAT
p1620
F0.038461538461538464
saa(lp1621
S'E03-102048'
p1622
a(dp1623
Vambiguous
p1624
F0.047619047619047616
sVsenses
p1625
F0.047619047619047616
sVclosely
p1626
F0.047619047619047616
sVmetonymic
p1627
F0.047619047619047616
sVmetaphorical
p1628
F0.047619047619047616
sVof
p1629
F0.047619047619047616
sVthere
p1630
F0.047619047619047616
sVvariations
p1631
F0.047619047619047616
sVhowever
p1632
F0.047619047619047616
sVrelated
p1633
F0.047619047619047616
sg32
F0.047619047619047616
sVanother
p1634
F0.047619047619047616
sVare
p1635
F0.09523809523809523
sVwords
p1636
F0.047619047619047616
sVwhich
p1637
F0.047619047619047616
sVT-FLOAT
p1638
F0.047619047619047616
sVone
p1639
F0.047619047619047616
sVwith
p1640
F0.047619047619047616
sVor
p1641
F0.047619047619047616
sVmore
p1642
F0.047619047619047616
saa(lp1643
S'E03-102049'
p1644
a(dp1645
Vstrongly
p1646
F0.04
sVand
p1647
F0.04
sVare
p1648
F0.04
sVin
p1649
F0.04
sVdifferent
p1650
F0.08
sVwould
p1651
F0.04
sg32
F0.04
sVregions
p1652
F0.04
sVmore
p1653
F0.04
sVcoefficient
p1654
F0.04
sg5
F0.04
sVmeanings
p1655
F0.04
sVpower
p1656
F0.04
sVthat
p1657
F0.04
sVlump
p1658
F0.04
sVmeaning
p1659
F0.04
sVT-FLOAT
p1660
F0.04
sVcase
p1661
F0.04
sVof
p1662
F0.04
sVinterlinked
p1663
F0.04
sVtogether
p1664
F0.04
sg259
F0.04
sVsmall
p1665
F0.04
sVthe
p1666
F0.04
saa(lp1667
S'E03-102045'
p1668
a(dp1669
Vstrongly
p1670
F0.03125
sVand
p1671
F0.0625
sVas
p1672
F0.09375
sVsize
p1673
F0.03125
sVparameters
p1674
F0.03125
sVgraph
p1675
F0.03125
sVto
p1676
F0.03125
sVwhich
p1677
F0.03125
sVinput
p1678
F0.03125
sVlocal
p1679
F0.03125
sVmcl-algorithm
p1680
F0.03125
sVmcl
p1681
F0.03125
sVexpansion
p1682
F0.03125
sVinflation
p1683
F0.03125
sVT-FLOAT
p1684
F0.03125
sVon
p1685
F0.03125
sVof
p1686
F0.0625
sg256
F0.03125
sVwell
p1687
F0.03125
sVdepends
p1688
F0.03125
sVserves
p1689
F0.03125
sg259
F0.03125
sVoutput
p1690
F0.03125
sVthe
p1691
F0.15625
saa(lp1692
S'E03-102046'
p1693
a(dp1694
Von
p1695
F0.047619047619047616
sg259
F0.047619047619047616
sVdepend
p1696
F0.047619047619047616
sVto
p1697
F0.047619047619047616
sVambiguous
p1698
F0.047619047619047616
sVbe
p1699
F0.047619047619047616
sVof
p1700
F0.047619047619047616
sVeter
p1701
F0.047619047619047616
sVparam
p1702
F0.047619047619047616
sVchoice
p1703
F0.047619047619047616
sVT-INT
p1704
F0.047619047619047616
sVappropriate
p1705
F0.047619047619047616
sVinflation
p1706
F0.047619047619047616
sVcan
p1707
F0.047619047619047616
sg1108
F0.047619047619047616
sVclustered
p1708
F0.047619047619047616
sVword
p1709
F0.047619047619047616
sVthe
p1710
F0.09523809523809523
sVan
p1711
F0.047619047619047616
sVT-FLOAT
p1712
F0.047619047619047616
saa(lp1713
S'E03-102047'
p1714
a(dp1715
Vcase
p1716
F0.07142857142857142
sg5
F0.07142857142857142
sVwould
p1717
F0.07142857142857142
sVbe
p1718
F0.07142857142857142
sVof
p1719
F0.07142857142857142
sg32
F0.07142857142857142
sVappropriate
p1720
F0.07142857142857142
sVinflation
p1721
F0.07142857142857142
sVin
p1722
F0.07142857142857142
sVsmall
p1723
F0.07142857142857142
sVT-FLOAT
p1724
F0.07142857142857142
sg259
F0.07142857142857142
sVparameter
p1725
F0.07142857142857142
sVhomonymy
p1726
F0.07142857142857142
saa(lp1727
S'E03-102042'
p1728
a(dp1729
Vand
p1730
F0.024390243902439025
sVless
p1731
F0.024390243902439025
sVvi
p1732
F0.024390243902439025
sVsupported
p1733
F0.024390243902439025
sVare
p1734
F0.024390243902439025
sVfurther
p1735
F0.024390243902439025
sVmatrix
p1736
F0.024390243902439025
sVT-INT
p1737
F0.024390243902439025
sVsum
p1738
F0.024390243902439025
sg32
F0.024390243902439025
sVto
p1739
F0.04878048780487805
sVneighbours
p1740
F0.024390243902439025
sVthen
p1741
F0.024390243902439025
sVpower
p1742
F0.024390243902439025
sVthat
p1743
F0.024390243902439025
sVstep
p1744
F0.024390243902439025
sVinflation
p1745
F0.04878048780487805
sVrescales
p1746
F0.024390243902439025
sVentries
p1747
F0.024390243902439025
sVthe
p1748
F0.0975609756097561
sVtakes
p1749
F0.024390243902439025
sg5
F0.024390243902439025
sVr-th
p1750
F0.024390243902439025
sVcolumn
p1751
F0.024390243902439025
sVof
p1752
F0.024390243902439025
sVones
p1753
F0.024390243902439025
sVso
p1754
F0.024390243902439025
sVeach
p1755
F0.04878048780487805
sVpopular
p1756
F0.04878048780487805
sVentry
p1757
F0.024390243902439025
sVT-FLOAT
p1758
F0.04878048780487805
sVexpense
p1759
F0.024390243902439025
sVat
p1760
F0.024390243902439025
saa(lp1761
S'E03-102043'
p1762
a(dp1763
Vconcentrated
p1764
F0.06666666666666667
sVboth
p1765
F0.06666666666666667
sVand
p1766
F0.06666666666666667
sVdense
p1767
F0.06666666666666667
sVgraph
p1768
F0.06666666666666667
sVis
p1769
F0.06666666666666667
sVwithin
p1770
F0.06666666666666667
sVflow
p1771
F0.06666666666666667
sVexpansion
p1772
F0.06666666666666667
sVregions
p1773
F0.06666666666666667
sVT-FLOAT
p1774
F0.06666666666666667
sVinflation
p1775
F0.06666666666666667
sVin
p1776
F0.06666666666666667
sVthe
p1777
F0.06666666666666667
sVby
p1778
F0.06666666666666667
saa(lp1779
S'E03-102053'
p1780
a(dp1781
Vwe
p1782
F0.0625
sVright
p1783
F0.0625
sVoutline
p1784
F0.0625
sValgorithm
p1785
F0.0625
sVproblem
p1786
F0.0625
sg32
F0.0625
sVchoosing
p1787
F0.0625
sVan
p1788
F0.0625
sVT-FLOAT
p1789
F0.0625
sVbelow
p1790
F0.0625
sVwhich
p1791
F0.0625
sVof
p1792
F0.0625
sVcircumvents
p1793
F0.0625
sVparameters
p1794
F0.0625
sVthe
p1795
F0.125
saa(lp1796
S'E03-102052'
p1797
a(dp1798
g5
F0.047619047619047616
sVon
p1799
F0.047619047619047616
sVwe
p1800
F0.047619047619047616
sVnoise
p1801
F0.047619047619047616
sVget
p1802
F0.047619047619047616
sVgraph
p1803
F0.047619047619047616
sVis
p1804
F0.047619047619047616
sVof
p1805
F0.047619047619047616
sg32
F0.09523809523809523
sVhand
p1806
F0.047619047619047616
sVwill
p1807
F0.047619047619047616
sVother
p1808
F0.047619047619047616
sVtoo
p1809
F0.047619047619047616
sVlot
p1810
F0.047619047619047616
sVbig
p1811
F0.047619047619047616
sVthe
p1812
F0.09523809523809523
sVlocal
p1813
F0.047619047619047616
sVT-FLOAT
p1814
F0.047619047619047616
sVif
p1815
F0.047619047619047616
saa(lp1816
S'E03-102051'
p1817
a(dp1818
Vprocess
p1819
F0.04
sVover
p1820
F0.04
sVsome
p1821
F0.04
sVin
p1822
F0.04
sVmeanings
p1823
F0.04
sVmiss
p1824
F0.04
sVif
p1825
F0.04
sVgraph
p1826
F0.04
sg32
F0.04
sVhanded
p1827
F0.04
sVto
p1828
F0.04
sVcorpus
p1829
F0.04
sVmight
p1830
F0.04
sVis
p1831
F0.04
sVwe
p1832
F0.04
sVmcl
p1833
F0.04
sV's
p1834
F0.04
sVT-FLOAT
p1835
F0.04
sVof
p1836
F0.04
sVlocal
p1837
F0.04
sg1108
F0.04
sVsmall
p1838
F0.04
sVthe
p1839
F0.12
saa(lp1840
S'E03-102050'
p1841
a(dp1842
Vis
p1843
F0.045454545454545456
sVsense
p1844
F0.045454545454545456
sVan
p1845
F0.045454545454545456
sVin
p1846
F0.045454545454545456
sVits
p1847
F0.045454545454545456
sVmuch
p1848
F0.045454545454545456
sg32
F0.045454545454545456
sVthan
p1849
F0.045454545454545456
sVother
p1850
F0.045454545454545456
sVcorpus
p1851
F0.045454545454545456
sVmore
p1852
F0.045454545454545456
sVsenses
p1853
F0.045454545454545456
sVone
p1854
F0.045454545454545456
sVthe
p1855
F0.045454545454545456
sVpresent
p1856
F0.045454545454545456
sVambiguous
p1857
F0.045454545454545456
sVword
p1858
F0.045454545454545456
sVof
p1859
F0.045454545454545456
sg1108
F0.045454545454545456
sVusually
p1860
F0.045454545454545456
sVT-FLOAT
p1861
F0.045454545454545456
sVfrequent
p1862
F0.045454545454545456
saa(lp1863
S'E03-102057'
p1864
a(dp1865
Vand
p1866
F0.030303030303030304
sVset
p1867
F0.030303030303030304
sVfeatures
p1868
F0.06060606060606061
sVachieved
p1869
F0.030303030303030304
sVis
p1870
F0.030303030303030304
sVin
p1871
F0.030303030303030304
sVmanner
p1872
F0.030303030303030304
sVsense
p1873
F0.030303030303030304
sVT-FLOAT
p1874
F0.030303030303030304
sVclustering
p1875
F0.030303030303030304
sVfrom
p1876
F0.030303030303030304
sVfor
p1877
F0.030303030303030304
sVremoving
p1878
F0.030303030303030304
sVlin
p1879
F0.030303030303030304
sg32
F0.06060606060606061
sVto
p1880
F0.030303030303030304
sVfinding
p1881
F0.030303030303030304
sVapproach
p1882
F0.030303030303030304
sVused
p1883
F0.030303030303030304
sV's
p1884
F0.06060606060606061
sVwords
p1885
F0.030303030303030304
sVby
p1886
F0.030303030303030304
sg5
F0.030303030303030304
sVc
p1887
F0.030303030303030304
sVthis
p1888
F0.030303030303030304
sVof
p1889
F0.030303030303030304
sVpantel
p1890
F0.030303030303030304
sVthe
p1891
F0.030303030303030304
sVsimilar
p1892
F0.06060606060606061
saa(lp1893
S'E03-102056'
p1894
a(dp1895
Vgw
p1896
F0.07142857142857142
sVthen
p1897
F0.07142857142857142
sVwe
p1898
F0.07142857142857142
sVrecompute
p1899
F0.07142857142857142
sV's
p1900
F0.07142857142857142
sVfeatures
p1901
F0.07142857142857142
sVgraph
p1902
F0.07142857142857142
sg1887
F0.07142857142857142
sVagainst
p1903
F0.07142857142857142
sVdiscriminating
p1904
F0.07142857142857142
sVT-FLOAT
p1905
F0.07142857142857142
sVthe
p1906
F0.07142857142857142
sVlocal
p1907
F0.07142857142857142
sVby
p1908
F0.07142857142857142
saa(lp1909
S'E03-102055'
p1910
a(dp1911
Vprocess
p1912
F0.027777777777777776
sVcluster
p1913
F0.027777777777777776
sVin
p1914
F0.027777777777777776
sVfind
p1915
F0.027777777777777776
sg57
F0.027777777777777776
sg58
F0.027777777777777776
sg32
F0.05555555555555555
sVto
p1916
F0.027777777777777776
sVonly
p1917
F0.027777777777777776
sVinstead
p1918
F0.027777777777777776
sVwe
p1919
F0.027777777777777776
sVdisctinctive
p1920
F0.027777777777777776
sVmost
p1921
F0.05555555555555555
sVstep
p1922
F0.027777777777777776
sVthe
p1923
F0.08333333333333333
sg1887
F0.027777777777777776
sg100
F0.027777777777777776
sg101
F0.027777777777777776
sVi
p1924
F0.027777777777777776
sVof
p1925
F0.08333333333333333
sViterative
p1926
F0.027777777777777776
sVmeaning
p1927
F0.027777777777777776
sVtry
p1928
F0.027777777777777776
sg1108
F0.05555555555555555
sVeach
p1929
F0.027777777777777776
sVdistinctive
p1930
F0.027777777777777776
sVT-FLOAT
p1931
F0.08333333333333333
saa(lp1932
S'E03-102054'
p1933
a(dp1934
Vclustering
p1935
F0.08695652173913043
sVdo
p1936
F0.043478260869565216
sVwe
p1937
F0.043478260869565216
sVsenses
p1938
F0.043478260869565216
sVcomplete
p1939
F0.043478260869565216
sg101
F0.043478260869565216
sVtry
p1940
F0.043478260869565216
sVinto
p1941
F0.043478260869565216
sVof
p1942
F0.043478260869565216
sg32
F0.043478260869565216
sVn't
p1943
F0.043478260869565216
sVto
p1944
F0.08695652173913043
sVT-FLOAT
p1945
F0.043478260869565216
sg5
F0.043478260869565216
sVpure
p1946
F0.043478260869565216
sVin
p1947
F0.043478260869565216
sVmarkov
p1948
F0.043478260869565216
sVonce
p1949
F0.043478260869565216
sVfind
p1950
F0.043478260869565216
sVcontrast
p1951
F0.043478260869565216
sVat
p1952
F0.043478260869565216
saa(lp1953
S'E03-102059'
p1954
a(dp1955
Vand
p1956
F0.03125
sVset
p1957
F0.03125
sVfeatures
p1958
F0.03125
sVsense
p1959
F0.03125
sg32
F0.0625
sVclusters
p1960
F0.03125
sVempty
p1961
F0.03125
sVbe
p1962
F0.0625
sV's
p1963
F0.03125
sVinitially
p1964
F0.03125
sVlet
p1965
F0.0625
sVT-FLOAT
p1966
F0.09375
sg5
F0.03125
sg100
F0.03125
sValgorithm
p1967
F0.03125
sg1148
F0.03125
sg1924
F0.03125
sVof
p1968
F0.09375
sVlist
p1969
F0.03125
sg1059
F0.03125
sg1108
F0.03125
sVoutput
p1970
F0.03125
sVthe
p1971
F0.09375
saa(lp1972
S'E03-102058'
p1973
a(dp1974
Vand
p1975
F0.04
sVset
p1976
F0.04
sVfeatures
p1977
F0.04
sVsimilarity
p1978
F0.04
sVprocess
p1979
F0.04
sVis
p1980
F0.08
sVthreshold
p1981
F0.04
sVits
p1982
F0.04
sVbest
p1983
F0.04
sVif
p1984
F0.04
sVunder
p1985
F0.04
sVbetween
p1986
F0.04
sVneighbour
p1987
F0.04
sVthe
p1988
F0.12
sg5
F0.04
sVof
p1989
F0.04
sVbelow
p1990
F0.04
sVstopped
p1991
F0.04
sg1108
F0.04
sVT-FLOAT
p1992
F0.04
sVfixed
p1993
F0.04
sVreduced
p1994
F0.04
saa(lp1995
S'E03-102026'
p1996
a(dp1997
VT-INT
p1998
F0.5
sVT-FLOAT
p1999
F0.25
sg249
F0.125
sV=p
p2000
F0.125
saa(lp2001
S'E03-102024'
p2002
a(dp2003
Vneighbors
p2004
F0.047619047619047616
sVbe
p2005
F0.047619047619047616
sVwe
p2006
F0.047619047619047616
sVword
p2007
F0.047619047619047616
sg58
F0.047619047619047616
sVtop
p2008
F0.047619047619047616
sVcf
p2009
F0.047619047619047616
sg258
F0.09523809523809523
sVby
p2010
F0.047619047619047616
sVto
p2011
F0.047619047619047616
sVdetermined
p2012
F0.047619047619047616
sVlink
p2013
F0.047619047619047616
sVcan
p2014
F0.047619047619047616
sVT-FLOAT
p2015
F0.047619047619047616
sVeach
p2016
F0.047619047619047616
sVinstead
p2017
F0.047619047619047616
sVthe
p2018
F0.047619047619047616
sVwhere
p2019
F0.047619047619047616
sVits
p2020
F0.047619047619047616
sVuser
p2021
F0.047619047619047616
saa(lp2022
S'E03-102025'
p2023
a(dp2024
g57
F0.25
sVT-INT
p2025
F0.25
sVsection
p2026
F0.25
sVT-FLOAT
p2027
F0.25
saa(lp2028
S'E03-102022'
p2029
a(dp2030
Vset
p2031
F0.041666666666666664
sVfeatures
p2032
F0.041666666666666664
sVsimilarity
p2033
F0.041666666666666664
sVsense
p2034
F0.041666666666666664
sVas
p2035
F0.041666666666666664
sVmeasure
p2036
F0.041666666666666664
sVany
p2037
F0.08333333333333333
sVclustering
p2038
F0.041666666666666664
sVbased
p2039
F0.041666666666666664
sVto
p2040
F0.041666666666666664
sVbe
p2041
F0.041666666666666664
sVoutlined
p2042
F0.041666666666666664
sVthe
p2043
F0.041666666666666664
sVapplied
p2044
F0.041666666666666664
sVon
p2045
F0.041666666666666664
sVkind
p2046
F0.041666666666666664
sVword
p2047
F0.041666666666666664
sValgorithm
p2048
F0.041666666666666664
sVof
p2049
F0.08333333333333333
sVbelow
p2050
F0.041666666666666664
sVcan
p2051
F0.041666666666666664
sVT-FLOAT
p2052
F0.041666666666666664
saa(lp2053
S'E03-102023'
p2054
a(dp2055
Vcutoff
p2056
F0.05555555555555555
sVfunctions
p2057
F0.05555555555555555
sVbecause
p2058
F0.05555555555555555
sVproved
p2059
F0.05555555555555555
sVto
p2060
F0.05555555555555555
sVunsatisfactory
p2061
F0.05555555555555555
sVof
p2062
F0.05555555555555555
sVgive
p2063
F0.05555555555555555
sVT-INT
p2064
F0.05555555555555555
sVsi
p2065
F0.05555555555555555
sVbias
p2066
F0.05555555555555555
sVT-FLOAT
p2067
F0.05555555555555555
sVthey
p2068
F0.05555555555555555
sVmple
p2069
F0.05555555555555555
sVwords
p2070
F0.05555555555555555
sVthe
p2071
F0.05555555555555555
sVfrequent
p2072
F0.05555555555555555
sVmore
p2073
F0.05555555555555555
saa(lp2074
S'E03-102020'
p2075
a(dp2076
Vand
p2077
F0.044444444444444446
sVthem
p2078
F0.022222222222222223
sVwiddows
p2079
F0.022222222222222223
sVtwo
p2080
F0.022222222222222223
sVgraph
p2081
F0.022222222222222223
sVhave
p2082
F0.022222222222222223
sVin
p2083
F0.06666666666666667
sVco-occur
p2084
F0.022222222222222223
sVT-FLOAT
p2085
F0.022222222222222223
sVif
p2086
F0.022222222222222223
sVgiven
p2087
F0.022222222222222223
sg57
F0.022222222222222223
sg58
F0.022222222222222223
sg32
F0.044444444444444446
sVT-INT
p2088
F0.044444444444444446
sVbuild
p2089
F0.022222222222222223
sVwhich
p2090
F0.022222222222222223
sVbetween
p2091
F0.022222222222222223
sVnodes
p2092
F0.022222222222222223
sVmethod
p2093
F0.022222222222222223
sVmore
p2094
F0.022222222222222223
sVnode
p2095
F0.022222222222222223
sVwe
p2096
F0.022222222222222223
sVlists
p2097
F0.022222222222222223
sVnumber
p2098
F0.022222222222222223
sVthey
p2099
F0.022222222222222223
sVan
p2100
F0.022222222222222223
sVthan
p2101
F0.022222222222222223
sg5
F0.06666666666666667
sVrepresents
p2102
F0.022222222222222223
sVnoun
p2103
F0.022222222222222223
sVdorow
p2104
F0.022222222222222223
sVof
p2105
F0.022222222222222223
sVtimes
p2106
F0.022222222222222223
sVedge
p2107
F0.022222222222222223
sVeach
p2108
F0.022222222222222223
sVfollowing
p2109
F0.022222222222222223
sVthe
p2110
F0.022222222222222223
saa(lp2111
S'E03-102021'
p2112
a(dp2113
Vand
p2114
F0.030303030303030304
sVis
p2115
F0.030303030303030304
sVverb-subject
p2116
F0.030303030303030304
sVit
p2117
F0.030303030303030304
sVare
p2118
F0.030303030303030304
sVfrom
p2119
F0.030303030303030304
sVgraph
p2120
F0.030303030303030304
sVlin
p2121
F0.030303030303030304
sVcurrently
p2122
F0.030303030303030304
sg32
F0.06060606060606061
sVto
p2123
F0.030303030303030304
sVwhich
p2124
F0.030303030303030304
sVinfer
p2125
F0.030303030303030304
sVmore
p2126
F0.030303030303030304
sVwe
p2127
F0.030303030303030304
sVsenses
p2128
F0.030303030303030304
sV's
p2129
F0.030303030303030304
sVpossible
p2130
F0.030303030303030304
sVwords
p2131
F0.030303030303030304
sVwith
p2132
F0.030303030303030304
sVT-FLOAT
p2133
F0.030303030303030304
sVverb-object
p2134
F0.030303030303030304
sg5
F0.030303030303030304
sVabout
p2135
F0.030303030303030304
sVpolysemous
p2136
F0.030303030303030304
sVsystematically
p2137
F0.030303030303030304
sVof
p2138
F0.030303030303030304
sVwork
p2139
F0.030303030303030304
sVfollowing
p2140
F0.030303030303030304
sVinvestigating
p2141
F0.030303030303030304
sVthe
p2142
F0.030303030303030304
sVmodifier-noun-collocations
p2143
F0.030303030303030304
saa(lp2144
S'E03-102028'
p2145
a(dp2146
Vand
p2147
F0.030303030303030304
sVwords
p2148
F0.030303030303030304
sVrelated
p2149
F0.030303030303030304
sVrat
p2150
F0.030303030303030304
sVare
p2151
F0.06060606060606061
sVin
p2152
F0.030303030303030304
sVmouse
p2153
F0.030303030303030304
sVdifferent
p2154
F0.06060606060606061
sg32
F0.030303030303030304
sVto
p2155
F0.030303030303030304
sVclosely
p2156
F0.030303030303030304
sVprinter
p2157
F0.030303030303030304
sVmeanings
p2158
F0.030303030303030304
sVboth
p2159
F0.030303030303030304
sVvery
p2160
F0.030303030303030304
sVbut
p2161
F0.030303030303030304
sVmeaning
p2162
F0.06060606060606061
sVlink
p2163
F0.030303030303030304
sVthey
p2164
F0.030303030303030304
sVareas
p2165
F0.030303030303030304
sVambiguous
p2166
F0.030303030303030304
sg100
F0.030303030303030304
sg101
F0.030303030303030304
sVof
p2167
F0.06060606060606061
sVunrelated
p2168
F0.030303030303030304
sVT-FLOAT
p2169
F0.09090909090909091
sVotherwise
p2170
F0.030303030303030304
saa(lp2171
S'E03-102029'
p2172
a(dp2173
Vand
p2174
F0.025
sVfigure
p2175
F0.025
sVinto
p2176
F0.025
sVsense
p2177
F0.025
sVtwo
p2178
F0.025
sVillustrated
p2179
F0.025
sVin
p2180
F0.025
sVelectronic
p2181
F0.025
sVits
p2182
F0.05
sVif
p2183
F0.025
sVfrom
p2184
F0.025
sVrepresenting
p2185
F0.05
sg32
F0.075
sVT-INT
p2186
F0.025
sVparts
p2187
F0.025
sVmouse
p2188
F0.025
sVanimal
p2189
F0.025
sVlocal
p2190
F0.025
sVwe
p2191
F0.025
sVhowever
p2192
F0.025
sVmeaning
p2193
F0.025
sVdevice
p2194
F0.025
sVone
p2195
F0.05
sVdecomposes
p2196
F0.025
sVT-FLOAT
p2197
F0.025
sVmouse-node
p2198
F0.025
sVof
p2199
F0.025
sVremove
p2200
F0.025
sVgraph
p2201
F0.05
sVthe
p2202
F0.1
sVother
p2203
F0.025
saa.