(dp0
Vall
p1
F3.9318256327243257
sVcode
p2
F3.258096538021482
sVillustrates
p3
F3.9318256327243257
sVresults
p4
F3.9318256327243257
sVexisting
p5
F3.258096538021482
sVexpressions
p6
F2.833213344056216
sVproducing
p7
F3.9318256327243257
sVdeterministic
p8
F3.258096538021482
sVlanguages
p9
F2.5649493574615367
sVto
p10
F1.0986122886681098
sVunder
p11
F2.833213344056216
sVinclude
p12
F3.9318256327243257
sVstring
p13
F2.833213344056216
sVadvantage
p14
F3.9318256327243257
sVvery
p15
F3.258096538021482
sVvoid
p16
F3.9318256327243257
sVresult-
p17
F3.9318256327243257
sVevery
p18
F3.258096538021482
sVentries
p19
F3.258096538021482
sVcategories
p20
F3.9318256327243257
sVinternally
p21
F3.9318256327243257
sVcheck_word
p22
F3.9318256327243257
sVcause
p23
F3.9318256327243257
sVgui
p24
F3.9318256327243257
sVlarge
p25
F2.833213344056216
sVtransductions
p26
F3.9318256327243257
sVportable
p27
F3.9318256327243257
sV//divvun
p28
F3.9318256327243257
sVlicensed
p29
F3.9318256327243257
sVbeforementioned
p30
F3.9318256327243257
sVsecond
p31
F3.258096538021482
sVperspective
p32
F3.9318256327243257
sVimplemented
p33
F3.9318256327243257
sVmachines
p34
F2.833213344056216
sV-bit
p35
F3.9318256327243257
sVspecification
p36
F3.9318256327243257
sVaccess
p37
F3.9318256327243257
sVabove
p38
F3.258096538021482
sVautomata/transducers
p39
F3.258096538021482
sV;
p40
F2.1972245773362196
sVmethod
p41
F3.9318256327243257
sVcompilers
p42
F3.9318256327243257
sVascii-based
p43
F3.9318256327243257
sVprocessing
p44
F3.258096538021482
sVcompilation
p45
F3.9318256327243257
sVhere
p46
F3.9318256327243257
sVoperating
p47
F3.9318256327243257
sVothers
p48
F3.9318256327243257
sVlex
p49
F3.9318256327243257
sVpath
p50
F3.9318256327243257
sVquite
p51
F3.258096538021482
sVfsm_kleene_plus
p52
F3.9318256327243257
sVskyrocket
p53
F3.9318256327243257
sV{
p54
F3.9318256327243257
sVautomaton
p55
F3.9318256327243257
sVmakes
p56
F3.9318256327243257
sVpathological
p57
F3.9318256327243257
sVuseful
p58
F3.258096538021482
sVwin
p59
F3.9318256327243257
sVlogical
p60
F2.833213344056216
sVapi
p61
F2.1972245773362196
sVprintf
p62
F3.9318256327243257
sVregex
p63
F2.833213344056216
sVuse
p64
F2.3978952727983707
sVfrom
p65
F2.1972245773362196
sVwould
p66
F3.9318256327243257
sV&
p67
F3.9318256327243257
sVcontains
p68
F3.9318256327243257
sVoptimize
p69
F3.9318256327243257
sVautomata
p70
F1.9459101490553132
sVtaken
p71
F3.9318256327243257
sVtype
p72
F3.9318256327243257
sV``
p73
F2.833213344056216
sVon
p74
F2.833213344056216
sVoperators
p75
F2.833213344056216
sVit
p76
F2.1972245773362196
sVnum_matches
p77
F3.9318256327243257
sVcases
p78
F3.9318256327243257
sVeffort
p79
F3.9318256327243257
sVinvolve
p80
F3.9318256327243257
sVkeeping
p81
F3.9318256327243257
sVdefines
p82
F3.9318256327243257
sVlanguage
p83
F2.0794415416798357
sVthis
p84
F2.1972245773362196
sVwork
p85
F3.9318256327243257
sVremain
p86
F3.9318256327243257
sVcan
p87
F2.833213344056216
sVcontainment
p88
F3.9318256327243257
sVfollowing
p89
F3.9318256327243257
sVT-FLOAT
p90
F0.6931471805599453
sVexample
p91
F3.9318256327243257
sVn-tapetransductions
p92
F3.9318256327243257
sVpurposes
p93
F3.258096538021482
sVwidecoverage
p94
F3.9318256327243257
sVstates
p95
F3.258096538021482
sVspell-checkers
p96
F3.9318256327243257
sVincremental
p97
F3.9318256327243257
sVtimes
p98
F3.9318256327243257
sVoccur
p99
F3.9318256327243257
sVtransducers
p100
F2.833213344056216
sVtransduction
p101
F2.833213344056216
sVcompatible
p102
F3.9318256327243257
sVeducational
p103
F3.258096538021482
sVgoal
p104
F3.9318256327243257
sVdivided
p105
F3.9318256327243257
sVsnippet
p106
F3.9318256327243257
sVhow
p107
F3.9318256327243257
sVlowlevel
p108
F3.9318256327243257
sVinstead
p109
F3.258096538021482
sVproduct
p110
F3.9318256327243257
sVexpress
p111
F3.9318256327243257
sVarcs
p112
F3.9318256327243257
sVmay
p113
F3.258096538021482
sVminimized
p114
F3.9318256327243257
sVapplications
p115
F3.258096538021482
sVmac
p116
F3.9318256327243257
sVdesigned
p117
F3.9318256327243257
sVsuch
p118
F2.1972245773362196
sVminimizes
p119
F3.9318256327243257
sVcompatibility
p120
F3.258096538021482
sVtypes
p121
F3.9318256327243257
sVa
p122
F1.0986122886681098
sVshort
p123
F3.9318256327243257
sVattempt
p124
F3.9318256327243257
sV*network
p125
F3.9318256327243257
sVlines
p126
F3.9318256327243257
sVperform
p127
F3.258096538021482
sValgorithms
p128
F2.5649493574615367
sVallow
p129
F3.9318256327243257
sVoperate
p130
F3.9318256327243257
sVoperations
p131
F3.258096538021482
sVwords
p132
F2.833213344056216
sVproduces
p133
F3.9318256327243257
sVover
p134
F3.258096538021482
sVmainly
p135
F3.9318256327243257
sVgraphviz
p136
F3.9318256327243257
sVincluding
p137
F3.9318256327243257
sVtwo-level
p138
F3.9318256327243257
sVmentioned
p139
F3.9318256327243257
sVmachine
p140
F2.833213344056216
sVencoding
p141
F3.258096538021482
sV,
p142
F1.0986122886681098
sVwriting
p143
F3.9318256327243257
sVsystems
p144
F3.9318256327243257
sVmain
p145
F3.258096538021482
sV<
p146
F3.9318256327243257
sVsomeone
p147
F3.9318256327243257
sVmatches
p148
F3.258096538021482
sVpractice
p149
F3.9318256327243257
sVframework
p150
F3.9318256327243257
sVhulden
p151
F3.9318256327243257
sVnot
p152
F2.5649493574615367
sVfsm_regex
p153
F3.9318256327243257
sVfully
p154
F3.9318256327243257
sVroutines
p155
F3.9318256327243257
sVl
p156
F3.9318256327243257
sVfsm_match
p157
F3.9318256327243257
sVentirely
p158
F3.9318256327243257
sVconstraints
p159
F3.9318256327243257
sVdirectly
p160
F3.258096538021482
sVconventions
p161
F3.9318256327243257
sVcombining
p162
F3.258096538021482
sVet
p163
F3.9318256327243257
sVoperation
p164
F3.9318256327243257
sVcalling
p165
F3.258096538021482
sVnetwork
p166
F3.258096538021482
sVresearch
p167
F3.258096538021482
sVreplacing
p168
F3.9318256327243257
sVdeterminization
p169
F3.9318256327243257
sVsupports
p170
F3.9318256327243257
sVshows
p171
F3.9318256327243257
sVmulti-mode
p172
F3.9318256327243257
sVdictionary
p173
F3.9318256327243257
sVfree
p174
F3.258096538021482
sVstandard
p175
F3.9318256327243257
sVgeared
p176
F3.9318256327243257
sVx
p177
F3.258096538021482
sVearliest
p178
F3.9318256327243257
sVlexc/xfst
p179
F3.9318256327243257
sVcare
p180
F3.9318256327243257
sVbackwards
p181
F3.9318256327243257
sVg
p182
F3.9318256327243257
sVwhere
p183
F3.258096538021482
sVcould
p184
F3.9318256327243257
sVprogramming
p185
F3.258096538021482
sVfsm_concat
p186
F3.9318256327243257
sVhence
p187
F3.9318256327243257
sVexistential
p188
F3.9318256327243257
sVdeterminizes
p189
F3.9318256327243257
sVfirst
p190
F3.9318256327243257
sVfsm_symbol
p191
F3.9318256327243257
sVnumber
p192
F3.9318256327243257
sVone
p193
F2.833213344056216
sVapproximately
p194
F3.9318256327243257
sVanother
p195
F3.9318256327243257
sVhorizontal
p196
F3.9318256327243257
sVillustrate
p197
F3.9318256327243257
sVgiven
p198
F3.9318256327243257
sVconstruct
p199
F2.833213344056216
sVneeded
p200
F3.9318256327243257
sVgives
p201
F3.9318256327243257
sVthat
p202
F1.6094379124341003
sVexactly
p203
F3.9318256327243257
sVnatural
p204
F3.258096538021482
sVthan
p205
F3.9318256327243257
sVkind
p206
F3.9318256327243257
sVb
p207
F3.9318256327243257
sVlikely
p208
F3.258096538021482
sVproject
p209
F3.9318256327243257
sVfuture
p210
F3.9318256327243257
sVaccessed
p211
F3.9318256327243257
sVproviding
p212
F3.9318256327243257
sVextracting
p213
F3.9318256327243257
sVand
p214
F0.6931471805599453
sVmultipurpose
p215
F3.258096538021482
sVexplicit
p216
F3.9318256327243257
sVmind
p217
F3.9318256327243257
sV*s
p218
F3.9318256327243257
sVhave
p219
F3.258096538021482
sVcumbersome
p220
F3.9318256327243257
sVfirst-order
p221
F3.258096538021482
sVbuilt
p222
F3.258096538021482
sVanalyzers
p223
F2.833213344056216
sVable
p224
F3.9318256327243257
sVinstance
p225
F3.9318256327243257
sVbuild
p226
F2.833213344056216
sVfinding
p227
F3.9318256327243257
sVwanting
p228
F3.9318256327243257
sVconcern
p229
F3.9318256327243257
sV=
p230
F2.833213344056216
sVbottlenecks
p231
F3.9318256327243257
sVthough
p232
F3.9318256327243257
sVcollaboration
p233
F3.9318256327243257
sVmost
p234
F3.9318256327243257
sVregular
p235
F2.0794415416798357
sVletter
p236
F3.9318256327243257
sVscripts
p237
F3.9318256327243257
sVretaining
p238
F3.9318256327243257
sVphonological
p239
F3.9318256327243257
sV*result
p240
F3.9318256327243257
sVso-called
p241
F3.9318256327243257
sVespecially
p242
F3.9318256327243257
sVaverage
p243
F3.9318256327243257
sV}
p244
F3.9318256327243257
sV+
p245
F3.9318256327243257
sVfact
p246
F3.258096538021482
sVlexicon
p247
F2.833213344056216
sVparticularly
p248
F3.9318256327243257
sVsupported
p249
F3.9318256327243257
sVfsm_t
p250
F3.9318256327243257
sVbuilds
p251
F3.9318256327243257
sVnetworks
p252
F3.258096538021482
sVprecedence
p253
F3.9318256327243257
sV(
p254
F1.6094379124341003
sVT-INT
p255
F1.0986122886681098
sVonly
p256
F3.9318256327243257
sVmeans
p257
F3.9318256327243257
sVcompiled
p258
F3.258096538021482
sVmorphological
p259
F2.5649493574615367
sVonel
p260
F3.9318256327243257
sVnearly
p261
F3.9318256327243257
sVclosely
p262
F3.9318256327243257
sVexpression/finite-state
p263
F3.9318256327243257
sVcompiler
p264
F2.5649493574615367
sVh
p265
F3.9318256327243257
sVpublic
p266
F3.258096538021482
sVdefault
p267
F3.258096538021482
sVthrough
p268
F2.833213344056216
sVfsm_match_result
p269
F3.9318256327243257
sVavailable
p270
F2.5649493574615367
sVconstructing
p271
F2.5649493574615367
sVexists
p272
F3.9318256327243257
sVusefulness
p273
F3.9318256327243257
sVtheoretic
p274
F3.9318256327243257
sVencouraged
p275
F3.9318256327243257
sVways
p276
F3.258096538021482
sVcurrently
p277
F3.9318256327243257
sVunions
p278
F3.9318256327243257
sVclasses
p279
F3.258096538021482
sVvarious
p280
F3.258096538021482
sVbetween
p281
F3.9318256327243257
sVreading
p282
F3.9318256327243257
sVdeterminizing
p283
F3.9318256327243257
sVwe
p284
F3.9318256327243257
sVability
p285
F3.258096538021482
sVvisualization
p286
F3.9318256327243257
sVcomplement
p287
F3.9318256327243257
sVhowever
p288
F3.9318256327243257
sVefficiency
p289
F3.258096538021482
sVinterface
p290
F3.258096538021482
sVcomparably
p291
F3.9318256327243257
sVboth
p292
F3.9318256327243257
sVc
p293
F2.5649493574615367
sVtoward
p294
F3.9318256327243257
sVlicense
p295
F3.258096538021482
sVmorphological/phonological
p296
F3.9318256327243257
sVmany
p297
F2.833213344056216
sVagainst
p298
F3.9318256327243257
sVs
p299
F3.9318256327243257
sVlogic
p300
F3.9318256327243257
sVexpression
p301
F2.5649493574615367
sVcomes
p302
F3.9318256327243257
sVexhibit
p303
F3.9318256327243257
sVlarge-scale
p304
F3.9318256327243257
sVreasons
p305
F3.9318256327243257
sVcontinuation
p306
F3.9318256327243257
sVfinite-state
p307
F2.0794415416798357
sVactive
p308
F3.9318256327243257
sVsimply
p309
F3.9318256327243257
sVlinux
p310
F3.9318256327243257
sVtable
p311
F3.9318256327243257
sVbeen
p312
F2.3978952727983707
sVreduction
p313
F3.9318256327243257
sVmuch
p314
F3.9318256327243257
sVkarttunen
p315
F3.9318256327243257
sV>
p316
F2.833213344056216
sVdramatic
p317
F3.9318256327243257
sVstems
p318
F3.9318256327243257
sVgeneral
p319
F2.833213344056216
sVchar
p320
F3.9318256327243257
sVexception
p321
F3.9318256327243257
sVexponential
p322
F3.258096538021482
sVgnu
p323
F3.258096538021482
sVthese
p324
F3.9318256327243257
sVwill
p325
F3.9318256327243257
sVlexical
p326
F3.258096538021482
sVbehavior
p327
F3.258096538021482
sVunicode-based
p328
F3.9318256327243257
sVis
p329
F1.0986122886681098
sVtoolkit
p330
F3.258096538021482
sVin
p331
F1.3862943611198906
sVprimitives
p332
F3.258096538021482
sVif
p333
F3.9318256327243257
sVresult
p334
F3.9318256327243257
sVdifferent
p335
F3.9318256327243257
sVperhaps
p336
F3.9318256327243257
sV)
p337
F1.6094379124341003
sVmake
p338
F3.9318256327243257
sVsame
p339
F3.9318256327243257
sVmember
p340
F3.9318256327243257
sVcomplex
p341
F3.9318256327243257
sVseveral
p342
F3.9318256327243257
sVdevelopment
p343
F3.9318256327243257
sVextended
p344
F3.9318256327243257
sVhttp
p345
F3.9318256327243257
sVconversion
p346
F3.9318256327243257
sVuses
p347
F3.9318256327243257
sVuser
p348
F3.9318256327243257
sVchanging
p349
F3.9318256327243257
sVlargely
p350
F3.9318256327243257
sVwhole
p351
F3.9318256327243257
sVwell
p352
F2.5649493574615367
sVpatterns
p353
F3.9318256327243257
sVwithout
p354
F3.258096538021482
sVenglish
p355
F3.9318256327243257
sVy
p356
F3.9318256327243257
sVposition
p357
F3.258096538021482
sVthe
p358
F0.6931471805599453
sVa+b+
p359
F3.9318256327243257
sVtraditions
p360
F3.9318256327243257
sVjust
p361
F3.9318256327243257
sVunderlying
p362
F3.258096538021482
sVunicode
p363
F3.9318256327243257
sVspeed
p364
F3.9318256327243257
sVlow-level
p365
F3.258096538021482
sVn-tape
p366
F3.9318256327243257
sValso
p367
F2.5649493574615367
sVseems
p368
F3.258096538021482
sVsource
p369
F3.258096538021482
sVusage
p370
F3.9318256327243257
sVhas
p371
F2.0794415416798357
sVmatch
p372
F3.9318256327243257
sVspellchecking
p373
F3.9318256327243257
sVformat
p374
F2.833213344056216
sVusing
p375
F3.9318256327243257
sVaccepted
p376
F3.9318256327243257
sVfollows
p377
F3.9318256327243257
sVperforming
p378
F3.9318256327243257
sVmanual
p379
F3.9318256327243257
sVspecific
p380
F3.9318256327243257
sVt
p381
F3.9318256327243257
sVexhaustively
p382
F3.9318256327243257
sVmethods
p383
F3.9318256327243257
sVsuccessfully
p384
F3.258096538021482
sVsome
p385
F2.3978952727983707
sVback
p386
F3.9318256327243257
sVlibrary
p387
F2.1972245773362196
sVb+
p388
F3.9318256327243257
sVgrowth
p389
F3.9318256327243257
sVexamples
p390
F3.9318256327243257
sVspecified
p391
F3.9318256327243257
sVmatching
p392
F2.833213344056216
sVprovided
p393
F3.9318256327243257
sVnondeterministic
p394
F3.9318256327243257
sVfor
p395
F1.3862943611198906
sVavoid
p396
F3.9318256327243257
sV/
p397
F3.9318256327243257
sVdoes
p398
F3.9318256327243257
sVexpressing
p399
F3.9318256327243257
sVstraightforward
p400
F3.9318256327243257
sVeither
p401
F3.9318256327243257
sVbe
p402
F2.3978952727983707
sVrun
p403
F3.9318256327243257
sVminimization
p404
F3.9318256327243257
sVextendibility
p405
F3.9318256327243257
sVequivalent
p406
F3.9318256327243257
sVfoma
p407
F1.0986122886681098
sVspell-checking
p408
F3.9318256327243257
sVby
p409
F2.3978952727983707
sVcomparison
p410
F3.9318256327243257
sVextension
p411
F3.9318256327243257
sVextending
p412
F3.9318256327243257
sVof
p413
F1.3862943611198906
sVpractical
p414
F3.9318256327243257
sVrange
p415
F3.9318256327243257
sVextensions
p416
F3.9318256327243257
sVos
p417
F3.9318256327243257
sVor
p418
F3.258096538021482
sVsoftware
p419
F3.258096538021482
sVprimitive
p420
F3.9318256327243257
sVstatements
p421
F3.9318256327243257
sVinto
p422
F3.9318256327243257
sVoften
p423
F3.9318256327243257
sVdescriptions
p424
F3.9318256327243257
sVsupport
p425
F2.5649493574615367
sVthere
p426
F3.258096538021482
sVlexc
p427
F2.833213344056216
sV:
p428
F2.5649493574615367
sVfunction
p429
F3.9318256327243257
sVnorth
p430
F3.9318256327243257
sVform
p431
F3.9318256327243257
sVbasic
p432
F3.258096538021482
sVbut
p433
F3.258096538021482
sVxerox/parc
p434
F2.5649493574615367
sVconstruction
p435
F2.833213344056216
sVline
p436
F3.9318256327243257
sVwith
p437
F1.3862943611198906
sVtoolkits
p438
F3.9318256327243257
sVwhether
p439
F3.9318256327243257
sVmaximum
p440
F3.9318256327243257
sVsami
p441
F3.9318256327243257
sVdistribution
p442
F3.9318256327243257
sVsimilar
p443
F3.9318256327243257
sVcertain
p444
F3.9318256327243257
sVal
p445
F3.9318256327243257
sVan
p446
F3.258096538021482
sV''
p447
F2.833213344056216
sVas
p448
F1.791759469228055
sVtransducers/automata
p449
F3.9318256327243257
sVexist
p450
F3.9318256327243257
sVat
p451
F3.258096538021482
sVfile
p452
F2.833213344056216
sVformalism
p453
F3.258096538021482
sVcheck
p454
F3.9318256327243257
sVare
p455
F2.0794415416798357
sVconstructed
p456
F3.9318256327243257
sVfunctions
p457
F2.833213344056216
sVno
p458
F3.9318256327243257
sVwhen
p459
F3.258096538021482
sVother
p460
F3.258096538021482
sVfunctionality
p461
F3.258096538021482
sVseparate
p462
F3.258096538021482
sVa+
p463
F3.9318256327243257
sVincludes
p464
F3.9318256327243257
sVimportant
p465
F3.9318256327243257
sVbuilding
p466
F3.258096538021482
sVe
p467
F3.9318256327243257
sVfsm
p468
F2.833213344056216
sVtime
p469
F3.9318256327243257
sVstarting
p470
F3.9318256327243257
s.