(lp0
(lp1
S'E09-200860'
p2
a(dp3
Vand
p4
F1.0
sVbe
p5
F1.0
sVfoma
p6
F1.0
sVrun
p7
F1.0
sVboth
p8
F1.0
sVthat
p9
F1.0
sVothers
p10
F1.0
sVxerox/parc
p11
F1.0
sVare
p12
F1.0
sVscripts
p13
F1.0
sVthe
p14
F1.0
sVon
p15
F1.0
sVT-FLOAT
p16
F1.0
sVcan
p17
F1.0
saa(lp18
S'E09-200829'
p19
a(dp20
Voperations
p21
F1.0
sVa
p22
F1.0
sVfoma
p23
F1.0
sVinternally
p24
F1.0
sVbuilt
p25
F1.0
sVthis
p26
F1.0
sVmany
p27
F1.0
sVin
p28
F1.0
sV,
p29
F1.0
sVlogical
p30
F1.0
sVto
p31
F1.0
sVreduction
p32
F1.0
sVcomplex
p33
F1.0
sVthrough
p34
F1.0
sVare
p35
F1.0
sVT-FLOAT
p36
F1.0
sVof
p37
F3.0
sVthe
p38
F1.0
sVtype
p39
F1.0
sVexpressions
p40
F1.0
sVfact
p41
F1.0
saa(lp42
S'E09-200828'
p43
a(dp44
Vand
p45
F1.0
sVuseful
p46
F1.0
sVbuilding
p47
F1.0
sVexists
p48
F1.0
sVis
p49
F1.0
sVsome
p50
F1.0
sVlogical
p51
F1.0
sVexist
p52
F1.0
sVin
p53
F3.0
sVT-FLOAT
p54
F2.0
sVexpression
p55
F1.0
sVoccur
p56
F1.0
sVdefines
p57
F1.0
sVlanguages
p58
F2.0
sVdifferent
p59
F1.0
sVwould
p60
F2.0
sVto
p61
F1.0
sVspecification
p62
F1.0
sVthere
p63
F2.0
sg29
F4.0
sVcumbersome
p64
F1.0
sVmember
p65
F1.0
sValso
p66
F1.0
sVdoes
p67
F1.0
sVabove
p68
F1.0
sVbe
p69
F2.0
sVstring
p70
F2.0
sVthat
p71
F3.0
sVvery
p72
F1.0
sVoperators
p73
F1.0
sVexpress
p74
F1.0
sVonel
p75
F1.0
sVquite
p76
F1.0
sVy
p77
F2.0
sVregular
p78
F2.0
sVposition
p79
F1.0
sVnot
p80
F1.0
sVsuch
p81
F2.0
sVwith
p82
F1.0
sVthan
p83
F1.0
sg22
F4.0
sVkind
p84
F1.0
sVfor
p85
F1.0
sVlanguage
p86
F2.0
sVthis
p87
F1.0
sVof
p88
F3.0
sVl
p89
F2.0
sVcan
p90
F1.0
sVhence
p91
F1.0
sVx
p92
F3.0
sVthe
p93
F3.0
sVother
p94
F1.0
sVwhere
p95
F1.0
sVexample
p96
F1.0
saa(lp97
S'E09-200849'
p98
a(dp99
Vprimitive
p100
F1.0
sVattempt
p101
F1.0
sVthis
p102
F1.0
sVsome
p103
F1.0
sVmind
p104
F1.0
sg29
F1.0
sVbeen
p105
F1.0
sVto
p106
F2.0
sVunderlying
p107
F1.0
sValgorithms
p108
F1.0
sVT-FLOAT
p109
F1.0
sVin
p110
F1.0
sVtaken
p111
F1.0
sVthe
p112
F1.0
sVhas
p113
F1.0
sVwith
p114
F1.0
sVoptimize
p115
F1.0
sVcare
p116
F1.0
saa(lp117
S'E09-200848'
p118
a(dp119
Vand
p120
F2.0
sVlexical
p121
F1.0
sVconstructing
p122
F1.0
sVis
p123
F1.0
sVcombining
p124
F1.0
sVit
p125
F1.0
sVunderlying
p126
F1.0
sVusefulness
p127
F1.0
sVin
p128
F1.0
sVT-FLOAT
p129
F1.0
sVconcern
p130
F1.0
sVfrom
p131
F1.0
sVavoid
p132
F1.0
sVextendibility
p133
F1.0
sVwhen
p134
F1.0
sg29
F3.0
sVbeen
p135
F1.0
sVto
p136
F2.0
sVthat
p137
F2.0
sVhas
p138
F1.0
sVcause
p139
F1.0
sVbottlenecks
p140
F1.0
sVtransducers
p141
F1.0
sVthough
p142
F1.0
sVcompilation
p143
F1.0
sVfoma
p144
F1.0
sVbut
p145
F1.0
sVefficiency
p146
F1.0
sVimportant
p147
F1.0
sVnot
p148
F1.0
sVwith
p149
F1.0
sVcompatibility
p150
F1.0
sg22
F1.0
sVmain
p151
F1.0
sVespecially
p152
F1.0
sVof
p153
F2.0
sVtimes
p154
F1.0
sVlarge
p155
F1.0
sValgorithms
p156
F1.0
sVcan
p157
F1.0
sVskyrocket
p158
F1.0
sVthe
p159
F2.0
sVperspective
p160
F1.0
saa(lp161
S'E09-200861'
p162
a(dp163
g22
F1.0
sVlexicon
p164
F1.0
sVlexc
p165
F1.0
sVdictionary
p166
F1.0
sVformat
p167
F1.0
sVis
p168
F1.0
sVentries
p169
F1.0
sVT-INT
p170
F1.0
sVfile
p171
F1.0
sVenglish
p172
F1.0
sVlex
p173
F1.0
sVthe
p174
F1.0
sVwith
p175
F1.0
sVT-FLOAT
p176
F2.0
saa(lp177
S'E09-200844'
p178
a(dp179
Vand
p180
F1.0
sVeducational
p181
F1.0
sVmethods
p182
F1.0
sVfor
p183
F2.0
sVof
p184
F1.0
sVis
p185
F1.0
sVthere
p186
F1.0
sVsome
p187
F1.0
sVpurposes
p188
F1.0
sg29
F1.0
sVto
p189
F1.0
sVautomata
p190
F1.0
sVconstruction
p191
F1.0
sValgorithms
p192
F1.0
sVT-FLOAT
p193
F1.0
sVbehavior
p194
F1.0
sVchanging
p195
F1.0
sVthe
p196
F2.0
sVsupport
p197
F1.0
sVillustrate
p198
F1.0
saa(lp199
S'E09-200845'
p200
a(dp201
Vand
p202
F1.0
sVoperation
p203
F1.0
sVfor
p204
F2.0
sVefficiency
p205
F1.0
sVdefault
p206
F1.0
sVT-FLOAT
p207
F1.0
sVfoma
p208
F1.0
sg29
F3.0
sVinstance
p209
F1.0
sVautomata
p210
F1.0
sVincremental
p211
F1.0
sVevery
p212
F1.0
sVnearly
p213
F1.0
sVbetween
p214
F1.0
sVminimizes
p215
F1.0
sVdeterminizes
p216
F1.0
sVby
p217
F1.0
sVreasons
p218
F1.0
saa(lp219
S'E09-200822'
p220
a(dp221
Vcomplement
p222
F1.0
sg29
F1.0
sV/
p223
F2.0
sVcontainment
p224
F1.0
sVT-FLOAT
p225
F2.0
sVoperators
p226
F1.0
saa(lp227
S'E09-200846'
p228
a(dp229
Voperations
p230
F1.0
sVproduct
p231
F1.0
sVdeterministic
p232
F1.0
sVunions
p233
F1.0
sVdefault
p234
F1.0
sVof
p235
F1.0
sVT-FLOAT
p236
F1.0
sVthat
p237
F1.0
sVautomata
p238
F2.0
sVproduces
p239
F1.0
sVmethod
p240
F1.0
sValso
p241
F1.0
sVas
p242
F1.0
sVconstruction
p243
F1.0
sVare
p244
F1.0
sVdirectly
p245
F1.0
sVsuch
p246
F1.0
sVthe
p247
F1.0
sVwith
p248
F1.0
sVby
p249
F1.0
sVconstructed
p250
F1.0
saa(lp251
S'E09-200841'
p252
a(dp253
Vregex
p254
F1.0
sV``
p255
F1.0
sVT-INT
p256
F1.0
sVmatches
p257
F1.0
sV(
p258
F1.0
sV''
p259
F1.0
sV)
p260
F1.0
sVprintf
p261
F1.0
sV;
p262
F1.0
sVT-FLOAT
p263
F1.0
saa(lp264
S'E09-200826'
p265
a(dp266
Vand
p267
F1.0
sVstatements
p268
F1.0
sVover
p269
F1.0
sVone
p270
F1.0
sVT-FLOAT
p271
F1.0
sVuse
p272
F1.0
sVT-INT
p273
F1.0
sg260
F1.0
sg258
F1.0
sVmake
p274
F1.0
sg29
F1.0
sVlanguages
p275
F1.0
sVto
p276
F2.0
sVis
p277
F1.0
sVability
p278
F1.0
sVform
p279
F1.0
sVfirst-order
p280
F1.0
sVhulden
p281
F1.0
sVsuch
p282
F1.0
sVthe
p283
F1.0
sg22
F1.0
sVextension
p284
F1.0
sVof
p285
F2.0
sVlogic
p286
F1.0
sVexistential
p287
F1.0
sVtransductions
p288
F1.0
saa(lp289
S'E09-200843'
p290
a(dp291
Vvisualization
p292
F1.0
sVeducational
p293
F1.0
sVbuilds
p294
F1.0
sVfor
p295
F1.0
sV&
p296
F1.0
sVof
p297
F1.0
sVsupport
p298
F1.0
sVfoma
p299
F1.0
sVuse
p300
F1.0
sVlibrary
p301
F1.0
sVit
p302
F1.0
sVthrough
p303
F1.0
sVat
p304
F1.0
sVgraphviz
p305
F1.0
sVthe
p306
F2.0
sVhas
p307
F1.0
sVT-FLOAT
p308
F1.0
sVmachines
p309
F1.0
sVt
p310
F1.0
saa(lp311
S'E09-200824'
p312
a(dp313
Vprecedence
p314
F1.0
sVseparate
p315
F1.0
sVlines
p316
F1.0
sVclasses
p317
F1.0
sVhorizontal
p318
F1.0
sVT-FLOAT
p319
F1.0
saa(lp320
S'E09-200840'
p321
a(dp322
g260
F1.0
sg258
F1.0
sVT-INT
p323
F2.0
sVresult-
p324
F1.0
sVnum_matches
p325
F1.0
sVT-FLOAT
p326
F1.0
sVif
p327
F1.0
sV>
p328
F2.0
saa(lp329
S'E09-200842'
p330
a(dp331
Vand
p332
F3.0
sVdevelopment
p333
F1.0
sVfsm_symbol
p334
F2.0
sVis
p335
F2.0
sVin
p336
F2.0
sV``
p337
F2.0
sVfsm_kleene_plus
p338
F2.0
sV''
p339
F2.0
sVbeforementioned
p340
F1.0
sVas
p341
F1.0
sVapi
p342
F1.0
sVinclude
p343
F1.0
sVhave
p344
F1.0
sVcombining
p345
F1.0
sVprimitives
p346
F1.0
sVexpressions
p347
F2.0
sVfsm_concat
p348
F1.0
sVspeed
p349
F1.0
sVnetworks
p350
F1.0
sVlow-level
p351
F2.0
sVregex
p352
F1.0
sVconversion
p353
F1.0
sVfrom
p354
F1.0
sVbuilt
p355
F1.0
sVlikely
p356
F1.0
sVT-INT
p357
F3.0
sg260
F6.0
sg258
F6.0
sVcurrently
p358
F1.0
sg29
F5.0
sVconstruct
p359
F1.0
sVby
p360
F1.0
sVmachine
p361
F1.0
sVto
p362
F3.0
sVfuture
p363
F1.0
sVfunctionality
p364
F1.0
sVabove
p365
F1.0
sVunder
p366
F1.0
sVinstead
p367
F2.0
sg262
F1.0
sV:
p368
F1.0
sV=
p369
F1.0
sVmaximum
p370
F1.0
sVfunction
p371
F1.0
sVtransduction
p372
F1.0
sVwe
p373
F1.0
sVmatching
p374
F1.0
sVreplacing
p375
F1.0
sV-bit
p376
F1.0
sVhere
p377
F1.0
sVregular
p378
F3.0
sVtransducers/automata
p379
F1.0
sVletter
p380
F1.0
sVactive
p381
F1.0
sVline
p382
F1.0
sVentirely
p383
F1.0
sVnetwork
p384
F2.0
sg22
F2.0
sVb
p385
F1.0
sVfor
p386
F1.0
sVof
p387
F2.0
sVcould
p388
F1.0
sVroutines
p389
F1.0
sVfsm
p390
F1.0
sVcalling
p391
F1.0
sVT-FLOAT
p392
F1.0
sVwithout
p393
F1.0
sVexpression
p394
F1.0
sVfollows
p395
F1.0
sVaccessed
p396
F1.0
sVthe
p397
F6.0
sV}
p398
F1.0
saa(lp399
S'E09-20081'
p400
a(dp401
g22
F1.0
sVand
p402
F2.0
sVc
p403
F1.0
sVfor
p404
F2.0
sVlanguage
p405
F1.0
sVis
p406
F1.0
sVfoma
p407
F1.0
sVprogramming
p408
F1.0
sg29
F2.0
sVlibrary
p409
F1.0
sVfinite-state
p410
F1.0
sVautomata
p411
F1.0
sVvarious
p412
F1.0
sVconstructing
p413
F1.0
sVuses
p414
F1.0
sVT-FLOAT
p415
F1.0
sVtransducers
p416
F1.0
sVcompiler
p417
F1.0
saa(lp418
S'E09-20082'
p419
a(dp420
Vand
p421
F1.0
sVmorphological
p422
F1.0
sVnatural
p423
F1.0
sVlanguage
p424
F1.0
sVfor
p425
F1.0
sVanalyzers
p426
F1.0
sVmany
p427
F1.0
sVsupport
p428
F1.0
sVprocessing
p429
F1.0
sVit
p430
F1.0
sVphonological
p431
F1.0
sVspecific
p432
F1.0
sVapplications
p433
F1.0
sVas
p434
F1.0
sVsuch
p435
F1.0
sVT-FLOAT
p436
F1.0
sVhas
p437
F1.0
sVproducing
p438
F1.0
saa(lp439
S'E09-20083'
p440
a(dp441
Vlargely
p442
F1.0
sVis
p443
F1.0
sVfoma
p444
F1.0
sVfinite-state
p445
F1.0
sVtoolkit
p446
F1.0
sVcompatible
p447
F1.0
sVxerox/parc
p448
F1.0
sVthe
p449
F1.0
sVwith
p450
F1.0
sVT-FLOAT
p451
F1.0
saa(lp452
S'E09-20085'
p453
a(dp454
Vand
p455
F2.0
sVconstructing
p456
F1.0
sVmultipurpose
p457
F1.0
sVprogramming
p458
F2.0
sVis
p459
F1.0
sVfinite-state
p460
F1.0
sVlibrary
p461
F1.0
sVas
p462
F2.0
sVtheoretic
p463
F1.0
sVwell
p464
F1.0
sVuse
p465
F1.0
sVfor
p466
F3.0
sVanalyzers
p467
F2.0
sVsupport
p468
F1.0
sVlexical
p469
F1.0
sg29
F5.0
sVresearch
p470
F1.0
sVlanguages
p471
F1.0
sVautomata
p472
F1.0
sVspellchecking
p473
F1.0
sVbuilding
p474
F1.0
sVfoma
p475
F1.0
sVapplications
p476
F1.0
sVregular
p477
F1.0
sVdesigned
p478
F1.0
sVexpression/finite-state
p479
F1.0
sVwith
p480
F1.0
sVcompiler
p481
F1.0
sg22
F1.0
sVlanguage
p482
F1.0
sVmorphological/phonological
p483
F1.0
sVexplicit
p484
F1.0
sVT-FLOAT
p485
F1.0
saa(lp486
S'E09-200835'
p487
a(dp488
Vcheck_word
p489
F1.0
sg260
F1.0
sg258
F1.0
sVvoid
p490
F1.0
sV*s
p491
F1.0
sVchar
p492
F1.0
sVT-INT
p493
F1.0
sV{
p494
F1.0
sVT-FLOAT
p495
F1.0
saa(lp496
S'E09-20088'
p497
a(dp498
Vand
p499
F2.0
sVn-tapetransductions
p500
F1.0
sVover
p501
F1.0
sVlogical
p502
F1.0
sVanother
p503
F1.0
sVformalism
p504
F1.0
sVn-tape
p505
F1.0
sVfirst-order
p506
F1.0
sVgoal
p507
F1.0
sVfor
p508
F2.0
sVbeen
p509
F1.0
sVlanguages
p510
F1.0
sVto
p511
F2.0
sVautomata
p512
F1.0
sVexpressing
p513
F1.0
sVhas
p514
F1.0
sVability
p515
F1.0
sVregular
p516
F1.0
sVwith
p517
F1.0
sVT-FLOAT
p518
F1.0
sg22
F1.0
sVwork
p519
F1.0
sVallow
p520
F1.0
sVthe
p521
F1.0
sVconstraints
p522
F1.0
saa(lp523
S'E09-20089'
p524
a(dp525
Vand
p526
F1.0
sVcode
p527
F1.0
sVtraditions
p528
F1.0
sVis
p529
F1.0
sVlibrary
p530
F1.0
sVlicensed
p531
F1.0
sVexamples
p532
F1.0
sVin
p533
F1.0
sVT-FLOAT
p534
F1.0
sg29
F1.0
sVsource
p535
F1.0
sVunder
p536
F1.0
sg368
F1.0
sVpublic
p537
F1.0
sVthat
p538
F1.0
sVfoma
p539
F1.0
sVfree
p540
F1.0
sVincludes
p541
F1.0
sVuser
p542
F1.0
sVgeneral
p543
F1.0
sVwith
p544
F2.0
sVthe
p545
F3.0
sg22
F2.0
sVkeeping
p546
F1.0
sVlicense
p547
F1.0
sVgnu
p548
F1.0
sVof
p549
F2.0
sVmanual
p550
F1.0
sVdistribution
p551
F1.0
sVcomes
p552
F1.0
sVsoftware
p553
F1.0
saa(lp554
S'E09-200836'
p555
a(dp556
VT-INT
p557
F1.0
sg262
F1.0
sV*network
p558
F1.0
sVT-FLOAT
p559
F1.0
sVfsm_t
p560
F1.0
saa(lp561
S'E09-200837'
p562
a(dp563
VT-INT
p564
F1.0
sV*result
p565
F1.0
sVfsm_match_result
p566
F1.0
sg262
F1.0
sVT-FLOAT
p567
F1.0
saa(lp568
S'E09-200858'
p569
a(dp570
Vand
p571
F1.0
sVexhibit
p572
F1.0
sVshort
p573
F1.0
sVexponential
p574
F1.0
sVthat
p575
F1.0
sVT-FLOAT
p576
F1.0
sVsecond
p577
F1.0
sVregular
p578
F1.0
sVare
p579
F1.0
sVbehavior
p580
F1.0
sVentries
p581
F1.0
sVthe
p582
F1.0
sVexpressions
p583
F1.0
sVfirst
p584
F1.0
saa(lp585
S'E09-200859'
p586
a(dp587
g22
F1.0
sVand
p588
F1.0
sVarcs
p589
F1.0
sVfsm
p590
F1.0
sVresults
p591
F1.0
sVstates
p592
F1.0
sVT-INT
p593
F2.0
sVsecond
p594
F1.0
sVin
p595
F1.0
sVthe
p596
F1.0
sVwith
p597
F1.0
sVT-FLOAT
p598
F1.0
saa(lp599
S'E09-200856'
p600
a(dp601
Vavailable
p602
F1.0
sVcode
p603
F1.0
sVT-FLOAT
p604
F1.0
sVis
p605
F2.0
sg29
F1.0
sVsource
p606
F1.0
sVas
p607
F1.0
sVthe
p608
F1.0
sVcollaboration
p609
F1.0
sVencouraged
p610
F1.0
saa(lp611
S'E09-200830'
p612
a(dp613
Vand
p614
F1.0
sVcontinuation
p615
F1.0
sVinto
p616
F1.0
sVas
p617
F1.0
sVare
p618
F1.0
sVfile
p619
F1.0
sVmentioned
p620
F1.0
sVdivided
p621
F1.0
sg29
F2.0
sVwriting
p622
F1.0
sVlexc
p623
F1.0
sVreading
p624
F1.0
sVsupports
p625
F1.0
sVfoma
p626
F1.0
sVformat
p627
F1.0
sVmorphological
p628
F1.0
sVT-FLOAT
p629
F1.0
sVcategories
p630
F1.0
sVso-called
p631
F1.0
sVof
p632
F1.0
sVclasses
p633
F1.0
sVthe
p634
F1.0
sVwhere
p635
F1.0
saa(lp636
S'E09-200854'
p637
a(dp638
Vsuccessfully
p639
F1.0
sVin
p640
F1.0
sVfoma
p641
F1.0
sVformat
p642
F1.0
sVanalyzers
p643
F1.0
sVcompiled
p644
F1.0
sVmorphological
p645
F1.0
sVbeen
p646
F1.0
sVwidecoverage
p647
F1.0
sVT-FLOAT
p648
F1.0
sVhave
p649
F1.0
sVspecified
p650
F1.0
sVthe
p651
F1.0
sVseveral
p652
F1.0
sVwith
p653
F1.0
sVlexc/xfst
p654
F1.0
saa(lp655
S'E09-200855'
p656
a(dp657
Vand
p658
F1.0
sVlicense
p659
F1.0
sVgnu
p660
F1.0
sVis
p661
F1.0
sVfoma
p662
F1.0
sVfree
p663
F1.0
sVgeneral
p664
F1.0
sVwill
p665
F1.0
sVT-FLOAT
p666
F1.0
sVremain
p667
F1.0
sVunder
p668
F1.0
sVthe
p669
F1.0
sVpublic
p670
F1.0
sVsoftware
p671
F1.0
saa(lp672
S'E09-200852'
p673
a(dp674
Vand
p675
F1.0
sVlexicon
p676
F1.0
sVcertain
p677
F1.0
sVis
p678
F1.0
sVtoolkit
p679
F1.0
sVgeneral
p680
F1.0
sVas
p681
F1.0
sVdescriptions
p682
F1.0
sVuse
p683
F1.0
sVperhaps
p684
F1.0
sVfor
p685
F2.0
sVT-INT
p686
F2.0
sVperform
p687
F1.0
sg258
F1.0
sVseems
p688
F1.0
sg29
F4.0
sVto
p689
F1.0
sVtypes
p690
F1.0
sVusage
p691
F1.0
sg328
F1.0
sVadvantage
p692
F1.0
sg260
F1.0
sVvery
p693
F1.0
sVfoma
p694
F1.0
sVquite
p695
F1.0
sVxerox/parc
p696
F1.0
sVdramatic
p697
F1.0
sVwords
p698
F1.0
sVnot
p699
F1.0
sVwith
p700
F2.0
sVthe
p701
F2.0
sVcomparably
p702
F1.0
sVexception
p703
F1.0
sVe
p704
F1.0
sVg
p705
F1.0
sVthis
p706
F1.0
sVof
p707
F2.0
sVaverage
p708
F1.0
sVlarge
p709
F1.0
sVpatterns
p710
F1.0
sVT-FLOAT
p711
F3.0
saa(lp712
S'E09-200853'
p713
a(dp714
Vprocessing
p715
F1.0
sVlarge-scale
p716
F1.0
sVis
p717
F1.0
sVfinite-state
p718
F3.0
sVas
p719
F3.0
sVin
p720
F2.0
sVmachines
p721
F1.0
sVpractical
p722
F1.0
sVfor
p723
F1.0
sVmultipurpose
p724
F1.0
sVresearch
p725
F1.0
sVneeded
p726
F1.0
sVautomata
p727
F1.0
sVbe
p728
F1.0
sVmulti-mode
p729
F1.0
sVmay
p730
F1.0
sVfoma
p731
F1.0
sVgeared
p732
F1.0
sVframework
p733
F1.0
sVconstruction
p734
F1.0
sVsuch
p735
F1.0
sVT-FLOAT
p736
F1.0
sVcompiler
p737
F1.0
sg22
F1.0
sVproviding
p738
F1.0
sVnatural
p739
F1.0
sVlanguage
p740
F1.0
sVof
p741
F1.0
sVwell
p742
F1.0
sVproject
p743
F1.0
sVthe
p744
F1.0
sVtoward
p745
F1.0
saa(lp746
S'E09-200850'
p747
a(dp748
g22
F1.0
sVcomparison
p749
F1.0
sVtoolkits
p750
F1.0
sVthat
p751
F1.0
sVdeterministic
p752
F1.0
sVsome
p753
F1.0
sg29
F1.0
sVexisting
p754
F1.0
sVT-INT
p755
F1.0
sVbuild
p756
F1.0
sVautomata/transducers
p757
F1.0
sVtable
p758
F1.0
sVminimized
p759
F1.0
sVwith
p760
F1.0
sVT-FLOAT
p761
F1.0
sVshows
p762
F1.0
saa(lp763
S'E09-200817'
p764
a(dp765
Vand
p766
F2.0
sVportable
p767
F1.0
sVwin
p768
F1.0
sVis
p769
F1.0
sVsuccessfully
p770
F1.0
sVit
p771
F1.0
sVlikely
p772
F1.0
sVlinux
p773
F1.0
sVT-INT
p774
F1.0
sVmuch
p775
F1.0
sg29
F3.0
sVbeen
p776
F1.0
sVto
p777
F2.0
sVother
p778
F1.0
sVsystems
p779
F2.0
sVhas
p780
F1.0
sVbe
p781
F1.0
sVcompiled
p782
F1.0
sVmac
p783
F1.0
sVoperating
p784
F1.0
sVeffort
p785
F1.0
sVon
p786
F1.0
sVwithout
p787
F1.0
sg92
F1.0
sVT-FLOAT
p788
F1.0
sVos
p789
F1.0
saa(lp790
S'E09-200812'
p791
a(dp792
Vand
p793
F2.0
sVall
p794
F1.0
sVsome
p795
F1.0
sVas
p796
F2.0
sVincluding
p797
F1.0
sVare
p798
F1.0
sVdirectly
p799
F1.0
sVprimitives
p800
F1.0
sVlow-level
p801
F1.0
sVfunctions
p802
F3.0
sValso
p803
F1.0
sg260
F1.0
sg258
F1.0
sV+
p804
F1.0
sg29
F2.0
sVT-INT
p805
F1.0
sVautomata
p806
F1.0
sVautomata/transducers
p807
F1.0
sVavailable
p808
F1.0
sVextended
p809
F1.0
sVminimization
p810
F1.0
sVthat
p811
F1.0
sVhowever
p812
F1.0
sVregular
p813
F1.0
sVdeterminization
p814
F1.0
sVT-FLOAT
p815
F1.0
sVon
p816
F1.0
sVwell
p817
F1.0
sValgorithms
p818
F1.0
sVthe
p819
F1.0
sVoperate
p820
F1.0
sVexpression
p821
F1.0
saa(lp822
S'E09-200813'
p823
a(dp824
g22
F1.0
sVbe
p825
F1.0
sVfunctions
p826
F1.0
sVsomeone
p827
F1.0
sVuseful
p828
F1.0
sVjust
p829
F1.0
sVfor
p830
F1.0
sVto
p831
F1.0
sVthese
p832
F1.0
sVT-FLOAT
p833
F1.0
sVgui
p834
F1.0
sVseparate
p835
F1.0
sVlowlevel
p836
F1.0
sVexisting
p837
F1.0
sVmay
p838
F1.0
sVbuild
p839
F1.0
sVusing
p840
F1.0
sVinterface
p841
F1.0
sVwanting
p842
F1.0
sVthe
p843
F1.0
sVor
p844
F1.0
saa(lp845
S'E09-200810'
p846
a(dp847
Vand
p848
F2.0
sVavailable
p849
F1.0
sg403
F1.0
sVis
p850
F1.0
sVlibrary
p851
F1.0
sVan
p852
F1.0
sVapi
p853
F1.0
sVare
p854
F1.0
sVin
p855
F1.0
sVthe
p856
F1.0
sVimplemented
p857
F1.0
sVT-FLOAT
p858
F1.0
sVcompiler
p859
F1.0
saa(lp860
S'E09-200811'
p861
a(dp862
Vregex
p863
F1.0
sVand
p864
F1.0
sg403
F1.0
sVhas
p865
F1.0
sVways
p866
F1.0
sVmany
p867
F1.0
sVis
p868
F1.0
sVcalling
p869
F1.0
sg29
F1.0
sVlibrary
p870
F1.0
sVstandard
p871
F1.0
sVto
p872
F1.0
sVapi
p873
F1.0
sVT-FLOAT
p874
F2.0
sVin
p875
F1.0
sVconventions
p876
F1.0
sVthe
p877
F2.0
sVh
p878
F1.0
sVsimilar
p879
F2.0
sV<
p880
F1.0
sg328
F1.0
saa(lp881
S'E09-200816'
p882
a(dp883
Vand
p884
F1.0
sVfoma
p885
F1.0
sVencoding
p886
F1.0
sVfully
p887
F1.0
sVis
p888
F2.0
sVsupported
p889
F1.0
sVT-FLOAT
p890
F1.0
sVonly
p891
F1.0
sVunicode
p892
F1.0
sVin
p893
F1.0
sVthe
p894
F1.0
sVaccepted
p895
F1.0
sVby
p896
F1.0
sVfact
p897
F1.0
saa(lp898
S'E09-200831'
p899
a(dp900
Vkarttunen
p901
F1.0
sg29
F1.0
sg260
F1.0
sVfrom
p902
F1.0
sVthis
p903
F1.0
sg258
F1.0
sVpractice
p904
F1.0
sVback
p905
F1.0
sVal
p906
F1.0
sVT-INT
p907
F1.0
sVtwo-level
p908
F1.0
sVstems
p909
F1.0
sVet
p910
F1.0
sVthe
p911
F1.0
sVearliest
p912
F1.0
sVT-FLOAT
p913
F2.0
sVcompilers
p914
F1.0
saa(lp915
S'E09-200814'
p916
a(dp917
Vwords
p918
F1.0
sVmainly
p919
F1.0
sVpurposes
p920
F1.0
sVan
p921
F1.0
sVapi
p922
F1.0
sVin
p923
F1.0
sVfor
p924
F2.0
sg260
F1.0
sg258
F1.0
sVcontains
p925
F1.0
sg29
F2.0
sValso
p926
F1.0
sVfunctionality
p927
F1.0
sVfinding
p928
F1.0
sVmatch
p929
F1.0
sVthat
p930
F1.0
sVexactly
p931
F1.0
sVbut
p932
F1.0
sVmost
p933
F1.0
sVspell-checking
p934
F1.0
sVclosely
p935
F1.0
sVnot
p936
F1.0
sVpath
p937
F1.0
sVT-FLOAT
p938
F1.0
sg22
F1.0
sVthe
p939
F1.0
sVautomaton
p940
F1.0
saa(lp941
S'E09-200815'
p942
a(dp943
Vand
p944
F1.0
sVit
p945
F1.0
sVspell-checkers
p946
F1.0
sVsimply
p947
F1.0
sVmatching
p948
F1.0
sVtransduction
p949
F1.0
sVfrom
p950
F1.0
sVapproximately
p951
F1.0
sVby
p952
F1.0
sVto
p953
F1.0
sVbuild
p954
F1.0
sVtransducers
p955
F1.0
sVstraightforward
p956
F1.0
sVmorphological
p957
F1.0
sVwords
p958
F1.0
sVthe
p959
F2.0
sVthis
p960
F1.0
sVof
p961
F1.0
sVrange
p962
F1.0
sVT-FLOAT
p963
F1.0
sVmakes
p964
F1.0
sVextracting
p965
F1.0
saa(lp966
S'E09-200818'
p967
a(dp968
Vand
p969
F1.0
sVoften
p970
F1.0
sVis
p971
F1.0
sVfinite-state
p972
F1.0
sVone
p973
F1.0
sVthrough
p974
F2.0
sVsame
p975
F1.0
sVin
p976
F1.0
sVT-FLOAT
p977
F1.0
sVformalism
p978
F1.0
sVnetworks
p979
F1.0
sVways
p980
F1.0
sVthat
p981
F1.0
sVable
p982
F1.0
sg29
F1.0
sVconstruct
p983
F1.0
sVto
p984
F1.0
sVvarious
p985
F1.0
sVoperators
p986
F1.0
sVascii-based
p987
F1.0
sVmeans
p988
F1.0
sVequivalent
p989
F1.0
sVextending
p990
F1.0
sVretaining
p991
F1.0
sVwith
p992
F1.0
sVcompatibility
p993
F1.0
sVbackwards
p994
F1.0
sVxerox/parc
p995
F1.0
sVextensions
p996
F1.0
sVeither
p997
F1.0
sVtime
p998
F1.0
sVthe
p999
F3.0
sVor
p1000
F1.0
sVunicode-based
p1001
F1.0
sVat
p1002
F1.0
saa(lp1003
S'E09-200833'
p1004
a(dp1005
Vand
p1006
F1.0
sVexhaustively
p1007
F1.0
sVconstructing
p1008
F1.0
sVfinite-state
p1009
F1.0
sVas
p1010
F2.0
sVapi
p1011
F1.0
sVmatching
p1012
F1.0
sVtransduction
p1013
F1.0
sVprovided
p1014
F1.0
sVfunctions
p1015
F1.0
sVfrom
p1016
F2.0
sg29
F3.0
sVaccess
p1017
F1.0
sVmachine
p1018
F1.0
sVto
p1019
F1.0
sVbasic
p1020
F1.0
sVgives
p1021
F1.0
sVstring
p1022
F2.0
sVfoma
p1023
F1.0
sVgiven
p1024
F1.0
sVregular
p1025
F1.0
sVevery
p1026
F1.0
sVsuch
p1027
F1.0
sVT-FLOAT
p1028
F1.0
sg22
F5.0
sVstarting
p1029
F1.0
sVperforming
p1030
F1.0
sVagainst
p1031
F1.0
sVposition
p1032
F1.0
sVthe
p1033
F1.0
sVexpression
p1034
F1.0
saa(lp1035
S'E09-200838'
p1036
a(dp1037
V``
p1038
F1.0
sVfsm_regex
p1039
F1.0
sVnetwork
p1040
F1.0
sg260
F1.0
sg258
F1.0
sVa+
p1041
F1.0
sVb+
p1042
F1.0
sV''
p1043
F1.0
sVT-INT
p1044
F2.0
sVT-FLOAT
p1045
F2.0
sg369
F1.0
sg262
F1.0
saa(lp1046
S'E09-200839'
p1047
a(dp1048
VT-INT
p1049
F1.0
sg260
F1.0
sg258
F1.0
sg29
F1.0
sVfsm
p1050
F1.0
sVfsm_match
p1051
F1.0
sVs
p1052
F1.0
sVresult
p1053
F1.0
sg262
F1.0
sg369
F1.0
sVT-FLOAT
p1054
F1.0
saa(lp1055
S'E09-200834'
p1056
a(dp1057
Vand
p1058
F1.0
sVa+b+
p1059
F1.0
sVillustrates
p1060
F1.0
sVfinite-state
p1061
F1.0
sVapi
p1062
F1.0
sVcheck
p1063
F1.0
sVsnippet
p1064
F1.0
sVuse
p1065
F1.0
sVT-INT
p1066
F1.0
sVhow
p1067
F1.0
sVencoding
p1068
F1.0
sVconstruct
p1069
F1.0
sVmachine
p1070
F1.0
sVto
p1071
F2.0
sVbasic
p1072
F1.0
sVinstead
p1073
F1.0
sVmain
p1074
F1.0
sVstring
p1075
F1.0
sVmatches
p1076
F1.0
sVfoma
p1077
F1.0
sVit
p1078
F1.0
sVinterface
p1079
F1.0
sVT-FLOAT
p1080
F1.0
sg22
F2.0
sg403
F1.0
sg368
F1.0
sVlanguage
p1081
F1.0
sVwhether
p1082
F1.0
sVof
p1083
F2.0
sVfollowing
p1084
F1.0
sVthe
p1085
F4.0
saa(lp1086
S'E09-200851'
p1087
a(dp1088
Vparticularly
p1089
F1.0
sVwhen
p1090
F1.0
sVnumber
p1091
F1.0
sVone
p1092
F1.0
sVstates
p1093
F1.0
sVgrowth
p1094
F1.0
sVin
p1095
F1.0
sVmachines
p1096
F1.0
sVnondeterministic
p1097
F1.0
sVperform
p1098
F1.0
sVseems
p1099
F1.0
sg29
F1.0
sVto
p1100
F1.0
sVdeterminizing
p1101
F1.0
sVthat
p1102
F1.0
sVfoma
p1103
F1.0
sVcases
p1104
F1.0
sVwith
p1105
F1.0
sVT-FLOAT
p1106
F1.0
sVinvolve
p1107
F1.0
sVexponential
p1108
F1.0
sVof
p1109
F1.0
sVwell
p1110
F1.0
sVthe
p1111
F2.0
sVwhole
p1112
F1.0
sVpathological
p1113
F1.0
saa(lp1114
S'E09-200862'
p1115
a(dp1116
g22
F1.0
sVavailable
p1117
F1.0
sVsami
p1118
F2.0
sVlexicon
p1119
F1.0
sVnorth
p1120
F2.0
sVfile
p1121
F1.0
sVfor
p1122
F1.0
sVno
p1123
F1.0
sg260
F1.0
sg258
F1.0
sVis
p1124
F1.0
sVhttp
p1125
F1.0
sVlarge
p1126
F1.0
sVlanguage
p1127
F1.0
sVlexc
p1128
F1.0
sVfrom
p1129
F1.0
sVthe
p1130
F1.0
sg368
F1.0
sVT-FLOAT
p1131
F2.0
sV//divvun
p1132
F1.0
saa.