(lp0
(lp1
S'I05-5011212'
p2
a(dp3
Vand
p4
F2.0
sVyusuke
p5
F1.0
sVwe
p6
F1.0
sVuseful
p7
F1.0
sVlike
p8
F1.0
sVwould
p9
F1.0
sVdiscussion
p10
F1.0
sVgrishman
p11
F1.0
sVralph
p12
F1.0
sV,
p13
F2.0
sVcomments
p14
F1.0
sVfor
p15
F1.0
sVshinyama
p16
F1.0
sVto
p17
F1.0
sVhasegawa
p18
F1.0
sVmr
p19
F2.0
sVprof
p20
F1.0
sVT-FLOAT
p21
F4.0
sVevaluation
p22
F1.0
sVtakaaki
p23
F1.0
sVthank
p24
F1.0
saa(lp25
S'I05-5011191'
p26
a(dp27
Vrelationships
p28
F1.0
sVchunking
p29
F1.0
sVis
p30
F1.0
sVto
p31
F1.0
sVenough
p32
F1.0
sVnot
p33
F1.0
sVsuch
p34
F1.0
sVT-FLOAT
p35
F1.0
sVfind
p36
F1.0
saa(lp37
S'I05-501165'
p38
a(dp39
Vand
p40
F1.0
sVtry
p41
F1.0
sVwe
p42
F1.0
sVcluster
p43
F1.0
sVthis
p44
F1.0
sVinto
p45
F1.0
sVsingle
p46
F1.0
sg13
F2.0
sVthem
p47
F1.0
sVwill
p48
F1.0
sVto
p49
F1.0
sVstep
p50
F1.0
sVlink
p51
F1.0
sVat
p52
F1.0
sVa
p53
F1.0
sVsets
p54
F1.0
sVput
p55
F1.0
sVT-FLOAT
p56
F1.0
sVthose
p57
F1.0
saa(lp58
S'I05-501166'
p59
a(dp60
Vpairs
p61
F1.0
sVis
p62
F1.0
sVne
p63
F1.0
sVclue
p64
F1.0
sVinstance
p65
F1.0
sVour
p66
F1.0
sVthe
p67
F1.0
sVT-FLOAT
p68
F1.0
saa(lp69
S'I05-501167'
p70
a(dp71
Vbe
p72
F1.0
sVdifferent
p73
F1.0
sVused
p74
F1.0
sVto
p75
F1.0
sVthese
p76
F1.0
sVof
p77
F1.0
sVis
p78
F1.0
sVparaphrases
p79
F1.0
sVne
p80
F1.0
sVsame
p81
F1.0
sg13
F1.0
sVinstances
p82
F1.0
sVlikely
p83
F1.0
sVare
p84
F1.0
sVphrases
p85
F2.0
sVpair
p86
F1.0
sVthe
p87
F1.0
sVwith
p88
F1.0
sVT-FLOAT
p89
F1.0
sVif
p90
F1.0
saa(lp91
S'I05-501160'
p92
a(dp93
Vin
p94
F1.0
sVon
p95
F1.0
sVbased
p96
F1.0
sVfigure
p97
F1.0
sVsets
p98
F1.0
sVsome
p99
F1.0
sVcc-domain
p100
F1.0
sVT-INT
p101
F1.0
sVsuch
p102
F1.0
sVkeywords
p103
F1.0
sVphrase
p104
F1.0
sVthe
p105
F1.0
sVT-FLOAT
p106
F1.0
sVshows
p107
F1.0
saa(lp108
S'I05-501161'
p109
a(dp110
VT-INT
p111
F1.0
sVstep
p112
F1.0
sVT-FLOAT
p113
F1.0
saa(lp114
S'I05-501162'
p115
a(dp116
g53
F2.0
sVon
p117
F1.0
sVwe
p118
F1.0
sVset
p119
F1.0
sVbased
p120
F1.0
sVwhich
p121
F1.0
sVlinks
p122
F1.0
sVphrases
p123
F2.0
sVshare
p124
F1.0
sVcluster
p125
F1.0
sVkeyword
p126
F1.0
sVhave
p127
F1.0
sVof
p128
F1.0
sVT-FLOAT
p129
F1.0
sVnow
p130
F1.0
saa(lp131
S'I05-501163'
p132
a(dp133
Veven
p134
F1.0
sVdo
p135
F1.0
sVexpress
p136
F1.0
sVmeanings
p137
F1.0
sVthey
p138
F1.0
sVkeyword
p139
F1.0
sVthough
p140
F1.0
sVphrases
p141
F1.0
sVthere
p142
F1.0
sVshare
p143
F1.0
sVhowever
p144
F1.0
sVsame
p145
F2.0
sg13
F1.0
sVare
p146
F1.0
sVwhich
p147
F1.0
sVnot
p148
F1.0
sVthe
p149
F2.0
sVT-FLOAT
p150
F1.0
saa(lp151
S'I05-5011199'
p152
a(dp153
Vinformation
p154
F1.0
sVextraction
p155
F1.0
sVis
p156
F1.0
sVone
p157
F1.0
sVapplication
p158
F1.0
sVobvious
p159
F1.0
sVT-FLOAT
p160
F1.0
saa(lp161
S'I05-5011198'
p162
a(dp163
Vmultiple
p164
F1.0
sVparaphrases
p165
F1.0
sVdiscovered
p166
F1.0
sVapplications
p167
F2.0
sVhave
p168
F1.0
sVthe
p169
F1.0
sVT-FLOAT
p170
F1.0
saa(lp171
S'I05-5011210'
p172
a(dp173
Vand
p174
F3.0
sVsan
p175
F1.0
sVfoundation
p176
F1.0
sVnational
p177
F1.0
sVsupported
p178
F1.0
sVdetection
p179
F1.0
sVas
p180
F1.0
sVdefense
p181
F1.0
sVin
p182
F1.0
sVT-FLOAT
p183
F1.0
sVinformation
p184
F1.0
sVfrom
p185
F1.0
sVT-INT
p186
F3.0
sVgrant
p187
F2.0
sVagency
p188
F1.0
sg13
F4.0
sVresearch
p189
F2.0
sVextraction
p190
F1.0
sVprogram
p191
F1.0
sVadvanced
p192
F1.0
sVunder
p193
F2.0
sVwas
p194
F1.0
sVsystems
p195
F1.0
sVsummarization
p196
F1.0
sViis
p197
F1.0
sVdiego
p198
F1.0
sVcenter
p199
F1.0
sVpart
p200
F2.0
sVby
p201
F2.0
sVprojects
p202
F1.0
sVwarfare
p203
F1.0
sVtranslingual
p204
F1.0
sVnaval
p205
F1.0
sVthis
p206
F1.0
sVof
p207
F1.0
sVspace
p208
F1.0
sVn
p209
F1.0
sVscience
p210
F1.0
sVthe
p211
F4.0
saa(lp212
S'I05-5011211'
p213
a(dp214
Vnecessarily
p215
F1.0
sVgovernment
p216
F1.0
sVthis
p217
F1.0
sVof
p218
F1.0
sVreflect
p219
F1.0
sVs
p220
F1.0
sVpaper
p221
F1.0
sVu
p222
F1.0
sVdoes
p223
F1.0
sVnot
p224
F1.0
sVposition
p225
F1.0
sVthe
p226
F2.0
sVT-FLOAT
p227
F3.0
saa(lp228
S'I05-5011118'
p229
a(dp230
Vthe
p231
F1.0
sVwe
p232
F1.0
sVset
p233
F1.0
sVconsider
p234
F1.0
sVto
p235
F1.0
sVfollowing
p236
F1.0
sVphrases
p237
F1.0
sVT-FLOAT
p238
F1.0
sVsometimes
p239
F1.0
sg13
F1.0
sVbut
p240
F1.0
sVextracted
p241
F1.0
sVwithout
p242
F1.0
sVare
p243
F1.0
sVcontext
p244
F1.0
sVcriteria
p245
F1.0
sVnot
p246
F1.0
sVthemselves
p247
F1.0
sVmeaningful
p248
F1.0
sVby
p249
F1.0
saa(lp250
S'I05-5011111'
p251
a(dp252
Vstake
p253
F2.0
sVlinks
p254
F1.0
sVis
p255
F1.0
sVit
p256
F1.0
sVmostly
p257
F1.0
sVare
p258
F1.0
sVunit
p259
F2.0
sVform
p260
F1.0
sVpay
p261
F2.0
sV*
p262
F4.0
sVtwo
p263
F1.0
sVwhich
p264
F1.0
sVclusters
p265
F1.0
sVcorrect
p266
F1.0
sVbuy
p267
F7.0
sVparent
p268
F1.0
sVthat
p269
F1.0
sVbid
p270
F1.0
sVacquire
p271
F4.0
sVsubsidiary
p272
F1.0
sVbuyout
p273
F1.0
sVpurchase
p274
F4.0
sVthese
p275
F1.0
sVclear
p276
F1.0
sVT-FLOAT
p277
F1.0
sVagree
p278
F1.0
sVacquisition
p279
F4.0
saa(lp280
S'I05-5011110'
p281
a(dp282
g53
F1.0
sVand
p283
F1.0
sVset
p284
F1.0
sVkeyword
p285
F1.0
sVinstances
p286
F1.0
sVof
p287
F1.0
sVis
p288
F1.0
sVnumber
p289
F2.0
sVhere
p290
F1.0
sVne
p291
F1.0
sVindicates
p292
F1.0
sVparentheses
p293
F1.0
sVpair
p294
F1.0
sVT-FLOAT
p295
F1.0
sVin
p296
F1.0
sVrepresented
p297
F1.0
sVshared
p298
F1.0
sVthe
p299
F3.0
sVby
p300
F1.0
saa(lp301
S'I05-5011113'
p302
a(dp303
VT-INT
p304
F2.0
sVT-FLOAT
p305
F2.0
sVevaluation
p306
F1.0
sVresults
p307
F1.0
saa(lp308
S'I05-5011112'
p309
a(dp310
Vwe
p311
F1.0
sVin
p312
F1.0
sVof
p313
F1.0
sVdescribe
p314
F1.0
sVnext
p315
F1.0
sVwill
p316
F1.0
sVsubsection
p317
F1.0
sVclusters
p318
F1.0
sVsuch
p319
F1.0
sVthe
p320
F2.0
sVevaluation
p321
F1.0
sVT-FLOAT
p322
F1.0
saa(lp323
S'I05-5011115'
p324
a(dp325
g53
F1.0
sVset
p326
F1.0
sVlinks
p327
F1.0
sVkeyword
p328
F1.0
sVof
p329
F2.0
sVis
p330
F2.0
sVwithin
p331
F1.0
sVshare
p332
F1.0
sVsame
p333
F1.0
sVone
p334
F1.0
sVT-FLOAT
p335
F1.0
sVother
p336
F1.0
sVwhich
p337
F1.0
sVphrases
p338
F1.0
sVthe
p339
F4.0
sV;
p340
F1.0
sVaccuracy
p341
F2.0
saa(lp342
S'I05-5011114'
p343
a(dp344
Von
p345
F1.0
sVwe
p346
F1.0
sVbased
p347
F1.0
sVresults
p348
F1.0
sVevaluated
p349
F1.0
sVtwo
p350
F1.0
sVmetrics
p351
F1.0
sVthe
p352
F1.0
sVT-FLOAT
p353
F1.0
saa(lp354
S'I05-5011179'
p355
a(dp356
g53
F3.0
sVmulti-word
p357
F1.0
sVcandidate
p358
F1.0
sVkeyword
p359
F1.0
sVsequence
p360
F1.0
sVwe
p361
F1.0
sVis
p362
F1.0
sVthere
p363
F1.0
sVdomain
p364
F1.0
sg13
F1.0
sVas
p365
F1.0
sVuse
p366
F1.0
sVin
p367
F1.0
sVit
p368
F1.0
sVT-FLOAT
p369
F1.0
sVcould
p370
F1.0
sVfrequent
p371
F1.0
sVif
p372
F1.0
saa(lp373
S'I05-5011178'
p374
a(dp375
Von
p376
F1.0
sVuse
p377
F1.0
sVbased
p378
F1.0
sVinformation
p379
F1.0
sVis
p380
F1.0
sVmutual
p381
F1.0
sVpossibility
p382
F1.0
sVone
p383
F1.0
sVto
p384
F1.0
sVT-FLOAT
p385
F1.0
sVn-grams
p386
F1.0
saa(lp387
S'I05-5011172'
p388
a(dp389
Vknown
p390
F1.0
sVbe
p391
F1.0
sVin
p392
F1.0
sVmethods
p393
F1.0
sVto
p394
F1.0
sVT-FLOAT
p395
F1.0
sVinitial
p396
F1.0
sVhowever
p397
F1.0
sg13
F2.0
sVentities
p398
F1.0
sVseeds
p399
F1.0
sVso
p400
F1.0
sVbetween
p401
F1.0
sVneed
p402
F1.0
sVrelation
p403
F1.0
sVthe
p404
F1.0
sVhas
p405
F1.0
sVadvance
p406
F1.0
sVthose
p407
F1.0
saa(lp408
S'I05-5011171'
p409
a(dp410
g53
F1.0
sVbe
p411
F1.0
sVpairs
p412
F1.0
sVand
p413
F1.0
sVcollect
p414
F1.0
sVthis
p415
F1.0
sVof
p416
F1.0
sVauthor
p417
F1.0
sVlist
p418
F1.0
sV/
p419
F1.0
sVtimes
p420
F1.0
sVto
p421
F1.0
sVrepeated
p422
F1.0
sVbook
p423
F1.0
sVcan
p424
F1.0
sVtitle
p425
F1.0
sVexpressions
p426
F1.0
sVseveral
p427
F1.0
sVT-FLOAT
p428
F1.0
saa(lp429
S'I05-5011170'
p430
a(dp431
Vand
p432
F3.0
sVis
p433
F1.0
sVsome
p434
F1.0
sVentity
p435
F1.0
sVexamples
p436
F1.0
sVexpressions
p437
F2.0
sVfind
p438
F2.0
sVgiven
p439
F1.0
sVfor
p440
F1.0
sVtitle
p441
F2.0
sVcontains
p442
F1.0
sg13
F4.0
sVstrategy
p443
F1.0
sVstart
p444
F1.0
sVbook
p445
F2.0
sVthose
p446
F1.0
sVwhich
p447
F1.0
sVbasic
p448
F1.0
sg340
F2.0
sVseveral
p449
F1.0
sVmore
p450
F1.0
sVthen
p451
F1.0
sVto
p452
F1.0
sVfamous
p453
F1.0
sVpair
p454
F1.0
sVusing
p455
F1.0
sVwith
p456
F1.0
sVT-FLOAT
p457
F1.0
sVtypes
p458
F1.0
sg53
F1.0
sVpairs
p459
F2.0
sVlike
p460
F1.0
sVof
p461
F1.0
sVauthor
p462
F2.0
sVfound
p463
F1.0
sVthe
p464
F2.0
sVnames
p465
F1.0
saa(lp466
S'I05-5011176'
p467
a(dp468
Varises
p469
F1.0
sVword
p470
F1.0
sVconsist
p471
F1.0
sVthis
p472
F1.0
sVof
p473
F1.0
sVone
p474
F1.0
sVonly
p475
F1.0
sVbecause
p476
F1.0
sVkeywords
p477
F1.0
sVour
p478
F1.0
sVproblem
p479
F1.0
sVT-FLOAT
p480
F1.0
saa(lp481
S'I05-5011175'
p482
a(dp483
Vwe
p484
F1.0
sVseparate
p485
F1.0
sVis
p486
F1.0
sVdesirable
p487
F1.0
sVit
p488
F1.0
sVhowever
p489
F1.0
sVthem
p490
F1.0
sVcan
p491
F1.0
sVT-FLOAT
p492
F1.0
sg13
F1.0
sVif
p493
F1.0
saa(lp494
S'I05-501179'
p495
a(dp496
g53
F1.0
sVand
p497
F1.0
sVwe
p498
F2.0
sVwhich
p499
F1.0
sVkeyword
p500
F1.0
sVof
p501
F1.0
sVsets
p502
F2.0
sVshare
p503
F1.0
sVlinks
p504
F1.0
sVhave
p505
F2.0
sVphrases
p506
F1.0
sVT-FLOAT
p507
F1.0
sVnow
p508
F1.0
sVbetween
p509
F1.0
sVthose
p510
F1.0
saa(lp511
S'I05-501173'
p512
a(dp513
Vshown
p514
F1.0
sVfigure
p515
F1.0
sVT-INT
p516
F1.0
sVare
p517
F1.0
sVin
p518
F1.0
sVT-FLOAT
p519
F1.0
sVmore
p520
F1.0
sVexamples
p521
F1.0
saa(lp522
S'I05-501172'
p523
a(dp524
g53
F2.0
sVwe
p525
F1.0
sVset
p526
F1.0
sVthat
p527
F1.0
sVrequired
p528
F1.0
sg13
F1.0
sVleast
p529
F1.0
sVtwo
p530
F1.0
sVto
p531
F1.0
sVso
p532
F1.0
sVat
p533
F1.0
sVthreshold
p534
F1.0
sVbuild
p535
F1.0
sVT-FLOAT
p536
F1.0
sVlink
p537
F1.0
sVare
p538
F1.0
sVexamples
p539
F1.0
saa(lp540
S'I05-501177'
p541
a(dp542
Vrepresent
p543
F1.0
sVdetermine
p544
F1.0
sg13
F2.0
sVas
p545
F1.0
sVrelation
p546
F1.0
sVnames
p547
F1.0
sVhave
p548
F1.0
sVin
p549
F1.0
sVseen
p550
F1.0
sVdifferent
p551
F1.0
sVfrom
p552
F1.0
sVne
p553
F1.0
sVbe
p554
F1.0
sVwe
p555
F1.0
sVthat
p556
F1.0
sVreversed
p557
F1.0
sVtwo
p558
F3.0
sVT-FLOAT
p559
F1.0
sg53
F2.0
sVlast
p560
F2.0
sVphrases
p561
F2.0
sVexample
p562
F1.0
sVso
p563
F1.0
sVcan
p564
F2.0
sVof
p565
F1.0
sVthe
p566
F4.0
sVorder
p567
F1.0
sVfirst
p568
F1.0
saa(lp569
S'I05-501176'
p570
a(dp571
Vlinks
p572
F1.0
sVT-FLOAT
p573
F1.0
sVsolve
p574
F1.0
sVcan
p575
F1.0
sVproblem
p576
F1.0
sVthe
p577
F2.0
saa(lp578
S'I05-501174'
p579
a(dp580
g53
F1.0
sVcase
p581
F1.0
sVnotice
p582
F1.0
sVthat
p583
F1.0
sVis
p584
F1.0
sVcc-domain
p585
F1.0
sVthe
p586
F1.0
sVT-FLOAT
p587
F1.0
sVspecial
p588
F1.0
saa(lp589
S'I05-5011187'
p590
a(dp591
Vwe
p592
F1.0
sVchecked
p593
F1.0
sVthis
p594
F1.0
sVwas
p595
F1.0
sVthere
p596
F1.0
sVmajor
p597
F1.0
sVbut
p598
F1.0
sg13
F1.0
sVT-FLOAT
p599
F1.0
sVonly
p600
F1.0
sVverbs
p601
F1.0
sVare
p602
F1.0
sVhave
p603
F1.0
sVin
p604
F1.0
sVdomains
p605
F1.0
sVthe
p606
F1.0
sVone
p607
F1.0
sVsimilar
p608
F1.0
sVother
p609
F1.0
sVif
p610
F1.0
saa(lp611
S'I05-5011184'
p612
a(dp613
g53
F1.0
sVbe
p614
F1.0
sVdomain
p615
F1.0
sVused
p616
F1.0
sVword
p617
F1.0
sVscenarios
p618
F1.0
sVis
p619
F1.0
sVit
p620
F2.0
sVbut
p621
F1.0
sg13
F1.0
sVdifferent
p622
F1.0
sVextraction
p623
F1.0
sVcan
p624
F1.0
sVin
p625
F2.0
sVthe
p626
F1.0
sVT-FLOAT
p627
F1.0
sVfrequent
p628
F1.0
sVrelatively
p629
F1.0
saa(lp630
S'I05-5011185'
p631
a(dp632
Vinvolve
p633
F1.0
sVdomain
p634
F1.0
sVmere
p635
F1.0
sVon
p636
F1.0
sVthis
p637
F1.0
sVthings
p638
F1.0
sVagreed
p639
F2.0
sVthat
p640
F1.0
sVmajor
p641
F1.0
sg13
F1.0
sVscenarios
p642
F1.0
sVrather
p643
F1.0
sVT-FLOAT
p644
F1.0
sVthey
p645
F2.0
sVin
p646
F1.0
sVthe
p647
F3.0
sVthan
p648
F1.0
sVfact
p649
F1.0
saa(lp650
S'I05-5011182'
p651
a(dp652
Vset
p653
F1.0
sVreduce
p654
F1.0
sVnumber
p655
F1.0
sVkeywords
p656
F1.0
sVin
p657
F1.0
sVthreshold
p658
F2.0
sVour
p659
F1.0
sVT-FLOAT
p660
F1.0
sVadjustment
p661
F1.0
sg13
F1.0
sVempirically
p662
F1.0
sVscore
p663
F1.0
sg340
F1.0
sVfiner
p664
F1.0
sVdevelopment
p665
F1.0
sVwe
p666
F1.0
sVexperiment
p667
F1.0
sVusing
p668
F1.0
sVcorpus
p669
F1.0
sg53
F2.0
sVof
p670
F3.0
sVcould
p671
F1.0
sVsuch
p672
F1.0
sVsmall
p673
F1.0
sVthe
p674
F4.0
sVtf/itf
p675
F1.0
saa(lp676
S'I05-5011180'
p677
a(dp678
Vdomain
p679
F1.0
sVdesirable
p680
F1.0
sVdetection
p681
F1.0
sVconsists
p682
F1.0
sVsingle
p683
F1.0
sVare
p684
F2.0
sVkeywords
p685
F1.0
sVif
p686
F1.0
sVeven
p687
F1.0
sVfor
p688
F1.0
sVthere
p689
F1.0
sg13
F1.0
sVwhich
p690
F1.0
sVwords
p691
F1.0
sVnot
p692
F1.0
sg53
F3.0
sVword
p693
F1.0
sVkeyword
p694
F2.0
sVof
p695
F1.0
sVas
p696
F1.0
sVerror
p697
F1.0
sVT-FLOAT
p698
F1.0
saa(lp699
S'I05-5011108'
p700
a(dp701
Von
p702
F1.0
sVwe
p703
F1.0
sVconcentrate
p704
F1.0
sVsets
p705
F1.0
sVT-FLOAT
p706
F1.0
sVthose
p707
F1.0
saa(lp708
S'I05-5011109'
p709
a(dp710
Vamong
p711
F1.0
sVwe
p712
F1.0
sVhave
p713
F1.0
sVlinks
p714
F1.0
sVthese
p715
F1.0
sVof
p716
F1.0
sg13
F1.0
sVtwo
p717
F1.0
sVT-INT
p718
F1.0
sVT-FLOAT
p719
F1.0
sVwhich
p720
F1.0
sVsets
p721
F2.0
sVfollowing
p722
F1.0
sVfound
p723
F1.0
sVthe
p724
F1.0
sVmore
p725
F1.0
sVor
p726
F1.0
sVpairs
p727
F1.0
saa(lp728
S'I05-5011106'
p729
a(dp730
g53
F1.0
sVon
p731
F1.0
sVpairs
p732
F2.0
sVbased
p733
F1.0
sVlinks
p734
F1.0
sVwe
p735
F1.0
sVphrases
p736
F2.0
sVsets
p737
F1.0
sVfind
p738
F1.0
sVne
p739
F1.0
sVclue
p740
F1.0
sVinstance
p741
F2.0
sVas
p742
F1.0
sVof
p743
F1.0
sVlink
p744
F1.0
sVbetween
p745
F1.0
sVusing
p746
F1.0
sVT-FLOAT
p747
F1.0
sg13
F1.0
saa(lp748
S'I05-5011107'
p749
a(dp750
Vwhich
p751
F1.0
sVsets
p752
F1.0
sVof
p753
F1.0
sVT-FLOAT
p754
F1.0
sVthere
p755
F1.0
sg13
F1.0
sVcc-domain
p756
F1.0
sVT-INT
p757
F2.0
sVare
p758
F1.0
sVphrases
p759
F2.0
sVin
p760
F1.0
sVthe
p761
F1.0
sVcontain
p762
F1.0
sVthan
p763
F1.0
sVmore
p764
F1.0
saa(lp765
S'I05-5011104'
p766
a(dp767
Vall
p768
F1.0
sVkept
p769
F1.0
sVwe
p770
F1.0
sVphrases
p771
F1.0
sg13
F3.0
sVT-INT
p772
F2.0
sVkeywords
p773
F1.0
sVin
p774
F1.0
sVdomains
p775
F1.0
sVT-FLOAT
p776
F1.0
sVtotal
p777
F1.0
sVwith
p778
F1.0
sVacross
p779
F1.0
saa(lp780
S'I05-5011105'
p781
a(dp782
VT-INT
p783
F1.0
sVstep
p784
F1.0
sVT-FLOAT
p785
F1.0
saa(lp786
S'I05-5011102'
p787
a(dp788
g53
F1.0
sVT-FLOAT
p789
F1.0
sVis
p790
F1.0
sg13
F1.0
sVdiscarded
p791
F1.0
sVkeywords
p792
F1.0
sVdoes
p793
F1.0
sVcontain
p794
F1.0
sVnot
p795
F1.0
sVphrase
p796
F2.0
sVthe
p797
F1.0
sVany
p798
F1.0
sVif
p799
F1.0
saa(lp800
S'I05-5011103'
p801
a(dp802
Vfor
p803
F1.0
sVof
p804
F1.0
sVin
p805
F2.0
sg13
F2.0
sVT-INT
p806
F3.0
sVstep
p807
F1.0
sVT-FLOAT
p808
F1.0
sVphrases
p809
F2.0
sVkeywords
p810
F1.0
sVfound
p811
F1.0
sVthe
p812
F1.0
sVcontain
p813
F1.0
sVexample
p814
F1.0
sVccdomain
p815
F1.0
sVout
p816
F1.0
saa(lp817
S'I05-5011100'
p818
a(dp819
VT-INT
p820
F1.0
sVstep
p821
F1.0
sVT-FLOAT
p822
F1.0
saa(lp823
S'I05-5011101'
p824
a(dp825
Vphrase
p826
F1.0
sVselected
p827
F1.0
sVfor
p828
F1.0
sVkeyword
p829
F1.0
sVphrases
p830
F1.0
sVtop
p831
F1.0
sVgather
p832
F1.0
sg13
F1.0
sVT-FLOAT
p833
F1.0
sVscore
p834
F1.0
sVeach
p835
F1.0
sVkeywords
p836
F1.0
sVusing
p837
F1.0
sVthe
p838
F2.0
sVnow
p839
F1.0
sVwith
p840
F1.0
sVis
p841
F1.0
sVtf/itf
p842
F1.0
saa(lp843
S'I05-50115'
p844
a(dp845
Vpairs
p846
F1.0
sVlinks
p847
F1.0
sVof
p848
F1.0
sVsame
p849
F1.0
sVinvolve
p850
F1.0
sVT-FLOAT
p851
F1.0
sVsecond
p852
F1.0
sVindividual
p853
F1.0
sVwhich
p854
F1.0
sVsets
p855
F1.0
sVthe
p856
F2.0
sVnes
p857
F1.0
sVstage
p858
F1.0
saa(lp859
S'I05-50114'
p860
a(dp861
g53
F1.0
sVand
p862
F1.0
sVkeyword
p863
F2.0
sVsets
p864
F1.0
sVphrases
p865
F1.0
sVinto
p866
F1.0
sVeach
p867
F1.0
sVsame
p868
F1.0
sVT-FLOAT
p869
F1.0
sVjoins
p870
F1.0
sVin
p871
F1.0
sVphrase
p872
F1.0
sVthe
p873
F2.0
sVfirst
p874
F1.0
sVwith
p875
F1.0
sVidentifies
p876
F1.0
sVstage
p877
F1.0
saa(lp878
S'I05-50117'
p879
a(dp880
Vand
p881
F2.0
sVset
p882
F1.0
sVlinks
p883
F1.0
sVne
p884
F1.0
sVin
p885
F1.0
sVfrom
p886
F1.0
sVfor
p887
F1.0
sVT-INT
p888
F4.0
sg13
F1.0
sVto
p889
F1.0
sg340
F1.0
sVparaphrase
p890
F1.0
sVwas
p891
F1.0
sVaccuracy
p892
F2.0
sVranged
p893
F1.0
sVtwo
p894
F1.0
sV%
p895
F4.0
sVrepresenting
p896
F1.0
sVT-FLOAT
p897
F1.0
sVcategories
p898
F1.0
sVon
p899
F1.0
sVsizes
p900
F1.0
sVof
p901
F2.0
sVdepending
p902
F1.0
sVevaluated
p903
F1.0
sVsets
p904
F1.0
sVdomains
p905
F1.0
sVthe
p906
F5.0
saa(lp907
S'I05-50116'
p908
a(dp909
g53
F1.0
sVgrouped
p910
F1.0
sVof
p911
F1.0
sVwere
p912
F1.0
sg13
F1.0
sVT-INT
p913
F2.0
sVphrases
p914
F1.0
sVT-FLOAT
p915
F1.0
sVtotal
p916
F1.0
saa(lp917
S'I05-50111'
p918
a(dp919
Vtask
p920
F1.0
sVchallenging
p921
F1.0
sVis
p922
F1.0
sVbut
p923
F1.0
sVan
p924
F1.0
sVimportant
p925
F1.0
sVT-FLOAT
p926
F1.0
sVparaphrase
p927
F1.0
sVautomatic
p928
F1.0
sVdiscovery
p929
F1.0
saa(lp930
S'I05-50113'
p931
a(dp932
Vand
p933
F1.0
sVon
p934
F1.0
sVwe
p935
F1.0
sVproceed
p936
F1.0
sVphrases
p937
F1.0
sVnamed
p938
F1.0
sVfocus
p939
F1.0
sVtwo
p940
F2.0
sVentities
p941
F1.0
sVconnect
p942
F1.0
sVwhich
p943
F1.0
sVin
p944
F1.0
sVT-FLOAT
p945
F1.0
sVstages
p946
F1.0
sg13
F1.0
saa(lp947
S'I05-50112'
p948
a(dp949
Vrequiring
p950
F1.0
sVdiscover
p951
F1.0
sVan
p952
F1.0
sVseed
p953
F1.0
sVphrase
p954
F1.0
sVany
p955
F1.0
sVfrom
p956
F1.0
sVparaphrases
p957
F1.0
sg13
F1.0
sVto
p958
F1.0
sVcue
p959
F1.0
sVother
p960
F1.0
sVcorpus
p961
F1.0
sVmethod
p962
F1.0
sVwe
p963
F1.0
sVpropose
p964
F1.0
sg53
F1.0
sVunsupervised
p965
F1.0
sVlarge
p966
F1.0
sVwithout
p967
F1.0
sVuntagged
p968
F1.0
sVT-FLOAT
p969
F1.0
sVor
p970
F1.0
saa(lp971
S'I05-5011160'
p972
a(dp973
Vand
p974
F1.0
sVlimited
p975
F1.0
sVbecause
p976
F1.0
sVne
p977
F1.0
sVthreshold
p978
F1.0
sVfew
p979
F1.0
sg13
F1.0
sVinstance
p980
F1.0
sVwas
p981
F1.0
sVbe
p982
F1.0
sVused
p983
F1.0
sVvery
p984
F1.0
sVthe
p985
F1.0
sValso
p986
F1.0
sVpairs
p987
F1.0
sVthis
p988
F1.0
sVof
p989
F2.0
sVcould
p990
F1.0
sVvariety
p991
F1.0
sVphrases
p992
F1.0
sVhence
p993
F1.0
sVT-FLOAT
p994
F1.0
saa(lp995
S'I05-5011161'
p996
a(dp997
Vand
p998
F2.0
sVset
p999
F1.0
sVutilize
p1000
F1.0
sVfrequency
p1001
F1.0
sVthreshold
p1002
F1.0
sVto
p1003
F2.0
sVable
p1004
F1.0
sg13
F2.0
sVT-INT
p1005
F1.0
sVlot
p1006
F1.0
sVinstead
p1007
F1.0
sVwe
p1008
F1.0
sVnoise
p1009
F1.0
sVwere
p1010
F1.0
sVfocused
p1011
F1.0
sVT-FLOAT
p1012
F1.0
sg53
F1.0
sVon
p1013
F1.0
sVphrases
p1014
F2.0
sVwhile
p1015
F1.0
sVminimizing
p1016
F1.0
sVso
p1017
F1.0
sVof
p1018
F1.0
sVthe
p1019
F1.0
saa(lp1020
S'I05-5011162'
p1021
a(dp1022
Val
p1023
F1.0
sVone
p1024
F1.0
sVrelation
p1025
F1.0
sVhasegawa
p1026
F1.0
sVet
p1027
F1.0
sVfrom
p1028
F1.0
sg13
F1.0
sVT-INT
p1029
F1.0
sVonly
p1030
F1.0
sVdiscovery
p1031
F1.0
sVpara
p1032
F1.0
sVeasily
p1033
F1.0
sVacquire
p1034
F1.0
sVbut
p1035
F1.0
sVresults
p1036
F1.0
sVreported
p1037
F1.0
sV[
p1038
F1.0
sV]
p1039
F1.0
sVT-FLOAT
p1040
F2.0
sVon
p1041
F1.0
sVphrases
p1042
F1.0
sVcould
p1043
F1.0
sVthe
p1044
F1.0
saa(lp1045
S'I05-5011163'
p1046
a(dp1047
Vpairs
p1048
F1.0
sVused
p1049
F1.0
sVtheir
p1050
F1.0
sVof
p1051
F2.0
sVis
p1052
F1.0
sVless
p1053
F1.0
sVnumber
p1054
F1.0
sVne
p1055
F1.0
sVinstance
p1056
F1.0
sVexperiment
p1057
F1.0
sVT-FLOAT
p1058
F1.0
sVhalf
p1059
F1.0
sVin
p1060
F1.0
sVour
p1061
F1.0
sVthe
p1062
F1.0
sVthan
p1063
F1.0
sVmethod
p1064
F1.0
saa(lp1065
S'I05-5011164'
p1066
a(dp1067
Vcorpora
p1068
F1.0
sVkinds
p1069
F1.0
sVof
p1070
F1.0
sVthere
p1071
F1.0
sVdiscover
p1072
F1.0
sVbeen
p1073
F1.0
sVto
p1074
F1.0
sVother
p1075
F1.0
sVhave
p1076
F1.0
sVfrom
p1077
F1.0
sVefforts
p1078
F1.0
sVparaphrase
p1079
F1.0
sVT-FLOAT
p1080
F1.0
sVautomatically
p1081
F1.0
saa(lp1082
S'I05-50118'
p1083
a(dp1084
Vis
p1085
F1.0
sVone
p1086
F1.0
sVare
p1087
F1.0
sVin
p1088
F1.0
sVevent
p1089
F1.0
sVways
p1090
F1.0
sVthere
p1091
F1.0
sVsame
p1092
F1.0
sVto
p1093
F1.0
sVdifficulties
p1094
F1.0
sVexpress
p1095
F1.0
sVthat
p1096
F1.0
sVprocessing
p1097
F1.0
sVthe
p1098
F3.0
sVnatural
p1099
F1.0
sVlanguage
p1100
F1.0
sVof
p1101
F1.0
sVthing
p1102
F1.0
sVmany
p1103
F1.0
sVT-FLOAT
p1104
F1.0
sVor
p1105
F1.0
sVfact
p1106
F1.0
saa(lp1107
S'I05-5011166'
p1108
a(dp1109
g53
F1.0
sVlimited
p1110
F1.0
sVcomparable
p1111
F1.0
sVsignificant
p1112
F1.0
sVon
p1113
F1.0
sVof
p1114
F1.0
sVis
p1115
F2.0
sVcorpora
p1116
F1.0
sg13
F1.0
sVT-FLOAT
p1117
F1.0
sVwhich
p1118
F1.0
sVlimitation
p1119
F1.0
sVthe
p1120
F2.0
sVapproach
p1121
F1.0
sVavailability
p1122
F1.0
saa(lp1123
S'I05-5011167'
p1124
a(dp1125
Vand
p1126
F2.0
sVis
p1127
F1.0
sVanother
p1128
F1.0
sVin
p1129
F1.0
sVT-FLOAT
p1130
F1.0
sVfind
p1131
F1.0
sVinformation
p1132
F1.0
sVmutual
p1133
F1.0
sVT-INT
p1134
F1.0
sVlin
p1135
F1.0
sVparaphrases
p1136
F1.0
sVto
p1137
F2.0
sVsubjects
p1138
F1.0
sVtake
p1139
F1.0
sVwhich
p1140
F1.0
sVfinding
p1141
F1.0
sVapproach
p1142
F1.0
sVobjects
p1143
F1.0
sVusing
p1144
F1.0
sg1038
F1.0
sg1039
F1.0
sVby
p1145
F1.0
sVword
p1146
F1.0
sVphrases
p1147
F1.0
sVcorpora
p1148
F1.0
sVpantel
p1149
F1.0
sVlarge
p1150
F1.0
sVof
p1151
F1.0
sVdistribution
p1152
F1.0
sVsimilar
p1153
F1.0
saa(lp1154
S'I05-501186'
p1155
a(dp1156
Vwe
p1157
F1.0
sVterms
p1158
F1.0
sVclusters
p1159
F1.0
sVthis
p1160
F1.0
sVof
p1161
F3.0
sVphrases
p1162
F1.0
sg13
F3.0
sVresults
p1163
F1.0
sVwill
p1164
F1.0
sVT-FLOAT
p1165
F1.0
sVexperiment
p1166
F1.0
sVsubsection
p1167
F1.0
sVwords
p1168
F1.0
sVin
p1169
F2.0
sVreport
p1170
F1.0
sVnumber
p1171
F1.0
sVthe
p1172
F3.0
sVor
p1173
F1.0
saa(lp1174
S'I05-501187'
p1175
a(dp1176
Vwe
p1177
F1.0
sVresults
p1178
F1.0
sVnext
p1179
F1.0
sVwill
p1180
F1.0
sVsubsection
p1181
F1.0
sVin
p1182
F1.0
sVreport
p1183
F1.0
sVthe
p1184
F2.0
sVevaluation
p1185
F1.0
sVT-FLOAT
p1186
F1.0
saa(lp1187
S'I05-501184'
p1188
a(dp1189
Vtagged
p1190
F1.0
sVpentium
p1191
F1.0
sVdiscover
p1192
F1.0
sVone
p1193
F1.0
sVgb
p1194
F1.0
sVsentences
p1195
F1.0
sVtakes
p1196
F1.0
sVto
p1197
F1.0
sVparaphrases
p1198
F1.0
sVT-INT
p1199
F3.0
sVmemory
p1200
F1.0
sVusing
p1201
F1.0
sVwith
p1202
F1.0
sVT-FLOAT
p1203
F1.0
sg53
F1.0
sVon
p1204
F1.0
sVabout
p1205
F1.0
sVhour
p1206
F1.0
sVof
p1207
F1.0
sVpc
p1208
F1.0
sVghz
p1209
F1.0
sVthe
p1210
F2.0
sVprocedure
p1211
F1.0
saa(lp1212
S'I05-501185'
p1213
a(dp1214
VT-INT
p1215
F2.0
sVT-FLOAT
p1216
F2.0
sVresults
p1217
F1.0
saa(lp1218
S'I05-501182'
p1219
a(dp1220
Vand
p1221
F1.0
sVabout
p1222
F1.0
sVthey
p1223
F1.0
sV)
p1224
F1.0
sV(
p1225
F1.0
sVm
p1226
F5.0
sg13
F3.0
sVT-INT
p1227
F5.0
sVwords
p1228
F2.0
sVcontain
p1229
F1.0
sVrespectively
p1230
F1.0
sVT-FLOAT
p1231
F1.0
saa(lp1232
S'I05-501183'
p1233
a(dp1234
Vand
p1235
F1.0
sVall
p1236
F1.0
sVchunker
p1237
F1.0
sVbeen
p1238
F1.0
sVne
p1239
F1.0
sVT-FLOAT
p1240
F1.0
sVtagger
p1241
F1.0
sVhave
p1242
F1.0
sVsentences
p1243
F1.0
sVanalyzed
p1244
F1.0
sVour
p1245
F1.0
sVthe
p1246
F1.0
sVby
p1247
F1.0
saa(lp1248
S'I05-501180'
p1249
a(dp1250
VT-INT
p1251
F2.0
sVT-FLOAT
p1252
F2.0
sVcorpora
p1253
F1.0
saa(lp1254
S'I05-501181'
p1255
a(dp1256
Vand
p1257
F1.0
sVall
p1258
F1.0
sVwall
p1259
F1.0
sVfour
p1260
F1.0
sVstreet
p1261
F1.0
sVin
p1262
F1.0
sVfor
p1263
F1.0
sVT-INT
p1264
F1.0
sg13
F5.0
sVlos
p1265
F1.0
sVreuters
p1266
F1.0
sVnew
p1267
F1.0
sVwe
p1268
F1.0
sVused
p1269
F1.0
sVjournal
p1270
F1.0
sVyork
p1271
F1.0
sVnewswire
p1272
F1.0
sVpost
p1273
F1.0
sVT-FLOAT
p1274
F1.0
sVcorpora
p1275
F1.0
sVtimes
p1276
F1.0
sVangeles
p1277
F1.0
sVexperiments
p1278
F1.0
sVpublished
p1279
F1.0
sVthe
p1280
F4.0
sVtimes/washington
p1281
F1.0
saa(lp1282
S'I05-501188'
p1283
a(dp1284
VT-INT
p1285
F1.0
sVstep
p1286
F1.0
sVT-FLOAT
p1287
F1.0
saa(lp1288
S'I05-501189'
p1289
a(dp1290
Vnewspaper
p1291
F1.0
sg13
F1.0
sVfrom
p1292
F1.0
sVT-INT
p1293
F2.0
sVextracted
p1294
F1.0
sVcontexts
p1295
F1.0
sVextract
p1296
F1.0
sVmillion
p1297
F1.0
sVne
p1298
F2.0
sVyears
p1299
F1.0
sVfour
p1300
F1.0
sVinstances
p1301
F2.0
sVwe
p1302
F1.0
sVT-FLOAT
p1303
F2.0
sVof
p1304
F2.0
sVpair
p1305
F1.0
sVpairs
p1306
F1.0
sVthe
p1307
F1.0
sVwith
p1308
F1.0
sVcorpus
p1309
F1.0
saa(lp1310
S'I05-5011159'
p1311
a(dp1312
g53
F1.0
sVset
p1313
F1.0
sVin
p1314
F1.0
sVT-INT
p1315
F1.0
sVfor
p1316
F1.0
sVsimilarity
p1317
F1.0
sVcalculation
p1318
F1.0
sVcreate
p1319
F1.0
sVvectors
p1320
F1.0
sVhad
p1321
F1.0
sg13
F2.0
sVhigh
p1322
F1.0
sVto
p1323
F2.0
sVfrequency
p1324
F1.0
sVthey
p1325
F1.0
sVgood-sized
p1326
F1.0
sVthreshold
p1327
F1.0
sVT-FLOAT
p1328
F1.0
sVorder
p1329
F1.0
saa(lp1330
S'I05-5011158'
p1331
a(dp1332
g53
F1.0
sVon
p1333
F1.0
sVpairs
p1334
F1.0
sVbased
p1335
F1.0
sVwords
p1336
F1.0
sVinstance
p1337
F1.0
sVcontexts
p1338
F1.0
sVT-FLOAT
p1339
F1.0
sVne
p1340
F1.0
sVcluster
p1341
F1.0
sVbagof-words
p1342
F1.0
sVthey
p1343
F1.0
sVin
p1344
F1.0
sVusing
p1345
F1.0
sVthe
p1346
F2.0
sVmethod
p1347
F1.0
saa(lp1348
S'I05-5011155'
p1349
a(dp1350
Vand
p1351
F1.0
sVwe
p1352
F1.0
sVdescribe
p1353
F1.0
sg13
F1.0
sVcompare
p1354
F1.0
sVit
p1355
F1.0
sVwill
p1356
F1.0
sVtheir
p1357
F1.0
sVour
p1358
F1.0
sVT-FLOAT
p1359
F1.0
sVwith
p1360
F1.0
sVmethod
p1361
F2.0
sVfirst
p1362
F1.0
saa(lp1363
S'I05-5011154'
p1364
a(dp1365
VT-INT
p1366
F1.0
sVto
p1367
F1.0
sVT-FLOAT
p1368
F2.0
sVis
p1369
F1.0
sVwork
p1370
F1.0
sVal
p1371
F1.0
sVhere
p1372
F1.0
sVreported
p1373
F1.0
sVrelated
p1374
F1.0
sVclosely
p1375
F1.0
sVet
p1376
F1.0
sVthe
p1377
F1.0
sg1039
F1.0
sg1038
F1.0
sVhasegawa
p1378
F1.0
saa(lp1379
S'I05-5011157'
p1380
a(dp1381
Vdifferent
p1382
F1.0
sVclearly
p1383
F1.0
sVis
p1384
F1.0
sVhowever
p1385
F1.0
sVnext
p1386
F1.0
sVT-FLOAT
p1387
F1.0
sVstep
p1388
F1.0
sVthe
p1389
F1.0
sg13
F1.0
saa(lp1390
S'I05-5011156'
p1391
a(dp1392
Vand
p1393
F1.0
sVpairs
p1394
F1.0
sVlike
p1395
F1.0
sVjust
p1396
F1.0
sVinstance
p1397
F1.0
sVcontexts
p1398
F1.0
sVT-FLOAT
p1399
F1.0
sVne
p1400
F1.0
sg13
F1.0
sVcollect
p1401
F1.0
sVthey
p1402
F1.0
sVour
p1403
F1.0
sVthe
p1404
F1.0
sVmethod
p1405
F1.0
sVfirst
p1406
F1.0
saa(lp1407
S'I05-5011151'
p1408
a(dp1409
Vthis
p1410
F1.0
sVof
p1411
F1.0
sVsuggests
p1412
F1.0
sVbenefit
p1413
F1.0
sVresult
p1414
F1.0
sVT-FLOAT
p1415
F1.0
sVusing
p1416
F1.0
sVthe
p1417
F2.0
sVautomatic
p1418
F1.0
sVmethod
p1419
F1.0
sVdiscovery
p1420
F1.0
saa(lp1421
S'I05-5011150'
p1422
a(dp1423
Vand
p1424
F2.0
sVlinks
p1425
F1.0
sVedu/
p1426
F1.0
sVare
p1427
F1.0
sVin
p1428
F3.0
sVwordnet
p1429
F1.0
sVhead-chief
p1430
F1.0
sg1224
F3.0
sg1225
F3.0
sg13
F1.0
sVsame
p1431
F1.0
sVpcdomain
p1432
F1.0
sVT-INT
p1433
F4.0
sVonly
p1434
F1.0
sV//wordnet
p1435
F1.0
sVsynset
p1436
F1.0
sV:
p1437
F1.0
sVhttp
p1438
F1.0
sVlink
p1439
F1.0
sVT-FLOAT
p1440
F4.0
sVccdomain
p1441
F1.0
sVbuy-purchase
p1442
F1.0
sVprinceton
p1443
F1.0
sVof
p1444
F1.0
sVacquire-acquisition
p1445
F1.0
sVfound
p1446
F1.0
sVthe
p1447
F3.0
sVtrader-dealer
p1448
F1.0
saa(lp1449
S'I05-5011153'
p1450
a(dp1451
Vlinks
p1452
F1.0
sVevaluation
p1453
F1.0
sVresults
p1454
F1.0
sVfor
p1455
F1.0
saa(lp1456
S'I05-5011152'
p1457
a(dp1458
Vac
p1459
F1.0
sVai
p1460
F1.0
sVcy
p1461
F1.0
sVtable
p1462
F1.0
sVcu
p1463
F1.0
sg895
F2.0
sg419
F2.0
sVli
p1464
F1.0
sVT-INT
p1465
F12.0
sVra
p1466
F1.0
sg53
F1.0
sVc
p1467
F4.0
sVe
p1468
F2.0
sVd
p1469
F1.0
sVg
p1470
F1.0
sVk
p1471
F1.0
sg1226
F1.0
sVo
p1472
F2.0
sg209
F3.0
sVp
p1473
F1.0
sVr
p1474
F1.0
sVw
p1475
F1.0
sVv
p1476
F1.0
sVT-FLOAT
p1477
F3.0
saa(lp1478
S'I05-5011192'
p1479
a(dp1480
Vthis
p1481
F1.0
sVwork
p1482
F1.0
sVremains
p1483
F1.0
sVas
p1484
F1.0
sVfuture
p1485
F1.0
sVT-FLOAT
p1486
F1.0
saa(lp1487
S'I05-501118'
p1488
a(dp1489
Vand
p1490
F1.0
sVtasks
p1491
F1.0
sVhave
p1492
F1.0
sVie
p1493
F2.0
sVknowledge
p1494
F1.0
sVfor
p1495
F1.0
sg1224
F1.0
sg1225
F1.0
sg13
F1.0
sVbeen
p1496
F1.0
sVto
p1497
F1.0
sVparaphrase
p1498
F1.0
sVcreating
p1499
F1.0
sVhand
p1500
F1.0
sVmost
p1501
F1.0
sVnow
p1502
F1.0
sVby
p1503
F1.0
sVup
p1504
F1.0
sVspecific
p1505
F1.0
sVpatterns
p1506
F1.0
sVT-FLOAT
p1507
F1.0
sVor
p1508
F1.0
sVresearchers
p1509
F1.0
saa(lp1510
S'I05-501115'
p1511
a(dp1512
Vwe
p1513
F1.0
sVknowledge
p1514
F1.0
sVmajor
p1515
F1.0
sVimportance
p1516
F1.0
sVof
p1517
F2.0
sVis
p1518
F1.0
sVhowever
p1519
F1.0
sg13
F1.0
sVT-FLOAT
p1520
F1.0
sVobstacle
p1521
F1.0
sg340
F1.0
sVconstruction
p1522
F1.0
sVthe
p1523
F3.0
sVparaphrase
p1524
F2.0
sVrealize
p1525
F1.0
saa(lp1526
S'I05-501114'
p1527
a(dp1528
Vand
p1529
F1.0
sVsome
p1530
F1.0
sVsystem
p1531
F1.0
sVinstances
p1532
F1.0
sVnames
p1533
F1.0
sVhave
p1534
F1.0
sVin
p1535
F2.0
sVextract
p1536
F1.0
sVevent
p1537
F2.0
sVif
p1538
F1.0
sVeven
p1539
F1.0
sVinformation
p1540
F1.0
sVdifferent
p1541
F1.0
sVfrom
p1542
F1.0
sVextraction
p1543
F1.0
sVmerger
p1544
F1.0
sg1225
F1.0
sg13
F3.0
sVexpressed
p1545
F1.0
sVto
p1546
F2.0
sVdifferently
p1547
F1.0
sVwhich
p1548
F1.0
sVseveral
p1549
F1.0
sVevents
p1550
F1.0
sVbe
p1551
F1.0
sVelements
p1552
F1.0
sVarticles
p1553
F1.0
sVcompany
p1554
F1.0
sVtries
p1555
F1.0
sVdate
p1556
F1.0
sVnews
p1557
F1.0
sValigned
p1558
F1.0
sVthe
p1559
F1.0
sg53
F1.0
sValso
p1560
F1.0
sg1468
F1.0
sg1470
F1.0
sVthese
p1561
F1.0
sVof
p1562
F2.0
sg1224
F1.0
sVT-FLOAT
p1563
F3.0
sVcorporate
p1564
F1.0
sVare
p1565
F1.0
saa(lp1566
S'I05-501110'
p1567
a(dp1568
g53
F1.0
sVon
p1569
F1.0
sVwordnet
p1570
F1.0
sVlexical
p1571
F1.0
sVcreation
p1572
F1.0
sVof
p1573
F2.0
sVthere
p1574
F1.0
sg13
F1.0
sVbeen
p1575
F1.0
sVresearch
p1576
F1.0
sVT-FLOAT
p1577
F1.0
sVas
p1578
F1.0
sVrelations
p1579
F1.0
sVlot
p1580
F1.0
sVsuch
p1581
F2.0
sValong
p1582
F1.0
sVhas
p1583
F1.0
sVwith
p1584
F1.0
sVthe
p1585
F1.0
sVresources
p1586
F1.0
saa(lp1587
S'I05-501112'
p1588
a(dp1589
Vand
p1590
F1.0
sVnlp
p1591
F1.0
sVis
p1592
F1.0
sVworkshops
p1593
F1.0
sVtopic
p1594
F1.0
sVas
p1595
F1.0
sVin
p1596
F1.0
sVT-FLOAT
p1597
F1.0
sVneeds
p1598
F1.0
sVfrom
p1599
F1.0
sg13
F3.0
sVbeen
p1600
F1.0
sVT-INT
p1601
F2.0
sVvarious
p1602
F1.0
sVparaphrase
p1603
F1.0
sVmore
p1604
F1.0
sVrecently
p1605
F1.0
sVattention
p1606
F1.0
sVdriven
p1607
F1.0
sVapplications
p1608
F1.0
sVby
p1609
F1.0
sVhas
p1610
F1.0
sVevident
p1611
F1.0
sVgetting
p1612
F1.0
sVthis
p1613
F1.0
sVof
p1614
F1.0
sVthe
p1615
F2.0
saa(lp1616
S'I05-5011193'
p1617
a(dp1618
Vlimitations
p1619
F2.0
sVmethods
p1620
F1.0
sVthere
p1621
F1.0
sVare
p1622
F1.0
sVin
p1623
F1.0
sVthe
p1624
F1.0
sVseveral
p1625
F1.0
sVT-FLOAT
p1626
F1.0
saa(lp1627
S'I05-5011197'
p1628
a(dp1629
Vbe
p1630
F1.0
sVwe
p1631
F1.0
sVseveral
p1632
F1.0
sVmethods
p1633
F1.0
sVheuristics
p1634
F1.0
sVrather
p1635
F1.0
sVdeveloped
p1636
F1.0
sVvariety
p1637
F1.0
sVdifferent
p1638
F1.0
sVdiscover
p1639
F1.0
sVto
p1640
F2.0
sVparaphrases
p1641
F1.0
sVhave
p1642
F1.0
sVof
p1643
F1.0
sVwider
p1644
F1.0
sVusing
p1645
F1.0
sVT-FLOAT
p1646
F1.0
sVbelieve
p1647
F1.0
saa(lp1648
S'I05-5011196'
p1649
a(dp1650
Vwe
p1651
F1.0
sVthat
p1652
F1.0
sVthis
p1653
F1.0
sVis
p1654
F1.0
sVclaiming
p1655
F1.0
sValmighty
p1656
F1.0
sVare
p1657
F1.0
sVnot
p1658
F1.0
sVT-FLOAT
p1659
F1.0
sVmethod
p1660
F1.0
saa(lp1661
S'I05-501195'
p1662
a(dp1663
Vcategory
p1664
F1.0
sVfor
p1665
F2.0
sVT-FLOAT
p1666
F1.0
sVne
p1667
F2.0
sVpair
p1668
F2.0
sVare
p1669
F1.0
sVeach
p1670
F2.0
sVkeywords
p1671
F2.0
sVfound
p1672
F1.0
sVthe
p1673
F1.0
sVfind
p1674
F1.0
saa(lp1675
S'I05-501194'
p1676
a(dp1677
VT-INT
p1678
F1.0
sVstep
p1679
F1.0
sVT-FLOAT
p1680
F1.0
saa(lp1681
S'I05-501197'
p1682
a(dp1683
Vdomain
p1684
F1.0
sVnatural
p1685
F1.0
sVthat
p1686
F1.0
sVis
p1687
F1.0
sVlarger
p1688
F1.0
sVit
p1689
F1.0
sg13
F1.0
sVare
p1690
F1.0
sVin
p1691
F1.0
sVkeywords
p1692
F1.0
sVfound
p1693
F1.0
sVthe
p1694
F4.0
sVdata
p1695
F1.0
sVT-FLOAT
p1696
F1.0
sVmore
p1697
F1.0
saa(lp1698
S'I05-501196'
p1699
a(dp1700
Vfigure
p1701
F1.0
sVsome
p1702
F1.0
sVkeywords
p1703
F1.0
sVare
p1704
F2.0
sVhave
p1705
F1.0
sVin
p1706
F2.0
sVthreshold
p1707
F1.0
sVshown
p1708
F1.0
sVfor
p1709
F1.0
sg13
F2.0
sVcc-domain
p1710
F1.0
sVT-INT
p1711
F2.0
sVwhich
p1712
F1.0
sg340
F1.0
sVthem
p1713
F1.0
sVabove
p1714
F1.0
sVscores
p1715
F1.0
sVT-FLOAT
p1716
F1.0
sg53
F1.0
sVof
p1717
F1.0
sVfound
p1718
F1.0
sVthe
p1719
F1.0
sVexample
p1720
F1.0
sVtf/itf
p1721
F1.0
saa(lp1722
S'I05-501193'
p1723
a(dp1724
Vcategory
p1725
F1.0
sVand
p1726
F1.0
sVpairs
p1727
F1.0
sVlimits
p1728
F1.0
sVT-INT
p1729
F4.0
sVthis
p1730
F1.0
sVof
p1731
F2.0
sVmillion
p1732
F1.0
sVnumber
p1733
F2.0
sVne
p1734
F2.0
sVto
p1735
F2.0
sVT-FLOAT
p1736
F2.0
sVpair
p1737
F1.0
sVthe
p1738
F2.0
sVinstances
p1739
F1.0
sg13
F1.0
saa(lp1740
S'I05-501192'
p1741
a(dp1742
Vand
p1743
F1.0
sVset
p1744
F1.0
sg13
F1.0
sVas
p1745
F1.0
sVfrequency
p1746
F1.0
sVexamples
p1747
F1.0
sVthreshold
p1748
F1.0
sVcategory
p1749
F1.0
sVinstance
p1750
F1.0
sVappear
p1751
F2.0
sVto
p1752
F2.0
sVne
p1753
F2.0
sVleast
p1754
F2.0
sVshould
p1755
F2.0
sVT-INT
p1756
F1.0
sVinclude
p1757
F1.0
sVbe
p1758
F2.0
sVwe
p1759
F1.0
sVnoise
p1760
F1.0
sVthat
p1761
F1.0
sVpair
p1762
F2.0
sVan
p1763
F2.0
sg53
F1.0
sVlower
p1764
F1.0
sVconsidered
p1765
F2.0
sVtimes
p1766
F1.0
sVtwice
p1767
F1.0
sVT-FLOAT
p1768
F1.0
sVat
p1769
F2.0
saa(lp1770
S'I05-5011168'
p1771
a(dp1772
g53
F1.0
sVand
p1773
F1.0
sVneeds
p1774
F1.0
sVlimited
p1775
F1.0
sVbe
p1776
F1.0
sVrelationships
p1777
F1.0
sVthis
p1778
F1.0
sVinitial
p1779
F1.0
sVthus
p1780
F1.0
sVpossible
p1781
F1.0
sVan
p1782
F1.0
sVto
p1783
F1.0
sVas
p1784
F1.0
sVseed
p1785
F1.0
sVare
p1786
F1.0
sVphrase
p1787
F1.0
sVthe
p1788
F1.0
sVextracted
p1789
F1.0
sVapproach
p1790
F1.0
sVT-FLOAT
p1791
F1.0
sVnaturally
p1792
F1.0
saa(lp1793
S'I05-501199'
p1794
a(dp1795
Vcategory
p1796
F1.0
sVpairs
p1797
F1.0
sVfor
p1798
F1.0
sg13
F4.0
sVne
p1799
F1.0
sVT-INT
p1800
F4.0
sVare
p1801
F1.0
sVin
p1802
F1.0
sVkeywords
p1803
F1.0
sVfound
p1804
F1.0
sVthe
p1805
F1.0
sVtotal
p1806
F1.0
sVT-FLOAT
p1807
F1.0
saa(lp1808
S'I05-5011143'
p1809
a(dp1810
Vwe
p1811
F1.0
sVreturn
p1812
F1.0
sVthese
p1813
F1.0
sVT-FLOAT
p1814
F1.0
sVdiscussion
p1815
F1.0
sVwill
p1816
F1.0
sVto
p1817
F1.0
sVin
p1818
F1.0
sVthe
p1819
F1.0
sVsection
p1820
F1.0
sVissues
p1821
F1.0
saa(lp1822
S'I05-5011147'
p1823
a(dp1824
g53
F2.0
sVpaying
p1825
F1.0
sVsame
p1826
F1.0
sVdo
p1827
F1.0
sVthese
p1828
F1.0
sVphrases
p1829
F1.0
sVcompany
p1830
F2.0
sVwhen
p1831
F1.0
sg13
F2.0
sVbut
p1832
F1.0
sVoccur
p1833
F1.0
sVindicate
p1834
F1.0
sVT-FLOAT
p1835
F1.0
sVcan
p1836
F1.0
sVanother
p1837
F1.0
sVbuys
p1838
F1.0
sVnot
p1839
F1.0
sVthe
p1840
F1.0
sVevent
p1841
F2.0
sVtwo
p1842
F1.0
saa(lp1843
S'I05-5011144'
p1844
a(dp1845
Vlinks
p1846
F1.0
sVis
p1847
F1.0
sg13
F1.0
sVindicates
p1848
F1.0
sVhave
p1849
F1.0
sVin
p1850
F1.0
sVif
p1851
F2.0
sVphrases
p1852
F1.0
sVtwo
p1853
F1.0
sVsame
p1854
F1.0
sVmajority
p1855
F1.0
sVbetween
p1856
F1.0
sVparaphrase
p1857
F1.0
sVevaluation
p1858
F1.0
sVcorrect
p1859
F1.0
sVmeaning
p1860
F1.0
sVlink
p1861
F2.0
sVT-FLOAT
p1862
F3.0
sg53
F1.0
sVboth
p1863
F1.0
sg1468
F1.0
sVconsidered
p1864
F1.0
sVof
p1865
F2.0
sVi
p1866
F1.0
sVsets
p1867
F2.0
sVthe
p1868
F3.0
saa(lp1869
S'I05-5011169'
p1870
a(dp1871
g53
F1.0
sVand
p1872
F2.0
sVthere
p1873
F1.0
sVhovy
p1874
F1.0
sVT-INT
p1875
F3.0
sVbootstrapping
p1876
F1.0
sg1039
F1.0
sVwork
p1877
F1.0
sVbeen
p1878
F1.0
sVgravano
p1879
F1.0
sValso
p1880
F1.0
sVbrin
p1881
F1.0
sVT-FLOAT
p1882
F1.0
sVravichandran
p1883
F1.0
sVusing
p1884
F1.0
sg1038
F1.0
sVhas
p1885
F1.0
sVapproach
p1886
F1.0
sg340
F2.0
sVagichtein
p1887
F1.0
saa(lp1888
S'I05-5011149'
p1889
a(dp1890
Vwe
p1891
F1.0
sVchecked
p1892
F1.0
sVlinks
p1893
F1.0
sVwhether
p1894
F1.0
sVdiscovered
p1895
F1.0
sVare
p1896
F1.0
sVin
p1897
F1.0
sVthe
p1898
F1.0
sVT-FLOAT
p1899
F1.0
sVwordnet
p1900
F1.0
sVlisted
p1901
F1.0
saa(lp1902
S'I05-501120'
p1903
a(dp1904
g53
F2.0
sVdomain
p1905
F1.0
sVhas
p1906
F1.0
sVknowledge
p1907
F1.0
sVfor
p1908
F1.0
sVspend
p1909
F1.0
sVT-FLOAT
p1910
F1.0
sVcreate
p1911
F2.0
sVtime
p1912
F1.0
sVsystem
p1913
F1.0
sg13
F1.0
sVan
p1914
F1.0
sVto
p1915
F3.0
sVlong
p1916
F1.0
sVin
p1917
F1.0
sVnew
p1918
F1.0
sVthe
p1919
F1.0
sVone
p1920
F1.0
sVie
p1921
F1.0
sVorder
p1922
F1.0
saa(lp1923
S'I05-501122'
p1924
a(dp1925
g53
F1.0
sVlarge
p1926
F1.0
sVwe
p1927
F1.0
sVfrom
p1928
F1.0
sVunsupervised
p1929
F1.0
sVthis
p1930
F1.0
sVpropose
p1931
F1.0
sVparaphrases
p1932
F1.0
sg13
F1.0
sVan
p1933
F1.0
sVwill
p1934
F1.0
sVto
p1935
F1.0
sVpaper
p1936
F1.0
sVT-FLOAT
p1937
F1.0
sVin
p1938
F1.0
sVuntagged
p1939
F1.0
sVcorpus
p1940
F1.0
sVdiscover
p1941
F1.0
sVmethod
p1942
F1.0
saa(lp1943
S'I05-501123'
p1944
a(dp1945
Von
p1946
F1.0
sVwe
p1947
F1.0
sVhave
p1948
F1.0
sVfor
p1949
F1.0
sVapplications
p1950
F1.0
sVvery
p1951
F1.0
sVphrases
p1952
F2.0
sVnamed
p1953
F1.0
sVtwo
p1954
F1.0
sg13
F1.0
sVentities
p1955
F1.0
sVas
p1956
F1.0
sVimportant
p1957
F1.0
sVare
p1958
F2.0
sVwhich
p1959
F1.0
sVof
p1960
F1.0
sVfocusing
p1961
F1.0
sVtypes
p1962
F1.0
sVT-FLOAT
p1963
F1.0
sVie
p1964
F1.0
sVthose
p1965
F1.0
saa(lp1966
S'I05-501124'
p1967
a(dp1968
Vbeing
p1969
F1.0
sVan
p1970
F1.0
sVseed
p1971
F1.0
sVtagger
p1972
F1.0
sVphrase
p1973
F1.0
sVT-FLOAT
p1974
F1.0
sVfind
p1975
F1.0
sVgiven
p1976
F1.0
sVparaphrases
p1977
F1.0
sVne
p1978
F1.0
sVany
p1979
F1.0
sVto
p1980
F1.0
sVcue
p1981
F1.0
sVcorpus
p1982
F1.0
sVmethod
p1983
F1.0
sVkinds
p1984
F1.0
sVafter
p1985
F1.0
sVtries
p1986
F1.0
sVwith
p1987
F1.0
sg13
F1.0
sVtagging
p1988
F1.0
sg53
F2.0
sVof
p1989
F2.0
sVlarge
p1990
F1.0
sVwithout
p1991
F1.0
sVsets
p1992
F1.0
sVthe
p1993
F1.0
sVautomatic
p1994
F1.0
sVor
p1995
F1.0
sVautomatically
p1996
F1.0
saa(lp1997
S'I05-501125'
p1998
a(dp1999
VT-INT
p2000
F2.0
sVT-FLOAT
p2001
F2.0
sVoverview
p2002
F1.0
saa(lp2003
S'I05-501126'
p2004
a(dp2005
g53
F1.0
sVexplaining
p2006
F1.0
sVwe
p2007
F1.0
sVthis
p2008
F1.0
sVoverview
p2009
F1.0
sVdetail
p2010
F1.0
sg13
F1.0
sVbrief
p2011
F1.0
sVsubsection
p2012
F1.0
sVin
p2013
F2.0
sVour
p2014
F1.0
sVT-FLOAT
p2015
F1.0
sVmethod
p2016
F1.0
sVpresent
p2017
F1.0
sVbefore
p2018
F1.0
saa(lp2019
S'I05-501127'
p2020
a(dp2021
g53
F1.0
sVwe
p2022
F1.0
sVfrom
p2023
F1.0
sVall
p2024
F1.0
sVT-FLOAT
p2025
F1.0
sg13
F2.0
sVne
p2026
F1.0
sVlarge
p2027
F1.0
sVinstance
p2028
F1.0
sVpairs
p2029
F1.0
sVcorpus
p2030
F1.0
sVextract
p2031
F1.0
sVthe
p2032
F1.0
sVfirst
p2033
F1.0
saa(lp2034
S'I05-501129'
p2035
a(dp2036
Vwe
p2037
F1.0
sg1468
F1.0
sVfor
p2038
F1.0
sVrecord
p2039
F1.0
sg1866
F1.0
sVbetween
p2040
F1.0
sg13
F1.0
sVtwo
p2041
F1.0
sValso
p2042
F1.0
sVnes
p2043
F1.0
sVcontext
p2044
F1.0
sVeach
p2045
F1.0
sVpair
p2046
F1.0
sVphrase
p2047
F1.0
sVthe
p2048
F3.0
sVT-FLOAT
p2049
F3.0
saa(lp2050
S'I05-5011194'
p2051
a(dp2052
Vbe
p2053
F1.0
sVT-INT
p2054
F1.0
sVnes
p2055
F1.0
sVless
p2056
F1.0
sVphrases
p2057
F1.0
sVT-FLOAT
p2058
F1.0
sVbetween
p2059
F1.0
sg13
F1.0
sVthan
p2060
F1.0
sVto
p2061
F1.0
sVlength
p2062
F1.0
sVtwo
p2063
F1.0
sVhave
p2064
F1.0
sVof
p2065
F1.0
sVchunks
p2066
F1.0
sVthe
p2067
F2.0
sVexpressions
p2068
F1.0
sVappear
p2069
F1.0
saa(lp2070
S'I05-5011137'
p2071
a(dp2072
Vand
p2073
F1.0
sg53
F1.0
sVerrors
p2074
F3.0
sVincludes
p2075
F1.0
sVne
p2076
F1.0
sVdue
p2077
F1.0
sVto
p2078
F1.0
sVother
p2079
F2.0
sVwhich
p2080
F1.0
sVphrase
p2081
F1.0
sVT-FLOAT
p2082
F1.0
sVinclude
p2083
F1.0
sVnes
p2084
F1.0
sVtagging
p2085
F1.0
saa(lp2086
S'I05-5011133'
p2087
a(dp2088
Von
p2089
F1.0
sVwe
p2090
F1.0
sVerrors
p2091
F1.0
sVof
p2092
F1.0
sVmake
p2093
F1.0
sVobservations
p2094
F1.0
sVthe
p2095
F1.0
sVseveral
p2096
F1.0
sVcause
p2097
F1.0
sVT-FLOAT
p2098
F1.0
sVcan
p2099
F1.0
saa(lp2100
S'I05-5011132'
p2101
a(dp2102
Vaccurate
p2103
F1.0
sVlarger
p2104
F1.0
sVT-FLOAT
p2105
F1.0
sVare
p2106
F1.0
sVsets
p2107
F2.0
sVsmall
p2108
F1.0
sVthe
p2109
F2.0
sVthan
p2110
F1.0
sVmore
p2111
F1.0
saa(lp2112
S'I05-5011131'
p2113
a(dp2114
g53
F1.0
sVon
p2115
F1.0
sVset
p2116
F1.0
sVbased
p2117
F1.0
sVin
p2118
F1.0
sVof
p2119
F1.0
sVwithin
p2120
F1.0
sVresults
p2121
F1.0
sVnumber
p2122
F1.0
sVT-INT
p2123
F1.0
sVresult
p2124
F1.0
sVphrases
p2125
F1.0
sVsets
p2126
F1.0
sVtable
p2127
F1.0
sVthe
p2128
F2.0
sVevaluation
p2129
F2.0
sVT-FLOAT
p2130
F1.0
sVshows
p2131
F1.0
saa(lp2132
S'I05-5011130'
p2133
a(dp2134
Vac
p2135
F1.0
sVai
p2136
F1.0
sVcy
p2137
F1.0
sVras
p2138
F1.0
sVtable
p2139
F1.0
sVcu
p2140
F1.0
sV#
p2141
F1.0
sg895
F4.0
sVT-INT
p2142
F29.0
sVra
p2143
F1.0
sVph
p2144
F1.0
sVes
p2145
F1.0
sg53
F2.0
sg1467
F3.0
sg1468
F5.0
sg1469
F1.0
sVof
p2146
F1.0
sg1226
F3.0
sVl
p2147
F3.0
sg1472
F8.0
sg209
F1.0
sg1473
F2.0
sg220
F6.0
sg1474
F7.0
sVt
p2148
F2.0
sVh
p2149
F1.0
sVT-FLOAT
p2150
F5.0
saa(lp2151
S'I05-5011139'
p2152
a(dp2153
g53
F1.0
sVbelong
p2154
F1.0
sVnes
p2155
F1.0
sVto
p2156
F1.0
sVof
p2157
F2.0
sVthere
p2158
F1.0
sVtwo
p2159
F1.0
sVone
p2160
F1.0
sValso
p2161
F1.0
sVoutside
p2162
F1.0
sVrelation
p2163
F1.0
sVare
p2164
F1.0
sVT-FLOAT
p2165
F1.0
sVphrase
p2166
F1.0
sVcases
p2167
F1.0
sVwhere
p2168
F1.0
sVthe
p2169
F2.0
saa(lp2170
S'I05-5011165'
p2171
a(dp2172
Vand
p2173
F1.0
sValmost
p2174
F1.0
sVone
p2175
F1.0
sVas
p2176
F1.0
sVare
p2177
F2.0
sVevent
p2178
F1.0
sVwhose
p2179
F1.0
sVdifferent
p2180
F2.0
sVdocuments
p2181
F2.0
sVT-INT
p2182
F2.0
sg13
F2.0
sVsame
p2183
F3.0
sVcontent
p2184
F1.0
sVto
p2185
F1.0
sVwhich
p2186
F1.0
sVbe
p2187
F1.0
sVcomparable
p2188
F1.0
sVfound/known
p2189
F1.0
sVtranslations
p2190
F1.0
sVstory
p2191
F1.0
sVshinyama
p2192
F1.0
sVapproaches
p2193
F1.0
sVuses
p2194
F1.0
sVsuch
p2195
F2.0
sg1038
F2.0
sg1039
F2.0
sVT-FLOAT
p2196
F1.0
sVabout
p2197
F1.0
sVof
p2198
F3.0
sVbarzilay
p2199
F1.0
sVstories
p2200
F1.0
sVsekine
p2201
F1.0
sVsets
p2202
F1.0
sVnewspaper
p2203
F1.0
sVthe
p2204
F3.0
sVor
p2205
F1.0
saa(lp2206
S'I05-501137'
p2207
a(dp2208
Vinstances
p2209
F1.0
sVne
p2210
F1.0
sVT-INT
p2211
F3.0
sVstep
p2212
F3.0
sVpair
p2213
F1.0
sVcorpus
p2214
F1.0
sVT-FLOAT
p2215
F1.0
saa(lp2216
S'I05-501136'
p2217
a(dp2218
Vfigure
p2219
F1.0
sVthis
p2220
F1.0
sVoverview
p2221
F1.0
sVis
p2222
F1.0
sVillustrated
p2223
F1.0
sVT-INT
p2224
F1.0
sVin
p2225
F1.0
sVT-FLOAT
p2226
F1.0
saa(lp2227
S'I05-501135'
p2228
a(dp2229
Vwe
p2230
F1.0
sVsee
p2231
F1.0
sVshall
p2232
F1.0
sVof
p2233
F1.0
sVparaphrases
p2234
F1.0
sg13
F1.0
sVmost
p2235
F1.0
sVas
p2236
F1.0
sVare
p2237
F1.0
sVT-FLOAT
p2238
F1.0
sVsets
p2239
F1.0
sVthe
p2240
F1.0
sVlinked
p2241
F1.0
saa(lp2242
S'I05-501133'
p2243
a(dp2244
Vdomain
p2245
F1.0
sVset
p2246
F1.0
sVeach
p2247
F1.0
sVare
p2248
F1.0
sVfor
p2249
F1.0
sVto
p2250
F1.0
sg1224
F1.0
sg1225
F1.0
sg13
F1.0
sVsame
p2251
F1.0
sVT-INT
p2252
F1.0
sVbuild
p2253
F1.0
sVwhich
p2254
F1.0
sVgathered
p2255
F1.0
sVof
p2256
F1.0
sVstep
p2257
F1.0
sVT-FLOAT
p2258
F1.0
sg53
F1.0
sVkeyword
p2259
F1.0
sVphrases
p2260
F2.0
sVcontain
p2261
F1.0
sVthe
p2262
F1.0
saa(lp2263
S'I05-501131'
p2264
a(dp2265
g53
F1.0
sVwe
p2266
F1.0
sVsimple
p2267
F1.0
sVof
p2268
F1.0
sVtopicality
p2269
F1.0
sVuse
p2270
F1.0
sVtf/idf
p2271
F1.0
sVto
p2272
F1.0
sVT-FLOAT
p2273
F1.0
sVwords
p2274
F1.0
sVmeasure
p2275
F1.0
sVthe
p2276
F1.0
sVmethod
p2277
F1.0
saa(lp2278
S'I05-501130'
p2279
a(dp2280
Vand
p2281
F1.0
sVall
p2282
F1.0
sg13
F2.0
sVare
p2283
F1.0
sVkeywords
p2284
F1.0
sVfind
p2285
F1.0
sVcategory
p2286
F1.0
sVfor
p2287
F2.0
sVne
p2288
F2.0
sVnext
p2289
F1.0
sVtopical
p2290
F1.0
sVwhich
p2291
F1.0
sVwe
p2292
F1.0
sVthat
p2293
F1.0
sVpair
p2294
F2.0
sVthe
p2295
F2.0
sVcategories
p2296
F1.0
sVcontexts
p2297
F1.0
sVof
p2298
F1.0
sVcollect
p2299
F1.0
sVeach
p2300
F1.0
sVT-FLOAT
p2301
F1.0
saa(lp2302
S'I05-501139'
p2303
a(dp2304
g53
F1.0
sVand
p2305
F1.0
sVtagged
p2306
F1.0
sVne
p2307
F1.0
sVwere
p2308
F1.0
sVchunker
p2309
F1.0
sVtagger
p2310
F1.0
sVby
p2311
F1.0
sVT-FLOAT
p2312
F1.0
sVsentences
p2313
F1.0
sVin
p2314
F1.0
sVtransformation-based
p2315
F1.0
sVthe
p2316
F2.0
sVan
p2317
F1.0
sVcorpus
p2318
F1.0
saa(lp2319
S'I05-501138'
p2320
a(dp2321
Vpairs
p2322
F1.0
sVfrom
p2323
F1.0
sVinstances
p2324
F1.0
sVcontexts
p2325
F1.0
sVextract
p2326
F2.0
sVcorpus
p2327
F1.0
sVne
p2328
F2.0
sg13
F1.0
sVinstance
p2329
F1.0
sVwe
p2330
F1.0
sVT-FLOAT
p2331
F1.0
sVcontext
p2332
F1.0
sVpair
p2333
F1.0
sVthe
p2334
F1.0
sVwith
p2335
F2.0
sVtheir
p2336
F1.0
sVfirst
p2337
F1.0
saa(lp2338
S'I05-5011124'
p2339
a(dp2340
g53
F3.0
sVset
p2341
F2.0
sVin
p2342
F1.0
sVfigure
p2343
F1.0
sVkeyword
p2344
F1.0
sVof
p2345
F2.0
sVis
p2346
F1.0
sVwithin
p2347
F2.0
sVshare
p2348
F1.0
sVillustrated
p2349
F1.0
sVT-INT
p2350
F1.0
sVwhich
p2351
F1.0
sVphrases
p2352
F1.0
sVparaphrases
p2353
F1.0
sVthe
p2354
F1.0
sVevaluation
p2355
F2.0
sVT-FLOAT
p2356
F1.0
saa(lp2357
S'I05-5011125'
p2358
a(dp2359
Vset
p2360
F2.0
sVin
p2361
F1.0
sVbracketed
p2362
F1.0
sVfor
p2363
F1.0
sVconsidered
p2364
F1.0
sVphrases
p2365
F1.0
sVparaphrases
p2366
F1.0
sg13
F1.0
sVare
p2367
F1.0
sVfrequencies
p2368
F1.0
sVeach
p2369
F1.0
sVnot
p2370
F1.0
sVthe
p2371
F2.0
sVwith
p2372
F1.0
sVT-FLOAT
p2373
F1.0
saa(lp2374
S'I05-5011120'
p2375
a(dp2376
g53
F1.0
sVprecise
p2377
F1.0
sVwe
p2378
F1.0
sVthis
p2379
F1.0
sVclear-cut
p2380
F1.0
sVis
p2381
F1.0
sg13
F1.0
sVevaluated
p2382
F1.0
sVmost
p2383
F1.0
sVcriterion
p2384
F1.0
sValthough
p2385
F1.0
sVwere
p2386
F1.0
sVnot
p2387
F1.0
sVcases
p2388
F1.0
sVT-FLOAT
p2389
F1.0
sVrelatively
p2390
F1.0
saa(lp2391
S'I05-5011123'
p2392
a(dp2393
Vthem
p2394
F1.0
sVtwo
p2395
F1.0
sVas
p2396
F2.0
sVtitles
p2397
F1.0
sVin
p2398
F1.0
sVtable
p2399
F1.0
sVie
p2400
F1.0
sVfill
p2401
F1.0
sVthese
p2402
F1.0
sVfor
p2403
F1.0
sVregarded
p2404
F1.0
sVparaphrases
p2405
F1.0
sg13
F2.0
sVsame
p2406
F1.0
sVevaluation
p2407
F1.0
sVwe
p2408
F1.0
sVan
p2409
F1.0
sVT-FLOAT
p2410
F1.0
sVcase
p2411
F1.0
sVcolumn
p2412
F1.0
sVof
p2413
F1.0
sVcould
p2414
F1.0
sVspecific
p2415
F1.0
sVthis
p2416
F1.0
sVthe
p2417
F2.0
saa(lp2418
S'I05-5011128'
p2419
a(dp2420
Vset
p2421
F1.0
sVratio
p2422
F1.0
sVin
p2423
F1.0
sVof
p2424
F3.0
sVcalculated
p2425
F1.0
sVparaphrases
p2426
F1.0
sVnumber
p2427
F2.0
sVto
p2428
F1.0
sVas
p2429
F1.0
sVT-FLOAT
p2430
F1.0
sVphrases
p2431
F1.0
sVthe
p2432
F5.0
sVtotal
p2433
F1.0
sVis
p2434
F1.0
sVaccuracy
p2435
F1.0
saa(lp2436
S'I05-5011129'
p2437
a(dp2438
Vshown
p2439
F1.0
sVnumber
p2440
F1.0
sVof
p2441
F1.0
sVin
p2442
F1.0
sVresults
p2443
F1.0
sg13
F2.0
sVT-INT
p2444
F1.0
sVare
p2445
F1.0
sVT-FLOAT
p2446
F1.0
sVphrases
p2447
F1.0
sVtable
p2448
F1.0
sValong
p2449
F1.0
sVtotal
p2450
F1.0
sVwith
p2451
F1.0
sVthe
p2452
F2.0
saa(lp2453
S'I05-501143'
p2454
a(dp2455
Vand
p2456
F1.0
sVfigure
p2457
F1.0
sVextracted
p2458
F1.0
sVcontexts
p2459
F1.0
sVof
p2460
F1.0
sVne
p2461
F1.0
sVT-INT
p2462
F1.0
sVexamples
p2463
F1.0
sVpair
p2464
F1.0
sVT-FLOAT
p2465
F1.0
sVinstances
p2466
F1.0
sVtheir
p2467
F1.0
sVshows
p2468
F1.0
saa(lp2469
S'I05-501140'
p2470
a(dp2471
g53
F1.0
sVal
p2472
F1.0
sVT-FLOAT
p2473
F2.0
sVis
p2474
F1.0
sg1039
F1.0
sVne
p2475
F2.0
sVsystem
p2476
F1.0
sVT-INT
p2477
F2.0
sVtagger
p2478
F1.0
sVsekine
p2479
F1.0
sg1038
F1.0
sVet
p2480
F1.0
sVthe
p2481
F1.0
sVwith
p2482
F1.0
sVrule-based
p2483
F1.0
sVcategories
p2484
F1.0
saa(lp2485
S'I05-501147'
p2486
a(dp2487
Vphrase
p2488
F1.0
sVcapture
p2489
F1.0
sVwe
p2490
F3.0
sVbelieve
p2491
F1.0
sVword
p2492
F1.0
sg1470
F1.0
sVfigure
p2493
F1.0
sVcan
p2494
F1.0
sg1224
F1.0
sg1225
F1.0
sg13
F1.0
sVby
p2495
F1.0
sVmeaning
p2496
F1.0
sVimportant
p2497
F1.0
sVkeyword
p2498
F2.0
sVof
p2499
F1.0
sg1468
F1.0
sVthe
p2500
F4.0
sVonce
p2501
F1.0
sVT-FLOAT
p2502
F3.0
sVout
p2503
F1.0
saa(lp2504
S'I05-501145'
p2505
a(dp2506
VT-INT
p2507
F1.0
sVstep
p2508
F1.0
sVT-FLOAT
p2509
F1.0
saa(lp2510
S'I05-501148'
p2511
a(dp2512
Vwe
p2513
F1.0
sVused
p2514
F1.0
sVmetric
p2515
F1.0
sVto
p2516
F1.0
sVidentify
p2517
F1.0
sVkeywords
p2518
F1.0
sVthe
p2519
F1.0
sVT-FLOAT
p2520
F1.0
sVtf/itf
p2521
F1.0
saa(lp2522
S'I05-501149'
p2523
a(dp2524
Vand
p2525
F1.0
sVall
p2526
F2.0
sVlinks
p2527
F1.0
sVdomain
p2528
F1.0
sVare
p2529
F2.0
sVin
p2530
F2.0
sVkeywords
p2531
F2.0
sVgiven
p2532
F1.0
sVbased
p2533
F1.0
sVfor
p2534
F2.0
sVphrases
p2535
F2.0
sVexcept
p2536
F1.0
sVT-INT
p2537
F2.0
sVbetween
p2538
F1.0
sVcollected
p2539
F1.0
sVgathered
p2540
F1.0
sVstep
p2541
F2.0
sVwords
p2542
F1.0
sVscores
p2543
F1.0
sVT-FLOAT
p2544
F1.0
sg53
F2.0
sVon
p2545
F1.0
sVcontexts
p2546
F1.0
sVof
p2547
F2.0
sVcalculated
p2548
F1.0
sVbag
p2549
F2.0
sVstopwords
p2550
F1.0
sVsets
p2551
F2.0
sVthe
p2552
F4.0
sVtf/itf
p2553
F1.0
saa(lp2554
S'I05-501151'
p2555
a(dp2556
VT-INT
p2557
F2.0
sVT-FLOAT
p2558
F1.0
sVfigure
p2559
F2.0
saa(lp2560
S'I05-501150'
p2561
a(dp2562
g53
F1.0
sVand
p2563
F1.0
sVterm
p2564
F2.0
sVinverse
p2565
F2.0
sVword
p2566
F1.0
sVlog
p2567
F1.0
sVentire
p2568
F1.0
sVof
p2569
F3.0
sVis
p2570
F2.0
sg13
F1.0
sVhere
p2571
F1.0
sVbag
p2572
F1.0
sVfrequency
p2573
F4.0
sVT-FLOAT
p2574
F1.0
sVin
p2575
F2.0
sVthe
p2576
F8.0
sVcorpus
p2577
F1.0
saa(lp2578
S'I05-501153'
p2579
a(dp2580
Vwe
p2581
F1.0
sValgorithm
p2582
F1.0
sVthis
p2583
F1.0
sVsection
p2584
F1.0
sg13
F1.0
sVby
p2585
F1.0
sVwill
p2586
F1.0
sVT-FLOAT
p2587
F1.0
sVstep
p2588
F2.0
sVexamples
p2589
F1.0
sVin
p2590
F1.0
sVthe
p2591
F1.0
sVwith
p2592
F1.0
sVexplain
p2593
F1.0
saa(lp2594
S'I05-501152'
p2595
a(dp2596
Vby
p2597
F1.0
sValgorithm
p2598
F1.0
sVoverview
p2599
F1.0
sVmethod
p2600
F1.0
sVT-INT
p2601
F2.0
sVstep
p2602
F2.0
sVof
p2603
F1.0
sVthe
p2604
F1.0
sVT-FLOAT
p2605
F2.0
saa(lp2606
S'I05-501155'
p2607
a(dp2608
Vsome
p2609
F1.0
sVtheir
p2610
F1.0
sVscores
p2611
F1.0
sVkeywords
p2612
F1.0
sVT-FLOAT
p2613
F1.0
sVwith
p2614
F1.0
sVshows
p2615
F1.0
saa(lp2616
S'I05-501154'
p2617
a(dp2618
Vappear
p2619
F1.0
sVbecause
p2620
F1.0
sVend
p2621
F1.0
sVto
p2622
F1.0
sVT-INT
p2623
F2.0
sg1224
F1.0
sVof
p2624
F2.0
sg13
F1.0
sVtheir
p2625
F1.0
sVpaper
p2626
F1.0
sVfigures
p2627
F1.0
sVexamples
p2628
F1.0
sg1225
F1.0
sVat
p2629
F1.0
sVthe
p2630
F3.0
sVT-FLOAT
p2631
F1.0
sVsize
p2632
F1.0
saa(lp2633
S'I05-501156'
p2634
a(dp2635
VT-INT
p2636
F1.0
sVstep
p2637
F1.0
sVT-FLOAT
p2638
F1.0
saa(lp2639
S'I05-501159'
p2640
a(dp2641
Vthen
p2642
F1.0
sVwe
p2643
F1.0
sVkeyword
p2644
F1.0
sVphrases
p2645
F1.0
sVgather
p2646
F1.0
sVall
p2647
F1.0
sVsame
p2648
F1.0
sVthe
p2649
F1.0
sVwith
p2650
F1.0
sVT-FLOAT
p2651
F1.0
saa(lp2652
S'I05-501158'
p2653
a(dp2654
g53
F1.0
sVword
p2655
F1.0
sVthat
p2656
F1.0
sg1224
F1.0
sVof
p2657
F1.0
sVis
p2658
F2.0
sg13
F1.0
sVtf/idf
p2659
F1.0
sVdiscarded
p2660
F1.0
sVbelow
p2661
F1.0
sVscore
p2662
F1.0
sg1225
F1.0
sVthreshold
p2663
F1.0
sVphrase
p2664
F1.0
sVthe
p2665
F2.0
sVT-FLOAT
p2666
F1.0
sVif
p2667
F1.0
saa(lp2668
S'I05-5011205'
p2669
a(dp2670
Von
p2671
F1.0
sVwe
p2672
F1.0
sVhave
p2673
F1.0
sVfor
p2674
F1.0
sVapplications
p2675
F1.0
sVvery
p2676
F1.0
sVphrases
p2677
F2.0
sVnamed
p2678
F1.0
sVtwo
p2679
F1.0
sg13
F1.0
sVentities
p2680
F1.0
sVas
p2681
F1.0
sVimportant
p2682
F1.0
sVare
p2683
F2.0
sVwhich
p2684
F1.0
sVof
p2685
F1.0
sVfocusing
p2686
F1.0
sVtypes
p2687
F1.0
sVT-FLOAT
p2688
F1.0
sVie
p2689
F1.0
sVthose
p2690
F1.0
saa(lp2691
S'I05-5011204'
p2692
a(dp2693
g53
F1.0
sVwe
p2694
F1.0
sVfrom
p2695
F1.0
sVproposed
p2696
F1.0
sVunsupervised
p2697
F1.0
sVT-FLOAT
p2698
F1.0
sVparaphrases
p2699
F1.0
sVdiscover
p2700
F1.0
sVan
p2701
F1.0
sVlarge
p2702
F1.0
sVto
p2703
F1.0
sVuntagged
p2704
F1.0
sVcorpus
p2705
F1.0
sVmethod
p2706
F1.0
saa(lp2707
S'I05-5011207'
p2708
a(dp2709
Vand
p2710
F2.0
sVdomain
p2711
F1.0
sVassigned
p2712
F1.0
sVare
p2713
F1.0
sVin
p2714
F1.0
sVour
p2715
F1.0
sVtotal
p2716
F1.0
sVsize
p2717
F1.0
sVfrom
p2718
F1.0
sVT-INT
p2719
F4.0
sg13
F3.0
sVto
p2720
F2.0
sVevaluation
p2721
F1.0
sVaccuracy
p2722
F1.0
sVof
p2723
F2.0
sVranges
p2724
F1.0
sg895
F1.0
sVdata
p2725
F1.0
sVT-FLOAT
p2726
F1.0
sVon
p2727
F2.0
sVphrases
p2728
F2.0
sVdepending
p2729
F1.0
sVsets
p2730
F2.0
sVthe
p2731
F4.0
saa(lp2732
S'I05-5011206'
p2733
a(dp2734
Vbeing
p2735
F1.0
sVan
p2736
F1.0
sVseed
p2737
F1.0
sVtagger
p2738
F1.0
sVphrase
p2739
F1.0
sVT-FLOAT
p2740
F1.0
sVfind
p2741
F1.0
sVgiven
p2742
F1.0
sVparaphrases
p2743
F1.0
sVne
p2744
F1.0
sVany
p2745
F1.0
sVto
p2746
F1.0
sVcue
p2747
F1.0
sVcorpus
p2748
F1.0
sVmethod
p2749
F1.0
sVafter
p2750
F1.0
sVtries
p2751
F1.0
sVwith
p2752
F1.0
sg13
F1.0
sVtagging
p2753
F1.0
sg53
F2.0
sVkind
p2754
F1.0
sVof
p2755
F2.0
sVlarge
p2756
F1.0
sVwithout
p2757
F1.0
sVsets
p2758
F1.0
sVthe
p2759
F1.0
sVautomatic
p2760
F1.0
sVor
p2761
F1.0
sVautomatically
p2762
F1.0
saa(lp2763
S'I05-5011201'
p2764
a(dp2765
g53
F2.0
sVbe
p2766
F1.0
sVand
p2767
F1.0
sVset
p2768
F1.0
sVhelp
p2769
F1.0
sVbig
p2770
F1.0
sVcreate
p2771
F1.0
sVparaphrases
p2772
F1.0
sVreduce
p2773
F1.0
sVlabor
p2774
F1.0
sVdiscovered
p2775
F1.0
sVto
p2776
F1.0
sVcan
p2777
F1.0
sVhuman
p2778
F1.0
sVcomprehensive
p2779
F1.0
sVpattern
p2780
F1.0
sVthe
p2781
F1.0
sVT-FLOAT
p2782
F1.0
sVmore
p2783
F1.0
saa(lp2784
S'I05-5011203'
p2785
a(dp2786
Vis
p2787
F1.0
sVidea
p2788
F1.0
sVan
p2789
F1.0
sVare
p2790
F1.0
sVinformation
p2791
F1.0
sVsystem
p2792
F1.0
sVfor
p2793
F1.0
sVextraction
p2794
F1.0
sVthere
p2795
F1.0
sg13
F1.0
sVto
p2796
F1.0
sVother
p2797
F1.0
sVparaphrase
p2798
F1.0
sVdiscovery
p2799
F1.0
sg53
F1.0
sVwe
p2800
F1.0
sVcomponent
p2801
F1.0
sVimportant
p2802
F1.0
sVbelieve
p2803
F1.0
sVbuilding
p2804
F1.0
sVthis
p2805
F1.0
sVfully
p2806
F1.0
sVcompleting
p2807
F1.0
sVobstacles
p2808
F1.0
sVwhile
p2809
F1.0
sVT-FLOAT
p2810
F1.0
sVautomatic
p2811
F2.0
saa(lp2812
S'I05-5011202'
p2813
a(dp2814
Vgeneration
p2815
F1.0
sVexpanding
p2816
F1.0
sVsudo
p2817
F1.0
sVhave
p2818
F1.0
sVtable
p2819
F1.0
sVour
p2820
F1.0
sVlinked
p2821
F1.0
sVtechniques
p2822
F1.0
sVfor
p2823
F1.0
sVextraction
p2824
F2.0
sg1224
F1.0
sg1225
F1.0
sg13
F3.0
sVsame
p2825
F1.0
sVT-INT
p2826
F2.0
sVwhich
p2827
F1.0
sg340
F1.0
sVmethod
p2828
F1.0
sVbe
p2829
F1.0
sVto
p2830
F1.0
sVmeaning
p2831
F1.0
sVproduce
p2832
F1.0
sVusing
p2833
F1.0
sVT-FLOAT
p2834
F1.0
sVon
p2835
F1.0
sVof
p2836
F1.0
sValso
p2837
F1.0
sVus
p2838
F1.0
sVfinal
p2839
F1.0
sVenabling
p2840
F1.0
sVpatterns
p2841
F2.0
sVcan
p2842
F1.0
sVriloff
p2843
F1.0
sVfully
p2844
F1.0
sVthe
p2845
F5.0
sVautomatic
p2846
F1.0
sVautomatically
p2847
F2.0
saa(lp2848
S'I05-5011209'
p2849
a(dp2850
Vand
p2851
F1.0
sVon
p2852
F1.0
sVfor
p2853
F1.0
sVthese
p2854
F2.0
sVthere
p2855
F1.0
sVresults
p2856
F2.0
sVare
p2857
F2.0
sVpromising
p2858
F1.0
sVimproving
p2859
F1.0
sVavenues
p2860
F1.0
sVseveral
p2861
F1.0
sVT-FLOAT
p2862
F1.0
saa(lp2863
S'I05-5011208'
p2864
a(dp2865
Vand
p2866
F1.0
sVon
p2867
F1.0
sg895
F2.0
sVfor
p2868
F1.0
sVaccuracies
p2869
F1.0
sVtwo
p2870
F1.0
sVevaluated
p2871
F1.0
sVT-INT
p2872
F2.0
sVlink
p2873
F1.0
sVwere
p2874
F1.0
sVdomains
p2875
F1.0
sVthe
p2876
F1.0
sVT-FLOAT
p2877
F1.0
saa.