(lp0
(lp1
S'J00-3003278'
p2
a(dp3
Vassociated
p4
F1.0
sVare
p5
F1.0
sVstatistical
p6
F1.0
sVsequences
p7
F1.0
sVT-FLOAT
p8
F1.0
sVinformation
p9
F1.0
sVuse
p10
F1.0
sVleverage
p11
F1.0
sVto
p12
F1.0
sV,
p13
F2.0
sVsource
p14
F1.0
sVwhich
p15
F2.0
sVtype
p16
F1.0
sVwe
p17
F1.0
sVfull
p18
F1.0
sVthat
p19
F1.0
sVmodels
p20
F1.0
sVhand-coding
p21
F1.0
sVda
p22
F1.0
sVindicative
p23
F1.0
sVwords
p24
F1.0
sVdas
p25
F1.0
sVwith
p26
F1.0
sVthe
p27
F1.0
sVknowledge
p28
F1.0
sVabout
p29
F1.0
sVword
p30
F1.0
sVlanguage
p31
F1.0
sVthis
p32
F1.0
sVof
p33
F1.0
sVwill
p34
F1.0
sVwithout
p35
F1.0
sVeach
p36
F1.0
sVmodel
p37
F1.0
saa(lp38
S'J00-3003200'
p39
a(dp40
Vei
p41
F1.0
sVith
p42
F2.0
sVcorresponds
p43
F1.0
sVevidence
p44
F1.0
sVin
p45
F1.0
sVprosody
p46
F1.0
sVuse
p47
F1.0
sVfor
p48
F1.0
sVaddition
p49
F1.0
sg13
F3.0
sVto
p50
F1.0
sVwe
p51
F1.0
sVthat
p52
F2.0
sVwords
p53
F1.0
sVT-FLOAT
p54
F3.0
sVe
p55
F1.0
sVg
p56
F1.0
sVof
p57
F2.0
sVportion
p58
F1.0
sVthe
p59
F5.0
sVutterance
p60
F2.0
sVor
p61
F1.0
saa(lp62
S'J00-3003251'
p63
a(dp64
Vconventional
p65
F1.0
sVbigram
p66
F1.0
sVthat
p67
F1.0
sVprobabilities
p68
F2.0
sVof
p69
F1.0
sVadjacency
p70
F1.0
sVpairs
p71
F1.0
sVrevealed
p72
F1.0
sVdata
p73
F1.0
sVhigh
p74
F1.0
sVreceive
p75
F1.0
sVas
p76
F1.0
sVour
p77
F1.0
sVexpected
p78
F1.0
sVfrom
p79
F1.0
sVT-FLOAT
p80
F1.0
sVestimated
p81
F1.0
sVinspection
p82
F1.0
sg13
F1.0
saa(lp83
S'J00-3003201'
p84
a(dp85
g55
F1.0
sVT-INT
p86
F2.0
sVmeans
p87
F1.0
sV)
p88
F1.0
sVof
p89
F1.0
sVdecomposability
p90
F1.0
sVthat
p91
F1.0
sVp
p92
F2.0
sVu
p93
F1.0
sV=
p94
F1.0
sV(
p95
F1.0
sVthe
p96
F1.0
sVlikelihood
p97
F1.0
sVT-FLOAT
p98
F1.0
saa(lp99
S'J00-3003276'
p100
a(dp101
Vand
p102
F1.0
sVwe
p103
F1.0
sVsimilarly
p104
F1.0
sVdistinctive
p105
F1.0
sVcorrelations
p106
F1.0
sg13
F1.0
sVda
p107
F1.0
sVcertain
p108
F1.0
sVphrases
p109
F1.0
sVbetween
p110
F1.0
sVT-FLOAT
p111
F1.0
sVfind
p112
F1.0
sVtypes
p113
F1.0
saa(lp114
S'J00-3003149'
p115
a(dp116
Vdo
p117
F1.0
sVdialogue
p118
F1.0
sVyes-no-question
p119
F1.0
sVtraining
p120
F1.0
sVany
p121
F1.0
sVto
p122
F1.0
sV?
p123
F1.0
sVhave
p124
F2.0
sVact
p125
F1.0
sVyou
p126
F1.0
sVutterance
p127
F1.0
sVexample
p128
F1.0
sVspecial
p129
F1.0
saa(lp130
S'J00-3003148'
p131
a(dp132
Va
p133
F1.0
sVand
p134
F1.0
sVfor
p135
F1.0
sVof
p136
F1.0
sVrealizations
p137
F1.0
sVtheir
p138
F1.0
sVsee
p139
F1.0
sVdeclarative
p140
F1.0
sVsurvey
p141
F1.0
sVquestions
p142
F1.0
sVvarious
p143
F1.0
sVT-FLOAT
p144
F1.0
sVweber
p145
F1.0
saa(lp146
S'J00-3003213'
p147
a(dp148
Vis
p149
F1.0
sVone
p150
F2.0
sVas
p151
F1.0
sVexperiments
p152
F1.0
sVat
p153
F1.0
sVin
p154
F1.0
sVour
p155
F1.0
sVT-FLOAT
p156
F3.0
sVquality
p157
F1.0
sVremoved
p158
F1.0
sVdescribed
p159
F1.0
sVmuch
p160
F1.0
sg13
F4.0
sVleast
p161
F1.0
sVby
p162
F1.0
sVcurrent
p163
F1.0
sVT-INT
p164
F1.0
sVdoes
p165
F1.0
sg94
F1.0
sVmore
p166
F1.0
sVavailable
p167
F1.0
sVmodel
p168
F1.0
sVgood
p169
F1.0
sVvery
p170
F1.0
sVchoice
p171
F1.0
sVconditioning
p172
F1.0
sVnot
p173
F1.0
sVfrom
p174
F1.0
sVda
p175
F1.0
sVwith
p176
F1.0
sVthan
p177
F1.0
sVtypes
p178
F1.0
sVimprove
p179
F1.0
sg133
F1.0
sVon
p180
F1.0
sg55
F1.0
sVi
p181
F1.0
sVof
p182
F2.0
sVk
p183
F1.0
sVlater
p184
F1.0
sVamount
p185
F1.0
sVdata
p186
F1.0
sVthe
p187
F5.0
saa(lp188
S'J00-3003212'
p189
a(dp190
Vwe
p191
F1.0
sVused
p192
F1.0
sVthis
p193
F1.0
sVn-gram-based
p194
F1.0
sVgrammars
p195
F1.0
sVdiscourse
p196
F1.0
sVhave
p197
F1.0
sVthe
p198
F1.0
sVproperty
p199
F1.0
sVT-FLOAT
p200
F1.0
saa(lp201
S'J00-3003210'
p202
a(dp203
Vmarkovian
p204
F1.0
sVis
p205
F1.0
sVlabels
p206
F1.0
sVnumber
p207
F1.0
sVdepends
p208
F1.0
sVin
p209
F1.0
sg181
F1.0
sg92
F1.0
sg88
F1.0
sg95
F2.0
sg13
F5.0
sVT-INT
p210
F1.0
sVonly
p211
F1.0
sVuilul
p212
F1.0
sV~-p
p213
F1.0
sVui
p214
F2.0
sV:
p215
F1.0
sVuilui-k
p216
F1.0
sVwe
p217
F1.0
sVthat
p218
F2.0
sVpreceding
p219
F1.0
sVdistribution
p220
F1.0
sVda
p221
F1.0
sVparticular
p222
F1.0
sVthe
p223
F1.0
sg133
F1.0
sVon
p224
F1.0
sg55
F1.0
sVassume
p225
F1.0
sVof
p226
F2.0
sg183
F1.0
sVprior
p227
F1.0
sg93
F1.0
sVeach
p228
F1.0
sVT-FLOAT
p229
F6.0
sVfixed
p230
F1.0
saa(lp231
S'J00-3003214'
p232
a(dp233
Vand
p234
F2.0
sVis
p235
F1.0
sVutterance-based
p236
F1.0
sVas
p237
F1.0
sVT-FLOAT
p238
F1.0
sVfor
p239
F1.0
sg88
F1.0
sVkth-order
p240
F1.0
sVsystem
p241
F1.0
sVT-INT
p242
F1.0
sVdiscourse
p243
F2.0
sVassumption
p244
F1.0
sVhidden
p245
F1.0
sVlocal
p246
F1.0
sVmodel
p247
F1.0
sVwe
p248
F1.0
sVthat
p249
F1.0
sVimportance
p250
F1.0
sVmarkov
p251
F2.0
sVnow
p252
F1.0
sVthe
p253
F4.0
sg133
F1.0
sVgrammar
p254
F2.0
sVjuang
p255
F1.0
sVof
p256
F2.0
sVrabiner
p257
F1.0
sVcan
p258
F1.0
sg95
F1.0
sVlikelihoods
p259
F1.0
sVwhole
p260
F1.0
sVview
p261
F1.0
saa(lp262
S'J00-3003217'
p263
a(dp264
Vdirected
p265
F1.0
sVfigure
p266
F1.0
sVhmm
p267
F1.0
sVrepresenting
p268
F1.0
sVvariables
p269
F1.0
sVconditional
p270
F1.0
sVdependence
p271
F1.0
sVT-INT
p272
F1.0
sVedges
p273
F1.0
sVresulting
p274
F1.0
sVin
p275
F1.0
sVthe
p276
F2.0
sVwith
p277
F1.0
sVT-FLOAT
p278
F1.0
sVshows
p279
F1.0
saa(lp280
S'J00-3003216'
p281
a(dp282
Vrepresent
p283
F1.0
sVconditional
p284
F1.0
sVas
p285
F3.0
sVspecial
p286
F1.0
sVnetwork
p287
F1.0
sVT-INT
p288
F1.0
sg88
F2.0
sg95
F2.0
sVpearl
p289
F1.0
sVcase
p290
F1.0
sVwe
p291
F1.0
sVbelief
p292
F1.0
sVbayesian
p293
F1.0
sVT-FLOAT
p294
F1.0
sVstructure
p295
F1.0
sg133
F1.0
sVindependences
p296
F1.0
sVof
p297
F1.0
sVwell
p298
F1.0
sVdependency
p299
F1.0
sVimplied
p300
F1.0
sVcan
p301
F1.0
sVthe
p302
F2.0
saa(lp303
S'J00-3003141'
p304
a(dp305
Vand
p306
F1.0
sVopinions
p307
F1.0
sVbelieve
p308
F1.0
sVoften
p309
F1.0
sVhedges
p310
F1.0
sVseems
p311
F1.0
sg13
F3.0
sVit
p312
F1.0
sg181
F3.0
sVas
p313
F1.0
sVsuch
p314
F1.0
sVT-FLOAT
p315
F1.0
sVinclude
p316
F1.0
sVthink
p317
F1.0
sVmean
p318
F1.0
saa(lp319
S'J00-3003140'
p320
a(dp321
Vand
p322
F1.0
sVconfused
p323
F1.0
sVrate
p324
F1.0
sVare
p325
F1.0
sVT-FLOAT
p326
F1.0
sVcues
p327
F1.0
sVno
p328
F1.0
sg13
F1.0
sVT-INT
p329
F1.0
sVonly
p330
F1.0
sVother
p331
F1.0
sVagreements
p332
F1.0
sVwhich
p333
F1.0
sV;
p334
F1.0
sVwas
p335
F1.0
sVbackchannels
p336
F1.0
sVhigher
p337
F1.0
sVwere
p338
F1.0
sVhere
p339
F1.0
sVda
p340
F1.0
sVchange
p341
F1.0
sV%
p342
F1.0
sVwith
p343
F2.0
sVthan
p344
F1.0
sVtypes
p345
F1.0
sVeasily
p346
F1.0
sVof
p347
F1.0
sVuncertainty
p348
F1.0
sVwithout
p349
F1.0
sVeach
p350
F1.0
sVacoustic
p351
F1.0
sVthe
p352
F2.0
sVmore
p353
F1.0
saa(lp354
S'J00-3003143'
p355
a(dp356
VT-FLOAT
p357
F1.0
sVquestions
p358
F1.0
saa(lp359
S'J00-3003142'
p360
a(dp361
Vand
p362
F1.0
sVal
p363
F1.0
sVin
p364
F1.0
sVet
p365
F1.0
sVdiffer
p366
F1.0
sVdimensions
p367
F1.0
sVfor
p368
F1.0
sg88
F1.0
sg95
F1.0
sVshriberg
p369
F1.0
sVT-INT
p370
F1.0
sVother
p371
F1.0
sVcombined
p372
F1.0
sVwhich
p373
F1.0
sVwe
p374
F1.0
sVstatement
p375
F1.0
sVthey
p376
F1.0
sVnot
p377
F1.0
sVT-FLOAT
p378
F2.0
sVon
p379
F1.0
sVdid
p380
F1.0
sVclasses
p381
F1.0
sVopinion
p382
F1.0
sVthe
p383
F1.0
sVstudies
p384
F1.0
saa(lp385
S'J00-3003145'
p386
a(dp387
Vand
p388
F1.0
sVforce
p389
F1.0
sVpragmatic
p390
F1.0
sVyes-no-question
p391
F3.0
sg88
F1.0
sg95
F1.0
sg13
F1.0
sVlabel
p392
F1.0
sVonly
p393
F1.0
sVsubject-inversion
p394
F1.0
sVtags
p395
F1.0
sVincludes
p396
F1.0
sVmarkings
p397
F1.0
sVthe
p398
F3.0
sg133
F2.0
sVboth
p399
F1.0
sg55
F1.0
sVutterances
p400
F1.0
sg181
F1.0
sVof
p401
F2.0
sVsyntactic
p402
F1.0
sVhaving
p403
F1.0
sVsentence-final
p404
F1.0
sVT-FLOAT
p405
F3.0
sVor
p406
F1.0
saa(lp407
S'J00-3003144'
p408
a(dp409
Vof
p410
F1.0
sVquestions
p411
F1.0
sVwere
p412
F1.0
sVT-FLOAT
p413
F1.0
sVseveral
p414
F1.0
sVtypes
p415
F1.0
saa(lp416
S'J00-3003147'
p417
a(dp418
Vand
p419
F1.0
sVquestions
p420
F1.0
sVwh-word
p421
F1.0
sV``
p422
F2.0
sg13
F1.0
sV''
p423
F2.0
sVas
p424
F1.0
sVecho-question
p425
F1.0
sVhave
p426
F2.0
sVin
p427
F2.0
sVT-FLOAT
p428
F1.0
sVsubject
p429
F1.0
sVno
p430
F1.0
sg88
F1.0
sg95
F1.0
sVformat
p431
F1.0
sVexcept
p432
F1.0
sVwhich
p433
F1.0
sVwe
p434
F1.0
sVthat
p435
F1.0
sVargument
p436
F1.0
sVverb
p437
F2.0
sVby
p438
F1.0
sVword
p439
F1.0
sVthis
p440
F1.0
sVof
p441
F1.0
sVprecedes
p442
F1.0
sVdeclarative
p443
F2.0
sVthe
p444
F4.0
sVnormally
p445
F1.0
sVorder
p446
F1.0
sVmean
p447
F1.0
saa(lp448
S'J00-3003146'
p449
a(dp450
Vfunction
p451
F1.0
sVdo
p452
F1.0
sV``
p453
F2.0
sVdeclarativequestions
p454
F1.0
sVhave
p455
F1.0
sVutterances
p456
F1.0
sVthat
p457
F1.0
sVquestion
p458
F1.0
sVbut
p459
F1.0
sVas
p460
F1.0
sVform
p461
F1.0
sVare
p462
F1.0
sVquestions
p463
F1.0
sVnot
p464
F1.0
sVT-FLOAT
p465
F1.0
sVpragmatically
p466
F1.0
saa(lp467
S'J00-300390'
p468
a(dp469
Vand
p470
F1.0
sg133
F1.0
sVannotated
p471
F1.0
sVwas
p472
F2.0
sVlabel
p473
F1.0
sVidentified
p474
F1.0
sVone
p475
F1.0
sVsingle
p476
F1.0
sVutterance
p477
F1.0
sVeach
p478
F1.0
sVT-FLOAT
p479
F1.0
sVda
p480
F2.0
sVwith
p481
F2.0
sg13
F1.0
sVunit
p482
F1.0
saa(lp483
S'J00-300391'
p484
a(dp485
Vrare
p486
F1.0
sVfor
p487
F1.0
sVprovisions
p488
F1.0
sVutterances
p489
F1.0
sVof
p490
F1.0
sVhad
p491
F1.0
sVsystem
p492
F1.0
sVlabeling
p493
F1.0
sVda
p494
F2.0
sVto
p495
F1.0
sVcombine
p496
F1.0
sVtypes
p497
F1.0
sVT-FLOAT
p498
F1.0
sVaspects
p499
F1.0
sVthe
p500
F1.0
sVseveral
p501
F1.0
sVwhere
p502
F1.0
sVcases
p503
F1.0
sVspecial
p504
F1.0
sVseemed
p505
F1.0
saa(lp506
S'J00-300392'
p507
a(dp508
Vstolcke
p509
F1.0
sVand
p510
F1.0
sVown
p511
F1.0
sVis
p512
F1.0
sVal
p513
F1.0
sVan
p514
F1.0
sVright
p515
F1.0
sVin
p516
F1.0
sVet
p517
F1.0
sVopen
p518
F1.0
sVits
p519
F1.0
sg88
F1.0
sg95
F1.0
sVspontaneous
p520
F1.0
sVshriberg
p521
F1.0
sVresearch
p522
F1.0
sVT-INT
p523
F2.0
sVspeech
p524
F1.0
sg334
F1.0
sVsegmentation
p525
F1.0
sVproblem
p526
F1.0
sVof
p527
F1.0
sVmast
p528
F1.0
sVT-FLOAT
p529
F2.0
sVautomatic
p530
F1.0
saa(lp531
S'J00-300393'
p532
a(dp533
Vand
p534
F1.0
sVidea
p535
F1.0
sVet
p536
F1.0
sVrough
p537
F1.0
sVfrom
p538
F1.0
sg88
F1.0
sg95
F1.0
sVshriberg
p539
F1.0
sVsame
p540
F1.0
sVT-INT
p541
F1.0
sVunits
p542
F1.0
sVcorpus
p543
F1.0
sVbe
p544
F1.0
sVsegmentation
p545
F1.0
sVdefinition
p546
F1.0
sVderived
p547
F1.0
sVal
p548
F1.0
sVdifficulty
p549
F1.0
sVusing
p550
F1.0
sVproblem
p551
F1.0
sVrecent
p552
F1.0
sg133
F2.0
sVon
p553
F1.0
sVthis
p554
F1.0
sVof
p555
F3.0
sVstudy
p556
F1.0
sVT-FLOAT
p557
F2.0
sVcan
p558
F1.0
sVthe
p559
F3.0
sVutterance
p560
F1.0
saa(lp561
S'J00-300394'
p562
a(dp563
Vand
p564
F2.0
sVan
p565
F1.0
sVas
p566
F1.0
sVrecognized
p567
F1.0
sVin
p568
F1.0
sVbased
p569
F1.0
sVcues
p570
F1.0
sVT-INT
p571
F2.0
sVlexical
p572
F1.0
sg13
F2.0
sVboundaries
p573
F1.0
sVautomatic
p574
F1.0
sVcorrect
p575
F1.0
sVprosodic
p576
F1.0
sVobtained
p577
F1.0
sVwe
p578
F1.0
sVaccuracy
p579
F2.0
sVcombination
p580
F1.0
sVnonboundaries
p581
F1.0
sVwords
p582
F1.0
sVusing
p583
F1.0
sVwith
p584
F1.0
sVT-FLOAT
p585
F1.0
sg133
F1.0
sVon
p586
F1.0
sVword
p587
F2.0
sVof
p588
F2.0
sVlabeling
p589
F1.0
sVeither
p590
F1.0
sVtranscripts
p591
F1.0
sg342
F2.0
sVutterance
p592
F1.0
sVor
p593
F1.0
sVautomatically
p594
F1.0
saa(lp595
S'J00-300395'
p596
a(dp597
Vand
p598
F1.0
sVsegmentation
p599
F1.0
sVtasks
p600
F1.0
sVwarnke
p601
F1.0
sVthat
p602
F1.0
sg88
F1.0
sg95
F1.0
sVinterdependent
p603
F1.0
sVlabeling
p604
F1.0
sVal
p605
F2.0
sVfinke
p606
F1.0
sVT-INT
p607
F2.0
sVcomplicates
p608
F1.0
sVare
p609
F1.0
sVproblem
p610
F1.0
sg334
F1.0
sVfurther
p611
F1.0
sVet
p612
F2.0
sVthe
p613
F3.0
sVT-FLOAT
p614
F3.0
sVfact
p615
F1.0
saa(lp616
S'J00-300396'
p617
a(dp618
Vand
p619
F1.0
sVconsiderations
p620
F1.0
sVclassification
p621
F1.0
sVsegmentation
p622
F1.0
sVconfound
p623
F1.0
sVas
p624
F1.0
sVdecided
p625
F1.0
sVsegmentations
p626
F1.0
sVT-FLOAT
p627
F1.0
sVgiven
p628
F1.0
sVbased
p629
F1.0
sVadditional
p630
F1.0
sVassumed
p631
F1.0
sg13
F1.0
sVto
p632
F1.0
sVwe
p633
F1.0
sVutterance-level
p634
F1.0
sVproblems
p635
F1.0
sVda
p636
F1.0
sVnot
p637
F1.0
sVwith
p638
F1.0
sVby
p639
F1.0
sVon
p640
F1.0
sVtask
p641
F1.0
sVthese
p642
F1.0
sVthe
p643
F3.0
sVintroduced
p644
F1.0
sVautomatic
p645
F1.0
saa(lp646
S'J00-300397'
p647
a(dp648
Vand
p649
F1.0
sVfeatures
p650
F1.0
sVaccurate
p651
F1.0
sVal
p652
F1.0
sVan
p653
F1.0
sVsee
p654
F1.0
sVat
p655
F1.0
sVet
p656
F1.0
sVout
p657
F1.0
sVT-INT
p658
F4.0
sg88
F1.0
sg95
F1.0
sVdecision
p659
F1.0
sVshriberg
p660
F1.0
sg13
F1.0
sVboundaries
p661
F1.0
sVto
p662
F2.0
sVwhich
p663
F1.0
sg334
F1.0
sVis
p664
F1.0
sVbe
p665
F2.0
sVwe
p666
F1.0
sVthat
p667
F1.0
sVimportant
p668
F2.0
sVdas
p669
F1.0
sVproperties
p670
F1.0
sVboth
p671
F1.0
sVthis
p672
F1.0
sVof
p673
F3.0
sValso
p674
F1.0
sVturn
p675
F1.0
sVlength
p676
F1.0
sVcan
p677
F1.0
sVconsequence
p678
F1.0
sVacoustic
p679
F1.0
sVT-FLOAT
p680
F4.0
sVutterance
p681
F2.0
sVsection
p682
F1.0
sVexpect
p683
F1.0
saa(lp684
S'J00-300398'
p685
a(dp686
VT-INT
p687
F2.0
sVT-FLOAT
p688
F2.0
sVtag
p689
F1.0
sVset
p690
F1.0
saa(lp691
S'J00-300399'
p692
a(dp693
Vand
p694
F1.0
sVset
p695
F1.0
sVcommunity
p696
F1.0
sVtag
p697
F1.0
sVinitiative
p698
F1.0
sVin
p699
F1.0
sVfollow
p700
F1.0
sVT-FLOAT
p701
F1.0
sVauspices
p702
F1.0
sVlayers
p703
F1.0
sVfor
p704
F1.0
sVT-INT
p705
F1.0
sg88
F1.0
sg95
F1.0
sg13
F2.0
sVby
p706
F1.0
sVto
p707
F1.0
sVdiscourse
p708
F2.0
sVwhich
p709
F1.0
sVunder
p710
F1.0
sVseveral
p711
F1.0
sVwas
p712
F1.0
sVcore
p713
F1.0
sVwe
p714
F1.0
sVprocessing
p715
F1.0
sVchose
p716
F1.0
sVshallow
p717
F1.0
sVstandard
p718
F1.0
sVallen
p719
F1.0
sVdesigned
p720
F1.0
sVresource
p721
F1.0
sVannotation
p722
F1.0
sVstructure
p723
F1.0
sVrecent
p724
F1.0
sg133
F1.0
sVnatural
p725
F1.0
sVlanguage
p726
F1.0
sVof
p727
F1.0
sVmarkup
p728
F1.0
sVdialog
p729
F1.0
sVact
p730
F1.0
sVthe
p731
F4.0
saa(lp732
S'J00-3003293'
p733
a(dp734
Vand
p735
F2.0
sVall
p736
F1.0
sVword-based
p737
F1.0
sV~-~p
p738
F1.0
sVover
p739
F1.0
sVit
p740
F1.0
sVan
p741
F1.0
sVsecond
p742
F1.0
sVare
p743
F2.0
sVsequences
p744
F1.0
sVT-FLOAT
p745
F1.0
sVline
p746
F1.0
sVlikelihood
p747
F2.0
sVto
p748
F1.0
sg88
F6.0
sg95
F6.0
sg13
F3.0
sVdecomposing
p749
F1.0
sVtype
p750
F1.0
sVassumption
p751
F1.0
sVcoefficients
p752
F1.0
sVunder
p753
F1.0
sVinvariant
p754
F1.0
sVjustified
p755
F1.0
sg215
F1.0
sg94
F2.0
sVinto
p756
F1.0
sVwe
p757
F1.0
sVthat
p758
F1.0
sVda
p759
F1.0
sVwords
p760
F1.0
sV~pp
p761
F1.0
sVword
p762
F1.0
sV[
p763
F3.0
sV]
p764
F1.0
sVby
p765
F1.0
sVis
p766
F1.0
sg133
F3.0
sVcompute
p767
F1.0
sVacoustics
p768
F1.0
sVaiw
p769
F1.0
sVsumming
p770
F1.0
sg92
F5.0
sVcepstral
p771
F1.0
sg93
F4.0
sVw
p772
F5.0
sVrecognizer
p773
F1.0
sVacoustic
p774
F1.0
sVthe
p775
F4.0
sVfixed
p776
F1.0
sVtypically
p777
F1.0
sVonce
p778
F1.0
saa(lp779
S'J00-3003292'
p780
a(dp781
Vspectral
p782
F1.0
sVinformation
p783
F1.0
sV's
p784
F1.0
sVfeatures
p785
F1.0
sVclassification
p786
F1.0
sVthat
p787
F1.0
sg88
F1.0
sg95
F1.0
sVis
p788
F1.0
sVmodified
p789
F1.0
sVevidence
p790
F1.0
sVframework
p791
F1.0
sVas
p792
F1.0
sg133
F1.0
sVacoustic
p793
F1.0
sVrecognizer
p794
F1.0
sVsuch
p795
F1.0
sVthe
p796
F3.0
sVT-FLOAT
p797
F1.0
sVappear
p798
F1.0
saa(lp799
S'J00-3003295'
p800
a(dp801
Vpronunciations
p802
F1.0
sVbe
p803
F1.0
sVdifferent
p804
F2.0
sVword
p805
F1.0
sVfor
p806
F1.0
sVmay
p807
F1.0
sg13
F1.0
sVby
p808
F1.0
sVrealized
p809
F1.0
sVcommon
p810
F1.0
sVwords
p811
F1.0
sVdas
p812
F1.0
sVT-FLOAT
p813
F1.0
sVwith
p814
F1.0
sVexample
p815
F1.0
saa(lp816
S'J00-3003294'
p817
a(dp818
Vapproximation
p819
F1.0
sVthat
p820
F1.0
sVthis
p821
F1.0
sVis
p822
F1.0
sVnote
p823
F1.0
sVanother
p824
F1.0
sVin
p825
F1.0
sVour
p826
F1.0
sVmodeling
p827
F1.0
sVT-FLOAT
p828
F1.0
saa(lp829
S'J00-3003297'
p830
a(dp831
Vall
p832
F1.0
sVsequence
p833
F1.0
sVhypothesized
p834
F1.0
sVover
p835
F2.0
sVsummed
p836
F1.0
sVup
p837
F1.0
sVexperiments
p838
F1.0
sVin
p839
F1.0
sVsummation
p840
F1.0
sVour
p841
F1.0
sVapproximated
p842
F1.0
sVbest
p843
F1.0
sVfor
p844
F2.0
sVT-INT
p845
F2.0
sg88
F2.0
sg95
F2.0
sg13
F1.0
sVby
p846
F1.0
sVto
p847
F2.0
sg334
F1.0
sVbe
p848
F1.0
sVwe
p849
F1.0
sVoutputs
p850
F1.0
sVgenerated
p851
F1.0
sVevery
p852
F1.0
sVscores
p853
F1.0
sg763
F1.0
sVthe
p854
F6.0
sVmust
p855
F1.0
sg133
F1.0
sVword
p856
F1.0
sVlikelihoods
p857
F1.0
sVcorrespond
p858
F1.0
sVhypotheses
p859
F1.0
sg92
F1.0
sg772
F3.0
sVeach
p860
F1.0
sVrecognizer
p861
F2.0
sVacoustic
p862
F2.0
sVT-FLOAT
p863
F2.0
sVutterance
p864
F1.0
saa(lp865
S'J00-3003296'
p866
a(dp867
Vfigure
p868
F2.0
sVvariables
p869
F1.0
sVin
p870
F1.0
sVthrough
p871
F1.0
sVhave
p872
F1.0
sVsummed
p873
F1.0
sVfrom
p874
F1.0
sVnetwork
p875
F1.0
sVto
p876
F2.0
sg88
F1.0
sg95
F1.0
sVnote
p877
F1.0
sVT-INT
p878
F2.0
sVassumption
p879
F1.0
sVunder
p880
F1.0
sg334
F1.0
sVover
p881
F1.0
sVindependence
p882
F1.0
sVshows
p883
F1.0
sVbe
p884
F1.0
sVadded
p885
F1.0
sVthat
p886
F1.0
sVwi
p887
F1.0
sVbayes
p888
F1.0
sVmodeling
p889
F1.0
sVT-FLOAT
p890
F1.0
sVcomparison
p891
F1.0
sVword
p892
F1.0
sVthis
p893
F1.0
sVacoustics
p894
F1.0
sVhypotheses
p895
F1.0
sVresulting
p896
F1.0
sVrecognizer
p897
F1.0
sVthe
p898
F2.0
saa(lp899
S'J00-300318'
p900
a(dp901
g133
F2.0
sVgreat
p902
F1.0
sVb
p903
F1.0
sV's
p904
F1.0
sVthat
p905
F2.0
sVc
p906
F2.0
sVis
p907
F3.0
sVyes-no-question
p908
F1.0
sg13
F6.0
sVn
p909
F2.0
sVum
p910
F1.0
sVappreciation
p911
F1.0
sVstate
p912
F2.0
sVuh
p913
F1.0
sVstatement
p914
F1.0
sVT-FLOAT
p915
F1.0
sVuniversity
p916
F1.0
saa(lp917
S'J00-300319'
p918
a(dp919
g133
F1.0
sVwhat
p920
F1.0
sVdid
p921
F1.0
sVsay
p922
F1.0
sVsignal-non-understanding
p923
F1.0
sVyou
p924
F1.0
sg123
F1.0
saa(lp925
S'J00-3003208'
p926
a(dp927
VT-INT
p928
F2.0
sVT-FLOAT
p929
F2.0
sVmarkov
p930
F1.0
sVmodeling
p931
F1.0
saa(lp932
S'J00-300310'
p933
a(dp934
Vstolcke
p935
F1.0
sV@
p936
F1.0
sVsri
p937
F1.0
sVspeech
p938
F1.0
sVT-FLOAT
p939
F3.0
sg215
F1.0
sVcom
p940
F1.0
sVemail
p941
F1.0
saa(lp942
S'J00-300311'
p943
a(dp944
g133
F1.0
sVlinguistics
p945
F1.0
sVcomputational
p946
F1.0
sVfrom
p947
F1.0
sVfor
p948
F1.0
sg936
F1.0
sVfragment
p949
F1.0
sVof
p950
F1.0
sVswitchboard
p951
F1.0
sg88
F1.0
sVT-INT
p952
F2.0
sVlabeled
p953
F1.0
sVT-FLOAT
p954
F1.0
sg95
F1.0
sVtable
p955
F1.0
sVthe
p956
F1.0
sVconversation
p957
F1.0
sVcorpus
p958
F1.0
sVassociation
p959
F1.0
saa(lp960
S'J00-300312'
p961
a(dp962
g133
F1.0
sVdo
p963
F1.0
sVdialogue
p964
F1.0
sVright
p965
F1.0
sVcollege
p966
F1.0
sVyes-no-question
p967
F1.0
sVto
p968
F1.0
sVspeaker
p969
F1.0
sVact
p970
F1.0
sVgo
p971
F1.0
sVso
p972
F1.0
sVyou
p973
F1.0
sVnow
p974
F1.0
sVutterance
p975
F1.0
sg123
F1.0
saa(lp976
S'J00-300313'
p977
a(dp978
g133
F1.0
sVyo-
p979
F1.0
sg903
F2.0
sV's
p980
F1.0
sVabandoned
p981
F1.0
sVyesanswer
p982
F1.0
sVlaughter
p983
F1.0
sg764
F1.0
sg13
F2.0
sVyeah
p984
F1.0
sVare
p985
F1.0
sVstatement
p986
F1.0
sVyear
p987
F1.0
sVit
p988
F1.0
sVlast
p989
F1.0
sg763
F1.0
sVmy
p990
F1.0
sVT-FLOAT
p991
F1.0
saa(lp992
S'J00-300314'
p993
a(dp994
g133
F3.0
sVT-FLOAT
p995
F1.0
sg13
F1.0
sVsenior
p996
F1.0
sV're
p997
F2.0
sVso
p998
F1.0
sVyou
p999
F2.0
sVnow
p1000
F1.0
sVdeclarative-question
p1001
F1.0
saa(lp1002
S'J00-300315'
p1003
a(dp1004
Von
p1005
F1.0
sg903
F2.0
sVyes-answer
p1006
F1.0
sVworking
p1007
F1.0
sg181
F1.0
sVlaughter
p1008
F1.0
sg764
F1.0
sVyeah
p1009
F1.0
sg13
F1.0
sVto
p1010
F1.0
sVT-FLOAT
p1011
F1.0
sVstatement
p1012
F1.0
sg763
F1.0
sV'm
p1013
F1.0
sVtrying
p1014
F1.0
sVmy
p1015
F1.0
sVgraduate
p1016
F1.0
sVprojects
p1017
F1.0
saa(lp1018
S'J00-300316'
p1019
a(dp1020
g133
F1.0
sVgood
p1021
F1.0
sVfor
p1022
F1.0
sVoh
p1023
F1.0
sg13
F1.0
sVappreciation
p1024
F1.0
sVyou
p1025
F1.0
sVT-FLOAT
p1026
F1.0
saa(lp1027
S'J00-300317'
p1028
a(dp1029
VT-FLOAT
p1030
F1.0
sg903
F1.0
sVbackchannel
p1031
F1.0
sVyeah
p1032
F1.0
saa(lp1033
S'J00-300378'
p1034
a(dp1035
Vbe
p1036
F1.0
sVused
p1037
F1.0
sVto
p1038
F1.0
sVhow
p1039
F1.0
sVmodels
p1040
F1.0
sVsection
p1041
F1.0
sVda
p1042
F1.0
sVT-INT
p1043
F1.0
sVbenefit
p1044
F1.0
sVspeech
p1045
F1.0
sVcan
p1046
F1.0
sVT-FLOAT
p1047
F1.0
sVrecognition
p1048
F1.0
sVshows
p1049
F1.0
saa(lp1050
S'J00-300379'
p1051
a(dp1052
Vand
p1053
F1.0
sVin
p1054
F1.0
sVT-INT
p1055
F1.0
sVis
p1056
F1.0
sVwork
p1057
F1.0
sVrelated
p1058
F1.0
sVprior
p1059
F1.0
sVsummarized
p1060
F1.0
sVT-FLOAT
p1061
F1.0
sVsection
p1062
F1.0
saa(lp1063
S'J00-300372'
p1064
a(dp1065
Vinterest
p1066
F1.0
sVdescribed
p1067
F1.0
sVmethods
p1068
F1.0
sVfor
p1069
F1.0
sVthese
p1070
F1.0
sVof
p1071
F1.0
sVresults
p1072
F1.0
sg13
F2.0
sVvalidating
p1073
F1.0
sVare
p1074
F1.0
sVbesides
p1075
F1.0
sVthe
p1076
F1.0
sVseveral
p1077
F1.0
sVT-FLOAT
p1078
F1.0
sVreasons
p1079
F1.0
saa(lp1080
S'J00-300373'
p1081
a(dp1082
Vand
p1083
F1.0
sVis
p1084
F1.0
sVtask-oriented
p1085
F1.0
sVan
p1086
F1.0
sVsee
p1087
F1.0
sVat
p1088
F1.0
sVin
p1089
F3.0
sVtable
p1090
F1.0
sVT-FLOAT
p1091
F1.0
sVprevious
p1092
F2.0
sVfor
p1093
F1.0
sg88
F2.0
sg95
F2.0
sVthat
p1094
F1.0
sg13
F4.0
sVleast
p1095
F1.0
sVT-INT
p1096
F3.0
sVcorpus
p1097
F1.0
sVused
p1098
F1.0
sVnature
p1099
F1.0
sVda
p1100
F1.0
sVmost
p1101
F1.0
sVnot
p1102
F1.0
sVdata
p1103
F1.0
sVby
p1104
F1.0
sVon
p1105
F1.0
sVutterances
p1106
F1.0
sVunlike
p1107
F1.0
sVof
p1108
F2.0
sVwork
p1109
F1.0
sVlabeling
p1110
F1.0
sVorder
p1111
F1.0
sVamount
p1112
F1.0
sVmagnitude
p1113
F1.0
sVexceeds
p1114
F1.0
sVthe
p1115
F2.0
sVstudies
p1116
F1.0
sVexample
p1117
F1.0
saa(lp1118
S'J00-300370'
p1119
a(dp1120
Vand
p1121
F2.0
sVpoint
p1122
F1.0
sVassumptions
p1123
F1.0
sVthroughout
p1124
F1.0
sVout
p1125
F1.0
sVhow
p1126
F1.0
sg13
F2.0
sVreality
p1127
F1.0
sVto
p1128
F1.0
sVmight
p1129
F1.0
sVachieve
p1130
F1.0
sVwe
p1131
F1.0
sVmodels
p1132
F1.0
sVsimplifications
p1133
F1.0
sVshort
p1134
F1.0
sVthey
p1135
F1.0
sVfall
p1136
F1.0
sVT-FLOAT
p1137
F1.0
sVmade
p1138
F1.0
sVtractable
p1139
F1.0
sVpresentation
p1140
F1.0
sVwill
p1141
F1.0
sVof
p1142
F1.0
sVhighlight
p1143
F1.0
sVthe
p1144
F2.0
saa(lp1145
S'J00-300371'
p1146
a(dp1147
Vobtained
p1148
F1.0
sVon
p1149
F1.0
sVwe
p1150
F1.0
sVconversational
p1151
F1.0
sVthis
p1152
F1.0
sVapproach
p1153
F1.0
sVavailable
p1154
F1.0
sg13
F2.0
sVresults
p1155
F1.0
sVlarge
p1156
F1.0
sVsecond
p1157
F1.0
sVspeech
p1158
F1.0
sg133
F1.0
sVwidely
p1159
F1.0
sVof
p1160
F1.0
sVspontaneous
p1161
F1.0
sVcorpus
p1162
F1.0
sVwith
p1163
F1.0
sVT-FLOAT
p1164
F1.0
sVpresent
p1165
F1.0
saa(lp1166
S'J00-300376'
p1167
a(dp1168
g133
F1.0
sVcentral
p1169
F1.0
sVdiscussed
p1170
F1.0
sVgrammar
p1171
F1.0
sVframework
p1172
F2.0
sVthis
p1173
F1.0
sVof
p1174
F1.0
sVsection
p1175
F2.0
sVin
p1176
F1.0
sVcomponent
p1177
F1.0
sg13
F2.0
sVpresents
p1178
F1.0
sVT-INT
p1179
F2.0
sVdiscourse
p1180
F1.0
sVT-FLOAT
p1181
F1.0
sVfurther
p1182
F1.0
sVmodeling
p1183
F1.0
sVthe
p1184
F2.0
sVprobabilistic
p1185
F1.0
sg334
F1.0
sVis
p1186
F1.0
saa(lp1187
S'J00-300377'
p1188
a(dp1189
Vwe
p1190
F1.0
sVclassification
p1191
F1.0
sVfor
p1192
F1.0
sVsection
p1193
F1.0
sVdescribe
p1194
F1.0
sVda
p1195
F1.0
sVT-INT
p1196
F1.0
sVexperiments
p1197
F1.0
sVin
p1198
F1.0
sVT-FLOAT
p1199
F1.0
saa(lp1200
S'J00-300374'
p1201
a(dp1202
Vand
p1203
F2.0
sVwe
p1204
F1.0
sVdescription
p1205
F1.0
sVconcrete
p1206
F1.0
sVinteresting
p1207
F1.0
sValternate
p1208
F1.0
sVresults
p1209
F1.0
sg13
F1.0
sVkeep
p1210
F1.0
sVwill
p1211
F1.0
sVto
p1212
F1.0
sVof
p1213
F1.0
sVbetween
p1214
F1.0
sVempirical
p1215
F1.0
sVthe
p1216
F2.0
sVgeneral
p1217
F1.0
sVpresentation
p1218
F1.0
sVT-FLOAT
p1219
F1.0
sVmethods
p1220
F1.0
saa(lp1221
S'J00-300375'
p1222
a(dp1223
Vand
p1224
F1.0
sVtask
p1225
F1.0
sVsection
p1226
F1.0
sVdetail
p1227
F1.0
sVT-INT
p1228
F1.0
sVdescribes
p1229
F1.0
sVin
p1230
F1.0
sVour
p1231
F1.0
sVthe
p1232
F1.0
sVdata
p1233
F1.0
sVT-FLOAT
p1234
F1.0
saa(lp1235
S'J00-3003206'
p1236
a(dp1237
Vand
p1238
F1.0
sVbecause
p1239
F1.0
sVmenn
p1240
F1.0
sg92
F1.0
sVover
p1241
F1.0
sVpitch
p1242
F1.0
sVpartner
p1243
F1.0
sVtheir
p1244
F1.0
sVspeakers
p1245
F1.0
sVT-INT
p1246
F1.0
sVsimilarly
p1247
F1.0
sg88
F1.0
sg95
F1.0
sg13
F4.0
sVto
p1248
F1.0
sVdiscourse
p1249
F1.0
sVindependence
p1250
F1.0
sVviolating
p1251
F1.0
sVvolume
p1252
F1.0
sVT-FLOAT
p1253
F3.0
sVstructure
p1254
F1.0
sg55
F1.0
sg56
F1.0
sVof
p1255
F3.0
sVboyce
p1256
F1.0
sVconversation
p1257
F1.0
sVadjust
p1258
F1.0
sVtime
p1259
F1.0
sVthe
p1260
F5.0
sVor
p1261
F2.0
saa(lp1262
S'J00-3003207'
p1263
a(dp1264
Vei
p1265
F1.0
sVdependence
p1266
F1.0
sVas
p1267
F1.0
sVare
p1268
F1.0
sVstatistical
p1269
F1.0
sVin
p1270
F1.0
sVT-FLOAT
p1271
F1.0
sVcompared
p1272
F1.0
sg13
F3.0
sVactually
p1273
F1.0
sVto
p1274
F1.0
sVother
p1275
F1.0
sVviolations
p1276
F1.0
sVwe
p1277
F1.0
sVthat
p1278
F1.0
sVmodeling
p1279
F1.0
sVproperties
p1280
F1.0
sVareas
p1281
F1.0
sVcount
p1282
F1.0
sVon
p1283
F2.0
sVthese
p1284
F1.0
sVof
p1285
F2.0
sVmodeled
p1286
F1.0
sVnamely
p1287
F1.0
sVui
p1288
F1.0
sVsmall
p1289
F1.0
sVthe
p1290
F3.0
sVfact
p1291
F1.0
saa(lp1292
S'J00-3003204'
p1293
a(dp1294
Vthe
p1295
F1.0
sVend
p1296
F1.0
sVnetwork
p1297
F1.0
sVfigure
p1298
F1.0
sVT-INT
p1299
F1.0
sg88
F1.0
sVas
p1300
F1.0
sVhmm
p1301
F1.0
sV-*
p1302
F1.0
sV--
p1303
F1.0
sVdiscourse
p1304
F1.0
sVun
p1305
F1.0
sVui
p1306
F1.0
sVbayes
p1307
F1.0
sVT-FLOAT
p1308
F2.0
sV>
p1309
F1.0
sV<
p1310
F1.0
sV~
p1311
F1.0
saa(lp1312
S'J00-3003205'
p1313
a(dp1314
Vand
p1315
F2.0
sVrelevant
p1316
F1.0
sg92
F1.0
sVit
p1317
F1.0
sVan
p1318
F1.0
sVin
p1319
F1.0
sVbefore
p1320
F1.0
sVT-INT
p1321
F1.0
sg88
F1.0
sg95
F1.0
sVquestion
p1322
F1.0
sg13
F1.0
sVactually
p1323
F1.0
sVto
p1324
F1.0
sVanswer
p1325
F1.0
sVmight
p1326
F1.0
sVindependence
p1327
F1.0
sVhousum
p1328
F1.0
sVbe
p1329
F1.0
sVviolating
p1330
F1.0
sVearlier
p1331
F1.0
sVwords
p1332
F1.0
sVT-FLOAT
p1333
F1.0
sVof
p1334
F1.0
sVconversation
p1335
F1.0
sVfowler
p1336
F1.0
sVfound
p1337
F1.0
sVthe
p1338
F4.0
saa(lp1339
S'J00-3003202'
p1340
a(dp1341
Vand
p1342
F1.0
sVen
p1343
F1.0
sVai
p1344
F1.0
sVis
p1345
F2.0
sVit
p1346
F1.0
sVthree
p1347
F1.0
sVmentioned
p1348
F1.0
sg88
F1.0
sg95
F1.0
sVstrictly
p1349
F1.0
sg13
F3.0
sVto
p1350
F1.0
sVassumption
p1351
F1.0
sVabove
p1352
F1.0
sVthat
p1353
F1.0
sVwi
p1354
F1.0
sVnot
p1355
F1.0
sVfi
p1356
F1.0
sg763
F1.0
sVevidence
p1357
F1.0
sVtrue
p1358
F1.0
sVT-FLOAT
p1359
F1.0
sVtypes
p1360
F1.0
sVapplied
p1361
F1.0
sVthis
p1362
F1.0
sVof
p1363
F1.0
sVclear
p1364
F1.0
sVseparately
p1365
F1.0
sg92
F1.0
sVun
p1366
F1.0
sVthe
p1367
F1.0
saa(lp1368
S'J00-3003203'
p1369
a(dp1370
Vspeakers
p1371
F1.0
sg55
F2.0
sVreuse
p1372
F1.0
sVfor
p1373
F1.0
sVT-INT
p1374
F2.0
sg1310
F1.0
sg13
F3.0
sVstart
p1375
F1.0
sVtend
p1376
F1.0
sVto
p1377
F1.0
sg93
F1.0
sVt
p1378
F3.0
sVei
p1379
F1.0
sVT-FLOAT
p1380
F2.0
sVexample
p1381
F1.0
sg1309
F1.0
saa(lp1382
S'J00-3003158'
p1383
a(dp1384
Vsubset
p1385
F1.0
sVintuition
p1386
F1.0
sVan
p1387
F1.0
sVin
p1388
F1.0
sVtable
p1389
F1.0
sVbackchannel
p1390
F1.0
sVwhat
p1391
F1.0
sVfor
p1392
F1.0
sg88
F1.0
sg95
F1.0
sg13
F2.0
sVapproximately
p1393
F1.0
sVT-INT
p1394
F4.0
sVbackchannels
p1395
F1.0
sVshows
p1396
F1.0
sVour
p1397
F1.0
sVrealizations
p1398
F1.0
sVtokens
p1399
F1.0
sVmost
p1400
F1.0
sVswitchboard
p1401
F1.0
sVT-FLOAT
p1402
F1.0
sVtypes
p1403
F1.0
sVlike
p1404
F1.0
sVabout
p1405
F1.0
sVlook
p1406
F1.0
sVof
p1407
F2.0
sVcommon
p1408
F1.0
sVthe
p1409
F2.0
saa(lp1410
S'J00-3003159'
p1411
a(dp1412
Vfinancial
p1413
F1.0
sVconsider
p1414
F1.0
sVpoint
p1415
F1.0
sVis
p1416
F1.0
sVsome
p1417
F1.0
sVwe
p1418
F2.0
sVexamples
p1419
F1.0
sVin
p1420
F1.0
sVtable
p1421
F1.0
sVbackchannel
p1422
F1.0
sVaway
p1423
F1.0
sg13
F2.0
sVto
p1424
F1.0
sVenough
p1425
F1.0
sVspeaker
p1426
F1.0
sVstatement
p1427
F1.0
sVincome
p1428
F1.0
sg215
F1.0
sVbackchannels
p1429
F1.0
sVshows
p1430
F1.0
sVuh-huh
p1431
F1.0
sVdialogue
p1432
F1.0
sVthat
p1433
F1.0
sVour
p1434
F1.0
sVbut
p1435
F1.0
sVputting
p1436
F1.0
sVswitchboard
p1437
F1.0
sVnow
p1438
F1.0
sVT-FLOAT
p1439
F1.0
sg133
F2.0
sg903
F1.0
sVof
p1440
F2.0
sVcan
p1441
F1.0
sVconversation
p1442
F1.0
sV're
p1443
F1.0
sVuh
p1444
F1.0
sVcontext
p1445
F1.0
sVact
p1446
F1.0
sVfollowing
p1447
F1.0
sVwhere
p1448
F1.0
sVthe
p1449
F3.0
sVutterance
p1450
F1.0
saa(lp1451
S'J00-3003156'
p1452
a(dp1453
Vand
p1454
F1.0
sVyngve
p1455
F1.0
sV''
p1456
F1.0
sVas
p1457
F1.0
sVare
p1458
F1.0
sVhave
p1459
F1.0
sVin
p1460
F1.0
sVto
p1461
F1.0
sg88
F1.0
sg95
F1.0
sVextensively
p1462
F1.0
sVbeen
p1463
F1.0
sVT-INT
p1464
F3.0
sVjefferson
p1465
F1.0
sg334
F2.0
sV``
p1466
F1.0
sVliterature
p1467
F1.0
sVT-FLOAT
p1468
F1.0
sVschegloff
p1469
F1.0
sVthese
p1470
F1.0
sVstudied
p1471
F1.0
sVanalysis
p1472
F1.0
sVcontinuers
p1473
F1.0
sVconversation
p1474
F1.0
sVusually
p1475
F1.0
sVthe
p1476
F1.0
sVreferred
p1477
F1.0
saa(lp1478
S'J00-3003157'
p1479
a(dp1480
Vand
p1481
F2.0
sVbecause
p1482
F2.0
sVuseful
p1483
F1.0
sVhelp
p1484
F1.0
sVsurrounding
p1485
F1.0
sVcertain
p1486
F1.0
sVhearer
p1487
F1.0
sVthus
p1488
F1.0
sVexpects
p1489
F1.0
sVtalking
p1490
F1.0
sVexpect
p1491
F1.0
sVin
p1492
F1.0
sVgo
p1493
F1.0
sVseem
p1494
F1.0
sVtells
p1495
F1.0
sVrecognition
p1496
F1.0
sVto
p1497
F3.0
sg88
F1.0
sg95
F1.0
sVdiscourse-structuring
p1498
F1.0
sVoccur
p1499
F1.0
sVboundaries
p1500
F2.0
sVtheir
p1501
F1.0
sVrole
p1502
F1.0
sVspeaker
p1503
F1.0
sg334
F1.0
sVbackchannels
p1504
F1.0
sVknowing
p1505
F1.0
sVbe
p1506
F1.0
sVwe
p1507
F1.0
sVmaterial
p1508
F1.0
sVkinds
p1509
F1.0
sVthat
p1510
F1.0
sVmay
p1511
F1.0
sVpredicting
p1512
F1.0
sVbackchannel
p1513
F1.0
sVthey
p1514
F1.0
sVdetecting
p1515
F1.0
sVT-FLOAT
p1516
F1.0
sg133
F1.0
sVon
p1517
F1.0
sVabout
p1518
F1.0
sVcourse
p1519
F1.0
sVof
p1520
F4.0
sVsyntactic
p1521
F1.0
sVus
p1522
F1.0
sVlexical
p1523
F1.0
sVnarrative
p1524
F1.0
sVat
p1525
F1.0
sVthe
p1526
F4.0
sVutterance
p1527
F1.0
sVsomething
p1528
F1.0
saa(lp1529
S'J00-3003154'
p1530
a(dp1531
VT-FLOAT
p1532
F1.0
sVbackchannels
p1533
F1.0
saa(lp1534
S'J00-3003155'
p1535
a(dp1536
g133
F2.0
sVthe
p1537
F1.0
sVshort
p1538
F1.0
sVplays
p1539
F1.0
sg56
F1.0
sVroles
p1540
F1.0
sVthat
p1541
F2.0
sVis
p1542
F1.0
sVdiscourse-structuring
p1543
F1.0
sg13
F2.0
sVshould
p1544
F1.0
sVtalking
p1545
F1.0
sVspeaker
p1546
F1.0
sVgo
p1547
F1.0
sg55
F1.0
sVT-FLOAT
p1548
F3.0
sVon
p1549
F1.0
sVutterance
p1550
F1.0
sVbackchannel
p1551
F1.0
sVindicating
p1552
F1.0
saa(lp1553
S'J00-3003152'
p1554
a(dp1555
g133
F1.0
sVgovernment
p1556
F1.0
sVtaking
p1557
F1.0
sVcourse
p1558
F1.0
sV're
p1559
F1.0
sVso
p1560
F1.0
sVyou
p1561
F1.0
sg123
F1.0
sVdeclarativequestion
p1562
F1.0
saa(lp1563
S'J00-3003153'
p1564
a(dp1565
Vold
p1566
F1.0
sVhow
p1567
F1.0
sVwell
p1568
F1.0
sg13
F1.0
sVwh-question
p1569
F1.0
sVare
p1570
F1.0
sVyou
p1571
F1.0
sg123
F1.0
saa(lp1572
S'J00-3003150'
p1573
a(dp1574
Vthat
p1575
F1.0
sVyes-no-question
p1576
F1.0
sVit
p1577
F2.0
sVbut
p1578
F1.0
sg13
F1.0
sVn't
p1579
F1.0
sVdoes
p1580
F2.0
sVeliminate
p1581
F1.0
sg123
F1.0
saa(lp1582
S'J00-3003151'
p1583
a(dp1584
g133
F2.0
sVago
p1585
F1.0
sVguess
p1586
F1.0
sVright
p1587
F1.0
sVyes-no-question
p1588
F1.0
sg181
F1.0
sg906
F1.0
sVwatching
p1589
F1.0
sg13
F2.0
sg909
F2.0
sV're
p1590
F1.0
sVuh
p1591
F1.0
sVlot
p1592
F1.0
sVyear
p1593
F1.0
sVprobably
p1594
F1.0
sVyou
p1595
F1.0
sg123
F1.0
saa(lp1596
S'J00-300387'
p1597
a(dp1598
Vand
p1599
F2.0
sVown
p1600
F1.0
sVsentence-level
p1601
F1.0
sVconsistent
p1602
F1.0
sVal
p1603
F1.0
sVsystem
p1604
F1.0
sVour
p1605
F2.0
sVswitchboard-based
p1606
F1.0
sVT-FLOAT
p1607
F2.0
sVmeteer
p1608
F1.0
sVuse
p1609
F1.0
sVT-INT
p1610
F1.0
sg88
F1.0
sg95
F1.0
sVhad
p1611
F1.0
sg13
F1.0
sVbeen
p1612
F1.0
sVresearch
p1613
F1.0
sVto
p1614
F2.0
sVversion
p1615
F1.0
sVunits
p1616
F1.0
sVcorpus
p1617
F1.0
sVinto
p1618
F1.0
sVwe
p1619
F1.0
sVthat
p1620
F1.0
sVet
p1621
F1.0
sVda
p1622
F2.0
sVhand-segmented
p1623
F1.0
sVmade
p1624
F1.0
sVwith
p1625
F1.0
sVefforts
p1626
F1.0
sVexpedite
p1627
F1.0
sg133
F1.0
sVindependently
p1628
F1.0
sVtask
p1629
F1.0
sVof
p1630
F3.0
sVwork
p1631
F1.0
sVlabeling
p1632
F2.0
sVprior
p1633
F1.0
sVremain
p1634
F1.0
sVthe
p1635
F2.0
sVother
p1636
F1.0
saa(lp1637
S'J00-300386'
p1638
a(dp1639
Vis
p1640
F1.0
sVlinguistically
p1641
F1.0
sVsegmentation
p1642
F1.0
sVan
p1643
F1.0
sVraw
p1644
F1.0
sVas
p1645
F1.0
sVin
p1646
F2.0
sVbefore
p1647
F1.0
sVneeded
p1648
F1.0
sVdata
p1649
F1.0
sg13
F2.0
sVto
p1650
F1.0
sVchoose
p1651
F1.0
sVway
p1652
F1.0
sVcorpus
p1653
F1.0
sVconsistent
p1654
F1.0
sVwe
p1655
F1.0
sVda
p1656
F1.0
sVswitchboard
p1657
F1.0
sVnot
p1658
F1.0
sVwith
p1659
F1.0
sVT-FLOAT
p1660
F1.0
sg133
F2.0
sVhand-labeling
p1661
F1.0
sVsegmented
p1662
F1.0
sVeach
p1663
F1.0
sVthe
p1664
F2.0
sVutterance
p1665
F2.0
saa(lp1666
S'J00-300385'
p1667
a(dp1668
VT-INT
p1669
F2.0
sVT-FLOAT
p1670
F2.0
sVutterance
p1671
F1.0
sVsegmentation
p1672
F1.0
saa(lp1673
S'J00-300384'
p1674
a(dp1675
g133
F1.0
sVand
p1676
F1.0
sVcorresponding
p1677
F1.0
sVconversations
p1678
F1.0
sVT-INT
p1679
F2.0
sVof
p1680
F2.0
sVtotaling
p1681
F1.0
sg13
F2.0
sVwaveforms
p1682
F1.0
sVportion
p1683
F1.0
sVsubstantial
p1684
F1.0
sVT-FLOAT
p1685
F1.0
sVswitchboard
p1686
F1.0
sVour
p1687
F1.0
sVthe
p1688
F1.0
sVdata
p1689
F1.0
sVtranscripts
p1690
F1.0
sVconsisted
p1691
F1.0
saa(lp1692
S'J00-300383'
p1693
a(dp1694
Vand
p1695
F1.0
sVstatistical
p1696
F1.0
sVan
p1697
F1.0
sVhuman
p1698
F1.0
sVin
p1699
F1.0
sVour
p1700
F1.0
sVtools
p1701
F1.0
sVfor
p1702
F1.0
sVvariety
p1703
F1.0
sVwith
p1704
F1.0
sg13
F2.0
sVsemiautomatic
p1705
F1.0
sVto
p1706
F1.0
sVcombined
p1707
F1.0
sVcorpus
p1708
F1.0
sVwe
p1709
F1.0
sVmodels
p1710
F1.0
sVhand-coding
p1711
F1.0
sVautomatic
p1712
F1.0
sVtrain
p1713
F1.0
sVdas
p1714
F1.0
sVeffort
p1715
F1.0
sVextensive
p1716
F1.0
sg133
F1.0
sVon
p1717
F1.0
sVthis
p1718
F1.0
sVof
p1719
F2.0
sVeach
p1720
F1.0
sVT-FLOAT
p1721
F1.0
sVutterance
p1722
F1.0
saa(lp1723
S'J00-300382'
p1724
a(dp1725
Vtopics
p1726
F1.0
sVeach
p1727
F1.0
sVone
p1728
F1.0
sVrandomly
p1729
F1.0
sVtalking
p1730
F1.0
sVselected
p1731
F1.0
sVhad
p1732
F1.0
sVtwo
p1733
F1.0
sVbeen
p1734
F1.0
sVstrangers
p1735
F1.0
sVseveral
p1736
F1.0
sVwho
p1737
F1.0
sVinformally
p1738
F1.0
sVwith
p1739
F1.0
sg13
F1.0
sVabout
p1740
F1.0
sVgeneral-interest
p1741
F1.0
sVinvolved
p1742
F1.0
sVselfselected
p1743
F1.0
sVconversation
p1744
F1.0
sVof
p1745
F1.0
sVT-FLOAT
p1746
F1.0
sVcharged
p1747
F1.0
saa(lp1748
S'J00-300381'
p1749
a(dp1750
Vand
p1751
F1.0
sVdomain
p1752
F1.0
sVdistributed
p1753
F1.0
sVis
p1754
F1.0
sVtelephone
p1755
F1.0
sVconsortium
p1756
F1.0
sVT-FLOAT
p1757
F1.0
sVT-INT
p1758
F1.0
sg88
F1.0
sg95
F1.0
sVhuman-human
p1759
F1.0
sg13
F2.0
sVby
p1760
F1.0
sVto
p1761
F1.0
sVspeech
p1762
F1.0
sVlinguistic
p1763
F1.0
sVcorpus
p1764
F1.0
sVwe
p1765
F1.0
sVchose
p1766
F1.0
sVswitchboard
p1767
F1.0
sVdata
p1768
F1.0
sVmodel
p1769
F1.0
sVgodfrey
p1770
F1.0
sVconversational
p1771
F1.0
sVmcdaniel
p1772
F1.0
sVof
p1773
F1.0
sVholliman
p1774
F1.0
sVthe
p1775
F3.0
saa(lp1776
S'J00-300380'
p1777
a(dp1778
Vand
p1779
F1.0
sVfollowed
p1780
F1.0
sVsection
p1781
F2.0
sVproblems
p1782
F1.0
sg13
F1.0
sVT-INT
p1783
F2.0
sVaddressed
p1784
F1.0
sVremarks
p1785
F1.0
sVare
p1786
F1.0
sVin
p1787
F2.0
sVconcluding
p1788
F1.0
sVfurther
p1789
F1.0
sVT-FLOAT
p1790
F1.0
sVopen
p1791
F1.0
sVby
p1792
F1.0
sVissues
p1793
F1.0
saa(lp1794
S'J00-3003286'
p1795
a(dp1796
Vand
p1797
F1.0
sVend
p1798
F1.0
sVnetwork
p1799
F1.0
sVfigure
p1800
F1.0
sVacoustics
p1801
F1.0
sVmodified
p1802
F1.0
sVhypotheses
p1803
F1.0
sVT-INT
p1804
F1.0
sVbayes
p1805
F1.0
sVun
p1806
F1.0
sVincluding
p1807
F1.0
sg1378
F1.0
sVrecognizer
p1808
F1.0
sVword
p1809
F1.0
sVT-FLOAT
p1810
F1.0
sg1311
F1.0
sg1310
F1.0
sg1309
F1.0
saa(lp1811
S'J00-3003287'
p1812
a(dp1813
Vfrom
p1814
F1.0
sVclassification
p1815
F1.0
sVrecognized
p1816
F1.0
sVT-INT
p1817
F3.0
sVwords
p1818
F1.0
sVT-FLOAT
p1819
F3.0
saa(lp1820
S'J00-3003284'
p1821
a(dp1822
g133
F1.0
sVstart
p1823
F1.0
sVai
p1824
F1.0
sVwl
p1825
F1.0
sVwi
p1826
F1.0
sVan
p1827
F1.0
sVT-INT
p1828
F2.0
sg93
F1.0
sg1378
F3.0
sg772
F1.0
sVT-FLOAT
p1829
F2.0
sg1311
F2.0
sg1310
F1.0
sg1309
F1.0
saa(lp1830
S'J00-3003285'
p1831
a(dp1832
VT-FLOAT
p1833
F1.0
sVui
p1834
F1.0
sg1378
F1.0
sg1311
F2.0
saa(lp1835
S'J00-3003282'
p1836
a(dp1837
Vall
p1838
F1.0
sVstatements
p1839
F1.0
sVslightly
p1840
F1.0
sVwas
p1841
F1.0
sVof
p1842
F1.0
sVdifferent
p1843
F1.0
sg13
F1.0
sVT-INT
p1844
F1.0
sVlabeled
p1845
F1.0
sVfrequency
p1846
F1.0
sVcf
p1847
F1.0
sVT-FLOAT
p1848
F1.0
sVthe
p1849
F1.0
sVdata
p1850
F1.0
sVacross
p1851
F1.0
saa(lp1852
S'J00-3003283'
p1853
a(dp1854
Vtable
p1855
F1.0
sVT-FLOAT
p1856
F1.0
sVT-INT
p1857
F1.0
saa(lp1858
S'J00-300389'
p1859
a(dp1860
Vand
p1861
F2.0
sVis
p1862
F1.0
sVone
p1863
F1.0
sVsingle
p1864
F1.0
sVrelation
p1865
F1.0
sVin
p1866
F2.0
sVT-FLOAT
p1867
F3.0
sVspan
p1868
F1.0
sVmidutterance
p1869
F1.0
sg88
F1.0
sg95
F1.0
sg13
F2.0
sVby
p1870
F1.0
sVother
p1871
F1.0
sVspeaker
p1872
F2.0
sVbetween
p1873
F1.0
sg215
F1.0
sVmore
p1874
F1.0
sVcase
p1875
F1.0
sVmultiple
p1876
F1.0
sVof
p1877
F1.0
sVnot
p1878
F1.0
sVbackchanneling
p1879
F1.0
sVthan
p1880
F1.0
sg133
F1.0
sVone-to-one
p1881
F1.0
sg55
F1.0
sg56
F1.0
sVutterances
p1882
F3.0
sVturns
p1883
F1.0
sVturn
p1884
F2.0
sVcan
p1885
F2.0
sVcontain
p1886
F1.0
sVthe
p1887
F3.0
saa(lp1888
S'J00-300388'
p1889
a(dp1890
Vwe
p1891
F1.0
sVutterances
p1892
F1.0
sVthis
p1893
F1.0
sVof
p1894
F1.0
sVsegmentation
p1895
F1.0
sVto
p1896
F1.0
sVas
p1897
F1.0
sVunits
p1898
F1.0
sVthe
p1899
F1.0
sVT-FLOAT
p1900
F1.0
sVrefer
p1901
F1.0
saa(lp1902
S'J00-3003215'
p1903
a(dp1904
Vand
p1905
F1.0
sg92
F1.0
sVstates
p1906
F1.0
sVsee
p1907
F1.0
sVare
p1908
F2.0
sVlikelihoods
p1909
F1.0
sVT-FLOAT
p1910
F1.0
sVgiven
p1911
F2.0
sVto
p1912
F2.0
sg88
F2.0
sg95
F2.0
sVsection
p1913
F1.0
sg13
F3.0
sVT-INT
p1914
F1.0
sVdiscourse
p1915
F1.0
sVobservations
p1916
F1.0
sVlocal
p1917
F1.0
sVhmm
p1918
F1.0
sVdas
p1919
F1.0
sVby
p1920
F2.0
sVgrammar
p1921
F1.0
sVobservation
p1922
F1.0
sVutterances
p1923
F1.0
sVtransition
p1924
F1.0
sVcorrespond
p1925
F2.0
sVprobabilities
p1926
F2.0
sVui
p1927
F1.0
sVthe
p1928
F3.0
sVeil
p1929
F1.0
saa(lp1930
S'J00-300369'
p1931
a(dp1932
Vdomain-independent
p1933
F1.0
sVmethods
p1934
F1.0
sVlabels
p1935
F1.0
sVan
p1936
F1.0
sVas
p1937
F1.0
sVset
p1938
F1.0
sVin
p1939
F1.0
sVfor
p1940
F1.0
sVwe
p1941
F1.0
sVthat
p1942
F1.0
sVda
p1943
F1.0
sVframework
p1944
F1.0
sVpart
p1945
F1.0
sVT-FLOAT
p1946
F1.0
sVpresent
p1947
F1.0
sVformal
p1948
F1.0
sg133
F1.0
sVtreats
p1949
F1.0
sVmost
p1950
F1.0
sVwill
p1951
F1.0
sVtag
p1952
F1.0
sVarbitrary
p1953
F1.0
sVthe
p1954
F1.0
saa(lp1955
S'J00-300368'
p1956
a(dp1957
Vas
p1958
F2.0
sVthrough
p1959
F1.0
sVour
p1960
F1.0
sVprincipled
p1961
F1.0
sVnonlexical
p1962
F1.0
sVrecognition
p1963
F1.0
sVinformation
p1964
F1.0
sVfor
p1965
F1.0
sg13
F2.0
sVmathematically
p1966
F1.0
sVto
p1967
F1.0
sVspeech
p1968
F2.0
sVcondition
p1969
F1.0
sVway
p1970
F1.0
sVidentity
p1971
F1.0
sVdialogue
p1972
F1.0
sVprovides
p1973
F1.0
sVda
p1974
F1.0
sVframework
p1975
F1.0
sVcorrelated
p1976
F1.0
sVwith
p1977
F1.0
sVT-FLOAT
p1978
F1.0
sVstructure
p1979
F1.0
sg133
F1.0
sVon
p1980
F2.0
sVtask
p1981
F1.0
sVwell
p1982
F1.0
sVconversation
p1983
F1.0
sVcontext
p1984
F1.0
sVrecognizer
p1985
F1.0
sVthe
p1986
F2.0
saa(lp1987
S'J00-300361'
p1988
a(dp1989
Vright
p1990
F1.0
sg342
F2.0
sVlike
p1991
F1.0
sVthat
p1992
F1.0
sVT-INT
p1993
F2.0
sVsomething
p1994
F1.0
sVT-FLOAT
p1995
F2.0
sg1310
F1.0
sg123
F1.0
saa(lp1996
S'J00-300360'
p1997
a(dp1998
Vthe
p1999
F1.0
sVwhat
p2000
F1.0
sVright
p2001
F1.0
sg342
F3.0
sVfor
p2002
F1.0
sVto
p2003
F1.0
sg181
F1.0
sVword
p2004
F1.0
sVthat
p2005
F2.0
sVall
p2006
F1.0
sV'm
p2007
F1.0
sVT-INT
p2008
F4.0
sVhave
p2009
F1.0
sV's
p2010
F2.0
sVT-FLOAT
p2011
F4.0
sVlooking
p2012
F1.0
sVcheck
p2013
F1.0
sVi'i
p2014
F1.0
sVout
p2015
F1.0
saa(lp2016
S'J00-300363'
p2017
a(dp2018
g342
F1.0
sg181
F1.0
sg1310
F1.0
sVT-INT
p2019
F1.0
sVsorry
p2020
F1.0
sVT-FLOAT
p2021
F2.0
sV'm
p2022
F1.0
saa(lp2023
S'J00-300362'
p2024
a(dp2025
Vwhat
p2026
F1.0
sg342
F1.0
sVof
p2027
F1.0
sVkind
p2028
F1.0
sVyou
p2029
F1.0
sVT-INT
p2030
F1.0
sVare
p2031
F1.0
sVT-FLOAT
p2032
F1.0
sg1310
F1.0
sg123
F1.0
sVbuff
p2033
F1.0
saa(lp2034
S'J00-300365'
p2035
a(dp2036
Vpull
p2037
F1.0
sVwe
p2038
F1.0
sVdoing
p2039
F1.0
sVwell
p2040
F1.0
sg13
F1.0
sVtogether
p2041
F1.0
sVideas
p2042
F1.0
sVwill
p2043
F1.0
sVapproaches
p2044
F1.0
sVso
p2045
F1.0
sVin
p2046
F1.0
sVnew
p2047
F1.0
sVT-FLOAT
p2048
F1.0
sVas
p2049
F2.0
sVprevious
p2050
F1.0
saa(lp2051
S'J00-300364'
p2052
a(dp2053
Vand
p2054
F1.0
sVmethods
p2055
F1.0
sVclassification
p2056
F1.0
sVis
p2057
F1.0
sVhey
p2058
F1.0
sVfounded
p2059
F1.0
sVthanks
p2060
F1.0
sVstatistical
p2061
F1.0
sVarticle
p2062
F1.0
sVmodeling
p2063
F1.0
sg342
F2.0
sVgoal
p2064
F1.0
sVfor
p2065
F1.0
sVto
p2066
F1.0
sg13
F2.0
sVT-INT
p2067
F2.0
sVlot
p2068
F1.0
sg215
F1.0
sg1310
F2.0
sVwe
p2069
F1.0
sVcomprehensive
p2070
F1.0
sVhand
p2071
F1.0
sVframework
p2072
F1.0
sVdas
p2073
F1.0
sVtwofold
p2074
F1.0
sVone
p2075
F1.0
sVT-FLOAT
p2076
F3.0
sVpresent
p2077
F1.0
sg133
F2.0
sVon
p2078
F2.0
sVthis
p2079
F1.0
sVof
p2080
F2.0
sVaim
p2081
F1.0
sVthe
p2082
F2.0
sVautomatic
p2083
F1.0
sVwell-known
p2084
F1.0
saa(lp2085
S'J00-300367'
p2086
a(dp2087
Vand
p2088
F1.0
sVclassification
p2089
F1.0
sVevidence
p2090
F1.0
sVour
p2091
F1.0
sVnonlexical
p2092
F1.0
sVgeneralizes
p2093
F1.0
sVfrom
p2094
F1.0
sVfor
p2095
F1.0
sVgiving
p2096
F1.0
sg13
F2.0
sVapproach
p2097
F1.0
sVmodels
p2098
F1.0
sVearlier
p2099
F1.0
sVhowever
p2100
F1.0
sVda
p2101
F1.0
sVframework
p2102
F1.0
sVwords
p2103
F1.0
sVunreliable
p2104
F1.0
sVprobabilistic
p2105
F1.0
sg133
F1.0
sVperforming
p2106
F1.0
sVus
p2107
F1.0
sVclean
p2108
F1.0
sVT-FLOAT
p2109
F1.0
saa(lp2110
S'J00-300366'
p2111
a(dp2112
Vand
p2113
F4.0
sVnagata
p2114
F1.0
sVn-grams
p2115
F1.0
sVas
p2116
F1.0
sVin
p2117
F1.0
sVour
p2118
F1.0
sVT-FLOAT
p2119
F1.0
sVuse
p2120
F1.0
sVdraws
p2121
F1.0
sVwoszczyna
p2122
F1.0
sVfor
p2123
F1.0
sg88
F2.0
sg95
F2.0
sVsection
p2124
F1.0
sVwaibel
p2125
F1.0
sg13
F3.0
sVT-INT
p2126
F3.0
sVhidden
p2127
F1.0
sVmodel
p2128
F1.0
sVmodels
p2129
F1.0
sVearlier
p2130
F1.0
sVda
p2131
F1.0
sVmorimoto
p2132
F1.0
sVsuch
p2133
F1.0
sVmarkov
p2134
F1.0
sVpresent
p2135
F1.0
sVon
p2136
F1.0
sVof
p2137
F2.0
sVwork
p2138
F1.0
sVsee
p2139
F1.0
sVconversation
p2140
F1.0
sVthe
p2141
F2.0
sVexample
p2142
F1.0
saa(lp2143
S'J00-3003219'
p2144
a(dp2145
VT-INT
p2146
F2.0
sVT-FLOAT
p2147
F2.0
sVdecoding
p2148
F1.0
sVdialogue
p2149
F1.0
sVact
p2150
F1.0
saa(lp2151
S'J00-3003280'
p2152
a(dp2153
Vmodel
p2154
F1.0
sVword-based
p2155
F1.0
sVevidence
p2156
F1.0
sVwiu
p2157
F1.0
sVhand-transcribed
p2158
F1.0
sVare
p2159
F1.0
sVstatistical
p2160
F1.0
sVin
p2161
F1.0
sVT-FLOAT
p2162
F1.0
sVgiven
p2163
F1.0
sVfor
p2164
F1.0
sg88
F2.0
sg95
F2.0
sg13
F2.0
sVby
p2165
F1.0
sVT-INT
p2166
F1.0
sVway
p2167
F1.0
sVassuming
p2168
F1.0
sVbuilding
p2169
F1.0
sVwe
p2170
F1.0
sVstraightforward
p2171
F1.0
sVthat
p2172
F1.0
sVwords
p2173
F1.0
sVdas
p2174
F1.0
sVtrue
p2175
F1.0
sVlikelihoods
p2176
F1.0
sg133
F2.0
sVcompute
p2177
F1.0
sVlanguage
p2178
F1.0
sVutterances
p2179
F1.0
sVof
p2180
F2.0
sVas
p2181
F1.0
sg92
F1.0
sVcan
p2182
F1.0
sVeach
p2183
F1.0
sVthe
p2184
F2.0
saa(lp2185
S'J00-3003218'
p2186
a(dp2187
g133
F1.0
sVfirst-order
p2188
F1.0
sg88
F1.0
sVbigram
p2189
F1.0
sVhmm
p2190
F1.0
sVsimple
p2191
F1.0
sVthings
p2192
F1.0
sVis
p2193
F1.0
sg13
F1.0
sVkeep
p2194
F1.0
sVto
p2195
F1.0
sVdiscourse
p2196
F1.0
sg95
F1.0
sVgrammar
p2197
F1.0
sVT-FLOAT
p2198
F1.0
sVassumed
p2199
F1.0
saa(lp2200
S'J00-3003281'
p2201
a(dp2202
Vand
p2203
F2.0
sVall
p2204
F1.0
sVbell
p2205
F1.0
sVparticular
p2206
F1.0
sVkatz
p2207
F2.0
sVbackoff
p2208
F1.0
sVtrigram
p2209
F1.0
sVwitten-bell
p2210
F1.0
sVin
p2211
F1.0
sVT-FLOAT
p2212
F1.0
sVestimated
p2213
F1.0
sVtechniques
p2214
F1.0
sVtype
p2215
F1.0
sg88
F1.0
sg95
F1.0
sg13
F1.0
sVT-INT
p2216
F2.0
sVcorpus
p2217
F1.0
sVwas
p2218
F1.0
sVfound
p2219
F1.0
sVwith
p2220
F1.0
sVstandard
p2221
F1.0
sVwitten
p2222
F1.0
sVdas
p2223
F1.0
sVusing
p2224
F1.0
sg763
F2.0
sg764
F2.0
sVthe
p2225
F1.0
sg133
F2.0
sVtraining
p2226
F1.0
sVpooled
p2227
F1.0
sVof
p2228
F1.0
sVdiscounting
p2229
F1.0
sVwere
p2230
F1.0
sVda-specific
p2231
F1.0
sVmodel
p2232
F1.0
saa(lp2233
S'J00-3003273'
p2234
a(dp2235
Vdialogue
p2236
F1.0
sVclassification
p2237
F1.0
sVT-INT
p2238
F3.0
sVwords
p2239
F1.0
sVact
p2240
F1.0
sVusing
p2241
F1.0
sVT-FLOAT
p2242
F2.0
saa(lp2243
S'J00-3003272'
p2244
a(dp2245
Vset
p2246
F1.0
sVresults
p2247
F1.0
sVrelative
p2248
F1.0
sVfrequency
p2249
F1.0
sVin
p2250
F1.0
sVour
p2251
F1.0
sVcompared
p2252
F1.0
sg342
F1.0
sVbaseline
p2253
F1.0
sVto
p2254
F1.0
sg13
F1.0
sVshould
p2255
F1.0
sVT-INT
p2256
F1.0
sVtest
p2257
F1.0
sVtype
p2258
F1.0
sVaccuracy
p2259
F2.0
sVbe
p2260
F1.0
sVda
p2261
F2.0
sVmost
p2262
F1.0
sVT-FLOAT
p2263
F1.0
sg133
F1.0
sVof
p2264
F2.0
sVlabeling
p2265
F1.0
sVthe
p2266
F2.0
sVfrequent
p2267
F1.0
saa(lp2268
S'J00-3003129'
p2269
a(dp2270
Vdialogue
p2271
F1.0
sVmajor
p2272
F1.0
sVT-INT
p2273
F2.0
sVact
p2274
F1.0
sVT-FLOAT
p2275
F2.0
sVtypes
p2276
F1.0
saa(lp2277
S'J00-3003128'
p2278
a(dp2279
g133
F1.0
sVuncompromised
p2280
F1.0
sVuse
p2281
F1.0
sVset
p2282
F2.0
sg55
F1.0
sg56
F1.0
sVfor
p2283
F1.0
sg88
F1.0
sVconversations
p2284
F1.0
sVof
p2285
F1.0
sVaside
p2286
F1.0
sVeffects
p2287
F1.0
sg13
F1.0
sVas
p2288
F1.0
sVfuture
p2289
F1.0
sg95
F1.0
sVwere
p2290
F1.0
sVtest
p2291
F1.0
sVT-FLOAT
p2292
F3.0
sVremaining
p2293
F1.0
sVtuning
p2294
F1.0
saa(lp2295
S'J00-3003277'
p2296
a(dp2297
Vand
p2298
F1.0
sVdo
p2299
F1.0
sV''
p2300
F1.0
sVin
p2301
F2.0
sVyes-no-questions
p2302
F1.0
sVoccur
p2303
F2.0
sg342
F2.0
sVfor
p2304
F1.0
sVT-INT
p2305
F4.0
sg13
F2.0
sVstart
p2306
F1.0
sVtrigrams
p2307
F1.0
sVyou
p2308
F1.0
sVbackchannels
p2309
F1.0
sg1309
F1.0
sVuh-huh
p2310
F1.0
sV``
p2311
F1.0
sV's
p2312
F1.0
sVT-FLOAT
p2313
F3.0
sVof
p2314
F2.0
sg1310
F1.0
sVthe
p2315
F2.0
sVexample
p2316
F1.0
saa(lp2317
S'J00-3003250'
p2318
a(dp2319
Vand
p2320
F1.0
sVbigram
p2321
F1.0
sVnear-optimality
p2322
F1.0
sVschegloff
p2323
F2.0
sVaccounts
p2324
F1.0
sVin
p2325
F1.0
sVgiven
p2326
F1.0
sg88
F1.0
sg95
F1.0
sg13
F2.0
sVT-INT
p2327
F2.0
sVdiscourse
p2328
F2.0
sVjefferson
p2329
F1.0
sg334
F1.0
sVis
p2330
F1.0
sVterms
p2331
F1.0
sVadjacency
p2332
F1.0
sVT-FLOAT
p2333
F1.0
sVstructure
p2334
F1.0
sVplausible
p2335
F1.0
sVpairs
p2336
F1.0
sVgrammar
p2337
F1.0
sVsacks
p2338
F1.0
sVof
p2339
F3.0
sVanalysis
p2340
F1.0
sVconversation
p2341
F1.0
sVthe
p2342
F2.0
saa(lp2343
S'J00-3003275'
p2344
a(dp2345
Vand
p2346
F2.0
sVcertain
p2347
F1.0
sVis
p2348
F1.0
sVit
p2349
F1.0
sVas
p2350
F1.0
sVhirschberg
p2351
F1.0
sg88
F1.0
sg95
F1.0
sVcue
p2352
F1.0
sVT-INT
p2353
F1.0
sVdiscourse
p2354
F1.0
sVindicators
p2355
F1.0
sVthat
p2356
F1.0
sVserve
p2357
F1.0
sVwords
p2358
F1.0
sVknown
p2359
F1.0
sVstructure
p2360
F1.0
sVlitman
p2361
F1.0
sVof
p2362
F1.0
sVexplicit
p2363
F1.0
sVcan
p2364
F1.0
sVphrases
p2365
F1.0
sVT-FLOAT
p2366
F1.0
saa(lp2367
S'J00-3003274'
p2368
a(dp2369
Von
p2370
F1.0
sVdifferent
p2371
F1.0
sVbased
p2372
F1.0
sVobservation
p2373
F1.0
sVclassification
p2374
F1.0
sVthat
p2375
F1.0
sVdistinctive
p2376
F1.0
sVis
p2377
F1.0
sVword
p2378
F1.0
sVuse
p2379
F1.0
sVda
p2380
F1.0
sVT-FLOAT
p2381
F1.0
sVwords
p2382
F1.0
sVdas
p2383
F1.0
sVusing
p2384
F1.0
sVthe
p2385
F1.0
sVstrings
p2386
F1.0
saa(lp2387
S'J00-3003123'
p2388
a(dp2389
Vand
p2390
F1.0
sg13
F1.0
sVkappa
p2391
F1.0
sVfor
p2392
F1.0
sVT-INT
p2393
F1.0
sg88
F1.0
sg95
F1.0
sVmeasures
p2394
F1.0
sVagreement
p2395
F1.0
sVjr
p2396
F1.0
sVsiegel
p2397
F1.0
sVT-FLOAT
p2398
F2.0
sVchance
p2399
F1.0
sVnormalized
p2400
F1.0
sVstatistic
p2401
F1.0
sVthe
p2402
F1.0
sVcastellan
p2403
F1.0
saa(lp2404
S'J00-3003122'
p2405
a(dp2406
g133
F1.0
sVset
p2407
F1.0
sg342
F1.0
sVfor
p2408
F1.0
sVT-INT
p2409
F4.0
sVof
p2410
F1.0
sVstatistic
p2411
F1.0
sVagreement
p2412
F1.0
sVused
p2413
F1.0
sg13
F1.0
sVinterlabeler
p2414
F1.0
sVtag
p2415
F1.0
sVresulting
p2416
F1.0
sVhere
p2417
F1.0
sVT-FLOAT
p2418
F2.0
sVin
p2419
F1.0
sVkappa
p2420
F1.0
sVthe
p2421
F1.0
sVwas
p2422
F1.0
sVabel
p2423
F1.0
saa(lp2424
S'J00-3003121'
p2425
a(dp2426
g133
F1.0
sVlinguistics
p2427
F1.0
sVboulder
p2428
F1.0
sVcarried
p2429
F1.0
sVstudents
p2430
F1.0
sVperiod
p2431
F1.0
sVlabeling
p2432
F1.0
sVgraduate
p2433
F1.0
sVT-INT
p2434
F2.0
sVthree-month
p2435
F1.0
sVeight
p2436
F1.0
sVat
p2437
F1.0
sVin
p2438
F2.0
sVT-FLOAT
p2439
F1.0
sVwas
p2440
F1.0
sVby
p2441
F1.0
sVcu
p2442
F1.0
sVout
p2443
F1.0
saa(lp2444
S'J00-3003120'
p2445
a(dp2446
Vlabels
p2447
F1.0
sVsome
p2448
F1.0
sVhave
p2449
F1.0
sVbalanced
p2450
F1.0
sVT-FLOAT
p2451
F1.0
sVdistinctions
p2452
F1.0
sg13
F1.0
sVto
p2453
F1.0
sVdrawback
p2454
F1.0
sVwas
p2455
F1.0
sVfiner
p2456
F1.0
sVwe
p2457
F1.0
sVability
p2458
F1.0
sVthat
p2459
F1.0
sVfelt
p2460
F1.0
sVbut
p2461
F1.0
sVda
p2462
F1.0
sVincluded
p2463
F1.0
sVdata
p2464
F1.0
sVby
p2465
F1.0
sg133
F1.0
sVthese
p2466
F1.0
sVmight
p2467
F1.0
sVcover
p2468
F1.0
sVlarge
p2469
F1.0
sVthis
p2470
F1.0
sVamount
p2471
F1.0
sVwithout
p2472
F1.0
sVof
p2473
F1.0
sVthe
p2474
F2.0
sVconstraints
p2475
F1.0
saa(lp2476
S'J00-3003127'
p2477
a(dp2478
Vand
p2479
F1.0
sVset
p2480
F2.0
sVinto
p2481
F1.0
sVour
p2482
F1.0
sVfor
p2483
F1.0
sVT-INT
p2484
F8.0
sg88
F2.0
sg95
F2.0
sg13
F5.0
sVestimating
p2485
F1.0
sVvarious
p2486
F1.0
sVtest
p2487
F1.0
sVwas
p2488
F1.0
sVmodel
p2489
F1.0
sVused
p2490
F1.0
sVconversations
p2491
F2.0
sVwords
p2492
F2.0
sVdata
p2493
F1.0
sVT-FLOAT
p2494
F2.0
sg133
F2.0
sVtraining
p2495
F1.0
sVpartitioned
p2496
F1.0
sVutterances
p2497
F2.0
sVof
p2498
F3.0
sg183
F3.0
sVm
p2499
F1.0
sVcomponents
p2500
F1.0
sVthe
p2501
F2.0
saa(lp2502
S'J00-3003126'
p2503
a(dp2504
g133
F1.0
sVand
p2505
F1.0
sVmillion
p2506
F1.0
sVutterances
p2507
F1.0
sVconversations
p2508
F1.0
sVof
p2509
F1.0
sVwere
p2510
F1.0
sg13
F3.0
sVcomprising
p2511
F1.0
sVT-INT
p2512
F6.0
sVlabeled
p2513
F1.0
sVwords
p2514
F1.0
sVswitchboard
p2515
F1.0
sVT-FLOAT
p2516
F2.0
sVtotal
p2517
F1.0
saa(lp2518
S'J00-3003125'
p2519
a(dp2520
Vamong
p2521
F1.0
sVis
p2522
F1.0
sVinstances
p2523
F1.0
sVsingle
p2524
F1.0
sVour
p2525
F1.0
sVT-FLOAT
p2526
F3.0
sVeven
p2527
F1.0
sVgoal
p2528
F1.0
sVfor
p2529
F1.0
sg88
F1.0
sg95
F1.0
sVthat
p2530
F2.0
sg13
F8.0
sVnote
p2531
F1.0
sVto
p2532
F1.0
sVonly
p2533
F1.0
sVother
p2534
F1.0
sVcoded
p2535
F1.0
sVadjacent
p2536
F1.0
sVbetween
p2537
F2.0
sVseveral
p2538
F1.0
sVwas
p2539
F1.0
sVassociations
p2540
F1.0
sVthough
p2541
F1.0
sVof
p2542
F1.0
sVda
p2543
F1.0
sVdas
p2544
F1.0
sVvariable
p2545
F2.0
sVmodel
p2546
F1.0
sVpresent
p2547
F1.0
sg133
F1.0
sg55
F1.0
sg56
F1.0
sVtype
p2548
F1.0
sVstudy
p2549
F1.0
sVthings
p2550
F1.0
sVthe
p2551
F1.0
saa(lp2552
S'J00-3003124'
p2553
a(dp2554
Vachieved
p2555
F1.0
sVvariables
p2556
F1.0
sVdesirable
p2557
F1.0
sVsatisfied
p2558
F1.0
sVcarletta
p2559
F1.0
sVas
p2560
F1.0
sVare
p2561
F1.0
sVin
p2562
F1.0
sVargued
p2563
F1.0
sVfor
p2564
F1.0
sg13
F1.0
sVT-INT
p2565
F2.0
sVcoded
p2566
F1.0
sVbetween
p2567
F1.0
sg334
F1.0
sVseveral
p2568
F1.0
sVhigher
p2569
F1.0
sVassociations
p2570
F1.0
sVwe
p2571
F1.0
sVthus
p2572
F1.0
sVagreement
p2573
F1.0
sVdetecting
p2574
F1.0
sVwith
p2575
F1.0
sVthe
p2576
F1.0
sVkappa
p2577
F1.0
sVlevel
p2578
F1.0
sVof
p2579
F2.0
sVvalues
p2580
F1.0
sVwere
p2581
F1.0
sVT-FLOAT
p2582
F2.0
sVor
p2583
F1.0
saa(lp2584
S'J00-3003299'
p2585
a(dp2586
Vand
p2587
F1.0
sVlogp
p2588
F2.0
sVi~
p2589
F1.0
sVis
p2590
F1.0
sVadwi
p2591
F1.0
sVnumber
p2592
F1.0
sVrate
p2593
F1.0
sVare
p2594
F1.0
sVin
p2595
F1.0
sVparameters
p2596
F1.0
sg88
F2.0
sg95
F1.0
sV+
p2597
F1.0
sg13
F2.0
sVto
p2598
F1.0
sVand/~
p2599
F1.0
sVwi
p2600
F2.0
sVoptimized
p2601
F1.0
sVhypothesis
p2602
F1.0
sVwords
p2603
F1.0
sg763
F1.0
sg764
F3.0
sVT-FLOAT
p2604
F1.0
sg133
F1.0
sVboth
p2605
F1.0
sVword
p2606
F1.0
sVminimize
p2607
F1.0
sVof
p2608
F1.0
sVerror
p2609
F1.0
sVthe
p2610
F3.0
sVwhere
p2611
F1.0
sg1311
F1.0
saa(lp2612
S'J00-3003288'
p2613
a(dp2614
Vpartial
p2615
F1.0
sVclassification
p2616
F1.0
sVrecognize
p2617
F1.0
sVis
p2618
F1.0
sVare
p2619
F1.0
sVin
p2620
F1.0
sVspontaneous
p2621
F1.0
sVyet
p2622
F1.0
sVperfect
p2623
F1.0
sVfor
p2624
F1.0
sVsince
p2625
F1.0
sVable
p2626
F1.0
sg13
F2.0
sVto
p2627
F1.0
sVonly
p2628
F1.0
sVspeech
p2629
F1.0
sVabove
p2630
F1.0
sVapproach
p2631
F1.0
sVaccuracy
p2632
F1.0
sVwe
p2633
F1.0
sVda
p2634
F1.0
sVwords
p2635
F1.0
sVnot
p2636
F1.0
sVwith
p2637
F1.0
sVT-FLOAT
p2638
F1.0
sg133
F1.0
sVfully
p2639
F1.0
sVsolution
p2640
F1.0
sVthe
p2641
F1.0
sVautomatic
p2642
F1.0
saa(lp2643
S'J00-300358'
p2644
a(dp2645
g342
F1.0
sVthat
p2646
F1.0
sVwell
p2647
F1.0
sg13
F1.0
sVT-INT
p2648
F1.0
sVmuch
p2649
F1.0
sVso
p2650
F1.0
sVnot
p2651
F1.0
sVT-FLOAT
p2652
F2.0
saa(lp2653
S'J00-300359'
p2654
a(dp2655
g342
F1.0
sVget
p2656
F1.0
sVthere
p2657
F1.0
sVdiane
p2658
F1.0
sg13
F2.0
sVdown
p2659
F1.0
sVT-INT
p2660
F1.0
sVgoodness
p2661
F1.0
sVfrom
p2662
F1.0
sVT-FLOAT
p2663
F2.0
sVmy
p2664
F1.0
saa(lp2665
S'J00-3003298'
p2666
a(dp2667
Vmodel
p2668
F1.0
sVcomputed
p2669
F1.0
sVweight
p2670
F1.0
sVis
p2671
F2.0
sVas
p2672
F1.0
sVin
p2673
F1.0
sVT-FLOAT
p2674
F3.0
sVtotal
p2675
F1.0
sVscale
p2676
F1.0
sVlog
p2677
F1.0
sVT-INT
p2678
F2.0
sg13
F4.0
sV/~
p2679
F1.0
sVscore
p2680
F1.0
sVtaken
p2681
F1.0
sVmust
p2682
F1.0
sVbe
p2683
F1.0
sVto
p2684
F2.0
sVwi
p2685
F1.0
sVstandard
p2686
F1.0
sVproperly
p2687
F1.0
sVhypothesis
p2688
F1.0
sVscores
p2689
F2.0
sVby
p2690
F1.0
sVcare
p2691
F1.0
sg133
F3.0
sg55
F1.0
sVlanguage
p2692
F1.0
sg181
F1.0
sVof
p2693
F2.0
sVs
p2694
F1.0
sVexponentiate
p2695
F1.0
sVrecognizer
p2696
F4.0
sVacoustic
p2697
F2.0
sVthe
p2698
F5.0
sVwhere
p2699
F1.0
saa(lp2700
S'J00-300354'
p2701
a(dp2702
g133
F1.0
sg342
F1.0
sg181
F1.0
sVdrawing
p2703
F1.0
sVT-INT
p2704
F1.0
sVblank
p2705
F1.0
sVT-FLOAT
p2706
F2.0
sV'm
p2707
F1.0
saa(lp2708
S'J00-300355'
p2709
a(dp2710
g133
F1.0
sg342
F2.0
sVno
p2711
F1.0
sVwell
p2712
F1.0
sg13
F2.0
sVT-INT
p2713
F2.0
sVuh
p2714
F1.0
sVlot
p2715
F1.0
sVnot
p2716
F1.0
sVT-FLOAT
p2717
F3.0
sVwhole
p2718
F1.0
saa(lp2719
S'J00-300356'
p2720
a(dp2721
Vme
p2722
F1.0
sVdo
p2723
F1.0
sg342
F3.0
sVexcuse
p2724
F1.0
sg181
F1.0
sVn't
p2725
F1.0
sVT-INT
p2726
F3.0
sVknow
p2727
F1.0
sVhow
p2728
F1.0
sVT-FLOAT
p2729
F3.0
sVyou
p2730
F1.0
sg123
F2.0
sVare
p2731
F1.0
saa(lp2732
S'J00-300357'
p2733
a(dp2734
g133
F1.0
sg342
F1.0
sVof
p2735
F1.0
sVis
p2736
F1.0
sVit
p2737
F1.0
sVT-INT
p2738
F1.0
sVT-FLOAT
p2739
F1.0
sVcompany
p2740
F1.0
sVor
p2741
F1.0
sg123
F1.0
sVmore
p2742
F1.0
saa(lp2743
S'J00-300350'
p2744
a(dp2745
Vright
p2746
F1.0
sg342
F1.0
sVthat
p2747
F1.0
sVis
p2748
F1.0
sVT-INT
p2749
F1.0
sg123
F1.0
saa(lp2750
S'J00-300351'
p2751
a(dp2752
Vand
p2753
F1.0
sVbe
p2754
F1.0
sVkids
p2755
F1.0
sg342
F2.0
sVfor
p2756
F1.0
sVpregnant
p2757
F1.0
sVschools
p2758
F1.0
sVca
p2759
F1.0
sVoh
p2760
F1.0
sg13
F1.0
sVthe
p2761
F1.0
sVn't
p2762
F1.0
sVT-INT
p2763
F2.0
sVcats
p2764
F1.0
sVhave
p2765
F1.0
sVswitched
p2766
F1.0
sVyou
p2767
F3.0
sVT-FLOAT
p2768
F2.0
sVmean
p2769
F1.0
saa(lp2770
S'J00-300352'
p2771
a(dp2772
Vdo
p2773
F1.0
sg342
F3.0
sVis
p2774
F1.0
sVwho
p2775
F1.0
sVit
p2776
F1.0
sVyou
p2777
F1.0
sVn't
p2778
F2.0
sVT-INT
p2779
F3.0
sVare
p2780
F1.0
sVgo
p2781
F1.0
sVT-FLOAT
p2782
F5.0
sVcontributing
p2783
F1.0
sVwhy
p2784
F1.0
sVfirst
p2785
F1.0
saa(lp2786
S'J00-300353'
p2787
a(dp2788
g133
F1.0
sVabout
p2789
F1.0
sg342
F3.0
sVwould
p2790
F1.0
sVoh
p2791
F1.0
sVwho
p2792
F1.0
sg13
F1.0
sVT-INT
p2793
F3.0
sVfajitas
p2794
F1.0
sVhow
p2795
F1.0
sVnewspaper
p2796
F1.0
sVT-FLOAT
p2797
F3.0
sVsteal
p2798
F1.0
sVyou
p2799
F1.0
sg123
F2.0
saa(lp2800
S'J00-3003256'
p2801
a(dp2802
Vand
p2803
F1.0
sVmotivation
p2804
F1.0
sVone-dimensional
p2805
F1.0
sVis
p2806
F2.0
sVlabels
p2807
F1.0
sVone
p2808
F1.0
sVsequences
p2809
F1.0
sValternative
p2810
F1.0
sVsaw
p2811
F1.0
sVevent
p2812
F1.0
sVreally
p2813
F1.0
sVfor
p2814
F1.0
sVspace
p2815
F1.0
sg88
F1.0
sg95
F1.0
sVwhereas
p2816
F1.0
sg13
F1.0
sVlabel
p2817
F1.0
sVspeaker
p2818
F1.0
sVabove
p2819
F1.0
sVn-grams
p2820
F1.0
sVwe
p2821
F1.0
sVthat
p2822
F2.0
sVmodels
p2823
F1.0
sVda
p2824
F2.0
sVmultidimensional
p2825
F1.0
sVT-FLOAT
p2826
F1.0
sg133
F1.0
sVon
p2827
F1.0
sVrepresentation
p2828
F1.0
sVthe
p2829
F1.0
sVenforce
p2830
F1.0
saa(lp2831
S'J00-30038'
p2832
a(dp2833
Vand
p2834
F4.0
sVachieved
p2835
F1.0
sVerrorful
p2836
F1.0
sVdialogue
p2837
F1.0
sVrecognized
p2838
F1.0
sVhuman
p2839
F1.0
sVin
p2840
F1.0
sVprosody
p2841
F1.0
sVrecognition
p2842
F1.0
sVcompared
p2843
F1.0
sg342
F4.0
sVbaseline
p2844
F1.0
sVto
p2845
F1.0
sg88
F1.0
sg95
F1.0
sg13
F3.0
sVT-INT
p2846
F4.0
sVreduction
p2847
F1.0
sVaccuracy
p2848
F3.0
sVwe
p2849
F1.0
sVgood
p2850
F1.0
sVerror
p2851
F1.0
sVchance
p2852
F1.0
sVwords
p2853
F1.0
sVbased
p2854
F2.0
sVT-FLOAT
p2855
F1.0
sg133
F2.0
sVon
p2856
F2.0
sVword
p2857
F2.0
sVof
p2858
F2.0
sVlabeling
p2859
F1.0
sVact
p2860
F1.0
sVsmall
p2861
F1.0
sVtranscripts
p2862
F1.0
sVautomatically
p2863
F1.0
saa(lp2864
S'J00-30036'
p2865
a(dp2866
g133
F1.0
sVboth
p2867
F1.0
sVwe
p2868
F1.0
sVdevelop
p2869
F1.0
sVand
p2870
F1.0
sVclassification
p2871
F1.0
sVwith
p2872
F1.0
sVof
p2873
F1.0
sVdialogue
p2874
F2.0
sVintegration
p2875
F1.0
sg13
F1.0
sVto
p2876
F1.0
sVspeech
p2877
F2.0
sVact
p2878
F1.0
sVmodeling
p2879
F1.0
sVT-FLOAT
p2880
F1.0
sVaccuracy
p2881
F1.0
sVprobabilistic
p2882
F1.0
sVrecognition
p2883
F2.0
sVimprove
p2884
F1.0
saa(lp2885
S'J00-30037'
p2886
a(dp2887
Vand
p2888
F1.0
sVtelephone
p2889
F1.0
sVare
p2890
F1.0
sVtrained
p2891
F1.0
sVhand-labeled
p2892
F1.0
sVfrom
p2893
F1.0
sg13
F1.0
sVT-INT
p2894
F2.0
sVspeech
p2895
F1.0
sVcorpus
p2896
F1.0
sVmodels
p2897
F1.0
sVconversations
p2898
F1.0
sVhuman-to-human
p2899
F1.0
sVswitchboard
p2900
F1.0
sVusing
p2901
F1.0
sVT-FLOAT
p2902
F1.0
sg133
F1.0
sVdatabase
p2903
F1.0
sVof
p2904
F2.0
sVevaluated
p2905
F1.0
sVlarge
p2906
F1.0
sVthe
p2907
F1.0
sVspontaneous
p2908
F1.0
saa(lp2909
S'J00-30034'
p2910
a(dp2911
g133
F1.0
sVon
p2912
F1.0
sVdialogue
p2913
F2.0
sVmodeled
p2914
F1.0
sVsequence
p2915
F1.0
sVof
p2916
F1.0
sVacts
p2917
F1.0
sVn-gram
p2918
F1.0
sVlikely
p2919
F1.0
sVvia
p2920
F1.0
sVare
p2921
F1.0
sVact
p2922
F1.0
sVthe
p2923
F1.0
sVT-FLOAT
p2924
F1.0
sVconstraints
p2925
F1.0
saa(lp2926
S'J00-30035'
p2927
a(dp2928
Vand
p2929
F2.0
sVis
p2930
F1.0
sVstatistical
p2931
F1.0
sVnetworks
p2932
F1.0
sVdecision
p2933
F1.0
sVlexical
p2934
F1.0
sg13
F2.0
sVcombined
p2935
F1.0
sVn-grams
p2936
F1.0
sVdialogue
p2937
F2.0
sVword
p2938
F1.0
sVact
p2939
F1.0
sVtrees
p2940
F1.0
sVmodeling
p2941
F1.0
sVwith
p2942
F1.0
sVT-FLOAT
p2943
F1.0
sVgrammar
p2944
F1.0
sVneural
p2945
F1.0
sVof
p2946
F1.0
sVmanifestations
p2947
F1.0
sVprosodic
p2948
F1.0
sVeach
p2949
F1.0
sVthe
p2950
F2.0
sVidiosyncratic
p2951
F1.0
saa(lp2952
S'J00-30032'
p2953
a(dp2954
Vand
p2955
F2.0
sVacts
p2956
F1.0
sVsequence
p2957
F1.0
sVas
p2958
F2.0
sVpredicts
p2959
F1.0
sVour
p2960
F1.0
sVT-FLOAT
p2961
F1.0
sVbased
p2962
F1.0
sVlexical
p2963
F1.0
sg13
F3.0
sVdiscourse
p2964
F1.0
sVdialogue
p2965
F2.0
sVcollocational
p2966
F1.0
sVcoherence
p2967
F1.0
sVcues
p2968
F1.0
sVdetects
p2969
F1.0
sVthe
p2970
F2.0
sVon
p2971
F2.0
sVof
p2972
F1.0
sVwell
p2973
F1.0
sVprosodic
p2974
F1.0
sVact
p2975
F1.0
sVmodel
p2976
F1.0
saa(lp2977
S'J00-30033'
p2978
a(dp2979
Vand
p2980
F1.0
sVthe
p2981
F4.0
sVis
p2982
F1.0
sVstates
p2983
F1.0
sVas
p2984
F2.0
sVindividual
p2985
F1.0
sVT-FLOAT
p2986
F1.0
sVbased
p2987
F1.0
sVacts
p2988
F1.0
sVdiscourse
p2989
F1.0
sVobservations
p2990
F1.0
sVhidden
p2991
F1.0
sg133
F2.0
sVdialogue
p2992
F2.0
sVemanating
p2993
F1.0
sVfrom
p2994
F1.0
sVmodel
p2995
F3.0
sVstructure
p2996
F1.0
sVtreating
p2997
F1.0
sVon
p2998
F1.0
sVof
p2999
F1.0
sVconversation
p3000
F1.0
sVmarkov
p3001
F1.0
saa(lp3002
S'J00-30031'
p3003
a(dp3004
Vand
p3005
F1.0
sVdescribe
p3006
F1.0
sVdialogue
p3007
F1.0
sVas
p3008
F1.0
sVstatistical
p3009
F1.0
sVin
p3010
F1.0
sVmodeling
p3011
F1.0
sVbackchannel
p3012
F1.0
sVfor
p3013
F1.0
sVacts
p3014
F1.0
sVquestion
p3015
F1.0
sg13
F7.0
sVspeech
p3016
F1.0
sVstatement
p3017
F1.0
sVunits
p3018
F1.0
sVapproach
p3019
F1.0
sVconversational
p3020
F1.0
sVwe
p3021
F1.0
sVdisagreement
p3022
F1.0
sVagreement
p3023
F1.0
sVspeechact-like
p3024
F1.0
sg133
F1.0
sg55
F1.0
sVapology
p3025
F1.0
sg181
F1.0
sVsuch
p3026
F1.0
sVT-FLOAT
p3027
F3.0
saa(lp3028
S'J00-3003138'
p3029
a(dp3030
Vand
p3031
F1.0
sVsubset
p3032
F1.0
sVfairly
p3033
F1.0
sVal
p3034
F1.0
sVet
p3035
F1.0
sVT-FLOAT
p3036
F2.0
sVinformation
p3037
F1.0
sVto
p3038
F1.0
sg88
F1.0
sVdata
p3039
F1.0
sVshriberg
p3040
F1.0
sg13
F1.0
sVT-INT
p3041
F2.0
sVwas
p3042
F2.0
sVaccuracy
p3043
F1.0
sVbe
p3044
F1.0
sVlacking
p3045
F1.0
sVeffect
p3046
F1.0
sVlistening
p3047
F1.0
sVacoustic
p3048
F1.0
sVassessed
p3049
F1.0
sVwith
p3050
F1.0
sVby
p3051
F1.0
sg133
F1.0
sVon
p3052
F1.0
sVof
p3053
F2.0
sVlabeling
p3054
F1.0
sVrelabeling
p3055
F1.0
sg95
F1.0
sVsmall
p3056
F1.0
sVfound
p3057
F1.0
sVthe
p3058
F2.0
saa(lp3059
S'J00-3003139'
p3060
a(dp3061
Vis
p3062
F1.0
sVlabels
p3063
F1.0
sVat
p3064
F1.0
sVhave
p3065
F1.0
sVbased
p3066
F2.0
sVfor
p3067
F1.0
sg13
F2.0
sVconservative
p3068
F1.0
sVT-INT
p3069
F1.0
sVmight
p3070
F1.0
sVthat
p3071
F1.0
sVda
p3072
F1.0
sVmost
p3073
F2.0
sVlistening
p3074
F1.0
sg342
F1.0
sVestimate
p3075
F1.0
sVT-FLOAT
p3076
F1.0
sVtypes
p3077
F1.0
sg133
F1.0
sVon
p3078
F2.0
sVof
p3079
F1.0
sVstudy
p3080
F1.0
sVchanged
p3081
F1.0
sVrelabeling
p3082
F1.0
sVthe
p3083
F2.0
saa(lp3084
S'J00-3003262'
p3085
a(dp3086
Vand
p3087
F1.0
sVberger
p3088
F1.0
sVsequences
p3089
F1.0
sVsecond
p3090
F1.0
sVdella
p3091
F2.0
sVentropy
p3092
F1.0
sVin
p3093
F1.0
sVbuilt
p3094
F1.0
sg88
F1.0
sg95
F1.0
sg13
F4.0
sVT-INT
p3095
F1.0
sVdiscourse
p3096
F1.0
sVway
p3097
F1.0
sVnonhierarchical
p3098
F1.0
sVwe
p3099
F1.0
sVthat
p3100
F1.0
sVda
p3101
F1.0
sVusing
p3102
F1.0
sVpietra
p3103
F2.0
sg133
F2.0
sVon
p3104
F1.0
sVgrammar
p3105
F1.0
sVmaximum
p3106
F1.0
sVincorporated
p3107
F1.0
sVT-FLOAT
p3108
F1.0
sVestimation
p3109
F1.0
sVconstraints
p3110
F1.0
saa(lp3111
S'J00-3003263'
p3112
a(dp3113
Vfeatures
p3114
F1.0
sVgeneral
p3115
F1.0
sVas
p3116
F1.0
sVelements
p3117
F1.0
sVstatistical
p3118
F1.0
sVin
p3119
F2.0
sVintuitions
p3120
F1.0
sVour
p3121
F1.0
sVT-FLOAT
p3122
F1.0
sVinformed
p3123
F1.0
sg13
F1.0
sVdiscourse
p3124
F1.0
sVpotentially
p3125
F1.0
sVwas
p3126
F1.0
sVused
p3127
F1.0
sVmodels
p3128
F1.0
sVchoice
p3129
F1.0
sVones
p3130
F1.0
sVby
p3131
F1.0
sVinformation-bearing
p3132
F1.0
sVabout
p3133
F1.0
sVlanguage
p3134
F1.0
sVof
p3135
F1.0
sVwell
p3136
F1.0
sVcommonly
p3137
F1.0
sVcontext
p3138
F1.0
sVthe
p3139
F2.0
sVsimilar
p3140
F1.0
saa(lp3141
S'J00-3003264'
p3142
a(dp3143
Vand
p3144
F2.0
sVthe
p3145
F7.0
sVfeatures
p3146
F1.0
sVwithin
p3147
F1.0
sVthus
p3148
F1.0
sVpast
p3149
F1.0
sVas
p3150
F1.0
sVin
p3151
F1.0
sVT-FLOAT
p3152
F1.0
sVconstrained
p3153
F1.0
sVprevious
p3154
F2.0
sVstatistics
p3155
F1.0
sg13
F4.0
sVsame
p3156
F1.0
sVlabel
p3157
F1.0
sVcurrent
p3158
F1.0
sVwindow
p3159
F1.0
sVspeaker
p3160
F1.0
sVwas
p3161
F3.0
sVthat
p3162
F1.0
sVda
p3163
F3.0
sVdesigned
p3164
F1.0
sVdas
p3165
F1.0
sVsuch
p3166
F1.0
sVremoved
p3167
F1.0
sVby
p3168
F2.0
sVoccurring
p3169
F1.0
sg133
F1.0
sVunigram
p3170
F1.0
sVwhether
p3171
F1.0
sVso
p3172
F1.0
sVmodel
p3173
F1.0
sVutterance
p3174
F1.0
sVonce
p3175
F1.0
saa(lp3176
S'J00-3003265'
p3177
a(dp3178
Vme
p3179
F1.0
sg133
F1.0
sVwe
p3180
F1.0
sVonly
p3181
F1.0
sVcorresponding
p3182
F1.0
sVthat
p3183
F1.0
sVn-gram
p3184
F2.0
sg13
F2.0
sVan
p3185
F1.0
sVbetter
p3186
F1.0
sVT-FLOAT
p3187
F1.0
sVhowever
p3188
F1.0
sVperformed
p3189
F1.0
sVusing
p3190
F1.0
sVfound
p3191
F1.0
sVmodel
p3192
F1.0
sVbackoff
p3193
F1.0
sVslightly
p3194
F1.0
sVthan
p3195
F1.0
sVconstraints
p3196
F1.0
saa(lp3197
S'J00-3003266'
p3198
a(dp3199
Vand
p3200
F1.0
sVdistanceT-INT
p3201
F1.0
sVencoding
p3202
F1.0
sVsame/other
p3203
F1.0
sVrelative
p3204
F1.0
sVtrigram
p3205
F1.0
sVas
p3206
F1.0
sVT-FLOAT
p3207
F1.0
sVadditional
p3208
F1.0
sg13
F2.0
sVto
p3209
F2.0
sVspeaker
p3210
F1.0
sVchannel
p3211
F1.0
sVseparate
p3212
F1.0
sVda
p3213
F2.0
sVnot
p3214
F1.0
sVsuch
p3215
F1.0
sVmodel
p3216
F1.0
sVchange
p3217
F1.0
sVimprove
p3218
F1.0
sVon
p3219
F1.0
sVlast
p3220
F1.0
sVtriggers
p3221
F1.0
sVdid
p3222
F1.0
sVof
p3223
F1.0
sVbigrams
p3224
F2.0
sVthe
p3225
F3.0
sVconstraints
p3226
F1.0
saa(lp3227
S'J00-3003267'
p3228
a(dp3229
Vand
p3230
F2.0
sVdomain
p3231
F1.0
sVconclude
p3232
F1.0
sVsequences
p3233
F1.0
sVthus
p3234
F2.0
sVbackoff
p3235
F1.0
sVleads
p3236
F1.0
sVat
p3237
F1.0
sVin
p3238
F1.0
sVT-FLOAT
p3239
F1.0
sVconfirms
p3240
F1.0
sVby
p3241
F2.0
sVstatistics
p3242
F1.0
sVfor
p3243
F1.0
sVinteractions
p3244
F1.0
sVn-gram
p3245
F2.0
sg13
F4.0
sVleast
p3246
F1.0
sVadequacy
p3247
F1.0
sVto
p3248
F1.0
sVapproach
p3249
F1.0
sVmostly
p3250
F1.0
sVthat
p3251
F1.0
sVda
p3252
F1.0
sVswitchboard
p3253
F1.0
sVlow-order
p3254
F1.0
sVmodel
p3255
F1.0
sVme
p3256
F1.0
sVtask
p3257
F1.0
sVthis
p3258
F1.0
sVof
p3259
F1.0
sVmodeled
p3260
F1.0
sVwell
p3261
F1.0
sVus
p3262
F1.0
sVlocal
p3263
F1.0
sVthe
p3264
F4.0
sVcharacterized
p3265
F1.0
sVare
p3266
F1.0
saa(lp3267
S'J00-3003130'
p3268
a(dp3269
Vfrequent
p3270
F1.0
sVbriefly
p3271
F1.0
sVda
p3272
F1.0
sVT-FLOAT
p3273
F1.0
sVbelow
p3274
F1.0
sVare
p3275
F1.0
sVthe
p3276
F1.0
sVcharacterized
p3277
F1.0
sVtypes
p3278
F1.0
sVmore
p3279
F1.0
saa(lp3280
S'J00-3003131'
p3281
a(dp3282
Vand
p3283
F2.0
sVcomputational
p3284
F1.0
sVset
p3285
F1.0
sVis
p3286
F1.0
sVfocus
p3287
F1.0
sVreport
p3288
F1.0
sVas
p3289
F1.0
sVpaper
p3290
F1.0
sVexamples
p3291
F1.0
sVin
p3292
F1.0
sVrecognition
p3293
F1.0
sVfor
p3294
F1.0
sVT-INT
p3295
F1.0
sg88
F1.0
sg95
F1.0
sVseparate
p3296
F1.0
sVshriberg
p3297
F1.0
sg13
F4.0
sVtheir
p3298
F1.0
sVdetails
p3299
F1.0
sVabove
p3300
F1.0
sg334
F1.0
sVnumerous
p3301
F1.0
sVbe
p3302
F1.0
sVfull
p3303
F1.0
sVmotivating
p3304
F1.0
sVnature
p3305
F1.0
sVbut
p3306
F1.0
sVda
p3307
F1.0
sVframework
p3308
F1.0
sVbiasca
p3309
F1.0
sVdas
p3310
F1.0
sVnot
p3311
F1.0
sVT-FLOAT
p3312
F1.0
sg133
F1.0
sVon
p3313
F2.0
sVthis
p3314
F1.0
sVof
p3315
F3.0
sVdiscussed
p3316
F1.0
sVjurafsky
p3317
F1.0
sVtag
p3318
F1.0
sVcan
p3319
F1.0
sVfound
p3320
F1.0
sVthe
p3321
F4.0
saa(lp3322
S'J00-3003132'
p3323
a(dp3324
Vand
p3325
F1.0
sVopinions
p3326
F1.0
sVT-FLOAT
p3327
F1.0
sVstatements
p3328
F1.0
saa(lp3329
S'J00-3003133'
p3330
a(dp3331
Vand
p3332
F1.0
sVopinions
p3333
F1.0
sVstatements
p3334
F1.0
sVutterances
p3335
F1.0
sVof
p3336
F1.0
sVmost
p3337
F1.0
sVcommon
p3338
F1.0
sVwere
p3339
F1.0
sVthe
p3340
F1.0
sVT-FLOAT
p3341
F1.0
sVtypes
p3342
F1.0
saa(lp3343
S'J00-3003134'
p3344
a(dp3345
V``
p3346
F2.0
sVstatements
p3347
F2.0
sVdescriptive
p3348
F1.0
sVthis
p3349
F1.0
sVdistinguishes
p3350
F1.0
sg13
F2.0
sV''
p3351
F2.0
sVpersonal
p3352
F1.0
sVsplit
p3353
F1.0
sVnarrative
p3354
F1.0
sVother-directed
p3355
F1.0
sVfrom
p3356
F1.0
sVT-FLOAT
p3357
F1.0
sVopinion
p3358
F1.0
sVor
p3359
F1.0
saa(lp3360
S'J00-3003135'
p3361
a(dp3362
Vand
p3363
F2.0
sVopinions
p3364
F2.0
sVvia
p3365
F1.0
sVstatements
p3366
F1.0
sVoften
p3367
F2.0
sVdialogue
p3368
F1.0
sVtwo
p3369
F1.0
sVelicit
p3370
F1.0
sVare
p3371
F1.0
sVhave
p3372
F1.0
sVfurther
p3373
F1.0
sVcat
p3374
F1.0
sVsaw
p3375
F1.0
sVcapture
p3376
F1.0
sVdifferent
p3377
F1.0
sg88
F2.0
sg95
F2.0
sVfat
p3378
F1.0
sg13
F8.0
sVto
p3379
F3.0
sVold
p3380
F2.0
sVwhich
p3381
F2.0
sVprobably
p3382
F1.0
sg215
F1.0
sVwas
p3383
F1.0
sVbackchannels
p3384
F1.0
sVmore
p3385
F1.0
sVwe
p3386
F2.0
sVgood
p3387
F1.0
sVkinds
p3388
F1.0
sVresponses
p3389
F1.0
sVdisagreed
p3390
F1.0
sVbig
p3391
F1.0
sVcountered
p3392
F1.0
sVdesigned
p3393
F1.0
sVsassy
p3394
F1.0
sVyears
p3395
F1.0
sVwith
p3396
F1.0
sVT-FLOAT
p3397
F1.0
sVhe
p3398
F1.0
sg133
F2.0
sVum
p3399
F1.0
sVoh
p3400
F1.0
sVof
p3401
F1.0
sVtabby
p3402
F1.0
sVwell
p3403
F1.0
sV's
p3404
F1.0
sVexample
p3405
F1.0
sVcontinuers
p3406
F1.0
sVstatement
p3407
F2.0
sVact
p3408
F1.0
sVdistinction
p3409
F1.0
sVthe
p3410
F2.0
sVutterance
p3411
F1.0
sVor
p3412
F2.0
saa(lp3413
S'J00-3003136'
p3414
a(dp3415
Vabout
p3416
F1.0
sV's
p3417
F1.0
sVmonths
p3418
F1.0
sVwell
p3419
F1.0
sg13
F1.0
sVT-FLOAT
p3420
F1.0
sVfive
p3421
F1.0
sVare
p3422
F1.0
sVstatement
p3423
F1.0
sVopinion
p3424
F1.0
sVold
p3425
F1.0
sVrabbits
p3426
F1.0
sVdarling
p3427
F1.0
sVhe
p3428
F1.0
saa(lp3429
S'J00-3003137'
p3430
a(dp3431
Vbe
p3432
F1.0
sVkind
p3433
F1.0
sVstressful
p3434
F1.0
sVwould
p3435
F1.0
sg181
F1.0
sVof
p3436
F1.0
sVit
p3437
F1.0
sVopinion
p3438
F1.0
sVT-FLOAT
p3439
F1.0
sVthink
p3440
F1.0
saa(lp3441
S'J00-3003291'
p3442
a(dp3443
g133
F1.0
sVbe
p3444
F1.0
sVuse
p3445
F1.0
sVcan
p3446
F1.0
sVof
p3447
F1.0
sVderived
p3448
F1.0
sVrecognized
p3449
F1.0
sVas
p3450
F1.0
sVspeech
p3451
F1.0
sVthorough
p3452
F1.0
sVfollows
p3453
F1.0
sVT-FLOAT
p3454
F1.0
sVmore
p3455
F1.0
saa(lp3456
S'J00-3003290'
p3457
a(dp3458
Vand
p3459
F1.0
sVall
p3460
F1.0
sVsimple
p3461
F1.0
sVrelative
p3462
F1.0
sVas
p3463
F2.0
sVin
p3464
F2.0
sVconceptually
p3465
F1.0
sVinformation
p3466
F1.0
sVuse
p3467
F1.0
sVconvenient
p3468
F1.0
sVmake
p3469
F1.0
sg13
F2.0
sVtheir
p3470
F1.0
sVhypotheses
p3471
F1.0
sVwhich
p3472
F1.0
sVoptimal
p3473
F1.0
sVmethod
p3474
F1.0
sVmultiple
p3475
F1.0
sVmaintains
p3476
F1.0
sVnot
p3477
F1.0
sVT-FLOAT
p3478
F1.0
sVthis
p3479
F1.0
sVof
p3480
F1.0
sVwell
p3481
F1.0
sVwill
p3482
F1.0
sVwhile
p3483
F1.0
sVrecognizer
p3484
F1.0
sVthe
p3485
F2.0
sVfact
p3486
F1.0
sVplausibilities
p3487
F1.0
saa(lp3488
S'J00-3003229'
p3489
a(dp3490
Vavailable
p3491
F1.0
sVfull
p3492
F1.0
sVthis
p3493
F1.0
sVis
p3494
F2.0
sVprocessing
p3495
F1.0
sVwhen
p3496
F1.0
sg13
F2.0
sVoff-line
p3497
F1.0
sVpossible
p3498
F1.0
sVconversation
p3499
F1.0
sVonly
p3500
F1.0
sVduring
p3501
F1.0
sVthe
p3502
F1.0
sVobviously
p3503
F1.0
sVT-FLOAT
p3504
F1.0
saa(lp3505
S'J00-300343'
p3506
a(dp3507
g342
F2.0
sVthroat_clearing
p3508
F1.0
sVT-FLOAT
p3509
F1.0
sg13
F1.0
sVT-INT
p3510
F2.0
sVyes
p3511
F1.0
sVlaughter
p3512
F1.0
sg1310
F2.0
sg1309
F2.0
saa(lp3513
S'J00-300342'
p3514
a(dp3515
Vdo
p3516
F1.0
sVtraining
p3517
F1.0
sg342
F1.0
sVto
p3518
F1.0
sVT-INT
p3519
F1.0
sg123
F1.0
sVhave
p3520
F2.0
sVyou
p3521
F1.0
sVany
p3522
F1.0
sVspecial
p3523
F1.0
saa(lp3524
S'J00-300341'
p3525
a(dp3526
g342
F1.0
sg181
F1.0
sVT-INT
p3527
F1.0
sVcan
p3528
F1.0
sVimagine
p3529
F1.0
sVT-FLOAT
p3530
F1.0
saa(lp3531
S'J00-300340'
p3532
a(dp3533
Vgreat
p3534
F1.0
sg342
F3.0
sVthat
p3535
F1.0
sg181
F1.0
sV-/
p3536
F1.0
sVexactly
p3537
F1.0
sVit
p3538
F2.0
sg13
F1.0
sVT-INT
p3539
F3.0
sVso
p3540
F1.0
sV's
p3541
F2.0
sVT-FLOAT
p3542
F1.0
sVthink
p3543
F1.0
saa(lp3544
S'J00-300347'
p3545
a(dp3546
Vdo
p3547
F1.0
sg342
F1.0
sg181
F2.0
sVT-FLOAT
p3548
F1.0
sVor
p3549
F1.0
sVn't
p3550
F1.0
sVT-INT
p3551
F1.0
sVknow
p3552
F1.0
sVsense
p3553
F1.0
sVnot
p3554
F1.0
sVmaking
p3555
F1.0
sV'm
p3556
F1.0
sVany
p3557
F1.0
sVif
p3558
F1.0
saa(lp3559
S'J00-300346'
p3560
a(dp3561
g342
F2.0
sVoh
p3562
F1.0
sVno
p3563
F1.0
sg13
F1.0
sVT-INT
p3564
F2.0
sVokay
p3565
F1.0
sVT-FLOAT
p3566
F2.0
saa(lp3567
S'J00-300345'
p3568
a(dp3569
Vwhat
p3570
F1.0
sg342
F1.0
sVto
p3571
F1.0
sVdid
p3572
F1.0
sVwork
p3573
F1.0
sVT-INT
p3574
F1.0
sVwear
p3575
F1.0
sVyou
p3576
F1.0
sVtoday
p3577
F1.0
sg123
F1.0
saa(lp3578
S'J00-300344'
p3579
a(dp3580
g342
F1.0
sVto
p3581
F1.0
sVtalking
p3582
F1.0
sVwell
p3583
F1.0
sVit
p3584
F1.0
sVbeen
p3585
F1.0
sg13
F1.0
sVT-INT
p3586
F1.0
sV's
p3587
F1.0
sVyou
p3588
F1.0
sVT-FLOAT
p3589
F1.0
sVnice
p3590
F1.0
saa(lp3591
S'J00-3003259'
p3592
a(dp3593
Vover
p3594
F1.0
sVsequences
p3595
F1.0
sVas
p3596
F1.0
sVin
p3597
F1.0
sVour
p3598
F1.0
sVseem
p3599
F1.0
sVfor
p3600
F1.0
sVno
p3601
F1.0
sVcache
p3602
F1.0
sVn-gram
p3603
F1.0
sg13
F2.0
sVimprovement
p3604
F1.0
sVto
p3605
F1.0
sVdoes
p3606
F1.0
sVcorpus
p3607
F1.0
sVbe
p3608
F1.0
sVhowever
p3609
F1.0
sVda
p3610
F1.0
sVnot
p3611
F1.0
sVstandard
p3612
F1.0
sVtrue
p3613
F1.0
sVmodel
p3614
F1.0
sVshowed
p3615
F1.0
sVthis
p3616
F1.0
sVT-FLOAT
p3617
F1.0
sVthe
p3618
F2.0
saa(lp3619
S'J00-300349'
p3620
a(dp3621
Vme
p3622
F1.0
sg133
F1.0
sg342
F1.0
sVgive
p3623
F1.0
sVwell
p3624
F1.0
sg13
F1.0
sVbreak
p3625
F1.0
sVT-INT
p3626
F1.0
sVknow
p3627
F1.0
sVyou
p3628
F1.0
sVT-FLOAT
p3629
F1.0
saa(lp3630
S'J00-300348'
p3631
a(dp3632
g133
F1.0
sg342
F1.0
sVto
p3633
F1.0
sVafford
p3634
F1.0
sVhouse
p3635
F1.0
sVget
p3636
F1.0
sVT-INT
p3637
F1.0
sVso
p3638
F1.0
sVcan
p3639
F1.0
sVyou
p3640
F1.0
sg123
F1.0
saa(lp3641
S'J00-3003258'
p3642
a(dp3643
Vand
p3644
F2.0
sVdistances
p3645
F1.0
sVpreviously
p3646
F1.0
sVover
p3647
F1.0
sVobserved
p3648
F1.0
sVunigrams
p3649
F1.0
sValternative
p3650
F1.0
sVboosts
p3651
F1.0
sVto
p3652
F1.0
sg88
F1.0
sg95
F1.0
sVcache
p3653
F1.0
sg13
F2.0
sVtend
p3654
F1.0
sVT-INT
p3655
F1.0
sVthat
p3656
F1.0
sVmori
p3657
F1.0
sVwhich
p3658
F1.0
sVthemselves
p3659
F1.0
sVapproach
p3660
F1.0
sVrepeat
p3661
F1.0
sVtheory
p3662
F1.0
sVwas
p3663
F1.0
sVT-FLOAT
p3664
F1.0
sVde
p3665
F1.0
sVstandard
p3666
F1.0
sVtokens
p3667
F1.0
sVthe
p3668
F3.0
sg133
F1.0
sVon
p3669
F1.0
sVlonger
p3670
F1.0
sVof
p3671
F1.0
sVprobabilities
p3672
F1.0
sVbigrams
p3673
F1.0
sVkuhn
p3674
F1.0
sVmodel
p3675
F1.0
sVfirst
p3676
F1.0
saa(lp3677
S'J00-3003185'
p3678
a(dp3679
Vmodel
p3680
F1.0
sVsequence
p3681
F1.0
sVis
p3682
F1.0
sVdescribe
p3683
F1.0
sVevidence
p3684
F1.0
sVproduced
p3685
F1.0
sVunderlying
p3686
F1.0
sVare
p3687
F1.0
sVstatistical
p3688
F1.0
sVin
p3689
F1.0
sVgenerative
p3690
F1.0
sVour
p3691
F1.0
sVcausal
p3692
F1.0
sVsequences
p3693
F1.0
sVhow
p3694
F1.0
sVestimating
p3695
F1.0
sVprobabilistic
p3696
F1.0
sVnature
p3697
F1.0
sg13
F4.0
sVby
p3698
F1.0
sVto
p3699
F1.0
sVdiscourse
p3700
F1.0
sVhas
p3701
F1.0
sVdo
p3702
F1.0
sVthat
p3703
F1.0
sVmodels
p3704
F1.0
sg92
F1.0
sVda
p3705
F2.0
sg133
F2.0
sVthey
p3706
F1.0
sVgrammar
p3707
F1.0
sVwith
p3708
F1.0
sVthe
p3709
F3.0
sVbuilding
p3710
F1.0
sg55
F2.0
sg181
F2.0
sVof
p3711
F1.0
sVthis
p3712
F1.0
sg93
F1.0
sVT-FLOAT
p3713
F6.0
sVrequires
p3714
F1.0
sVor
p3715
F1.0
sVfact
p3716
F1.0
saa(lp3717
S'J00-3003184'
p3718
a(dp3719
Vstraightforward
p3720
F1.0
sVT-FLOAT
p3721
F1.0
sVis
p3722
F1.0
sVitself
p3723
F1.0
sVthan
p3724
F1.0
sVto
p3725
F1.0
sVposterior
p3726
F1.0
sVmuch
p3727
F1.0
sVusually
p3728
F1.0
sVthe
p3729
F2.0
sVlikelihood
p3730
F1.0
sVmodel
p3731
F1.0
sVmore
p3732
F1.0
saa(lp3733
S'J00-3003187'
p3734
a(dp3735
VT-INT
p3736
F2.0
sVT-FLOAT
p3737
F2.0
sVdialogue
p3738
F1.0
sVlikelihoods
p3739
F1.0
sVact
p3740
F1.0
saa(lp3741
S'J00-3003186'
p3742
a(dp3743
Vsequenced
p3744
F1.0
sVwords
p3745
F1.0
sVusing
p3746
F1.0
sVlabels
p3747
F1.0
sVdetail
p3748
F1.0
sVgrammars
p3749
F1.0
sVdone
p3750
F1.0
sVare
p3751
F1.0
sVin
p3752
F3.0
sVT-FLOAT
p3753
F1.0
sVrecognition
p3754
F1.0
sVtechniques
p3755
F1.0
sVfrom
p3756
F1.0
sVfor
p3757
F1.0
sVrather
p3758
F1.0
sVsection
p3759
F1.0
sg13
F1.0
sVT-INT
p3760
F1.0
sVdiscourse
p3761
F1.0
sVspeech
p3762
F1.0
sg334
F1.0
sVbe
p3763
F2.0
sVfamiliar
p3764
F1.0
sVda
p3765
F1.0
sVobjects
p3766
F1.0
sValthough
p3767
F1.0
sVmodeling
p3768
F1.0
sVthan
p3769
F1.0
sVcase
p3770
F1.0
sVlanguage
p3771
F1.0
sVthis
p3772
F2.0
sVdiscussed
p3773
F1.0
sVwill
p3774
F1.0
sVcan
p3775
F1.0
sVthe
p3776
F1.0
saa(lp3777
S'J00-3003181'
p3778
a(dp3779
Vand
p3780
F1.0
sVuie
p3781
F1.0
sVprobability
p3782
F1.0
sVsequence
p3783
F1.0
sVargmax
p3784
F1.0
sVis
p3785
F1.0
sVrandom
p3786
F1.0
sVdialogue
p3787
F1.0
sVin
p3788
F1.0
sVmodeling
p3789
F1.0
sVpp
p3790
F1.0
sV'
p3791
F1.0
sg92
F3.0
sg88
F2.0
sg95
F2.0
sg13
F1.0
sVT-INT
p3792
F1.0
sVu*
p3793
F1.0
sg94
F3.0
sVvariables
p3794
F1.0
sVwe
p3795
F1.0
sVused
p3796
F1.0
sVget
p3797
F1.0
sVT-FLOAT
p3798
F1.0
sVhere
p3799
F1.0
sVda
p3800
F1.0
sVbayes
p3801
F1.0
sVeiu
p3802
F1.0
sVargmaxp
p3803
F1.0
sg133
F1.0
sVrepresents
p3804
F1.0
sVapplying
p3805
F1.0
sVof
p3806
F2.0
sVrule
p3807
F1.0
sVsummary
p3808
F1.0
sVprior
p3809
F1.0
sg93
F3.0
sVargmaxpp
p3810
F1.0
sVthe
p3811
F2.0
sVliketable
p3812
F1.0
saa(lp3813
S'J00-3003180'
p3814
a(dp3815
Vall
p3816
F1.0
sVuie
p3817
F1.0
sVprobability
p3818
F1.0
sVsequence
p3819
F1.0
sVis
p3820
F1.0
sVevidence
p3821
F2.0
sVfind
p3822
F1.0
sVgiven
p3823
F2.0
sVgoal
p3824
F1.0
sg92
F1.0
sg88
F1.0
sg95
F1.0
sg13
F1.0
sVto
p3825
F1.0
sVhas
p3826
F1.0
sVavailable
p3827
F1.0
sVthat
p3828
F2.0
sVda
p3829
F1.0
sVposterior
p3830
F1.0
sVhighest
p3831
F1.0
sVT-FLOAT
p3832
F1.0
sg133
F1.0
sVabout
p3833
F1.0
sg55
F1.0
sVconversation
p3834
F1.0
sg93
F1.0
sVthe
p3835
F3.0
saa(lp3836
S'J00-3003183'
p3837
a(dp3838
Vfeatures
p3839
F1.0
sVsequence
p3840
F2.0
sVlabels
p3841
F2.0
sVevidence
p3842
F4.0
sVin
p3843
F1.0
sVspectral
p3844
F1.0
sVspeakers
p3845
F1.0
sg88
F2.0
sg95
F2.0
sVspeech
p3846
F1.0
sVlihood
p3847
F1.0
sg1378
F1.0
sVasr
p3848
F1.0
sVused
p3849
F1.0
sVcomplete
p3850
F1.0
sVsymbol
p3851
F1.0
sVgiven
p3852
F1.0
sVda
p3853
F1.0
sVmeaning
p3854
F1.0
sVwords
p3855
F1.0
sVT-FLOAT
p3856
F1.0
sg133
F1.0
sg55
F1.0
sVf
p3857
F1.0
sVof
p3858
F3.0
sVsignal
p3859
F1.0
sg93
F2.0
sVprosodic
p3860
F1.0
sg772
F1.0
sVacoustic
p3861
F1.0
sVthe
p3862
F1.0
saa(lp3863
S'J00-3003182'
p3864
a(dp3865
g88
F1.0
sg95
F1.0
sVsection
p3866
F1.0
sVlabels
p3867
F1.0
sVT-INT
p3868
F1.0
sVspeaker
p3869
F1.0
sVare
p3870
F1.0
sVin
p3871
F1.0
sVT-FLOAT
p3872
F1.0
sVintroduced
p3873
F1.0
saa(lp3874
S'J00-3003189'
p3875
a(dp3876
Vspoken
p3877
F1.0
sVevidence
p3878
F1.0
sVsources
p3879
F1.0
sVwiu
p3880
F1.0
sVexperiments
p3881
F1.0
sVare
p3882
F1.0
sVin
p3883
F4.0
sVour
p3884
F1.0
sVT-FLOAT
p3885
F1.0
sVconversation
p3886
F1.0
sVto
p3887
F1.0
sg88
F2.0
sg95
F2.0
sg13
F2.0
sVT-INT
p3888
F1.0
sVtranscribed
p3889
F1.0
sg215
F2.0
sVwe
p3890
F1.0
sVused
p3891
F2.0
sVcombination
p3892
F1.0
sVwords
p3893
F2.0
sValone
p3894
F1.0
sVrefers
p3895
F1.0
sVtrue
p3896
F1.0
sVthe
p3897
F3.0
sg133
F1.0
sVof
p3898
F1.0
sVequation
p3899
F1.0
sg92
F1.0
sVhand-transcribed
p3900
F1.0
sVeither
p3901
F1.0
sg772
F1.0
sVfollowing
p3902
F1.0
sVlikelihoods
p3903
F1.0
sVwhere
p3904
F1.0
sVor
p3905
F1.0
saa(lp3906
S'J00-3003188'
p3907
a(dp3908
Von
p3909
F1.0
sVused
p3910
F1.0
sVeiu
p3911
F1.0
sg88
F1.0
sg95
F1.0
sVevidence
p3912
F1.0
sg92
F1.0
sVdepends
p3913
F1.0
sVT-FLOAT
p3914
F1.0
sVcomputation
p3915
F1.0
sVof
p3916
F2.0
sVthe
p3917
F2.0
sVlikelihoods
p3918
F1.0
sVtypes
p3919
F1.0
saa(lp3920
S'J00-3003255'
p3921
a(dp3922
Von
p3923
F1.0
sVwe
p3924
F1.0
sVinvestigated
p3925
F1.0
sVbased
p3926
F1.0
sVlanguage
p3927
F1.0
sVfrom
p3928
F1.0
sVmodels
p3929
F1.0
sVspeech
p3930
F1.0
sg13
F1.0
sValso
p3931
F1.0
sVdiscourse
p3932
F1.0
sVvarious
p3933
F1.0
sVnon-n-gram
p3934
F1.0
sVknown
p3935
F1.0
sVmodeling
p3936
F1.0
sVT-FLOAT
p3937
F1.0
sVrecognition
p3938
F1.0
sVtechniques
p3939
F1.0
saa(lp3940
S'J00-3003254'
p3941
a(dp3942
Vmodels
p3943
F1.0
sVT-INT
p3944
F2.0
sVT-FLOAT
p3945
F2.0
sVother
p3946
F1.0
sVdiscourse
p3947
F1.0
saa(lp3948
S'J00-3003257'
p3949
a(dp3950
Vmotivation
p3951
F1.0
sVcertain
p3952
F1.0
sVn-grams
p3953
F1.0
sVas
p3954
F1.0
sVanother
p3955
F1.0
sVfail
p3956
F1.0
sVT-FLOAT
p3957
F1.0
sVthroughout
p3958
F1.0
sVspeakers
p3959
F1.0
sVconversation
p3960
F1.0
sg13
F1.0
sVtend
p3961
F1.0
sVto
p3962
F2.0
sVis
p3963
F1.0
sVrepeat
p3964
F1.0
sVthat
p3965
F2.0
sVmay
p3966
F1.0
sVdependencies
p3967
F1.0
sVdas
p3968
F1.0
sVsuch
p3969
F1.0
sVmodel
p3970
F1.0
sVpatterns
p3971
F1.0
sVthe
p3972
F2.0
sVor
p3973
F1.0
sVfact
p3974
F1.0
sVlong-distance
p3975
F1.0
saa(lp3976
S'J00-3003227'
p3977
a(dp3978
Vwe
p3979
F1.0
sVused
p3980
F1.0
sVthis
p3981
F1.0
sg13
F1.0
sVtherefore
p3982
F1.0
sVT-FLOAT
p3983
F1.0
sVthroughout
p3984
F1.0
sVmethod
p3985
F1.0
saa(lp3986
S'J00-3003109'
p3987
a(dp3988
Vand
p3989
F2.0
sVreference
p3990
F1.0
sVpoint
p3991
F1.0
sVas
p3992
F1.0
sVin
p3993
F1.0
sVtechnology
p3994
F1.0
sVfor
p3995
F1.0
sVarea
p3996
F1.0
sg13
F1.0
sVapplication
p3997
F1.0
sVother
p3998
F1.0
sVfairly
p3999
F1.0
sVwe
p4000
F1.0
sVthat
p4001
F1.0
sVcomprehensive
p4002
F1.0
sVserve
p4003
F1.0
sVhowever
p4004
F1.0
sVbelieve
p4005
F1.0
sg133
F2.0
sVrepresents
p4006
F1.0
sVthis
p4007
F2.0
sVof
p4008
F2.0
sVstudy
p4009
F1.0
sVwork
p4010
F1.0
sVdeparture
p4011
F1.0
sVcan
p4012
F1.0
sVT-FLOAT
p4013
F1.0
saa(lp4014
S'J00-3003108'
p4015
a(dp4016
Vand
p4017
F1.0
sVall
p4018
F1.0
sVtasks
p4019
F1.0
sVuseful
p4020
F1.0
sVin
p4021
F1.0
sVtechniques
p4022
F1.0
sVdifferent
p4023
F1.0
sVfor
p4024
F1.0
sVprove
p4025
F1.0
sg13
F1.0
sVmight
p4026
F1.0
sVbe
p4027
F1.0
sVused
p4028
F1.0
sVgreater
p4029
F1.0
sVimportance
p4030
F1.0
sVothers
p4031
F1.0
sVnot
p4032
F1.0
sVT-FLOAT
p4033
F1.0
sVthis
p4034
F1.0
sVof
p4035
F1.0
sVstudy
p4036
F1.0
sVthe
p4037
F1.0
sVcould
p4038
F1.0
saa(lp4039
S'J00-3003253'
p4040
a(dp4041
Vand
p4042
F1.0
sVcommands
p4043
F1.0
sVfollowed
p4044
F1.0
sVall
p4045
F1.0
sVof
p4046
F2.0
sVT-FLOAT
p4047
F1.0
sg13
F1.0
sVbackchannels
p4048
F1.0
sVT-INT
p4049
F2.0
sVelicit
p4050
F1.0
sVagreements
p4051
F1.0
sVstatements
p4052
F1.0
sVin
p4053
F2.0
sg342
F2.0
sVthe
p4054
F1.0
sVcases
p4055
F2.0
sVby
p4056
F1.0
sVare
p4057
F1.0
saa(lp4058
S'J00-3003252'
p4059
a(dp4060
Vdispreferred
p4061
F1.0
sg342
F2.0
sVfor
p4062
F1.0
sVthat
p4063
F1.0
sg88
F1.0
sVof
p4064
F1.0
sVlatter
p4065
F1.0
sVyes-answers
p4066
F1.0
sg13
F2.0
sVby
p4067
F2.0
sVT-INT
p4068
F2.0
sVconfirming
p4069
F1.0
sVare
p4070
F2.0
sVT-FLOAT
p4071
F1.0
sVno-answers
p4072
F1.0
sg95
F1.0
sVfollowed
p4073
F1.0
sVthe
p4074
F1.0
sVyes-no-questions
p4075
F1.0
sVexample
p4076
F1.0
saa(lp4077
S'J00-3003105'
p4078
a(dp4079
Vand
p4080
F1.0
sVbecause
p4081
F1.0
sVlack
p4082
F1.0
sVdecided
p4083
F1.0
sVlinguistically
p4084
F1.0
sVseemed
p4085
F1.0
sVinteresting
p4086
F1.0
sg13
F1.0
sVlabel
p4087
F1.0
sVto
p4088
F1.0
sVbe
p4089
F1.0
sVwe
p4090
F1.0
sVthat
p4091
F2.0
sVinherently
p4092
F1.0
sVT-FLOAT
p4093
F1.0
sVcategories
p4094
F1.0
sg133
F1.0
sVtask
p4095
F1.0
sVof
p4096
F2.0
sVcould
p4097
F1.0
sVidentified
p4098
F1.0
sVspecific
p4099
F1.0
sVreliably
p4100
F1.0
sVthe
p4101
F1.0
saa(lp4102
S'J00-3003104'
p4103
a(dp4104
Vset
p4105
F1.0
sVprimary
p4106
F1.0
sVtag
p4107
F1.0
sVin
p4108
F1.0
sVcomputational
p4109
F1.0
sVour
p4110
F1.0
sVrecognition
p4111
F1.0
sVfor
p4112
F1.0
sg13
F1.0
sVto
p4113
F2.0
sVspeech
p4114
F2.0
sVwas
p4115
F1.0
sVconversational
p4116
F2.0
sVenable
p4117
F1.0
sVpossible
p4118
F1.0
sVda
p4119
F1.0
sVpurpose
p4120
F1.0
sVmodeling
p4121
F1.0
sVwith
p4122
F1.0
sVT-FLOAT
p4123
F1.0
sVadapting
p4124
F1.0
sVimprovements
p4125
F1.0
sVthe
p4126
F1.0
saa(lp4127
S'J00-3003107'
p4128
a(dp4129
Vand
p4130
F1.0
sVset
p4131
F1.0
sVcourse
p4132
F1.0
sVtag
p4133
F1.0
sVare
p4134
F1.0
sVin
p4135
F1.0
sVany
p4136
F1.0
sVtechniques
p4137
F1.0
sVdescribed
p4138
F1.0
sVfactors
p4139
F1.0
sg13
F1.0
sVtheir
p4140
F1.0
sVcrucially
p4141
F1.0
sVcorpus
p4142
F1.0
sVindependent
p4143
F1.0
sVformally
p4144
F1.0
sVchoice
p4145
F1.0
sVparticular
p4146
F1.0
sVmodeling
p4147
F1.0
sVT-FLOAT
p4148
F1.0
sVon
p4149
F2.0
sVtask
p4150
F1.0
sVsuccess
p4151
F1.0
sVthis
p4152
F1.0
sVof
p4153
F3.0
sVwill
p4154
F1.0
sVthese
p4155
F1.0
sVwhile
p4156
F1.0
sVpaper
p4157
F1.0
sVthe
p4158
F3.0
sVdepend
p4159
F1.0
saa(lp4160
S'J00-3003106'
p4161
a(dp4162
Vall
p4163
F1.0
sVcertain
p4164
F1.0
sVis
p4165
F1.0
sVfocus
p4166
F1.0
sVan
p4167
F1.0
sVbias
p4168
F1.0
sVincluding
p4169
F1.0
sVin
p4170
F1.0
sVrecognition
p4171
F2.0
sVtraditionally
p4172
F1.0
sValso
p4173
F1.0
sVdistinct
p4174
F1.0
sg95
F1.0
sVlexical
p4175
F1.0
sg13
F1.0
sVto
p4176
F1.0
sVspeech
p4177
F1.0
sVaccuracy
p4178
F1.0
sg133
F1.0
sVelements
p4179
F1.0
sVled
p4180
F1.0
sVthat
p4181
F1.0
sVlexically
p4182
F1.0
sVmeasured
p4183
F1.0
sVT-FLOAT
p4184
F1.0
sVcategories
p4185
F1.0
sVconversational
p4186
F1.0
sVon
p4187
F1.0
sg88
F1.0
sVsyntactically
p4188
F1.0
sVwere
p4189
F1.0
sVthe
p4190
F1.0
sVtoward
p4191
F1.0
sVutterance
p4192
F1.0
sVor
p4193
F1.0
saa(lp4194
S'J00-3003101'
p4195
a(dp4196
Vand
p4197
F1.0
sVdomain-independent
p4198
F1.0
sVreflected
p4199
F1.0
sVas
p4200
F1.0
sVset
p4201
F1.0
sVour
p4202
F1.0
sVT-FLOAT
p4203
F1.0
sg88
F1.0
sVfor
p4204
F1.0
sVT-INT
p4205
F1.0
sVprovide
p4206
F1.0
sg95
F1.0
sVshriberg
p4207
F1.0
sg13
F3.0
sVdamsl
p4208
F2.0
sVannotation
p4209
F1.0
sVto
p4210
F2.0
sVbe
p4211
F1.0
sVdialogue
p4212
F1.0
sVthat
p4213
F1.0
sVback
p4214
F1.0
sVframework
p4215
F1.0
sVbiasca
p4216
F1.0
sVby
p4217
F1.0
sVcategories
p4218
F1.0
sg133
F1.0
sVaims
p4219
F1.0
sVjurafsky
p4220
F1.0
sVtag
p4221
F1.0
sVcan
p4222
F1.0
sVmapped
p4223
F1.0
sVthe
p4224
F1.0
sVfact
p4225
F1.0
saa(lp4226
S'J00-3003100'
p4227
a(dp4228
Vand
p4229
F1.0
sVrelevant
p4230
F1.0
sVit
p4231
F2.0
sg13
F1.0
sVin
p4232
F1.0
sVour
p4233
F1.0
sVways
p4234
F1.0
sVbegan
p4235
F1.0
sVsystem
p4236
F1.0
sVdamsl
p4237
F1.0
sVto
p4238
F2.0
sVcorpus
p4239
F1.0
sVseveral
p4240
F1.0
sVmore
p4241
F1.0
sVwe
p4242
F1.0
sVbut
p4243
F1.0
sVwith
p4244
F1.0
sVT-FLOAT
p4245
F1.0
sVtask
p4246
F1.0
sVmarkup
p4247
F1.0
sVmodified
p4248
F1.0
sVthe
p4249
F1.0
sVmake
p4250
F1.0
saa(lp4251
S'J00-3003103'
p4252
a(dp4253
Von
p4254
F1.0
sVessentially
p4255
F1.0
sVdefinition
p4256
F1.0
sVgiving
p4257
F1.0
sVthus
p4258
F1.0
sVis
p4259
F1.0
sVtask-free
p4260
F1.0
sV``
p4261
F1.0
sVdomain
p4262
F1.0
sg13
F1.0
sV''
p4263
F1.0
sVfew
p4264
F1.0
sVitself
p4265
F1.0
sVexternal
p4266
F1.0
sVswitchboard
p4267
F1.0
sVof
p4268
F1.0
sVthe
p4269
F2.0
sVda
p4270
F1.0
sVT-FLOAT
p4271
F1.0
sVcategories
p4272
F1.0
sVconstraints
p4273
F1.0
saa(lp4274
S'J00-3003102'
p4275
a(dp4276
Vplay
p4277
F1.0
sVeffective
p4278
F1.0
sVshowed
p4279
F1.0
sVthat
p4280
F1.0
sVcontentand
p4281
F1.0
sVdistinctions
p4282
F1.0
sVda
p4283
F1.0
sVin
p4284
F1.0
sVhowever
p4285
F1.0
sVlabeling
p4286
F2.0
sg13
F1.0
sVwill
p4287
F1.0
sValso
p4288
F1.0
sVtask-related
p4289
F1.0
sVrole
p4290
F1.0
sValways
p4291
F1.0
sVour
p4292
F1.0
sVT-FLOAT
p4293
F1.0
sVan
p4294
F1.0
sVeffort
p4295
F1.0
sVimportant
p4296
F1.0
saa(lp4297
S'J00-3003279'
p4298
a(dp4299
Vfrom
p4300
F1.0
sVclassification
p4301
F1.0
sVT-INT
p4302
F3.0
sVwords
p4303
F1.0
sVT-FLOAT
p4304
F3.0
sVtrue
p4305
F1.0
saa(lp4306
S'J00-3003300'
p4307
a(dp4308
g133
F1.0
sVrepresents
p4309
F1.0
sVand
p4310
F1.0
sVerrors
p4311
F1.0
sVword
p4312
F1.0
sVdeletion
p4313
F1.0
sVlanguage
p4314
F1.0
sVthat
p4315
F1.0
sVpenalty/~
p4316
F1.0
sVcorrection
p4317
F1.0
sVallows
p4318
F1.0
sVto
p4319
F1.0
sVbalancing
p4320
F1.0
sVT-FLOAT
p4321
F1.0
sVinsertion
p4322
F2.0
sVthe
p4323
F2.0
sVmodel
p4324
F1.0
saa(lp4325
S'J00-300336'
p4326
a(dp4327
Vdialogue
p4328
F1.0
sVlabels
p4329
F1.0
sVT-INT
p4330
F2.0
sVact
p4331
F1.0
sVtable
p4332
F1.0
sVthe
p4333
F1.0
sVT-FLOAT
p4334
F1.0
saa(lp4335
S'J00-300337'
p4336
a(dp4337
Vgiven
p4338
F1.0
sVutterances
p4339
F1.0
sVpercentages
p4340
F1.0
sVfrequencies
p4341
F1.0
sVin
p4342
F1.0
sVoverall
p4343
F1.0
sVnumber
p4344
F1.0
sVda
p4345
F1.0
sVT-FLOAT
p4346
F1.0
sVas
p4347
F1.0
sVare
p4348
F1.0
sVof
p4349
F2.0
sVthe
p4350
F2.0
sVtotal
p4351
F1.0
sVcorpus
p4352
F1.0
saa(lp4353
S'J00-300334'
p4354
a(dp4355
Vinformation
p4356
F1.0
sVfeedback
p4357
F1.0
sVbe
p4358
F1.0
sVlower-level
p4359
F1.0
sVof
p4360
F1.0
sVcould
p4361
F1.0
sVprocessing
p4362
F1.0
sVda
p4363
F1.0
sVto
p4364
F1.0
sVimportant
p4365
F1.0
sVrole
p4366
F1.0
sVanother
p4367
F1.0
sVT-FLOAT
p4368
F1.0
saa(lp4369
S'J00-300335'
p4370
a(dp4371
Vexpectations
p4372
F1.0
sVlikely
p4373
F1.0
sVin
p4374
F1.0
sVT-FLOAT
p4375
F1.0
sVconstrained
p4376
F1.0
sVrecognition
p4377
F1.0
sVgiven
p4378
F1.0
sVfor
p4379
F1.0
sg13
F2.0
sVto
p4380
F1.0
sVpotential
p4381
F1.0
sVspeech
p4382
F1.0
sVaccuracy
p4383
F1.0
sVbe
p4384
F1.0
sVconstraining
p4385
F1.0
sVdas
p4386
F1.0
sVby
p4387
F1.0
sVimprove
p4388
F1.0
sg133
F2.0
sVof
p4389
F1.0
sVcould
p4390
F1.0
sVas
p4391
F1.0
sVhypotheses
p4392
F1.0
sVso
p4393
F1.0
sVcontext
p4394
F1.0
sVrecognizer
p4395
F1.0
sVthe
p4396
F1.0
sVexample
p4397
F1.0
saa(lp4398
S'J00-300332'
p4399
a(dp4400
Vand
p4401
F1.0
sVlinell
p4402
F1.0
sVan
p4403
F1.0
sVas
p4404
F1.0
sVat
p4405
F1.0
sVtype
p4406
F1.0
sVT-FLOAT
p4407
F1.0
sVdistributions
p4408
F1.0
sVtechniques
p4409
F1.0
sVindicator
p4410
F1.0
sg88
F1.0
sg95
F1.0
sVinteractional
p4411
F1.0
sg13
F1.0
sVT-INT
p4412
F1.0
sVdiscourse
p4413
F1.0
sVmight
p4414
F1.0
sVdominance
p4415
F1.0
sVmore
p4416
F1.0
sVbe
p4417
F1.0
sVwith
p4418
F1.0
sVserve
p4419
F1.0
sVaccurately
p4420
F1.0
sVda
p4421
F1.0
sVgenre
p4422
F1.0
sVusing
p4423
F1.0
sVhand
p4424
F1.0
sVmeasured
p4425
F1.0
sVthan
p4426
F1.0
sVsimpler
p4427
F1.0
sVof
p4428
F2.0
sVcould
p4429
F1.0
sVthe
p4430
F1.0
sVor
p4431
F1.0
saa(lp4432
S'J00-300333'
p4433
a(dp4434
Vavailable
p4435
F1.0
sVall
p4436
F1.0
sVprocessing
p4437
F1.0
sVfor
p4438
F1.0
sVwould
p4439
F1.0
sVthese
p4440
F1.0
sVenrich
p4441
F1.0
sVlabels
p4442
F1.0
sVhigher-level
p4443
F1.0
sg13
F1.0
sVda
p4444
F1.0
sVspoken
p4445
F1.0
sVof
p4446
F1.0
sVT-FLOAT
p4447
F1.0
sVwords
p4448
F1.0
sVin
p4449
F1.0
sVinput
p4450
F1.0
sVcases
p4451
F1.0
sVthe
p4452
F2.0
saa(lp4453
S'J00-300330'
p4454
a(dp4455
Vand
p4456
F1.0
sVordered
p4457
F1.0
sVdo
p4458
F1.0
sVit
p4459
F1.0
sVagent
p4460
F1.0
sVsomething
p4461
F1.0
sVneeds
p4462
F2.0
sVsaid
p4463
F1.0
sVfor
p4464
F1.0
sVwhom
p4465
F1.0
sVquestion
p4466
F1.0
sg13
F2.0
sVto
p4467
F4.0
sVmeeting
p4468
F1.0
sVwas
p4469
F1.0
sVsummarizer
p4470
F1.0
sVtrack
p4471
F1.0
sVwho
p4472
F1.0
sVwhat
p4473
F1.0
sVasked
p4474
F1.0
sVknow
p4475
F1.0
sg133
F3.0
sVconversational
p4476
F1.0
sVwhether
p4477
F1.0
sVof
p4478
F1.0
sVor
p4479
F1.0
sVkeep
p4480
F1.0
sVT-FLOAT
p4481
F1.0
sVexample
p4482
F1.0
saa(lp4483
S'J00-300331'
p4484
a(dp4485
Vand
p4486
F1.0
sVmoore
p4487
F1.0
sVcarlson
p4488
F1.0
sVal
p4489
F1.0
sVrelated
p4490
F1.0
sVas
p4491
F1.0
sVare
p4492
F1.0
sVin
p4493
F1.0
sVcomprises
p4494
F1.0
sVet
p4495
F1.0
sVunit
p4496
F1.0
sVto
p4497
F1.0
sg88
F1.0
sg95
F1.0
sg13
F1.0
sVT-INT
p4498
F3.0
sg334
F2.0
sVinfer
p4499
F1.0
sVhigher
p4500
F1.0
sVdialogue
p4501
F1.0
sVused
p4502
F1.0
sVthat
p4503
F1.0
sVprocessing
p4504
F1.0
sVnumber
p4505
F1.0
sVstep
p4506
F1.0
sVdas
p4507
F2.0
sg133
F3.0
sVlevel
p4508
F1.0
sVlevin
p4509
F2.0
sVwork
p4510
F1.0
sVgames
p4511
F1.0
sVof
p4512
F1.0
sVsmall
p4513
F1.0
sVT-FLOAT
p4514
F2.0
sVslightly
p4515
F1.0
sVfirst
p4516
F1.0
saa(lp4517
S'J00-3003192'
p4518
a(dp4519
Vassociated
p4520
F1.0
sVfeatures
p4521
F1.0
sVenergy
p4522
F1.0
sVare
p4523
F1.0
sVpitch
p4524
F1.0
sVduration
p4525
F1.0
sVaspects
p4526
F1.0
sVgiven
p4527
F1.0
sg92
F1.0
sg88
F1.0
sg95
F1.0
sg13
F4.0
sVby
p4528
F1.0
sVspeech
p4529
F1.0
sVvarious
p4530
F1.0
sg334
F1.0
sVis
p4531
F1.0
sVfeatures-evidence
p4532
F1.0
sVthe
p4533
F3.0
sVcapturing
p4534
F1.0
sVlikelihoods
p4535
F1.0
sg3857
F2.0
sg181
F1.0
sVof
p4536
F2.0
sVsignal
p4537
F1.0
sVetc
p4538
F1.0
sg93
F1.0
sVprosodic
p4539
F1.0
sVacoustic
p4540
F1.0
sVT-FLOAT
p4541
F2.0
saa(lp4542
S'J00-3003193'
p4543
a(dp4544
Vall
p4545
F1.0
sVused
p4546
F1.0
sVin
p4547
F1.0
sVfor
p4548
F1.0
sVreference
p4549
F1.0
sVof
p4550
F1.0
sVease
p4551
F1.0
sVrandom
p4552
F1.0
sg13
F1.0
sVhere
p4553
F1.0
sVT-INT
p4554
F1.0
sVare
p4555
F1.0
sVsummarized
p4556
F1.0
sVtable
p4557
F1.0
sVT-FLOAT
p4558
F1.0
sVvariables
p4559
F1.0
saa(lp4560
S'J00-3003190'
p4561
a(dp4562
Vand
p4563
F1.0
sVevidence
p4564
F1.0
sVconsists
p4565
F1.0
sVseek
p4566
F1.0
sg88
F1.0
sg95
F1.0
sg13
F1.0
sVto
p4567
F1.0
sg215
F1.0
sVwe
p4568
F1.0
sVwords
p4569
F1.0
sVT-FLOAT
p4570
F1.0
sg133
F2.0
sVcompute
p4571
F1.0
sg181
F1.0
sVof
p4572
F1.0
sVrecognized
p4573
F1.0
sg92
F1.0
sg93
F1.0
sVacoustics
p4574
F1.0
sVrecognizer
p4575
F1.0
sVthe
p4576
F1.0
saa(lp4577
S'J00-3003191'
p4578
a(dp4579
Vconsidering
p4580
F1.0
sVdescribed
p4581
F1.0
sVthis
p4582
F1.0
sVword
p4583
F1.0
sVlater
p4584
F1.0
sg13
F1.0
sVrecognized
p4585
F1.0
sVas
p4586
F1.0
sVsequences
p4587
F1.0
sVmultiple
p4588
F1.0
sValternative
p4589
F1.0
sVT-FLOAT
p4590
F1.0
sVinvolves
p4591
F1.0
saa(lp4592
S'J00-3003196'
p4593
a(dp4594
Vand
p4595
F1.0
sVsequence
p4596
F1.0
sVare
p4597
F1.0
sVfurther
p4598
F1.0
sVour
p4599
F1.0
sVT-FLOAT
p4600
F1.0
sVbest
p4601
F1.0
sVfor
p4602
F1.0
sVmake
p4603
F1.0
sg13
F1.0
sVto
p4604
F1.0
sVdecomposable
p4605
F1.0
sVwe
p4606
F1.0
sVthat
p4607
F1.0
sVmodels
p4608
F1.0
sVda
p4609
F1.0
sVmodeling
p4610
F1.0
sVlikelihood
p4611
F1.0
sVby
p4612
F1.0
sVboth
p4613
F1.0
sVsearch
p4614
F1.0
sVrequire
p4615
F1.0
sVfeasible
p4616
F1.0
sVthe
p4617
F3.0
sVutterance
p4618
F1.0
saa(lp4619
S'J00-3003197'
p4620
a(dp4621
g133
F1.0
sVbe
p4622
F1.0
sVgiven
p4623
F2.0
sVcomplete
p4624
F1.0
sVutterances
p4625
F1.0
sVthat
p4626
F1.0
sVthis
p4627
F1.0
sVT-FLOAT
p4628
F1.0
sVinto
p4629
F1.0
sVmeans
p4630
F1.0
sVfactored
p4631
F1.0
sVconversation
p4632
F1.0
sVindividual
p4633
F1.0
sVcan
p4634
F1.0
sVthe
p4635
F2.0
sVlikelihood
p4636
F1.0
sVlikelihoods
p4637
F1.0
saa(lp4638
S'J00-300338'
p4639
a(dp4640
Vnon-yes
p4641
F1.0
sVaffirmative
p4642
F1.0
sVsummarize/reformulate
p4643
F1.0
sVtag
p4644
F1.0
sVor-clause
p4645
F1.0
sVin
p4646
F1.0
sVrd-party-talk
p4647
F1.0
sVyes
p4648
F1.0
sVrepeat-phrase
p4649
F1.0
sV'm
p4650
F1.0
sVownplayer
p4651
F1.0
sVbefore
p4652
F1.0
sVcompletion
p4653
F1.0
sVhold
p4654
F1.0
sVopen-question
p4655
F1.0
sVacknowledgment
p4656
F1.0
sVyes-no-question
p4657
F2.0
sVcommits
p4658
F1.0
sVnegative
p4659
F1.0
sVlegal
p4660
F1.0
sVtag-question
p4661
F1.0
sVthanking
p4662
F1.0
sVT-INT
p4663
F1.0
sVother
p4664
F2.0
sVstatement
p4665
F1.0
sVreject
p4666
F1.0
sVconventional-closing
p4667
F1.0
sVabandoned/uninterpretable
p4668
F1.0
sVagreement/accept
p4669
F1.0
sg13
F2.0
sVbackchannel/acknowledge
p4670
F1.0
sVnon-no
p4671
F1.0
sVcollaborative
p4672
F1.0
sVdepartment
p4673
F1.0
sVconventional-opening
p4674
F1.0
sVanswers
p4675
F6.0
sVwh-question
p4676
F2.0
sVdeclarative
p4677
F2.0
sVexample
p4678
F1.0
sVaction-directive
p4679
F1.0
sVsignal-non-understanding
p4680
F1.0
sg342
F1.0
sVhedge
p4681
F1.0
sVbackchannel-question
p4682
F1.0
sVresponse
p4683
F1.0
sVquotation
p4684
F1.0
sVme
p4685
F1.0
sVd
p4686
F1.0
sVapology
p4687
F1.0
sVappreciation
p4688
F1.0
sg181
F1.0
sVself-talk
p4689
F1.0
sVno
p4690
F1.0
sVnonverbal
p4691
F1.0
sVmaybe/accept-part
p4692
F1.0
sVdispreferred
p4693
F1.0
sVoffers
p4694
F1.0
sVT-FLOAT
p4695
F1.0
sVanswer/agreement
p4696
F1.0
sVopinion
p4697
F1.0
sVthe
p4698
F1.0
sg1311
F1.0
sVoptions
p4699
F1.0
sVrhetorical-questions
p4700
F1.0
saa(lp4701
S'J00-300339'
p4702
a(dp4703
VT-INT
p4704
F1.0
sVT-FLOAT
p4705
F1.0
sg342
F1.0
sVuh-huh
p4706
F1.0
saa(lp4707
S'J00-3003248'
p4708
a(dp4709
Vand
p4710
F1.0
sVhigher-order
p4711
F1.0
sVsubstantial
p4712
F1.0
sVinformation
p4713
F1.0
sVadds
p4714
F1.0
sVfor
p4715
F1.0
sg88
F1.0
sg95
F1.0
sg13
F2.0
sVcomparing
p4716
F1.0
sVspeaker
p4717
F1.0
sVwe
p4718
F1.0
sVthat
p4719
F1.0
sVmodels
p4720
F1.0
sg763
F1.0
sVidentity
p4721
F1.0
sVespecially
p4722
F1.0
sVsee
p4723
F1.0
sg92
F2.0
sg93
F1.0
sg1378
F1.0
sVT-FLOAT
p4724
F1.0
saa(lp4725
S'J00-3003249'
p4726
a(dp4727
Vlack
p4728
F1.0
sVan
p4729
F1.0
sVhigher-order
p4730
F1.0
sVimprovements
p4731
F1.0
sVresult
p4732
F1.0
sVfurther
p4733
F1.0
sVrelatively
p4734
F1.0
sVfrom
p4735
F2.0
sg13
F1.0
sVindependence
p4736
F1.0
sVbe
p4737
F1.0
sVmodels
p4738
F1.0
sVdas
p4739
F2.0
sVremoved
p4740
F1.0
sVdata
p4741
F1.0
sVT-FLOAT
p4742
F1.0
sg133
F1.0
sVtraining
p4743
F1.0
sVof
p4744
F4.0
sVcould
p4745
F1.0
sVsmall
p4746
F1.0
sVinherent
p4747
F1.0
sVthe
p4748
F1.0
sVor
p4749
F1.0
saa(lp4750
S'J00-3003242'
p4751
a(dp4752
Vand
p4753
F1.0
sVsmoothing
p4754
F1.0
sVwe
p4755
F1.0
sg88
F1.0
sVbell
p4756
F1.0
sVmodels
p4757
F1.0
sg95
F1.0
sVn-gram
p4758
F1.0
sVkatz
p4759
F1.0
sVbackoff
p4760
F1.0
sVT-INT
p4761
F1.0
sVfrequency
p4762
F1.0
sVT-FLOAT
p4763
F1.0
sVtrained
p4764
F1.0
sVof
p4765
F1.0
sVusing
p4766
F1.0
sVthe
p4767
F1.0
sVstandard
p4768
F1.0
sVapproach
p4769
F1.0
sg13
F1.0
sVwitten
p4770
F1.0
saa(lp4771
S'J00-3003243'
p4772
a(dp4773
Vperplexities
p4774
F1.0
sVnumber
p4775
F1.0
sVconditioned
p4776
F1.0
sVtag
p4777
F1.0
sVpredicts
p4778
F1.0
sVT-FLOAT
p4779
F3.0
sVorders
p4780
F1.0
sVcompared
p4781
F1.0
sVfor
p4782
F1.0
sg13
F3.0
sVtheir
p4783
F1.0
sVvarious
p4784
F1.0
sVmodel
p4785
F1.0
sVtags
p4786
F1.0
sVmodels
p4787
F1.0
sVpreceding
p4788
F1.0
sVwere
p4789
F1.0
sVby
p4790
F1.0
sVon
p4791
F1.0
sg55
F1.0
sg181
F1.0
sVof
p4792
F2.0
sVaverage
p4793
F1.0
sVchoices
p4794
F1.0
sVeach
p4795
F1.0
sVthe
p4796
F3.0
saa(lp4797
S'J00-3003240'
p4798
a(dp4799
Vand
p4800
F1.0
sVinformation
p4801
F1.0
sVturn
p4802
F1.0
sVof
p4803
F1.0
sVT-INT
p4804
F1.0
sVwithout
p4805
F1.0
sVperplexities
p4806
F1.0
sVdas
p4807
F1.0
sVtable
p4808
F1.0
sVT-FLOAT
p4809
F1.0
sVwith
p4810
F1.0
saa(lp4811
S'J00-3003241'
p4812
a(dp4813
Vthe
p4814
F1.0
sVbigram
p4815
F1.0
sVis
p4816
F1.0
sVit
p4817
F1.0
sVan
p4818
F1.0
sVtrigram
p4819
F1.0
sVas
p4820
F1.0
sVefficient
p4821
F1.0
sVuit
p4822
F1.0
sVin
p4823
F1.0
sVbased
p4824
F1.0
sVcomputationally
p4825
F1.0
sg88
F2.0
sg95
F2.0
sVn-gram
p4826
F2.0
sg13
F2.0
sVdecoding
p4827
F1.0
sVT-INT
p4828
F23.0
sVdiscourse
p4829
F3.0
sVtype
p4830
F1.0
sVtags
p4831
F1.0
sVmodels
p4832
F1.0
sVda
p4833
F1.0
sVhmm
p4834
F1.0
sVunigram
p4835
F1.0
sVmodel
p4836
F1.0
sg133
F1.0
sVon
p4837
F1.0
sVnone
p4838
F1.0
sVgrammar
p4839
F2.0
sVframework
p4840
F1.0
sVof
p4841
F1.0
sVallows
p4842
F1.0
sg92
F3.0
sg93
F1.0
sg1378
F1.0
sVconvenient
p4843
F1.0
sVT-FLOAT
p4844
F11.0
saa(lp4845
S'J00-3003246'
p4846
a(dp4847
g133
F1.0
sVand
p4848
F1.0
sVnot
p4849
F1.0
sVuseful
p4850
F1.0
sVprove
p4851
F1.0
sVmodels
p4852
F1.0
sVof
p4853
F1.0
sVis
p4854
F1.0
sVhowever
p4855
F1.0
sg13
F2.0
sVtrigram
p4856
F1.0
sVhigher-order
p4857
F1.0
sVincremental
p4858
F1.0
sVgain
p4859
F1.0
sVsmall
p4860
F1.0
sVdid
p4861
F1.0
sVthe
p4862
F1.0
sVT-FLOAT
p4863
F1.0
saa(lp4864
S'J00-3003247'
p4865
a(dp4866
Von
p4867
F1.0
sVconfirmed
p4868
F1.0
sg88
F1.0
sVbased
p4869
F1.0
sVobservation
p4870
F1.0
sVreported
p4871
F1.0
sVthis
p4872
F1.0
sg95
F1.0
sVis
p4873
F1.0
sg13
F2.0
sVsection
p4874
F1.0
sVda
p4875
F1.0
sVinitially
p4876
F1.0
sVexperiments
p4877
F1.0
sVT-FLOAT
p4878
F1.0
sVin
p4879
F1.0
sVperplexity
p4880
F1.0
sVthe
p4881
F1.0
sVby
p4882
F1.0
sVtagging
p4883
F1.0
sVT-INT
p4884
F1.0
saa(lp4885
S'J00-3003244'
p4886
a(dp4887
Vand
p4888
F1.0
sVsequence
p4889
F1.0
sVswitchboard
p4890
F1.0
sg13
F4.0
sVknown
p4891
F1.0
sVappropriate
p4892
F1.0
sVuit
p4893
F1.0
sVperplexities
p4894
F1.0
sVtable
p4895
F1.0
sVid
p4896
F1.0
sVfor
p4897
F2.0
sVT-INT
p4898
F1.0
sg88
F3.0
sg95
F3.0
sVthree
p4899
F1.0
sVda/speaker
p4900
F1.0
sVspeaker
p4901
F1.0
sVcombined
p4902
F1.0
sg334
F2.0
sg215
F1.0
sVshows
p4903
F1.0
sVmodels
p4904
F1.0
sVdas
p4905
F2.0
sValone
p4906
F1.0
sVconditioned
p4907
F1.0
sVT-FLOAT
p4908
F1.0
sVtypes
p4909
F1.0
sVon
p4910
F1.0
sVtask
p4911
F1.0
sVof
p4912
F1.0
sVids
p4913
F1.0
sg92
F3.0
sg93
F1.0
sg1378
F1.0
sVthe
p4914
F4.0
saa(lp4915
S'J00-3003245'
p4916
a(dp4917
Vwe
p4918
F1.0
sVincreasing
p4919
F1.0
sVfor
p4920
F1.0
sVsee
p4921
F1.0
sg88
F1.0
sg95
F1.0
sVn-gram
p4922
F1.0
sg13
F1.0
sVan
p4923
F1.0
sVas
p4924
F1.0
sVperplexities
p4925
F1.0
sVdecreasing
p4926
F1.0
sVexpected
p4927
F1.0
sVT-FLOAT
p4928
F1.0
sVimprovement
p4929
F1.0
sVorder
p4930
F1.0
saa(lp4931
S'J00-3003112'
p4932
a(dp4933
Vset
p4934
F1.0
sVless
p4935
F1.0
sVobtain
p4936
F1.0
sg13
F2.0
sVas
p4937
F2.0
sVtag
p4938
F1.0
sVstatistical
p4939
F1.0
sVfor
p4940
F1.0
sVto
p4941
F1.0
sVwith
p4942
F1.0
sVsystem
p4943
F1.0
sVper
p4944
F1.0
sVinterlabeler
p4945
F1.0
sVenough
p4946
F1.0
sVwas
p4947
F1.0
sVhigher
p4948
F1.0
sVfine-grained
p4949
F1.0
sVdevised
p4950
F1.0
sVagreement
p4951
F1.0
sVpurposes
p4952
F1.0
sVsomewhat
p4953
F1.0
sVmodeling
p4954
F1.0
sVdata
p4955
F1.0
sVclass
p4956
F1.0
sg133
F2.0
sVwell
p4957
F1.0
sVT-FLOAT
p4958
F1.0
saa(lp4959
S'J00-3003113'
p4960
a(dp4961
Vand
p4962
F1.0
sVexclusive
p4963
F1.0
sVset
p4964
F1.0
sVreported
p4965
F1.0
sVfor
p4966
F1.0
sVmutually
p4967
F1.0
sVthis
p4968
F1.0
sVwas
p4969
F1.0
sVdistinguishes
p4970
F1.0
sVused
p4971
F1.0
sVexperiments
p4972
F1.0
sVT-INT
p4973
F1.0
sVtag
p4974
F1.0
sVhere
p4975
F1.0
sVthe
p4976
F1.0
sVutterance
p4977
F1.0
sVT-FLOAT
p4978
F1.0
sVtypes
p4979
F1.0
saa(lp4980
S'J00-3003110'
p4981
a(dp4982
Vand
p4983
F1.0
sVset
p4984
F1.0
sVrelated
p4985
F1.0
sVtag
p4986
F1.0
sVinformation
p4987
F1.0
sVfor
p4988
F1.0
sVto
p4989
F1.0
sg88
F1.0
sg95
F1.0
sVorthogonal
p4990
F1.0
sVquestion
p4991
F1.0
sg13
F4.0
sVapproximately
p4992
F1.0
sVcommunication-management
p4993
F1.0
sVT-INT
p4994
F1.0
sVcombined
p4995
F1.0
sVstatement
p4996
F1.0
sVbasic
p4997
F1.0
sg334
F1.0
sVwas
p4998
F2.0
sVswbddamsl
p4999
F1.0
sVfunction
p5000
F1.0
sVbe
p5001
F1.0
sVdialogue
p5002
F1.0
sVtags
p5003
F1.0
sVtask-management
p5004
F1.0
sVdiacritics
p5005
F1.0
sVnot
p5006
F1.0
sVmultidimensional
p5007
F1.0
sVwith
p5008
F1.0
sVthe
p5009
F3.0
sVabout
p5010
F1.0
sg55
F1.0
sg56
F1.0
sVwhether
p5011
F1.0
sVof
p5012
F1.0
sVcould
p5013
F1.0
sVor
p5014
F1.0
sVresulting
p5015
F1.0
sVindicating
p5016
F1.0
sVeach
p5017
F1.0
sVT-FLOAT
p5018
F3.0
sVutterance
p5019
F1.0
sVexample
p5020
F1.0
saa(lp5021
S'J00-3003111'
p5022
a(dp5023
Vand
p5024
F1.0
sVcodes
p5025
F1.0
sg88
F1.0
sg95
F1.0
sVshriberg
p5026
F1.0
sg13
F2.0
sVapproximately
p5027
F1.0
sVby
p5028
F1.0
sVT-INT
p5029
F2.0
sVcoders
p5030
F1.0
sVused
p5031
F1.0
sVof
p5032
F2.0
sVpossible
p5033
F1.0
sVbiasca
p5034
F1.0
sVcombinations
p5035
F1.0
sVunique
p5036
F1.0
sVthe
p5037
F2.0
sVthese
p5038
F1.0
sVmany
p5039
F1.0
sVjurafsky
p5040
F1.0
sVwere
p5041
F1.0
sVT-FLOAT
p5042
F1.0
saa(lp5043
S'J00-3003116'
p5044
a(dp5045
Vinfrequent
p5046
F1.0
sVdistribution
p5047
F1.0
sVof
p5048
F1.0
sVcollapsed
p5049
F1.0
sVskewed
p5050
F1.0
sg13
F1.0
sVda
p5051
F1.0
sVhighly
p5052
F1.0
sVT-FLOAT
p5053
F1.0
sVclasses
p5054
F1.0
sVresulting
p5055
F1.0
sVwere
p5056
F1.0
sVthe
p5057
F2.0
sVstill
p5058
F1.0
sVtype
p5059
F1.0
sVoriginal
p5060
F1.0
sVis
p5061
F1.0
saa(lp5062
S'J00-3003117'
p5063
a(dp5064
Vand
p5065
F1.0
sVbasis
p5066
F1.0
sVtask-independent
p5067
F1.0
sVbecause
p5068
F1.0
sVdominant
p5069
F1.0
sVfor
p5070
F1.0
sVlargely
p5071
F1.0
sVthis
p5072
F1.0
sVT-FLOAT
p5073
F1.0
sVreliable
p5074
F1.0
sVthere
p5075
F1.0
sVaccording
p5076
F1.0
sVda
p5077
F1.0
sVto
p5078
F1.0
sVsubdividing
p5079
F1.0
sVno
p5080
F1.0
sVcriteria
p5081
F1.0
sVthe
p5082
F1.0
sVwas
p5083
F1.0
sVoccurs
p5084
F1.0
sVcategories
p5085
F1.0
saa(lp5086
S'J00-3003114'
p5087
a(dp5088
Vand
p5089
F1.0
sVfrequencies
p5090
F1.0
sVrelative
p5091
F1.0
sVT-INT
p5092
F2.0
sVexamples
p5093
F1.0
sVtable
p5094
F1.0
sVthe
p5095
F1.0
sVwith
p5096
F1.0
sVT-FLOAT
p5097
F1.0
sVcategories
p5098
F1.0
sVshows
p5099
F1.0
saa(lp5100
S'J00-3003115'
p5101
a(dp5102
Vset
p5103
F1.0
sVsome
p5104
F1.0
sVal
p5105
F1.0
sVtag
p5106
F1.0
sVfurther
p5107
F1.0
sVet
p5108
F1.0
sVfor
p5109
F1.0
sVto
p5110
F1.0
sg88
F1.0
sg95
F1.0
sVsix
p5111
F1.0
sVshriberg
p5112
F1.0
sg13
F1.0
sVT-INT
p5113
F3.0
sVwas
p5114
F1.0
sVelsewhere
p5115
F1.0
sVreported
p5116
F1.0
sVdas
p5117
F1.0
sVfocusing
p5118
F1.0
sVmodeling
p5119
F1.0
sVT-FLOAT
p5120
F2.0
sVcategories
p5121
F1.0
sVon
p5122
F1.0
sVof
p5123
F1.0
sVstudy
p5124
F1.0
sVwhile
p5125
F1.0
sVprosodic
p5126
F1.0
sVthe
p5127
F2.0
sVreduced
p5128
F1.0
saa(lp5129
S'J00-3003118'
p5130
a(dp5131
Vand
p5132
F2.0
sVset
p5133
F1.0
sVlabels
p5134
F1.0
sVsome
p5135
F1.0
sVas
p5136
F3.0
sVtag
p5137
F1.0
sVformbased
p5138
F1.0
sg13
F2.0
sVrelations
p5139
F1.0
sVsociolinguistic
p5140
F1.0
sVrhetorical
p5141
F1.0
sVmore
p5142
F1.0
sVnotions
p5143
F1.0
sVboth
p5144
F1.0
sVadjacency
p5145
F1.0
sVsuch
p5146
F1.0
sVT-FLOAT
p5147
F1.0
sVincorporates
p5148
F1.0
sVpairs
p5149
F1.0
sVwell
p5150
F1.0
sVtraditional
p5151
F1.0
sVdiscourse-theoretic
p5152
F1.0
sVthe
p5153
F1.0
saa(lp5154
S'J00-3003119'
p5155
a(dp5156
Vset
p5157
F1.0
sVis
p5158
F1.0
sVannotate
p5159
F1.0
sVlabelers
p5160
F1.0
sVtag
p5161
F1.0
sVin
p5162
F1.0
sVfrom
p5163
F1.0
sVT-INT
p5164
F1.0
sg88
F1.0
sg95
F1.0
sVfurthermore
p5165
F1.0
sVstructured
p5166
F1.0
sg13
F2.0
sVto
p5167
F2.0
sVlistening
p5168
F1.0
sVswitchboard
p5169
F1.0
sValone
p5170
F1.0
sVthe
p5171
F1.0
sg133
F1.0
sVabout
p5172
F1.0
sg55
F1.0
sg181
F1.0
sVas
p5173
F1.0
sVconversation
p5174
F1.0
sVwithout
p5175
F1.0
sVso
p5176
F1.0
sVallow
p5177
F1.0
sVT-FLOAT
p5178
F3.0
sVminutes
p5179
F1.0
sVtranscripts
p5180
F1.0
saa(lp5181
S'J00-3003268'
p5182
a(dp5183
Vbe
p5184
F1.0
sVdifferent
p5185
F1.0
sVtasks
p5186
F1.0
sVfor
p5187
F1.0
sVthis
p5188
F1.0
sVstructured
p5189
F1.0
sVsituation
p5190
F1.0
sVT-FLOAT
p5191
F1.0
sVmight
p5192
F1.0
sVmore
p5193
F1.0
saa(lp5194
S'J00-3003269'
p5195
a(dp5196
Vwe
p5197
F1.0
sVno
p5198
F1.0
sVhowever
p5199
F1.0
sg13
F1.0
sVexploitable
p5200
F1.0
sVhave
p5201
F1.0
sVfurther
p5202
F1.0
sVfound
p5203
F1.0
sVT-FLOAT
p5204
F1.0
sVstructure
p5205
F1.0
saa(lp5206
S'J00-300325'
p5207
a(dp5208
g133
F1.0
sVkind
p5209
F1.0
sVof
p5210
F2.0
sVwe
p5211
F1.0
sVsample
p5212
F1.0
sVT-INT
p5213
F1.0
sVdiscourse
p5214
F1.0
sVinterested
p5215
F1.0
sVare
p5216
F1.0
sVwhich
p5217
F1.0
sVin
p5218
F1.0
sVtable
p5219
F1.0
sVthe
p5220
F1.0
sVT-FLOAT
p5221
F1.0
sVstructure
p5222
F1.0
sVshows
p5223
F1.0
saa(lp5224
S'J00-300324'
p5225
a(dp5226
Vand
p5227
F2.0
sVsearle
p5228
F1.0
sVis
p5229
F1.0
sVmove
p5230
F1.0
sVthus
p5231
F1.0
sVschegloff
p5232
F2.0
sg13
F5.0
sVapproximately
p5233
F1.0
sVjefferson
p5234
F1.0
sVspeech
p5235
F1.0
sVsaks
p5236
F1.0
sVconversational
p5237
F1.0
sVpower
p5238
F1.0
sVequivalent
p5239
F1.0
sVadjacency
p5240
F1.0
sVda
p5241
F1.0
sVgame
p5242
F1.0
sVpart
p5243
F1.0
sVpair
p5244
F1.0
sVT-FLOAT
p5245
F1.0
sg133
F1.0
sVof
p5246
F4.0
sVact
p5247
F1.0
sVthe
p5248
F4.0
sVor
p5249
F1.0
saa(lp5250
S'J00-300327'
p5251
a(dp5252
Vand
p5253
F1.0
sVset
p5254
F1.0
sVsemantic
p5255
F1.0
sVpragmatic
p5256
F1.0
sVthus
p5257
F1.0
sVas
p5258
F1.0
sVtag
p5259
F1.0
sVsyntactic
p5260
F1.0
sg13
F3.0
sVto
p5261
F1.0
sVcriteria
p5262
F1.0
sVbe
p5263
F1.0
sVcombination
p5264
F1.0
sVthat
p5265
F1.0
sVdas
p5266
F1.0
sg133
F2.0
sVutterances
p5267
F1.0
sVof
p5268
F2.0
sVaccording
p5269
F1.0
sVthought
p5270
F1.0
sVcan
p5271
F1.0
sVT-FLOAT
p5272
F1.0
sVclassifies
p5273
F1.0
saa(lp5274
S'J00-300326'
p5275
a(dp5276
g133
F2.0
sVshown
p5277
F2.0
sg88
F2.0
sVfrom
p5278
F1.0
sVcolumn
p5279
F1.0
sg95
F2.0
sVis
p5280
F1.0
sVin
p5281
F2.0
sVtable
p5282
F1.0
sVlabel
p5283
F1.0
sVda
p5284
F1.0
sVassigned
p5285
F1.0
sVT-INT
p5286
F2.0
sVset
p5287
F1.0
sVwell-defined
p5288
F1.0
sVeach
p5289
F1.0
sVdrawn
p5290
F1.0
sVT-FLOAT
p5291
F1.0
sVunique
p5292
F1.0
sVutterance
p5293
F1.0
sg13
F1.0
saa(lp5294
S'J00-300321'
p5295
a(dp5296
Vand
p5297
F1.0
sVdialogue
p5298
F1.0
sVdetect
p5299
F1.0
sVability
p5300
F1.0
sVT-FLOAT
p5301
F1.0
sVis
p5302
F1.0
sVstep
p5303
F1.0
sVunderstanding
p5304
F1.0
sVan
p5305
F1.0
sVto
p5306
F1.0
sVdiscourse
p5307
F1.0
sVimportant
p5308
F1.0
sVstructure
p5309
F1.0
sVthe
p5310
F1.0
sVtoward
p5311
F1.0
sVspontaneous
p5312
F1.0
sVmodel
p5313
F1.0
sVautomatically
p5314
F1.0
saa(lp5315
S'J00-300320'
p5316
a(dp5317
g906
F1.0
sg903
F1.0
sg909
F1.0
sVstate
p5318
F1.0
sVstatement
p5319
F1.0
sVT-FLOAT
p5320
F1.0
saa(lp5321
S'J00-300323'
p5322
a(dp5323
g133
F1.0
sVrepresents
p5324
F1.0
sg88
F1.0
sVforce
p5325
F1.0
sVillocutionary
p5326
F1.0
sVlevel
p5327
F1.0
sVaustin
p5328
F1.0
sVof
p5329
F2.0
sVda
p5330
F1.0
sVT-INT
p5331
F1.0
sVmeaning
p5332
F1.0
sVat
p5333
F1.0
sg95
F1.0
sVthe
p5334
F2.0
sVan
p5335
F1.0
sVutterance
p5336
F1.0
sVT-FLOAT
p5337
F1.0
saa(lp5338
S'J00-300322'
p5339
a(dp5340
Vacts
p5341
F1.0
sVuseful
p5342
F1.0
sVexists
p5343
F1.0
sVis
p5344
F1.0
sVsome
p5345
F1.0
sVdescribed
p5346
F1.0
sVthere
p5347
F1.0
sg13
F1.0
sVshould
p5348
F1.0
sVhow
p5349
F1.0
sVdiscourse
p5350
F1.0
sVidentification
p5351
F1.0
sVhardly
p5352
F1.0
sVbe
p5353
F1.0
sVdialogue
p5354
F1.0
sVthat
p5355
F1.0
sVexactly
p5356
F1.0
sVagreement
p5357
F1.0
sVT-FLOAT
p5358
F1.0
sVstructure
p5359
F1.0
sg133
F1.0
sVon
p5360
F1.0
sVlevel
p5361
F1.0
sVof
p5362
F2.0
sVanalysis
p5363
F1.0
sVconsensus
p5364
F1.0
sVwhile
p5365
F1.0
sVthe
p5366
F1.0
sVinvolves
p5367
F1.0
sVfirst
p5368
F1.0
saa(lp5369
S'J00-300329'
p5370
a(dp5371
g133
F1.0
sVdialogue
p5372
F1.0
sVuseful
p5373
F1.0
sVapplications
p5374
F1.0
sVclearly
p5375
F1.0
sVof
p5376
F1.0
sVda
p5377
F1.0
sVsense
p5378
F1.0
sVseems
p5379
F1.0
sg13
F1.0
sVdeep
p5380
F1.0
sVunderstanding
p5381
F1.0
sVto
p5382
F1.0
sVwhile
p5383
F1.0
sVin
p5384
F1.0
sVnot
p5385
F1.0
sVrange
p5386
F1.0
sVT-FLOAT
p5387
F1.0
sVconstituting
p5388
F1.0
sVany
p5389
F1.0
sVtagging
p5390
F1.0
saa(lp5391
S'J00-300328'
p5392
a(dp5393
Vand
p5394
F1.0
sVcomputational
p5395
F1.0
sVcore
p5396
F1.0
sVdefined
p5397
F1.0
sVcommunity
p5398
F1.0
sVas
p5399
F2.0
sVrelevant
p5400
F1.0
sVinitiative
p5401
F1.0
sVare
p5402
F2.0
sVallen
p5403
F1.0
sVT-FLOAT
p5404
F1.0
sVdevelop
p5405
F1.0
sVT-INT
p5406
F1.0
sVapplication
p5407
F1.0
sg88
F1.0
sg95
F1.0
sg13
F2.0
sVdamsl
p5408
F1.0
sVto
p5409
F3.0
sVdiscourse
p5410
F1.0
sVsystems
p5411
F1.0
sVway
p5412
F1.0
sVunder
p5413
F1.0
sVhas
p5414
F1.0
sVbe
p5415
F1.0
sV's
p5416
F1.0
sVthat
p5417
F1.0
sVda
p5418
F2.0
sVdomain-independent
p5419
F1.0
sValthough
p5420
F1.0
sVparticular
p5421
F1.0
sVsuch
p5422
F1.0
sVefforts
p5423
F1.0
sVcategories
p5424
F1.0
sg133
F1.0
sVresource
p5425
F1.0
sVthese
p5426
F1.0
sVlabeling
p5427
F1.0
sVso
p5428
F1.0
sVarchitecture
p5429
F1.0
sVusually
p5430
F1.0
sVthe
p5431
F2.0
saa(lp5432
S'J00-3003199'
p5433
a(dp5434
g133
F1.0
sVnumber
p5435
F1.0
sVutterances
p5436
F1.0
sg88
F1.0
sVof
p5437
F1.0
sVis
p5438
F1.0
sg13
F3.0
sg909
F1.0
sVconversation
p5439
F1.0
sVun
p5440
F1.0
sVui
p5441
F1.0
sVin
p5442
F1.0
sVT-FLOAT
p5443
F2.0
sVwhere
p5444
F1.0
sVthe
p5445
F1.0
saa(lp5446
S'J00-3003261'
p5447
a(dp5448
Vneeds
p5449
F1.0
sVgrammar
p5450
F1.0
sVdialogue
p5451
F1.0
sg13
F1.0
sVadaptation
p5452
F1.0
sVfurther
p5453
F1.0
sVT-FLOAT
p5454
F1.0
sVresearch
p5455
F1.0
sVclearly
p5456
F1.0
saa(lp5457
S'J00-3003239'
p5458
a(dp5459
Vfor
p5460
F1.0
sVchosen
p5461
F1.0
sVmainly
p5462
F1.0
sVhere
p5463
F1.0
sVhmm
p5464
F1.0
sVreasons
p5465
F1.0
sVhistorical
p5466
F1.0
sVthe
p5467
F1.0
sVwas
p5468
F1.0
sVT-FLOAT
p5469
F1.0
sVterminology
p5470
F1.0
saa(lp5471
S'J00-3003238'
p5472
a(dp5473
Vand
p5474
F1.0
sVwe
p5475
F1.0
sVnetwork
p5476
F1.0
sVthat
p5477
F1.0
sg88
F1.0
sVbaum
p5478
F1.0
sVequivalent
p5479
F1.0
sVformulations
p5480
F1.0
sVviterbi
p5481
F1.0
sVpearl
p5482
F1.0
sVnote
p5483
F1.0
sVT-INT
p5484
F2.0
sVT-FLOAT
p5485
F1.0
sValgorithms
p5486
F1.0
sVbayes
p5487
F1.0
sVhave
p5488
F1.0
sVin
p5489
F2.0
sg95
F1.0
sVpassing
p5490
F1.0
sVthe
p5491
F2.0
sVframework
p5492
F1.0
saa(lp5493
S'J00-3003237'
p5494
a(dp5495
Vpreceded
p5496
F1.0
sVpreviously
p5497
F1.0
sVtrigram
p5498
F1.0
sVsecond
p5499
F1.0
sVtag
p5500
F1.0
sVin
p5501
F2.0
sVtable
p5502
F1.0
sVT-FLOAT
p5503
F1.0
sVwould
p5504
F1.0
sVyes-no-question
p5505
F1.0
sg13
F2.0
sVsame
p5506
F1.0
sVuttered
p5507
F1.0
sVT-INT
p5508
F1.0
sVdiscourse
p5509
F1.0
sVspeaker
p5510
F1.0
sVwhich
p5511
F1.0
sVstart-of-conversation
p5512
F1.0
sVwas
p5513
F1.0
sVbe
p5514
F1.0
sVthat
p5515
F1.0
sVda
p5516
F1.0
sVusing
p5517
F1.0
sVby
p5518
F2.0
sg133
F2.0
sVgrammar
p5519
F1.0
sVfor
p5520
F1.0
sVturn
p5521
F1.0
sVpredicted
p5522
F1.0
sVthe
p5523
F4.0
sVexample
p5524
F1.0
sVfact
p5525
F1.0
saa(lp5526
S'J00-3003236'
p5527
a(dp5528
Vand
p5529
F1.0
sVlabels
p5530
F1.0
sVthus
p5531
F1.0
sVgrammars
p5532
F1.0
sVour
p5533
F1.0
sVend
p5534
F1.0
sVfor
p5535
F1.0
sVhad
p5536
F1.0
sg13
F1.0
sVT-INT
p5537
F3.0
sVdiscourse
p5538
F1.0
sg94
F1.0
sVvocabulary
p5539
F1.0
sVtags
p5540
F1.0
sVconversations
p5541
F1.0
sVbeginning
p5542
F1.0
sVT-FLOAT
p5543
F1.0
sg133
F1.0
sVof
p5544
F2.0
sVplus
p5545
F1.0
sVx
p5546
F1.0
sVthe
p5547
F1.0
saa(lp5548
S'J00-3003235'
p5549
a(dp5550
Varbitrarily
p5551
F1.0
sVand
p5552
F1.0
sVswitched
p5553
F1.0
sVis
p5554
F1.0
sVas
p5555
F1.0
sVidiosyncrasies
p5556
F1.0
sVare
p5557
F2.0
sVsequences
p5558
F1.0
sVrespect
p5559
F1.0
sVT-FLOAT
p5560
F3.0
sVreplicating
p5561
F1.0
sVby
p5562
F1.0
sg88
F1.0
sg95
F1.0
sg13
F3.0
sVsides
p5563
F2.0
sVsymmetric
p5564
F1.0
sVto
p5565
F2.0
sVspeaker
p5566
F1.0
sVwe
p5567
F1.0
sVchoice
p5568
F1.0
sVmade
p5569
F1.0
sVnot
p5570
F1.0
sVtrying
p5571
F1.0
sVwith
p5572
F2.0
sVmodel
p5573
F2.0
sg133
F1.0
sVtraining
p5574
F1.0
sg903
F1.0
sg55
F1.0
sg56
F1.0
sVof
p5575
F1.0
sVidentified
p5576
F1.0
sVso
p5577
F1.0
sVconversants
p5578
F1.0
sVthe
p5579
F3.0
sVor
p5580
F1.0
saa(lp5581
S'J00-3003234'
p5582
a(dp5583
Vand
p5584
F1.0
sVthe
p5585
F2.0
sVis
p5586
F2.0
sVsequences
p5587
F1.0
sg88
F1.0
sg95
F1.0
sg13
F1.0
sVlabel
p5588
F1.0
sVto
p5589
F1.0
sVspeaker
p5590
F1.0
sVti
p5591
F2.0
sVapproach
p5592
F1.0
sVstraightforward
p5593
F1.0
sVda
p5594
F1.0
sVmodel
p5595
F1.0
sg133
F1.0
sVrepresents
p5596
F1.0
sVpairs
p5597
F1.0
sVof
p5598
F1.0
sVui
p5599
F2.0
sVT-FLOAT
p5600
F1.0
sVwhere
p5601
F1.0
saa(lp5602
S'J00-3003233'
p5603
a(dp5604
Vas
p5605
F1.0
sVare
p5606
F1.0
sVin
p5607
F2.0
sVT-FLOAT
p5608
F1.0
sVidentities
p5609
F1.0
sVspeakers
p5610
F1.0
sVfor
p5611
F1.0
sg88
F1.0
sg95
F1.0
sg13
F1.0
sVshould
p5612
F1.0
sValso
p5613
F1.0
sVdiscourse
p5614
F1.0
sVwhich
p5615
F1.0
sVconversations
p5616
F1.0
sVswitchboard
p5617
F1.0
sVknown
p5618
F1.0
sVmodel
p5619
F1.0
sVcase
p5620
F1.0
sVgrammar
p5621
F1.0
sVturn-taking
p5622
F1.0
sVbehavior
p5623
F1.0
sVof
p5624
F2.0
sVthe
p5625
F4.0
saa(lp5626
S'J00-3003232'
p5627
a(dp5628
Vgrammar
p5629
F1.0
sg92
F1.0
sVmodels
p5630
F1.0
sVof
p5631
F1.0
sVda
p5632
F1.0
sVprior
p5633
F1.0
sVdiscourse
p5634
F1.0
sVstatistical
p5635
F1.0
sVsequences
p5636
F1.0
sVthe
p5637
F2.0
sVT-FLOAT
p5638
F1.0
sVprobabilities
p5639
F1.0
saa(lp5640
S'J00-3003231'
p5641
a(dp5642
Vpartial
p5643
F1.0
sVcomputing
p5644
F1.0
sVevidence
p5645
F1.0
sVas
p5646
F1.0
sVformulation
p5647
F1.0
sVbased
p5648
F1.0
sVwould
p5649
F1.0
sVprobabilities
p5650
F1.0
sg13
F4.0
sVfor
p5651
F1.0
sVcurrent
p5652
F1.0
sValso
p5653
F1.0
sVonly
p5654
F1.0
sVonline
p5655
F1.0
sVsupports
p5656
F1.0
sVbe
p5657
F1.0
sVused
p5658
F1.0
sVpreceding
p5659
F1.0
sVprocessing
p5660
F1.0
sVhowever
p5661
F1.0
sVhere
p5662
F1.0
sVda
p5663
F1.0
sVhmm
p5664
F1.0
sVposterior
p5665
F1.0
sVusing
p5666
F1.0
sVone
p5667
F1.0
sVthe
p5668
F3.0
sVon
p5669
F1.0
sg55
F1.0
sVutterances
p5670
F1.0
sg56
F1.0
sVrequired
p5671
F1.0
sVT-FLOAT
p5672
F3.0
saa(lp5673
S'J00-3003230'
p5674
a(dp5675
Vdomain
p5676
F1.0
sVpreviously
p5677
F1.0
sVis
p5678
F1.0
sVthus
p5679
F1.0
sVoff-line
p5680
F1.0
sVin
p5681
F1.0
sVour
p5682
F1.0
sVgoal
p5683
F1.0
sg88
F1.0
sg95
F1.0
sVrecorded
p5684
F1.0
sg13
F5.0
sVof
p5685
F1.0
sVspeaker
p5686
F1.0
sVidentification
p5687
F1.0
sVarchival
p5688
F1.0
sVpractice
p5689
F1.0
sVconversations
p5690
F1.0
sVprocessing
p5691
F1.0
sVindexing
p5692
F1.0
sVswitchboard
p5693
F1.0
sVT-FLOAT
p5694
F3.0
sVentire
p5695
F1.0
sg55
F1.0
sg56
F1.0
sVfollows
p5696
F1.0
sVtypically
p5697
F1.0
sVwhere
p5698
F1.0
sVhistorical
p5699
F1.0
sVtranscription
p5700
F1.0
sVthe
p5701
F3.0
sVparadigm
p5702
F1.0
sVautomatic
p5703
F1.0
saa(lp5704
S'J00-3003167'
p5705
a(dp5706
Vthe
p5707
F1.0
sVright
p5708
F1.0
sVmainly
p5709
F1.0
sVyeah
p5710
F2.0
sVas
p5711
F1.0
sVfrequency
p5712
F3.0
sVyes
p5713
F1.0
sg342
F12.0
sVto
p5714
F1.0
sVT-INT
p5715
F12.0
sVother
p5716
F1.0
sVspeaker
p5717
F1.0
sVway
p5718
F1.0
sVspeakership
p5719
F1.0
sVuh-huh
p5720
F1.0
sVsure
p5721
F1.0
sVokay
p5722
F1.0
sVform
p5723
F3.0
sVhuh
p5724
F1.0
sVT-FLOAT
p5725
F2.0
sg133
F1.0
sVoh
p5726
F2.0
sVof
p5727
F1.0
sVum
p5728
F1.0
sVhuh-uh
p5729
F1.0
sVuh
p5730
F1.0
sVpassing
p5731
F1.0
saa(lp5732
S'J00-3003166'
p5733
a(dp5734
Voften
p5735
F1.0
sVare
p5736
F2.0
sVin
p5737
F2.0
sVtable
p5738
F1.0
sg13
F1.0
sVT-INT
p5739
F1.0
sVexits
p5740
F1.0
sVcommon
p5741
F1.0
sVused
p5742
F1.0
sVthat
p5743
F1.0
sVrealizations
p5744
F1.0
sVbut
p5745
F1.0
sVmost
p5746
F1.0
sVthey
p5747
F2.0
sVswitchboard
p5748
F1.0
sVT-FLOAT
p5749
F1.0
sVoff
p5750
F1.0
sVabandoned
p5751
F1.0
sVutterances
p5752
F1.0
sVresemble
p5753
F1.0
sVof
p5754
F1.0
sVbackchannels
p5755
F1.0
sVturn
p5756
F1.0
sVsyntactically
p5757
F1.0
sVbroken
p5758
F1.0
saa(lp5759
S'J00-3003165'
p5760
a(dp5761
Vand
p5762
F1.0
sg133
F1.0
sVoff
p5763
F1.0
sVabandoned
p5764
F1.0
sVutterances
p5765
F1.0
sVthat
p5766
F1.0
sVbreaks
p5767
F1.0
sVrestart
p5768
F1.0
sg13
F1.0
sVby
p5769
F1.0
sVT-FLOAT
p5770
F1.0
sVwithout
p5771
F1.0
sVspeaker
p5772
F1.0
sVare
p5773
F2.0
sVfollowed
p5774
F1.0
sVthe
p5775
F1.0
sVfinishing
p5776
F1.0
sVthose
p5777
F1.0
saa(lp5778
S'J00-3003164'
p5779
a(dp5780
Vand
p5781
F1.0
sVabandoned
p5782
F1.0
sVutterances
p5783
F1.0
sVturn
p5784
F1.0
sVT-FLOAT
p5785
F1.0
sVexits
p5786
F1.0
saa(lp5787
S'J00-3003163'
p5788
a(dp5789
Vsounds
p5790
F1.0
sVgood
p5791
F1.0
sVT-FLOAT
p5792
F1.0
saa(lp5793
S'J00-3003162'
p5794
a(dp5795
g133
F1.0
sVappreciation
p5796
F1.0
sVurn
p5797
F1.0
sVT-FLOAT
p5798
F1.0
saa(lp5799
S'J00-3003161'
p5800
a(dp5801
Vand
p5802
F1.0
sVsummer
p5803
F1.0
sVbe
p5804
F2.0
sVmoney
p5805
F1.0
sVcollege
p5806
F1.0
sV'll
p5807
F1.0
sVfor
p5808
F1.0
sVaway
p5809
F1.0
sV/
p5810
F2.0
sVstatement
p5811
F2.0
sVthen
p5812
F1.0
sVwe
p5813
F1.0
sVthat
p5814
F1.0
sVfund
p5815
F1.0
sVputting
p5816
F1.0
sVfall
p5817
F1.0
sVT-FLOAT
p5818
F1.0
sg903
F2.0
sV-in
p5819
F1.0
sg181
F1.0
sVwill
p5820
F1.0
sVthis
p5821
F1.0
sVmaking
p5822
F1.0
sVthe
p5823
F3.0
saa(lp5824
S'J00-3003160'
p5825
a(dp5826
g133
F2.0
sVbe
p5827
F1.0
sVwe
p5828
F1.0
sg903
F2.0
sVurn
p5829
F1.0
sVpayroll
p5830
F1.0
sg13
F1.0
sg5810
F2.0
sVdeduction
p5831
F1.0
sVto
p5832
F1.0
sV-for
p5833
F1.0
sVgoing
p5834
F1.0
sVcollege
p5835
F1.0
sVare
p5836
F1.0
sVstatement
p5837
F2.0
sVso
p5838
F1.0
sVT-FLOAT
p5839
F1.0
sVstarting
p5840
F1.0
sVbackchannel
p5841
F1.0
sVregular
p5842
F1.0
saa(lp5843
S'J00-3003289'
p5844
a(dp5845
g133
F1.0
sVuse
p5846
F1.0
sVfrom
p5847
F1.0
sVT-INT
p5848
F1.0
sVtrue
p5849
F1.0
sVof
p5850
F1.0
sVis
p5851
F1.0
sVword
p5852
F1.0
sVstandard
p5853
F1.0
sVto
p5854
F1.0
sVT-FLOAT
p5855
F1.0
sVhypothesis
p5856
F1.0
sVplace
p5857
F1.0
sV-best
p5858
F1.0
sVin
p5859
F1.0
sVrecognizer
p5860
F1.0
sVspeech
p5861
F1.0
sVthe
p5862
F3.0
sVapproach
p5863
F1.0
sVtranscripts
p5864
F1.0
saa(lp5865
S'J00-3003169'
p5866
a(dp5867
Vand
p5868
F2.0
sVbecause
p5869
F1.0
sVdo
p5870
F1.0
sVklipsmack
p5871
F1.0
sVwe
p5872
F1.0
sVan
p5873
F1.0
sVhave
p5874
F1.0
sVbackchannel
p5875
F1.0
sVhedge
p5876
F1.0
sVfrom
p5877
F3.0
sVwith
p5878
F1.0
sg13
F6.0
sg5810
F4.0
sVto
p5879
F2.0
sVspeaker
p5880
F1.0
sVagreements
p5881
F1.0
sVstatement
p5882
F3.0
sVanswer
p5883
F1.0
sg1309
F1.0
sVuh-huh
p5884
F1.0
sVdialogue
p5885
F1.0
sV's
p5886
F4.0
sVof
p5887
F1.0
sVproblem
p5888
F1.0
sVanswers
p5889
F1.0
sVit
p5890
F3.0
sg903
F1.0
sVknow
p5891
F1.0
sVnot
p5892
F2.0
sV'm
p5893
F2.0
sVcome
p5894
F1.0
sVthe
p5895
F1.0
sVglad
p5896
F1.0
sg133
F6.0
sVkind
p5897
F1.0
sVturn-exit
p5898
F1.0
sVabandoned
p5899
F1.0
sVwife
p5900
F1.0
sg181
F4.0
sVutterance
p5901
F1.0
sV-/
p5902
F2.0
sVflorida
p5903
F1.0
sVup
p5904
F1.0
sVn't
p5905
F1.0
sV're
p5906
F1.0
sVso
p5907
F2.0
sVuh
p5908
F1.0
sVact
p5909
F1.0
sVohio
p5910
F1.0
sVT-FLOAT
p5911
F2.0
sVmy
p5912
F1.0
saa(lp5913
S'J00-3003168'
p5914
a(dp5915
Vbe
p5916
F1.0
sVoften
p5917
F1.0
sVexits
p5918
F1.0
sVto
p5919
F1.0
sg13
F1.0
sVtend
p5920
F1.0
sVturn
p5921
F1.0
sVsingle
p5922
F1.0
sVso
p5923
F1.0
sVwords
p5924
F1.0
sVT-FLOAT
p5925
F1.0
sVor
p5926
F2.0
saa(lp5927
S'J00-3003209'
p5928
a(dp5929
Vtoo
p5930
F1.0
sVprior
p5931
F1.0
sVof
p5932
F1.0
sVis
p5933
F1.0
sVreturning
p5934
F1.0
sg13
F2.0
sg92
F1.0
sVda
p5935
F1.0
sVcertain
p5936
F1.0
sVto
p5937
F2.0
sVT-FLOAT
p5938
F1.0
sVassumptions
p5939
F1.0
sVindependence
p5940
F1.0
sVhere
p5941
F1.0
sVsequences
p5942
F1.0
sVit
p5943
F1.0
sVthe
p5944
F1.0
sVdistribution
p5945
F1.0
sVconvenient
p5946
F1.0
sVmake
p5947
F1.0
saa(lp5948
S'J00-3003271'
p5949
a(dp5950
g133
F1.0
sVwe
p5951
F1.0
sVcombination
p5952
F1.0
sVfor
p5953
F1.0
sVall
p5954
F1.0
sVof
p5955
F1.0
sg13
F1.0
sVresults
p5956
F1.0
sVsources
p5957
F1.0
sVfinally
p5958
F1.0
sVT-FLOAT
p5959
F1.0
sVpresent
p5960
F1.0
sVknowledge
p5961
F1.0
saa(lp5962
S'J00-3003198'
p5963
a(dp5964
Vwe
p5965
F1.0
sg55
F1.0
sVith
p5966
F1.0
sVfor
p5967
F1.0
sVsequence
p5968
F1.0
sg181
F1.0
sg95
F1.0
sVuse
p5969
F1.0
sVda
p5970
F1.0
sVT-FLOAT
p5971
F3.0
sVui
p5972
F1.0
sVin
p5973
F1.0
sg93
F3.0
sVthe
p5974
F2.0
sVlabel
p5975
F1.0
sg94
F1.0
sg13
F2.0
sVT-INT
p5976
F1.0
saa(lp5977
S'J00-3003270'
p5978
a(dp5979
Vand
p5980
F2.0
sVdescribe
p5981
F1.0
sVresults
p5982
F1.0
sg13
F1.0
sVsources
p5983
F2.0
sVare
p5984
F1.0
sVin
p5985
F2.0
sVprosody
p5986
F1.0
sVwhat
p5987
F1.0
sVknowledge
p5988
F2.0
sVdetail
p5989
F1.0
sVhow
p5990
F1.0
sVmore
p5991
F1.0
sVwe
p5992
F1.0
sVeach
p5993
F1.0
sVda
p5994
F1.0
sVwords
p5995
F1.0
sVusing
p5996
F1.0
sVnow
p5997
F1.0
sVT-FLOAT
p5998
F1.0
sVobtained
p5999
F1.0
sVof
p6000
F2.0
sVmodeled
p6001
F1.0
sVlabeling
p6002
F1.0
sVturn
p6003
F1.0
sVwere
p6004
F1.0
sVthe
p6005
F2.0
sVautomatic
p6006
F1.0
saa(lp6007
S'J00-3003228'
p6008
a(dp6009
Ventire
p6010
F1.0
sVall
p6011
F1.0
sVclassification
p6012
F1.0
sVfor
p6013
F1.0
sVpresented
p6014
F1.0
sVwell
p6015
F1.0
sg13
F2.0
sVhere
p6016
F1.0
sVevidence
p6017
F1.0
sVconversation
p6018
F1.0
sVas
p6019
F3.0
sVexperiments
p6020
F1.0
sVuses
p6021
F1.0
sVformulation
p6022
F1.0
sVour
p6023
F1.0
sVthe
p6024
F2.0
sVda
p6025
F1.0
sVT-FLOAT
p6026
F1.0
saa(lp6027
S'J00-3003194'
p6028
a(dp6029
Vsubscripts
p6030
F1.0
sVused
p6031
F1.0
sVutterances
p6032
F1.0
sVvariables
p6033
F1.0
sVsame
p6034
F1.0
sVto
p6035
F2.0
sVindividual
p6036
F1.0
sVare
p6037
F1.0
sVthe
p6038
F1.0
sVwith
p6039
F1.0
sVT-FLOAT
p6040
F1.0
sVrefer
p6041
F1.0
saa(lp6042
S'J00-3003224'
p6043
a(dp6044
Vhmms
p6045
F1.0
sVcarried
p6046
F1.0
sValgorithm
p6047
F1.0
sVT-INT
p6048
F1.0
sg88
F1.0
sg95
F1.0
sVis
p6049
F1.0
sVal
p6050
F1.0
sVfor
p6051
F1.0
sVT-FLOAT
p6052
F2.0
sVforward-backward
p6053
F1.0
sVbaum
p6054
F1.0
sVsummation
p6055
F1.0
sVet
p6056
F1.0
sVthe
p6057
F2.0
sVefficiently
p6058
F1.0
sVby
p6059
F1.0
sVout
p6060
F1.0
saa(lp6061
S'J00-3003225'
p6062
a(dp6063
Vand
p6064
F1.0
sVforwardbackward
p6065
F1.0
sVfor
p6066
F1.0
sVviterbi
p6067
F1.0
sVdiscourse
p6068
F1.0
sVyield
p6069
F1.0
sg13
F1.0
sVT-INT
p6070
F1.0
sVgrammars
p6071
F1.0
sVnecessarily
p6072
F1.0
sVzeroth-order
p6073
F1.0
sVsame
p6074
F1.0
sVresults
p6075
F1.0
sVthe
p6076
F1.0
sVdecoding
p6077
F2.0
sVT-FLOAT
p6078
F1.0
saa(lp6079
S'J00-3003226'
p6080
a(dp6081
Vaccuracies
p6082
F1.0
sVhigher-order
p6083
F1.0
sVforward-backward
p6084
F1.0
sVas
p6085
F1.0
sVabsolute
p6086
F1.0
sg342
F1.0
sVfor
p6087
F1.0
sVconsistently
p6088
F1.0
sg88
F1.0
sg95
F1.0
sg13
F2.0
sVdecoding
p6089
F1.0
sVbetter
p6090
F1.0
sVT-INT
p6091
F1.0
sVdiscourse
p6092
F1.0
sVexpected
p6093
F1.0
sVgives
p6094
F1.0
sVwe
p6095
F1.0
sVto
p6096
F1.0
sVthat
p6097
F1.0
sVhowever
p6098
F1.0
sVgrammars
p6099
F1.0
sVup
p6100
F1.0
sVfound
p6101
F1.0
sVT-FLOAT
p6102
F1.0
sVslightly
p6103
F1.0
saa(lp6104
S'J00-3003195'
p6105
a(dp6106
g133
F1.0
sVword
p6107
F2.0
sVith
p6108
F2.0
sVfor
p6109
F1.0
sg88
F1.0
sVtranscription
p6110
F1.0
sVis
p6111
F1.0
sVwithin
p6112
F1.0
sg13
F1.0
sVwi
p6113
F1.0
sVconversation
p6114
F1.0
sg95
F1.0
sVT-FLOAT
p6115
F1.0
sVof
p6116
F1.0
sVnot
p6117
F1.0
sVthe
p6118
F3.0
sVutterance
p6119
F1.0
sVexample
p6120
F1.0
saa(lp6121
S'J00-3003221'
p6122
a(dp6123
Vand
p6124
F5.0
sVhmms
p6125
F1.0
sVuie
p6126
F1.0
sVmarkovian
p6127
F1.0
sVprobability
p6128
F1.0
sVsequence
p6129
F1.0
sVdecoding
p6130
F1.0
sVtagging
p6131
F1.0
sVit
p6132
F1.0
sVas
p6133
F1.0
sVchurch
p6134
F1.0
sVT-FLOAT
p6135
F1.0
sVprecisely
p6136
F1.0
sVmercer
p6137
F1.0
sVfind
p6138
F1.0
sVrecognition
p6139
F1.0
sVlikelihood
p6140
F1.0
sVfundamentally
p6141
F1.0
sVT-INT
p6142
F2.0
sg88
F3.0
sg95
F3.0
sVlocally
p6143
F1.0
sVwhen
p6144
F1.0
sg13
F5.0
sVsame
p6145
F1.0
sVargmaxp
p6146
F1.0
sVto
p6147
F2.0
sVdiscourse
p6148
F2.0
sVspeech
p6149
F1.0
sVtherefore
p6150
F1.0
sVu*
p6151
F1.0
sVprobabilistic
p6152
F1.0
sg215
F1.0
sg94
F1.0
sVis
p6153
F1.0
sVdecomposable
p6154
F1.0
sg133
F1.0
sVcombination
p6155
F1.0
sVjelinek
p6156
F1.0
sVda
p6157
F1.0
sVposterior
p6158
F1.0
sVmodeling
p6159
F1.0
sVhighest
p6160
F1.0
sVwith
p6161
F2.0
sVmodel
p6162
F1.0
sVstandard
p6163
F1.0
sVbahl
p6164
F1.0
sVapplied
p6165
F1.0
sVgrammar
p6166
F1.0
sVlikelihoods
p6167
F1.0
sVof
p6168
F1.0
sVviterbi
p6169
F1.0
sVapproaches
p6170
F1.0
sVwill
p6171
F1.0
sVprior
p6172
F1.0
sg93
F1.0
sVthe
p6173
F5.0
saa(lp6174
S'J00-3003222'
p6175
a(dp6176
Vand
p6177
F1.0
sVprobability
p6178
F1.0
sVsequence
p6179
F2.0
sVlabels
p6180
F1.0
sVit
p6181
F2.0
sVkokkinakis
p6182
F1.0
sVfind
p6183
F1.0
sVmaximizes
p6184
F1.0
sVnecessarily
p6185
F1.0
sg88
F1.0
sg95
F1.0
sg13
F1.0
sVT-INT
p6186
F1.0
sVdoes
p6187
F1.0
sVhas
p6188
F1.0
sVcorrect
p6189
F2.0
sVthat
p6190
F1.0
sVbut
p6191
F1.0
sVda
p6192
F3.0
sVmost
p6193
F1.0
sVnot
p6194
F1.0
sVdermatas
p6195
F1.0
sVT-FLOAT
p6196
F1.0
sVentire
p6197
F1.0
sVgetting
p6198
F1.0
sVof
p6199
F1.0
sVthe
p6200
F4.0
saa(lp6201
S'J00-3003223'
p6202
a(dp6203
Vindividually
p6204
F1.0
sVall
p6205
F1.0
sVprobability
p6206
F1.0
sVquestion
p6207
F1.0
sVis
p6208
F1.0
sVin
p6209
F1.0
sVnumber
p6210
F1.0
sVsummation
p6211
F1.0
sVmaximize
p6212
F2.0
sVsequences
p6213
F1.0
sVneed
p6214
F2.0
sVwhere
p6215
F1.0
sVtotal
p6216
F1.0
sVwhose
p6217
F1.0
sVby
p6218
F1.0
sVerrors
p6219
F1.0
sVT-INT
p6220
F1.0
sVfor
p6221
F1.0
sg92
F3.0
sVprobabilities
p6222
F1.0
sg95
F1.0
sVui=u
p6223
F1.0
sg13
F3.0
sVlabel
p6224
F2.0
sVto
p6225
F3.0
sVper-utterance
p6226
F1.0
sg215
F2.0
sg94
F2.0
sVcorrect
p6227
F1.0
sVwe
p6228
F3.0
sVover
p6229
F1.0
sg88
F1.0
sVmatches
p6230
F1.0
sVith
p6231
F1.0
sVda
p6232
F2.0
sVposterior
p6233
F1.0
sVelement
p6234
F1.0
sVcompute
p6235
F1.0
sg763
F1.0
sVthe
p6236
F5.0
sg55
F3.0
sVgetting
p6237
F1.0
sg181
F2.0
sVof
p6238
F2.0
sVsumming
p6239
F1.0
sVlabeling
p6240
F1.0
sg909
F1.0
sVminimize
p6241
F1.0
sg93
F3.0
sVcan
p6242
F1.0
sVeach
p6243
F2.0
sVT-FLOAT
p6244
F5.0
sVutterance
p6245
F1.0
saa(lp6246
S'J00-3003174'
p6247
a(dp6248
Vand
p6249
F1.0
sg133
F1.0
sVor
p6250
F1.0
sVstatement
p6251
F1.0
sVdegree
p6252
F1.0
sVsome
p6253
F1.0
sVT-FLOAT
p6254
F1.0
sVaccepts
p6255
F1.0
sg13
F5.0
sVmark
p6256
F1.0
sVmaybe/accept-partall
p6257
F1.0
sVto
p6258
F1.0
sVspeaker
p6259
F1.0
sVplan
p6260
F1.0
sVwhich
p6261
F1.0
sVreject
p6262
F1.0
sVopinion
p6263
F1.0
sVthe
p6264
F1.0
sVprevious
p6265
F1.0
sVproposal
p6266
F1.0
sVagreement/accept
p6267
F1.0
saa(lp6268
S'J00-3003175'
p6269
a(dp6270
Vthese
p6271
F1.0
sVof
p6272
F1.0
sVagreement/accepts
p6273
F1.0
sVmost
p6274
F1.0
sVcommon
p6275
F1.0
sVthe
p6276
F2.0
sVT-FLOAT
p6277
F1.0
sVare
p6278
F1.0
saa(lp6279
S'J00-3003176'
p6280
a(dp6281
g133
F1.0
sVlike
p6282
F1.0
sVoften
p6283
F1.0
sVthese
p6284
F1.0
sVT-FLOAT
p6285
F1.0
sVyeah
p6286
F1.0
sVanswers
p6287
F1.0
sg13
F1.0
sVvery
p6288
F1.0
sVlot
p6289
F1.0
sVso
p6290
F1.0
sVare
p6291
F1.0
sVthey
p6292
F1.0
sVyes
p6293
F1.0
sVor
p6294
F1.0
sVlook
p6295
F1.0
saa(lp6296
S'J00-3003177'
p6297
a(dp6298
Vopinions
p6299
F1.0
sVoften
p6300
F1.0
sVfor
p6301
F1.0
sVcan
p6302
F1.0
sVthese
p6303
F1.0
sVproposals
p6304
F1.0
sg13
F2.0
sVanswers
p6305
F1.0
sVthe
p6306
F1.0
sVT-FLOAT
p6307
F1.0
sVdiscourse
p6308
F1.0
sVdistinguishing
p6309
F1.0
sVso
p6310
F1.0
sVbut
p6311
F1.0
sVquestions
p6312
F1.0
sVfollow
p6313
F2.0
sVbe
p6314
F1.0
sVwhere
p6315
F1.0
sVor
p6316
F1.0
sVimportant
p6317
F1.0
sVagreements
p6318
F1.0
saa(lp6319
S'J00-3003170'
p6320
a(dp6321
Vand
p6322
F1.0
sVyeah
p6323
F1.0
sVan
p6324
F1.0
sVas
p6325
F1.0
sVare
p6326
F1.0
sVdeclaratweT-INT
p6327
F1.0
sVyep
p6328
F1.0
sVyes
p6329
F2.0
sVyes-no-question
p6330
F1.0
sVwhen
p6331
F1.0
sg13
F5.0
sVto
p6332
F1.0
sVacting
p6333
F1.0
sVother
p6334
F1.0
sVanswer
p6335
F1.0
sVinclude
p6336
F1.0
sVuh-huh
p6337
F1.0
sVyes-answers
p6338
F1.0
sVthey
p6339
F1.0
sg133
F1.0
sVon
p6340
F1.0
sVuestion
p6341
F1.0
sVvariations
p6342
F1.0
sVT-FLOAT
p6343
F1.0
sVor
p6344
F1.0
saa(lp6345
S'J00-3003171'
p6346
a(dp6347
Vwe
p6348
F1.0
sVsimilarly
p6349
F1.0
sVno-answers
p6350
F1.0
sg13
F1.0
sValso
p6351
F1.0
sVcoded
p6352
F1.0
sVT-FLOAT
p6353
F1.0
saa(lp6354
S'J00-3003172'
p6355
a(dp6356
g133
F1.0
sVthe
p6357
F1.0
sVhelp
p6358
F1.0
sVthat
p6359
F1.0
sVwas
p6360
F1.0
sVyes-no-question
p6361
F1.0
sVus
p6362
F1.0
sVanswers
p6363
F1.0
sVT-FLOAT
p6364
F1.0
sVcan
p6365
F1.0
sVdetecting
p6366
F1.0
sVutterance
p6367
F1.0
sVtell
p6368
F1.0
sVprevious
p6369
F1.0
saa(lp6370
S'J00-3003173'
p6371
a(dp6372
Vinformation
p6373
F1.0
sVthey
p6374
F1.0
sVto
p6375
F1.0
sVsince
p6376
F1.0
sVanswers
p6377
F1.0
sValso
p6378
F1.0
sVlikely
p6379
F1.0
sVare
p6380
F2.0
sVsignificant
p6381
F1.0
sVcontain
p6382
F1.0
sVnew
p6383
F1.0
sVsemantically
p6384
F1.0
sVT-FLOAT
p6385
F1.0
saa(lp6386
S'J00-3003178'
p6387
a(dp6388
Vmathematical
p6389
F1.0
sVand
p6390
F1.0
sVwe
p6391
F1.0
sVcomputational
p6392
F1.0
sVstudy
p6393
F1.0
sVdescribe
p6394
F1.0
sVwill
p6395
F1.0
sVframework
p6396
F1.0
sVused
p6397
F1.0
sVin
p6398
F1.0
sVour
p6399
F1.0
sVthe
p6400
F1.0
sVnow
p6401
F1.0
sVT-FLOAT
p6402
F1.0
saa(lp6403
S'J00-3003179'
p6404
a(dp6405
Vand
p6406
F1.0
sVtasks
p6407
F1.0
sVinference
p6408
F1.0
sVclassification
p6409
F1.0
sVis
p6410
F1.0
sVcombining
p6411
F1.0
sVsources
p6412
F1.0
sVas
p6413
F2.0
sVstatistical
p6414
F1.0
sVformulation
p6415
F1.0
sVour
p6416
F1.0
sVprincipled
p6417
F1.0
sVtechniques
p6418
F1.0
sg88
F1.0
sVfrom
p6419
F1.0
sVgoal
p6420
F1.0
sVfor
p6421
F1.0
sVperform
p6422
F1.0
sg95
F1.0
sg13
F3.0
sVto
p6423
F2.0
sVother
p6424
F1.0
sVcorpus
p6425
F1.0
sVapproach
p6426
F1.0
sVmultiple
p6427
F1.0
sVability
p6428
F1.0
sVT-FLOAT
p6429
F1.0
sVda
p6430
F1.0
sVprobability
p6431
F1.0
sVderive
p6432
F1.0
sVusing
p6433
F3.0
sVprobabilistic
p6434
F1.0
sVmodel
p6435
F1.0
sVknowledge
p6436
F1.0
sg133
F3.0
sVparameters
p6437
F1.0
sVof
p6438
F1.0
sVwell
p6439
F1.0
sVus
p6440
F1.0
sVgiving
p6441
F1.0
sVthe
p6442
F2.0
sVautomatically
p6443
F1.0
sVlaws
p6444
F1.0
saa(lp6445
S'J00-3003211'
p6446
a(dp6447
Vprocess
p6448
F1.0
sVdescribing
p6449
F1.0
sg88
F2.0
sg95
F1.0
sg183
F1.0
sVorder
p6450
F1.0
sVT-INT
p6451
F1.0
sVui
p6452
F1.0
sVmarkov
p6453
F1.0
sVT-FLOAT
p6454
F1.0
sVof
p6455
F1.0
sg93
F1.0
sVthe
p6456
F2.0
sVis
p6457
F1.0
saa(lp6458
S'J00-3003260'
p6459
a(dp6460
Vthere
p6461
F1.0
sVis
p6462
F1.0
sVglobal
p6463
F1.0
sVgrammars
p6464
F1.0
sVresult
p6465
F1.0
sVin
p6466
F1.0
sVT-FLOAT
p6467
F1.0
sVvariables
p6468
F1.0
sVdetect
p6469
F1.0
sg342
F2.0
sVbaseline
p6470
F1.0
sVto
p6471
F1.0
sg88
F2.0
sg95
F2.0
sVsince
p6472
F1.0
sVable
p6473
F1.0
sg13
F1.0
sVby
p6474
F1.0
sVT-INT
p6475
F3.0
sVspeaker
p6476
F1.0
sVpotentially
p6477
F1.0
sVover
p6478
F1.0
sVindicating
p6479
F1.0
sVaccuracy
p6480
F1.0
sVbe
p6481
F1.0
sVdialogue
p6482
F2.0
sVthat
p6483
F2.0
sVda
p6484
F1.0
sVexploited
p6485
F1.0
sVsomewhat
p6486
F1.0
sVswitchboard
p6487
F1.0
sVgrammar
p6488
F1.0
sVwith
p6489
F1.0
sVdistribution
p6490
F1.0
sg133
F2.0
sVon
p6491
F1.0
sg903
F1.0
sVunigram
p6492
F1.0
sVsurprising
p6493
F1.0
sVthis
p6494
F1.0
sVgender
p6495
F1.0
sVcould
p6496
F1.0
sVcache
p6497
F1.0
sVthe
p6498
F1.0
sVries
p6499
F1.0
sVare
p6500
F2.0
saa.