(dp0
V'~ol
p1
F4.579852378003801
sVconsider
p2
F4.579852378003801
sVep~f
p3
F4.579852378003801
sVresults
p4
F4.578141513600172
sVleads
p5
F4.579852378003801
sVconsists
p6
F4.579852378003801
sVreasoning
p7
F4.579852378003801
sVt~
p8
F4.579852378003801
sVcertainly
p9
F4.579852378003801
sV-f
p10
F4.579852378003801
sVozi=b
p11
F4.579852378003801
sVlanguages
p12
F4.578141513600172
sVto
p13
F4.575079099251144
sVfinally
p14
F4.578141513600172
sV-p
p15
F4.579852378003801
sVunder
p16
F4.576770711466393
sV-~
p17
F4.577284982498556
sVfly
p18
F4.578141513600172
sVglobal
p19
F4.579852378003801
sVstring
p20
F4.577284982498556
sVmanageably
p21
F4.579852378003801
sVfrequencies
p22
F4.579852378003801
sVconditions
p23
F4.579852378003801
sVullman
p24
F4.579852378003801
sVcorollary
p25
F4.578141513600172
sVmanageable
p26
F4.579852378003801
sVcondition
p27
F4.578141513600172
sVtreating
p28
F4.579852378003801
sVentire
p29
F4.579852378003801
sV--
p30
F4.575398027654421
sVturns
p31
F4.579852378003801
sVsolution
p32
F4.579852378003801
sV-*
p33
F4.579852378003801
sVp
p34
F4.575398027654421
sVt*
p35
F4.579852378003801
sVa~c
p36
F4.579852378003801
sVmarkov
p37
F4.578141513600172
sVrefer
p38
F4.579852378003801
sV~ei=iepv
p39
F4.579852378003801
sVunexpected
p40
F4.579852378003801
sVcfg
p41
F4.577284982498556
sVconsistent
p42
F4.579852378003801
sVodi
p43
F4.579852378003801
sVlikely
p44
F4.579852378003801
sVbooth
p45
F4.578141513600172
sVsubtle
p46
F4.579852378003801
sVestimated
p47
F4.575998808687811
sVwhat
p48
F4.578141513600172
sVb-~
p49
F4.579852378003801
sVsum
p50
F4.579852378003801
sV;
p51
F4.575253424950099
sVacknowledgments
p52
F4.579852378003801
sVsatisfy
p53
F4.579852378003801
sVclimbs
p54
F4.579852378003801
sVunobserved
p55
F4.577284982498556
sVcomponent
p56
F4.579852378003801
sVhere
p57
F4.577284982498556
sVbened
p58
F4.579852378003801
sVlet
p59
F4.575855798319316
sVothers
p60
F4.579852378003801
sVrepresented
p61
F4.579852378003801
sV[
p62
F4.575283552237892
sVobtained
p63
F4.579852378003801
sVnaval
p64
F4.579852378003801
sVstudy
p65
F4.579852378003801
sVreason
p66
F4.579852378003801
sVresulting
p67
F4.578141513600172
sVusually
p68
F4.579852378003801
sV{
p69
F4.577284982498556
sVsuitable
p70
F4.579852378003801
sVinvolves
p71
F4.579852378003801
sVvia
p72
F4.579852378003801
sVtightness
p73
F4.576770711466393
sVmarginal
p74
F4.579852378003801
sVaddressed
p75
F4.579852378003801
sVapply
p76
F4.579852378003801
sVtotal
p77
F4.578141513600172
sVu
p78
F4.578141513600172
sVunit
p79
F4.576182649114839
sVreadily
p80
F4.579852378003801
sVuse
p81
F4.577284982498556
sVfrom
p82
F4.575503685639622
sVasymptotic
p83
F4.579852378003801
sVusa
p84
F4.579852378003801
sV&
p85
F4.579852378003801
sVprobabilities
p86
F4.575355100908906
sVchi
p87
F4.578141513600172
sVcontains
p88
F4.578141513600172
sVcontext-free
p89
F4.575998808687811
sVtwo
p90
F4.579852378003801
sVtherefore
p91
F4.579852378003801
sViteratively
p92
F4.579852378003801
sVuntil
p93
F4.579852378003801
sVmore
p94
F4.576182649114839
sV``
p95
F4.575855798319316
sVbecomes
p96
F4.579852378003801
sVe~-~y
p97
F4.579852378003801
sVbaum-welsh
p98
F4.579852378003801
sViw
p99
F4.579852378003801
sVparticular
p100
F4.579852378003801
sVknown
p101
F4.579852378003801
sVcases
p102
F4.579852378003801
sVconditioned
p103
F4.579852378003801
sVmust
p104
F4.579852378003801
sVo~i=b
p105
F4.579852378003801
sVii
p106
F4.579852378003801
sVinclude
p107
F4.579852378003801
sVg
p108
F4.577284982498556
sVf
p109
F4.575503685639622
sVthis
p110
F4.575998808687811
sVrecall
p111
F4.579852378003801
sVequation
p112
F4.579852378003801
sVwork
p113
F4.579852378003801
sVb~c
p114
F4.579852378003801
sVcai
p115
F4.578141513600172
sVcan
p116
F4.575855798319316
sVv
p117
F4.575855798319316
sVfollowing
p118
F4.579852378003801
sVcab
p119
F4.579852378003801
sVT-FLOAT
p120
F4.574820645663662
sVtrans
p121
F4.579852378003801
sVexample
p122
F4.576182649114839
sVproof
p123
F4.576770711466393
sV~i=lf
p124
F4.578141513600172
sVdivision
p125
F4.579852378003801
sV+/
p126
F4.579852378003801
sVin
p127
F4.575123264635795
sVsample
p128
F4.576770711466393
sVnumbers
p129
F4.579852378003801
sVevidently
p130
F4.579852378003801
sVend
p131
F4.579852378003801
sVo~
p132
F4.577284982498556
sVrather
p133
F4.579852378003801
sVmeans
p134
F4.579852378003801
sVmachine
p135
F4.579852378003801
sVrubin
p136
F4.578141513600172
sVinstead
p137
F4.579852378003801
sV~fl
p138
F4.579852378003801
sVpriori
p139
F4.579852378003801
sVft
p140
F4.579852378003801
sVw
p141
F4.57564774672177
sVmay
p142
F4.577284982498556
sVadvice
p143
F4.579852378003801
sVderived
p144
F4.579852378003801
sVcollection
p145
F4.579852378003801
sVproduce
p146
F4.579852378003801
sVff
p147
F4.579852378003801
sVfi
p148
F4.576182649114839
sVdata
p149
F4.576770711466393
sVa
p150
F4.5750054859418245
sVambiguous
p151
F4.578141513600172
sVnatural
p152
F4.579852378003801
sVei=l
p153
F4.579852378003801
sVjohnson
p154
F4.579852378003801
sV~oe~y
p155
F4.579852378003801
sVewefly
p156
F4.579852378003801
sVq
p157
F4.576770711466393
sVperhaps
p158
F4.579852378003801
sVsh
p159
F4.578141513600172
sValgorithms
p160
F4.579852378003801
sVsa
p161
F4.579852378003801
sVunparsed
p162
F4.576770711466393
sVtypical
p163
F4.579852378003801
sVstolcke
p164
F4.579852378003801
sVrestriction
p165
F4.579852378003801
sVith
p166
F4.579852378003801
sVproduces
p167
F4.579852378003801
sVover
p168
F4.579852378003801
sVmove
p169
F4.579852378003801
sV~-~y
p170
F4.579852378003801
sVproduced
p171
F4.579852378003801
sVthrough
p172
F4.577284982498556
sVstatistical
p173
F4.578141513600172
sVieee
p174
F4.578141513600172
sVbefore
p175
F4.579852378003801
sVlinguistics
p176
F4.578141513600172
sVfit
p177
F4.579852378003801
sVla
p178
F4.579852378003801
sV,
p179
F4.574864836492763
sVlw
p180
F4.578141513600172
sVabsence
p181
F4.579852378003801
sVproduction
p182
F4.575355100908906
sVhidden
p183
F4.579852378003801
sVmain
p184
F4.579852378003801
sV<
p185
F4.575998808687811
sVthen
p186
F4.575741375297279
sVthem
p187
F4.579852378003801
sVgood
p188
F4.579852378003801
sVgreater
p189
F4.579852378003801
sVolifails
p190
F4.579852378003801
sVqs
p191
F4.577284982498556
sVencouraging
p192
F4.579852378003801
sVparse
p193
F4.575741375297279
sVoti=b
p194
F4.579852378003801
sVnot
p195
F4.576427717122438
sVnow
p196
F4.577284982498556
sVterm
p197
F4.579852378003801
sVgrammar
p198
F4.576182649114839
sVdesignation
p199
F4.579852378003801
sValways
p200
F4.577284982498556
sVuniversity
p201
F4.579852378003801
sVl
p202
F4.578141513600172
sVright-hand
p203
F4.578141513600172
sVreasonable
p204
F4.579852378003801
sVeach
p205
F4.575855798319316
sVprocesses
p206
F4.579852378003801
sVside
p207
F4.578141513600172
sVmean
p208
F4.579852378003801
sVem
p209
F4.575998808687811
sVlogp
p210
F4.579852378003801
sVseries
p211
F4.579852378003801
sVhard
p212
F4.578141513600172
sVea
p213
F4.579852378003801
sVidea
p214
F4.579852378003801
sVsociety
p215
F4.579852378003801
sVe~
p216
F4.577284982498556
sVsubstantially
p217
F4.579852378003801
sVi=
p218
F4.577284982498556
sVer
p219
F4.576770711466393
sVmatrix
p220
F4.579852378003801
sV'
p221
F4.578141513600172
sVy'~i__
p222
F4.579852378003801
sVfurthermore
p223
F4.577284982498556
sVsince
p224
F4.578141513600172
sVresearch
p225
F4.578141513600172
sVposteriori
p226
F4.579852378003801
sVconjectured
p227
F4.579852378003801
sVinduced
p228
F4.579852378003801
sVissue
p229
F4.578141513600172
sVri
p230
F4.579852378003801
sVsh+l
p231
F4.579852378003801
sVfoundation
p232
F4.579852378003801
sV~=lf
p233
F4.579852378003801
sVfree
p234
F4.579852378003801
sVnth
p235
F4.579852378003801
sVapproaches
p236
F4.579852378003801
sVf~
p237
F4.576770711466393
sVput
p238
F4.579852378003801
sVestimate
p239
F4.578141513600172
sVlikelihood
p240
F4.575998808687811
sVgenerate
p241
F4.579852378003801
sVnonterminal
p242
F4.577284982498556
sVderivation
p243
F4.576182649114839
sVlanguage
p244
F4.578141513600172
sV~n+i
p245
F4.579852378003801
sVcomputers
p246
F4.579852378003801
sVcorrectness
p247
F4.579852378003801
sVparses
p248
F4.578141513600172
sVlength
p249
F4.579852378003801
sVplace
p250
F4.577284982498556
sV-~o~
p251
F4.579852378003801
sVhence
p252
F4.576770711466393
sVassign
p253
F4.577284982498556
sVfirst
p254
F4.576427717122438
sVindebted
p255
F4.579852378003801
sVthere
p256
F4.575998808687811
sVrooted
p257
F4.578141513600172
sVprobability
p258
F4.575201776059247
sVvariables
p259
F4.579852378003801
sVnumber
p260
F4.576770711466393
sVone
p261
F4.575998808687811
sVinstances
p262
F4.579852378003801
sVhas/
p263
F4.579852378003801
sVoccurrences
p264
F4.579852378003801
sVsuch
p265
F4.577284982498556
sVgiven
p266
F4.576427717122438
sVfl
p267
F4.576182649114839
sVsystem
p268
F4.576427717122438
sVtheir
p269
F4.579852378003801
sVterminals
p270
F4.579852378003801
sVcorpus
p271
F4.575855798319316
sVscheme
p272
F4.578141513600172
sVway
p273
F4.578141513600172
sVthat
p274
F4.575159107572052
sVthan
p275
F4.576427717122438
sVobserved
p276
F4.578141513600172
sVb
p277
F4.575569716211801
sVunfortunately
p278
F4.579852378003801
sVi-i
p279
F4.579852378003801
sViteration
p280
F4.576770711466393
sVzero
p281
F4.576427717122438
sVr
p282
F4.575741375297279
sVwere
p283
F4.579852378003801
sVbev
p284
F4.579852378003801
sVand
p285
F4.57501414661242
sV~y
p286
F4.579852378003801
sVrespecting
p287
F4.579852378003801
sV~s
p288
F4.579852378003801
sV~i
p289
F4.579852378003801
sV~n
p290
F4.579852378003801
sVsentences
p291
F4.579852378003801
sVneed
p292
F4.579852378003801
sV~a
p293
F4.579852378003801
sV~b
p294
F4.579852378003801
sVnull
p295
F4.576182649114839
sVany
p296
F4.577284982498556
sV~f
p297
F4.579852378003801
sVrelatively
p298
F4.579852378003801
sV~i'=
p299
F4.579852378003801
sVmin
p300
F4.579852378003801
sVefficient
p301
F4.578141513600172
sVpursued
p302
F4.579852378003801
sV-
p303
F4.579852378003801
sVconverges
p304
F4.578141513600172
sVnote
p305
F4.579852378003801
sValso
p306
F4.579852378003801
sVefk
p307
F4.579852378003801
sVbest
p308
F4.579852378003801
sVwhich
p309
F4.576770711466393
sVfinding
p310
F4.579852378003801
sV=
p311
F4.575201776059247
sVall
p312
F4.576427717122438
sVadded
p313
F4.579852378003801
sVmultiple
p314
F4.579852378003801
sVshall
p315
F4.578141513600172
sVleft-to-right
p316
F4.579852378003801
sVsimplify
p317
F4.579852378003801
sVregular
p318
F4.579852378003801
sVbut
p319
F4.577284982498556
sV~/
p320
F4.579852378003801
sVremarks
p321
F4.579852378003801
sV]
p322
F4.575283552237892
sVmodel
p323
F4.578141513600172
sVprobable
p324
F4.579852378003801
sVnonroot
p325
F4.579852378003801
sVaec~
p326
F4.579852378003801
sVm
p327
F4.579852378003801
sVeeg_
p328
F4.579852378003801
sVestimator
p329
F4.575741375297279
sV}
p330
F4.577284982498556
sV+
p331
F4.575998808687811
sVincomplete
p332
F4.579852378003801
sVscience
p333
F4.579852378003801
sVcT-INT
p334
F4.579852378003801
sVphenomenon
p335
F4.579852378003801
sVshow
p336
F4.576182649114839
sVsupported
p337
F4.579852378003801
sVterminate
p338
F4.576770711466393
sV~ence
p339
F4.579852378003801
sV=l
p340
F4.579852378003801
sVtrivial
p341
F4.579852378003801
sVavailability
p342
F4.579852378003801
sVpcfg
p343
F4.577284982498556
sVbased
p344
F4.577284982498556
sVoffice
p345
F4.578141513600172
sV-+o
p346
F4.579852378003801
sV(
p347
F4.574930300798373
sVsentence
p348
F4.578141513600172
sVterminal
p349
F4.578141513600172
sVT-INT
p350
F4.574940047339569
sVonly
p351
F4.576182649114839
sVthompson
p352
F4.578141513600172
sVdaal
p353
F4.579852378003801
sVhope
p354
F4.578141513600172
sVdo
p355
F4.579852378003801
sVget
p356
F4.579852378003801
sVgeman
p357
F4.578141513600172
sVexpectation
p358
F4.579852378003801
sVtrees
p359
F4.5754470845358854
sVcompute
p360
F4.579852378003801
sVsymbols
p361
F4.578141513600172
sVruns
p362
F4.579852378003801
sVs-to-b
p363
F4.579852378003801
sVaev
p364
F4.579852378003801
sVh
p365
F4.576770711466393
sVyield
p366
F4.578141513600172
sVqa
p367
F4.577284982498556
sVtwice
p368
F4.579852378003801
sVthough
p369
F4.578141513600172
sVnondecreasing
p370
F4.579852378003801
sVq~i=lf
p371
F4.579852378003801
sVwhere
p372
F4.576770711466393
sVapproaching
p373
F4.579852378003801
sVset
p374
F4.575855798319316
sVcomputed
p375
F4.579852378003801
sVintelligence
p376
F4.579852378003801
sVnational
p377
F4.579852378003801
sVwe
p378
F4.57522630961502
sVmaximum
p379
F4.576770711466393
sVrelative
p380
F4.578141513600172
sVsee
p381
F4.57564774672177
sVare
p382
F4.5754470845358854
sVterms
p383
F4.579852378003801
sVfrequency
p384
F4.577284982498556
sVa-T-FLOAT
p385
F4.579852378003801
sVfails
p386
F4.578141513600172
sVsatisfying
p387
F4.579852378003801
sVinequalities
p388
F4.579852378003801
sVpattern
p389
F4.579852378003801
sVcase
p390
F4.579852378003801
sVenough
p391
F4.579852378003801
sVclosed
p392
F4.579852378003801
sVdrawn
p393
F4.579852378003801
sVapproach
p394
F4.579852378003801
sVavailable
p395
F4.579852378003801
sVj~
p396
F4.579852378003801
sVnever
p397
F4.579852378003801
sVrecently
p398
F4.579852378003801
sVparent
p399
F4.579852378003801
sVconfusion
p400
F4.579852378003801
sVwl
p401
F4.577284982498556
sVhowever
p402
F4.579852378003801
sVwi
p403
F4.576182649114839
sViterative
p404
F4.579852378003801
sVdistribution
p405
F4.576770711466393
sVboth
p406
F4.579852378003801
sVc
p407
F4.579852378003801
sVz
p408
F4.579852378003801
sVlast
p409
F4.579852378003801
sVbrown
p410
F4.579852378003801
sVequal
p411
F4.577284982498556
sVs
p412
F4.575569716211801
sVsection
p413
F4.575998808687811
sVestimation
p414
F4.577284982498556
sVasked
p415
F4.579852378003801
sVcomes
p416
F4.579852378003801
sVotherwise
p417
F4.579852378003801
sVarbitrarily
p418
F4.579852378003801
sVamong
p419
F4.579852378003801
sVconclude
p420
F4.578141513600172
sVsimple
p421
F4.577284982498556
sVroyal
p422
F4.579852378003801
sVca
p423
F4.577284982498556
sVcf
p424
F4.579852378003801
sVexpectations
p425
F4.579852378003801
sVimproper
p426
F4.579852378003801
sVc~
p427
F4.577284982498556
sV~il
p428
F4.579852378003801
sVcr
p429
F4.579852378003801
sValong
p430
F4.579852378003801
sVcomplication
p431
F4.579852378003801
sVpq
p432
F4.579852378003801
sVsecond
p433
F4.579852378003801
sVestimating
p434
F4.577284982498556
sVequivalent
p435
F4.579852378003801
sVmark
p436
F4.579852378003801
sVai
p437
F4.579852378003801
sVmuch
p438
F4.578141513600172
sVtreat
p439
F4.579852378003801
sVexpected
p440
F4.578141513600172
sVpn
p441
F4.579852378003801
sVsensibly
p442
F4.579852378003801
sV>
p443
F4.577284982498556
sVarises
p444
F4.578141513600172
sVcorresponding
p445
F4.579852378003801
sV~i=
p446
F4.579852378003801
sVbaum
p447
F4.579852378003801
sVconcerning
p448
F4.579852378003801
sVtheorem
p449
F4.577284982498556
sVb_~
p450
F4.579852378003801
sVprescription
p451
F4.579852378003801
sVdenote
p452
F4.577284982498556
sVapplied
p453
F4.579852378003801
sVguarantees
p454
F4.579852378003801
sVlook
p455
F4.579852378003801
sVn
p456
F4.575741375297279
sVwill
p457
F4.576182649114839
sVsuppose
p458
F4.578141513600172
sVprocedure
p459
F4.578141513600172
sV~
p460
F4.575123264635795
sVva
p461
F4.579852378003801
sVaa
p462
F4.576427717122438
sVhave
p463
F4.576770711466393
sValmost
p464
F4.579852378003801
sVis
p465
F4.57501414661242
sVit
p466
F4.57564774672177
sVsurface
p467
F4.578141513600172
sVaccording
p468
F4.579852378003801
sVrespected
p469
F4.579852378003801
sVgrammars
p470
F4.576770711466393
sVwetherell
p471
F4.578141513600172
sVif
p472
F4.575569716211801
sVdifferent
p473
F4.579852378003801
sVunaffected
p474
F4.579852378003801
sV)
p475
F4.574925732074486
sVsuggest
p476
F4.579852378003801
sVmake
p477
F4.579852378003801
sV-ji
p478
F4.579852378003801
sVsame
p479
F4.576427717122438
sVcomplex
p480
F4.579852378003801
sVfinite
p481
F4.575998808687811
sVindependent
p482
F4.579852378003801
sVused
p483
F4.579852378003801
sVinfinity
p484
F4.579852378003801
sVassigns
p485
F4.579852378003801
sVnabe
p486
F4.579852378003801
sVassignment
p487
F4.576427717122438
sVupon
p488
F4.577284982498556
sVharris
p489
F4.579852378003801
sVarose
p490
F4.579852378003801
sVb+/
p491
F4.579852378003801
sVinfinite
p492
F4.577284982498556
sVclimb
p493
F4.579852378003801
sVexpectation-maximization
p494
F4.579852378003801
sVi
p495
F4.576427717122438
sVwell
p496
F4.579852378003801
sVanalysis
p497
F4.579852378003801
sVwithout
p498
F4.579852378003801
sVconsistency
p499
F4.579852378003801
sVy
p500
F4.575855798319316
sVthe
p501
F4.574854152675007
sVcon
p502
F4.579852378003801
sVarising
p503
F4.579852378003801
sVusual
p504
F4.579852378003801
sVthey
p505
F4.579852378003801
sVless
p506
F4.576770711466393
sVwhen
p507
F4.576770711466393
sVy'~nlf
p508
F4.579852378003801
sValternative
p509
F4.579852378003801
sVerbev
p510
F4.579852378003801
sVletting
p511
F4.579852378003801
sVa~cz
p512
F4.579852378003801
sV$
p513
F4.579852378003801
sVa~c~
p514
F4.578141513600172
sVinstance
p515
F4.579852378003801
sVhad
p516
F4.579852378003801
sVexcept
p517
F4.578141513600172
sVappeared
p518
F4.579852378003801
sVsetting
p519
F4.579852378003801
sVtreatment
p520
F4.579852378003801
sVsamples
p521
F4.579852378003801
sVrequiring
p522
F4.579852378003801
sVhas
p523
F4.576427717122438
sVidentical
p524
F4.579852378003801
sVtests
p525
F4.579852378003801
sVpsi
p526
F4.579852378003801
sVrules
p527
F4.579852378003801
sVpossible
p528
F4.579852378003801
sVpossibly
p529
F4.579852378003801
sVstep
p530
F4.579852378003801
sVusing
p531
F4.579852378003801
sVimposed
p532
F4.579852378003801
sVd
p533
F4.578141513600172
sVlost
p534
F4.579852378003801
sVmaximum-likelihood
p535
F4.5754470845358854
sVyields
p536
F4.577284982498556
sVeoqb
p537
F4.579852378003801
sVogwi
p538
F4.579852378003801
sVarbitrary
p539
F4.579852378003801
sVbecause
p540
F4.579852378003801
sVdempster
p541
F4.578141513600172
sVsequence
p542
F4.576182649114839
sVoli
p543
F4.579852378003801
sVsome
p544
F4.578141513600172
sVunderstood
p545
F4.579852378003801
sVgrowth
p546
F4.579852378003801
sVchoosing
p547
F4.579852378003801
sVa-~
p548
F4.579852378003801
sVproper
p549
F4.576770711466393
sVcal
p550
F4.579852378003801
sVfor
p551
F4.575179472304409
sVbroad
p552
F4.579852378003801
sVavoid
p553
F4.579852378003801
sVtransactions
p554
F4.579852378003801
sV/
p555
F4.578141513600172
sVprovidence
p556
F4.579852378003801
sVdoes
p557
F4.578141513600172
sVassuming
p558
F4.579852378003801
sV?
p559
F4.576770711466393
sVt
p560
F4.575998808687811
sVcoined
p561
F4.579852378003801
sVbe
p562
F4.575569716211801
sVmeasures
p563
F4.579852378003801
sVprobabilitiesg
p564
F4.579852378003801
sVtree
p565
F4.576427717122438
sVjournal
p566
F4.579852378003801
sVb*v
p567
F4.579852378003801
sV~nchez
p568
F4.579852378003801
sV-gT-INT
p569
F4.579852378003801
sValthough
p570
F4.579852378003801
sVrefers
p571
F4.579852378003801
sVby
p572
F4.575503685639622
sVwliw
p573
F4.579852378003801
sVon
p574
F4.576182649114839
sVabout
p575
F4.579852378003801
sVol
p576
F4.578141513600172
sVactual
p577
F4.579852378003801
sVchomsky
p578
F4.579852378003801
sVof
p579
F4.5749564073915945
sVcompleting
p580
F4.579852378003801
sVarmy
p581
F4.579852378003801
sVgenerated
p582
F4.577284982498556
sVo
p583
F4.577284982498556
sVgrenander
p584
F4.579852378003801
sVinvolving
p585
F4.579852378003801
sVoz
p586
F4.579852378003801
sVintroduced
p587
F4.576770711466393
sVor
p588
F4.575741375297279
sVautomatically
p589
F4.579852378003801
sVexpectedfrequencies
p590
F4.579852378003801
sVcomputational
p591
F4.578141513600172
sVinto
p592
F4.578141513600172
sVparsing
p593
F4.579852378003801
sVrendering
p594
F4.579852378003801
sVpn+l
p595
F4.579852378003801
sVstatistics
p596
F4.579852378003801
sVlog
p597
F4.579852378003801
sVprobabilistic
p598
F4.576427717122438
sV*
p599
F4.577284982498556
sVquestion
p600
F4.577284982498556
sVlong
p601
F4.579852378003801
sVstart
p602
F4.579852378003801
sVterminates
p603
F4.579852378003801
sVcabc
p604
F4.579852378003801
sV:
p605
F4.575201776059247
sVwas
p606
F4.579852378003801
sVfunction
p607
F4.579852378003801
sVan
p608
F4.575503685639622
sVform
p609
F4.577284982498556
sVrelaxed
p610
F4.579852378003801
sVextended
p611
F4.579852378003801
sVvolume
p612
F4.578141513600172
sVwith
p613
F4.57564774672177
sVapplying
p614
F4.579852378003801
sVwhether
p615
F4.579852378003801
sVwish
p616
F4.579852378003801
sVup
p617
F4.577284982498556
sVus
p618
F4.579852378003801
sVplaced
p619
F4.579852378003801
sVproductions
p620
F4.575569716211801
sVui
p621
F4.579852378003801
sVproblem
p622
F4.578141513600172
sVdefine
p623
F4.579852378003801
sVsimilar
p624
F4.579852378003801
sVhopcroft
p625
F4.579852378003801
sVlaird
p626
F4.578141513600172
sVab
p627
F4.579852378003801
sVubev
p628
F4.579852378003801
sVdefined
p629
F4.579852378003801
sVabstract
p630
F4.579852378003801
sVgeneral
p631
F4.578141513600172
sV''
p632
F4.575855798319316
sVas
p633
F4.575855798319316
sVexist
p634
F4.579852378003801
sVat
p635
F4.579852378003801
sVvn
p636
F4.579852378003801
sVour
p637
F4.579852378003801
sVay
p638
F4.578141513600172
sVdistributions
p639
F4.579852378003801
sVparsed
p640
F4.578141513600172
sVa~
p641
F4.577284982498556
sVagain
p642
F4.577284982498556
sVfunctions
p643
F4.579852378003801
sVancestors
p644
F4.579852378003801
sVno
p645
F4.576770711466393
sVnb
p646
F4.579852378003801
sVgenerally
p647
F4.578141513600172
sVtight
p648
F4.576427717122438
sVterminating
p649
F4.579852378003801
sVnormal
p650
F4.579852378003801
sVmathematics
p651
F4.579852378003801
sVmost
p652
F4.579852378003801
sVout
p653
F4.579852378003801
sV~in=l
p654
F4.579852378003801
sV's
p655
F4.577284982498556
sVmodels
p656
F4.579852378003801
sVsymbol
p657
F4.577284982498556
sVmeaning
p658
F4.579852378003801
sVcoverage
p659
F4.579852378003801
sVvariable
p660
F4.577284982498556
sVindependently
p661
F4.579852378003801
sVe
p662
F4.5754470845358854
sVore*
p663
F4.579852378003801
sValgorithm
p664
F4.576182649114839
sVassume
p665
F4.578141513600172
sVbaker
p666
F4.578141513600172
sVrule
p667
F4.578141513600172
sVdepth
p668
F4.578141513600172
sVmass
p669
F4.577284982498556
sVuseful
p670
F4.579852378003801
s.