(lp0
(lp1
S'J98-200576'
p2
a(dp3
Vbe
p4
F0.06666666666666667
sVdefined
p5
F0.06666666666666667
sVof
p6
F0.06666666666666667
sV,
p7
F0.13333333333333333
sVmaximum-likelihood
p8
F0.06666666666666667
sVp
p9
F0.06666666666666667
sVfinally
p10
F0.06666666666666667
sVestimator
p11
F0.06666666666666667
sVlet
p12
F0.06666666666666667
sVT-FLOAT
p13
F0.06666666666666667
sVthe
p14
F0.06666666666666667
sVby
p15
F0.06666666666666667
sVas
p16
F0.06666666666666667
sV~
p17
F0.06666666666666667
saa(lp18
S'J98-200577'
p19
a(dp20
V;
p21
F0.05263157894736842
sVwl
p22
F0.05263157894736842
sVT-INT
p23
F0.15789473684210525
sValso
p24
F0.05263157894736842
sV(
p25
F0.05263157894736842
sVconcerning
p26
F0.05263157894736842
sVunobserved
p27
F0.05263157894736842
sg7
F0.05263157894736842
sVfollowing
p28
F0.05263157894736842
sVsee
p29
F0.05263157894736842
sVT-FLOAT
p30
F0.05263157894736842
sVin
p31
F0.05263157894736842
sVremarks
p32
F0.05263157894736842
sVvariables
p33
F0.05263157894736842
sVthe
p34
F0.05263157894736842
sV]
p35
F0.05263157894736842
sV[
p36
F0.05263157894736842
saa(lp37
S'J98-200574'
p38
a(dp39
Vand
p40
F0.018867924528301886
sVset
p41
F0.018867924528301886
sVsystem
p42
F0.018867924528301886
sVparse
p43
F0.018867924528301886
sVgiven
p44
F0.018867924528301886
sVsatisfying
p45
F0.018867924528301886
sV)
p46
F0.018867924528301886
sg25
F0.018867924528301886
sVcontext-free
p47
F0.018867924528301886
sg7
F0.16981132075471697
sVT-INT
p48
F0.07547169811320754
sVproduction
p49
F0.018867924528301886
sVfinite
p50
F0.018867924528301886
sV=
p51
F0.018867924528301886
sVprobabilities
p52
F0.018867924528301886
sVbe
p53
F0.03773584905660377
sVwl
p54
F0.018867924528301886
sVtrees
p55
F0.018867924528301886
sVlet
p56
F0.05660377358490566
sg36
F0.018867924528301886
sg35
F0.018867924528301886
sVT-FLOAT
p57
F0.018867924528301886
sVa
p58
F0.03773584905660377
sV:
p59
F0.018867924528301886
sVgrammar
p60
F0.018867924528301886
sVg
p61
F0.018867924528301886
sVf
p62
F0.018867924528301886
sVof
p63
F0.03773584905660377
sg9
F0.018867924528301886
sVs
p64
F0.018867924528301886
sVr
p65
F0.03773584905660377
sVt
p66
F0.018867924528301886
sVw
p67
F0.018867924528301886
sVv
p68
F0.018867924528301886
sVthe
p69
F0.018867924528301886
sg17
F0.018867924528301886
saa(lp70
S'J98-200572'
p71
a(dp72
Vagain
p73
F0.125
sVtightness
p74
F0.125
sVof
p75
F0.125
sVup
p76
F0.125
sVthe
p77
F0.125
sVissue
p78
F0.125
sVT-FLOAT
p79
F0.125
sVcomes
p80
F0.125
saa(lp81
S'J98-200573'
p82
a(dp83
Vwe
p84
F0.0625
sVfor
p85
F0.0625
sVthat
p86
F0.0625
sg46
F0.0625
sg25
F0.0625
sVshow
p87
F0.0625
sVf~
p88
F0.0625
sVn
p89
F0.0625
sVwill
p90
F0.0625
sVT-INT
p91
F0.125
sg51
F0.0625
sVeach
p92
F0.0625
sVT-FLOAT
p93
F0.0625
sVpn
p94
F0.0625
sV>
p95
F0.0625
saa(lp96
S'J98-200570'
p97
a(dp98
Vand
p99
F0.09375
sVlaird
p100
F0.03125
sVdempster
p101
F0.03125
sVinto
p102
F0.03125
sVidea
p103
F0.03125
sVgeneral
p104
F0.03125
sVgrammars
p105
F0.03125
sVfor
p106
F0.03125
sg35
F0.03125
sVchi
p107
F0.03125
sVcontext-free
p108
F0.03125
sg7
F0.0625
sVT-INT
p109
F0.03125
sVmuch
p110
F0.03125
sVsetting
p111
F0.03125
sVmore
p112
F0.03125
sVgeman
p113
F0.03125
sVcoined
p114
F0.03125
sVrubin
p115
F0.03125
sVput
p116
F0.03125
sg36
F0.03125
sVprobabilistic
p117
F0.03125
sVT-FLOAT
p118
F0.03125
sVexpectation-maximization
p119
F0.03125
sg58
F0.03125
sVterm
p120
F0.03125
sVem
p121
F0.03125
sVthe
p122
F0.0625
saa(lp123
S'J98-200571'
p124
a(dp125
Vexpectedfrequencies
p126
F0.03225806451612903
sVcomputed
p127
F0.03225806451612903
sVis
p128
F0.06451612903225806
sVobserved
p129
F0.03225806451612903
sVas
p130
F0.03225806451612903
sVpn+l
p131
F0.03225806451612903
sg7
F0.06451612903225806
sVunder
p132
F0.03225806451612903
sVexpected
p133
F0.03225806451612903
sg21
F0.03225806451612903
sVthen
p134
F0.03225806451612903
sVj~
p135
F0.03225806451612903
sVthough
p136
F0.03225806451612903
sVfrequencies
p137
F0.06451612903225806
sVthey
p138
F0.03225806451612903
sVusing
p139
F0.03225806451612903
sVT-FLOAT
p140
F0.03225806451612903
sVtreating
p141
F0.03225806451612903
sVof
p142
F0.03225806451612903
sVmaximum-likelihood
p143
F0.03225806451612903
sVright-hand
p144
F0.03225806451612903
sVestimator
p145
F0.03225806451612903
sVwere
p146
F0.03225806451612903
sVthe
p147
F0.12903225806451613
sVside
p148
F0.03225806451612903
saa(lp149
S'J98-200578'
p150
a(dp151
g46
F0.2
sVT-FLOAT
p152
F0.2
sg7
F0.4
sg67
F0.2
saa(lp153
S'J98-200579'
p154
a(dp155
Vthe
p156
F0.08695652173913043
sVprobability
p157
F0.043478260869565216
sVparse
p158
F0.043478260869565216
sg46
F0.043478260869565216
sg25
F0.043478260869565216
sVgenerally
p159
F0.043478260869565216
sg7
F0.043478260869565216
sVto
p160
F0.043478260869565216
sVinduced
p161
F0.043478260869565216
sVmore
p162
F0.043478260869565216
sVdistribution
p163
F0.043478260869565216
sVtrees
p164
F0.043478260869565216
sVpossibly
p165
F0.043478260869565216
sVinfinite
p166
F0.043478260869565216
sVby
p167
F0.043478260869565216
sVon
p168
F0.043478260869565216
sVmaximum-likelihood
p169
F0.043478260869565216
sVwill
p170
F0.043478260869565216
sVestimator
p171
F0.043478260869565216
sVT-FLOAT
p172
F0.043478260869565216
sVrefer
p173
F0.043478260869565216
sg17
F0.043478260869565216
saa(lp174
S'J98-200589'
p175
a(dp176
Vand
p177
F0.030303030303030304
sVproductions
p178
F0.06060606060606061
sVin
p179
F0.030303030303030304
sVnull
p180
F0.030303030303030304
sVunit
p181
F0.030303030303030304
sg46
F0.06060606060606061
sg25
F0.06060606060606061
sg7
F0.030303030303030304
sVT-INT
p182
F0.06060606060606061
sVabsence
p183
F0.030303030303030304
sg21
F0.030303030303030304
sV<
p184
F0.030303030303030304
sVi=
p185
F0.030303030303030304
sVstring
p186
F0.030303030303030304
sg36
F0.030303030303030304
sVT-FLOAT
p187
F0.030303030303030304
sg58
F0.030303030303030304
sVaev
p188
F0.030303030303030304
sVof
p189
F0.06060606060606061
sg62
F0.030303030303030304
sVtwice
p190
F0.030303030303030304
sVlength
p191
F0.030303030303030304
sg67
F0.09090909090909091
sVthe
p192
F0.09090909090909091
saa(lp193
S'J98-200588'
p194
a(dp195
Vand
p196
F0.022222222222222223
sValmost
p197
F0.022222222222222223
sg7
F0.044444444444444446
sVin
p198
F0.022222222222222223
sVeeg_
p199
F0.022222222222222223
sVuse
p200
F0.022222222222222223
sV-f
p201
F0.022222222222222223
sVend
p202
F0.022222222222222223
sVlw
p203
F0.022222222222222223
sg46
F0.06666666666666667
sg25
F0.06666666666666667
sg35
F0.022222222222222223
sVexcept
p204
F0.022222222222222223
sVT-INT
p205
F0.044444444444444446
sg21
F0.044444444444444446
sg59
F0.022222222222222223
sVidentical
p206
F0.022222222222222223
sVfly
p207
F0.022222222222222223
sVwe
p208
F0.022222222222222223
sVthat
p209
F0.022222222222222223
sVwi
p210
F0.044444444444444446
sg36
F0.022222222222222223
sVwith
p211
F0.022222222222222223
sg58
F0.044444444444444446
sVc
p212
F0.022222222222222223
sVe
p213
F0.022222222222222223
sg62
F0.022222222222222223
sVof
p214
F0.022222222222222223
sVup
p215
F0.022222222222222223
sg89
F0.022222222222222223
sVqa
p216
F0.022222222222222223
sVplace
p217
F0.022222222222222223
sg67
F0.022222222222222223
sVT-FLOAT
p218
F0.022222222222222223
sg17
F0.022222222222222223
sVproof
p219
F0.022222222222222223
saa(lp220
S'J98-200583'
p221
a(dp222
V~i=lf
p223
F0.00625
sVubev
p224
F0.00625
sV~in=l
p225
F0.00625
sVoli
p226
F0.00625
sVterminate
p227
F0.01875
sVb~c
p228
F0.0125
sV-ji
p229
F0.00625
sVolifails
p230
F0.0125
sg89
F0.00625
sVc~
p231
F0.00625
sVany
p232
F0.00625
sVer
p233
F0.00625
sVt~
p234
F0.00625
sVfails
p235
F0.00625
sVa~
p236
F0.00625
sVfor
p237
F0.00625
sVla
p238
F0.00625
sg46
F0.05625
sg25
F0.06875
sVnb
p239
F0.0125
sVozi=b
p240
F0.00625
sg7
F0.0625
sVerbev
p241
F0.00625
sVto
p242
F0.01875
sg65
F0.00625
sVui
p243
F0.00625
sg21
F0.00625
sg59
F0.00625
sg51
F0.0125
sg184
F0.00625
sVeoqb
p244
F0.00625
sVo~i=b
p245
F0.00625
sV``
p246
F0.00625
sVa~c
p247
F0.00625
sVa~cz
p248
F0.00625
sVwi
p249
F0.00625
sVb*v
p250
F0.00625
sVol
p251
F0.0125
sVoti=b
p252
F0.00625
sVfi
p253
F0.00625
sg36
F0.00625
sg35
F0.00625
sVT-FLOAT
p254
F0.09375
sg58
F0.05
sV-~
p255
F0.00625
sg213
F0.025
sVa~c~
p256
F0.00625
sg62
F0.00625
sVi
p257
F0.00625
sVbev
p258
F0.0125
sV--
p259
F0.01875
sVy'~i__
p260
F0.00625
sV-*
p261
F0.00625
sVqa
p262
F0.00625
sg9
F0.0125
sg64
F0.04375
sVaec~
p263
F0.00625
sVu
p264
F0.01875
sg66
F0.0375
sVogwi
p265
F0.00625
sg68
F0.00625
sVy
p266
F0.00625
sV{
p267
F0.03125
sVz
p268
F0.01875
sV}
p269
F0.025
sg17
F0.05625
saa(lp270
S'J98-200582'
p271
a(dp272
Vand
p273
F0.02531645569620253
sVith
p274
F0.012658227848101266
sVai
p275
F0.012658227848101266
sVnumber
p276
F0.0379746835443038
sVinstances
p277
F0.0379746835443038
sVin
p278
F0.0379746835443038
sVgiven
p279
F0.012658227848101266
sVfor
p280
F0.012658227848101266
sg46
F0.0379746835443038
sg25
F0.0379746835443038
sV*
p281
F0.012658227848101266
sg7
F0.06329113924050633
sVfinally
p282
F0.012658227848101266
sg21
F0.02531645569620253
sg66
F0.012658227848101266
sVbe
p283
F0.0379746835443038
sVstring
p284
F0.02531645569620253
sVnabe
p285
F0.012658227848101266
sg68
F0.02531645569620253
sVcomponent
p286
F0.012658227848101266
sVlet
p287
F0.05063291139240506
sVthe
p288
F0.0759493670886076
sg58
F0.0759493670886076
sVnonroot
p289
F0.012658227848101266
sg213
F0.02531645569620253
sg62
F0.02531645569620253
sVof
p290
F0.08860759493670886
sVo~
p291
F0.02531645569620253
sg264
F0.012658227848101266
sVoz
p292
F0.012658227848101266
sg67
F0.05063291139240506
sVeach
p293
F0.012658227848101266
sVT-FLOAT
p294
F0.02531645569620253
saa(lp295
S'J98-200581'
p296
a(dp297
Vterminate
p298
F0.045454545454545456
sVwe
p299
F0.045454545454545456
sg46
F0.045454545454545456
sg213
F0.045454545454545456
sVderivation
p300
F0.045454545454545456
sVthat
p301
F0.045454545454545456
sg257
F0.045454545454545456
sg25
F0.045454545454545456
sVshow
p302
F0.045454545454545456
sVwith
p303
F0.045454545454545456
sVqs
p304
F0.045454545454545456
sVtrees
p305
F0.045454545454545456
sg7
F0.045454545454545456
sVwill
p306
F0.045454545454545456
sVT-INT
p307
F0.045454545454545456
sg64
F0.045454545454545456
sValways
p308
F0.045454545454545456
sVT-FLOAT
p309
F0.13636363636363635
sg51
F0.045454545454545456
sVrooted
p310
F0.045454545454545456
saa(lp311
S'J98-200580'
p312
a(dp313
g58
F0.043478260869565216
sVfails
p314
F0.043478260869565216
sVrooted
p315
F0.043478260869565216
sVderivation
p316
F0.043478260869565216
sg9
F0.043478260869565216
sg46
F0.08695652173913043
sg25
F0.08695652173913043
sVtree
p317
F0.043478260869565216
sVterminate
p318
F0.043478260869565216
sVqa
p319
F0.043478260869565216
sVT-INT
p320
F0.043478260869565216
sVlet
p321
F0.043478260869565216
sVT-FLOAT
p322
F0.043478260869565216
sVtheorem
p323
F0.043478260869565216
sV~b
p324
F0.043478260869565216
sVproof
p325
F0.043478260869565216
sg51
F0.08695652173913043
sVwith
p326
F0.043478260869565216
sVto
p327
F0.043478260869565216
sg17
F0.043478260869565216
saa(lp328
S'J98-200587'
p329
a(dp330
Vem
p331
F0.022222222222222223
sVand
p332
F0.022222222222222223
sVthen
p333
F0.022222222222222223
sVvn
p334
F0.022222222222222223
sVsystem
p335
F0.022222222222222223
sVproduced
p336
F0.022222222222222223
sVproductions
p337
F0.044444444444444446
sVT-FLOAT
p338
F0.022222222222222223
sVnull
p339
F0.022222222222222223
sVunit
p340
F0.022222222222222223
sVif
p341
F0.022222222222222223
sVno
p342
F0.044444444444444446
sVprobabilities
p343
F0.022222222222222223
sg25
F0.022222222222222223
sVcontains
p344
F0.022222222222222223
sg7
F0.06666666666666667
sVT-INT
p345
F0.044444444444444446
sg59
F0.022222222222222223
sg51
F0.022222222222222223
sg95
F0.022222222222222223
sVbe
p346
F0.022222222222222223
sVf~
p347
F0.022222222222222223
sVnth
p348
F0.022222222222222223
sVcorollary
p349
F0.022222222222222223
sVlet
p350
F0.022222222222222223
sg36
F0.022222222222222223
sVnow
p351
F0.022222222222222223
sg35
F0.022222222222222223
sVby
p352
F0.022222222222222223
sValgorithm
p353
F0.022222222222222223
sVof
p354
F0.044444444444444446
sViteration
p355
F0.022222222222222223
sg46
F0.022222222222222223
sg65
F0.022222222222222223
sVthe
p356
F0.06666666666666667
sg17
F0.044444444444444446
saa(lp357
S'J98-200586'
p358
a(dp359
Vqs
p360
F0.08333333333333333
sVof
p361
F0.08333333333333333
sVcompleting
p362
F0.08333333333333333
sg7
F0.08333333333333333
sVT-INT
p363
F0.08333333333333333
sVtheorem
p364
F0.08333333333333333
sVhence
p365
F0.08333333333333333
sVthe
p366
F0.16666666666666666
sg51
F0.08333333333333333
sVT-FLOAT
p367
F0.08333333333333333
sVproof
p368
F0.08333333333333333
saa(lp369
S'J98-200565'
p370
a(dp371
V'~ol
p372
F0.004739336492890996
sVep~f
p373
F0.004739336492890996
sV~-~y
p374
F0.004739336492890996
sVletting
p375
F0.004739336492890996
sg25
F0.07582938388625593
sg7
F0.061611374407582936
sVlw
p376
F0.009478672985781991
sVunder
p377
F0.004739336492890996
sV-~
p378
F0.004739336492890996
sVhope
p379
F0.004739336492890996
sVglobal
p380
F0.004739336492890996
sVmeans
p381
F0.004739336492890996
sVexpectation
p382
F0.004739336492890996
sVewefly
p383
F0.004739336492890996
sV--
p384
F0.009478672985781991
sVh
p385
F0.009478672985781991
sVsolution
p386
F0.004739336492890996
sVmaximum-likelihood
p387
F0.004739336492890996
sg9
F0.018957345971563982
sVturns
p388
F0.004739336492890996
sVwhere
p389
F0.009478672985781991
sV~ei=iepv
p390
F0.004739336492890996
sVapproaching
p391
F0.004739336492890996
sg59
F0.004739336492890996
sVe~
p392
F0.004739336492890996
sVare
p393
F0.004739336492890996
sVa-~
p394
F0.004739336492890996
sVi=
p395
F0.004739336492890996
sVa-T-FLOAT
p396
F0.004739336492890996
sVer
p397
F0.004739336492890996
sVguarantees
p398
F0.004739336492890996
sV'
p399
F0.004739336492890996
sV+
p400
F0.004739336492890996
sV/
p401
F0.004739336492890996
sVdoes
p402
F0.004739336492890996
sVclosed
p403
F0.004739336492890996
sg21
F0.018957345971563982
sVbe
p404
F0.004739336492890996
sVclimbs
p405
F0.004739336492890996
sVarbitrary
p406
F0.004739336492890996
sVwi
p407
F0.004739336492890996
sVlet
p408
F0.004739336492890996
sVlikelihood
p409
F0.009478672985781991
sVon
p410
F0.004739336492890996
sVabout
p411
F0.004739336492890996
sVof
p412
F0.004739336492890996
sVo~
p413
F0.004739336492890996
sVconditioned
p414
F0.004739336492890996
sV-~o~
p415
F0.004739336492890996
sg267
F0.004739336492890996
sV~il
p416
F0.004739336492890996
sVcr
p417
F0.004739336492890996
sVei=l
p418
F0.004739336492890996
sVT-INT
p419
F0.03317535545023697
sVfl
p420
F0.009478672985781991
sVthere
p421
F0.009478672985781991
sVcorpus
p422
F0.004739336492890996
sVscheme
p423
F0.004739336492890996
sV``
p424
F0.018957345971563982
sVform
p425
F0.004739336492890996
sVbecomes
p426
F0.009478672985781991
sVbut
p427
F0.004739336492890996
sVe~-~y
p428
F0.004739336492890996
sVb_~
p429
F0.004739336492890996
sVan
p430
F0.009478672985781991
sVb
p431
F0.018957345971563982
sg62
F0.009478672985781991
sVi-i
p432
F0.004739336492890996
sVequation
p433
F0.004739336492890996
sViteration
p434
F0.004739336492890996
sVmaximum
p435
F0.004739336492890996
sg89
F0.004739336492890996
sVT-FLOAT
p436
F0.009478672985781991
sg17
F0.02843601895734597
sVand
p437
F0.009478672985781991
sV~y
p438
F0.014218009478672985
sVrespecting
p439
F0.004739336492890996
sVis
p440
F0.009478672985781991
sV~s
p441
F0.004739336492890996
sVit
p442
F0.004739336492890996
sVsurface
p443
F0.004739336492890996
sVdenote
p444
F0.004739336492890996
sV''
p445
F0.023696682464454975
sV~i
p446
F0.004739336492890996
sVas
p447
F0.004739336492890996
sVa~
p448
F0.004739336492890996
sVno
p449
F0.009478672985781991
sg46
F0.06635071090047394
sVsuggest
p450
F0.004739336492890996
sVefk
p451
F0.004739336492890996
sVwhich
p452
F0.004739336492890996
sVout
p453
F0.004739336492890996
sg51
F0.014218009478672985
sVft
p454
F0.004739336492890996
sg67
F0.018957345971563982
sVthough
p455
F0.004739336492890996
sVassignment
p456
F0.004739336492890996
sVfi
p457
F0.004739336492890996
sg35
F0.014218009478672985
sg58
F0.03317535545023697
sg213
F0.02843601895734597
sVfor
p458
F0.004739336492890996
sV~oe~y
p459
F0.004739336492890996
sg266
F0.009478672985781991
sVthe
p460
F0.018957345971563982
sg269
F0.004739336492890996
saa(lp461
S'J98-200564'
p462
a(dp463
Vstolcke
p464
F0.038461538461538464
sVrestriction
p465
F0.038461538461538464
sVis
p466
F0.038461538461538464
sVresults
p467
F0.038461538461538464
sVlikely
p468
F0.038461538461538464
sVhave
p469
F0.038461538461538464
sVbased
p470
F0.038461538461538464
sVpursued
p471
F0.038461538461538464
sg7
F0.038461538461538464
sVT-INT
p472
F0.038461538461538464
sVbe
p473
F0.038461538461538464
sVwe
p474
F0.038461538461538464
sVthat
p475
F0.038461538461538464
sVrelaxed
p476
F0.038461538461538464
sVupon
p477
F0.038461538461538464
sVbut
p478
F0.038461538461538464
sVit
p479
F0.038461538461538464
sVnot
p480
F0.038461538461538464
sg36
F0.038461538461538464
sg35
F0.038461538461538464
sVT-FLOAT
p481
F0.038461538461538464
sVthis
p482
F0.07692307692307693
sVof
p483
F0.038461538461538464
sVcan
p484
F0.038461538461538464
sVthe
p485
F0.038461538461538464
saa(lp486
S'J98-200567'
p487
a(dp488
g46
F0.07692307692307693
sVefficient
p489
F0.07692307692307693
sg25
F0.07692307692307693
sVbaker
p490
F0.07692307692307693
sVsee
p491
F0.07692307692307693
sVT-INT
p492
F0.07692307692307693
sVapproaches
p493
F0.07692307692307693
sVexist
p494
F0.07692307692307693
sVT-FLOAT
p495
F0.07692307692307693
sg21
F0.07692307692307693
sg35
F0.07692307692307693
sg36
F0.07692307692307693
sVmore
p496
F0.07692307692307693
saa(lp497
S'J98-200566'
p498
a(dp499
Vall
p500
F0.011235955056179775
sVsequence
p501
F0.011235955056179775
sVis
p502
F0.011235955056179775
sViw
p503
F0.011235955056179775
sV''
p504
F0.011235955056179775
sVas
p505
F0.02247191011235955
sVe~
p506
F0.02247191011235955
sV~n
p507
F0.011235955056179775
sVay
p508
F0.011235955056179775
sV~a
p509
F0.011235955056179775
sVT-FLOAT
p510
F0.011235955056179775
sVer
p511
F0.011235955056179775
sV~i'=
p512
F0.011235955056179775
sVwliw
p513
F0.011235955056179775
sVprobabilities
p514
F0.011235955056179775
sg25
F0.06741573033707865
sVsentence
p515
F0.011235955056179775
sg35
F0.02247191011235955
sg7
F0.0898876404494382
sVlong
p516
F0.011235955056179775
sVT-INT
p517
F0.033707865168539325
sg21
F0.02247191011235955
sg51
F0.02247191011235955
sVparses
p518
F0.011235955056179775
sVdefine
p519
F0.011235955056179775
sVfly
p520
F0.011235955056179775
sVwe
p521
F0.011235955056179775
sVmanageably
p522
F0.011235955056179775
sVpossible
p523
F0.011235955056179775
sVcompute
p524
F0.011235955056179775
sg36
F0.02247191011235955
sVmanageable
p525
F0.011235955056179775
sVfl
p526
F0.02247191011235955
sVby
p527
F0.011235955056179775
sg58
F0.033707865168539325
sg431
F0.033707865168539325
sg213
F0.02247191011235955
sVd
p528
F0.011235955056179775
sg62
F0.02247191011235955
sV~n+i
p529
F0.011235955056179775
sVof
p530
F0.02247191011235955
sViteration
p531
F0.011235955056179775
sVo
p532
F0.011235955056179775
sg46
F0.0449438202247191
sVright-hand
p533
F0.011235955056179775
sVcan
p534
F0.011235955056179775
sg67
F0.02247191011235955
sg266
F0.011235955056179775
sVthe
p535
F0.02247191011235955
sVside
p536
F0.011235955056179775
sg17
F0.06741573033707865
saa(lp537
S'J98-200561'
p538
a(dp539
V&
p540
F0.07692307692307693
sg46
F0.07692307692307693
sVT-FLOAT
p541
F0.15384615384615385
sVullman
p542
F0.07692307692307693
sVhopcroft
p543
F0.07692307692307693
sVT-INT
p544
F0.23076923076923078
sVtheorem
p545
F0.07692307692307693
sg36
F0.07692307692307693
sg35
F0.07692307692307693
sg7
F0.07692307692307693
saa(lp546
S'J98-200560'
p547
a(dp548
Vand
p549
F0.024390243902439025
sVis
p550
F0.024390243902439025
sVcf
p551
F0.024390243902439025
sVone
p552
F0.024390243902439025
sVproductions
p553
F0.04878048780487805
sVnull
p554
F0.04878048780487805
sVunit
p555
F0.024390243902439025
sVif
p556
F0.024390243902439025
sVno
p557
F0.04878048780487805
sg46
F0.024390243902439025
sg25
F0.04878048780487805
sVthere
p558
F0.024390243902439025
sg7
F0.07317073170731707
sVsame
p559
F0.024390243902439025
sVdoes
p560
F0.024390243902439025
sVinclude
p561
F0.024390243902439025
sVthen
p562
F0.024390243902439025
sVstring
p563
F0.024390243902439025
sVthat
p564
F0.024390243902439025
sVequivalent
p565
F0.024390243902439025
sVhowever
p566
F0.024390243902439025
sVnot
p567
F0.024390243902439025
sVan
p568
F0.024390243902439025
sVwith
p569
F0.024390243902439025
sVT-FLOAT
p570
F0.024390243902439025
sVhas
p571
F0.024390243902439025
sVgrammar
p572
F0.04878048780487805
sVlanguage
p573
F0.04878048780487805
sVof
p574
F0.024390243902439025
sVthe
p575
F0.0975609756097561
saa(lp576
S'J98-200563'
p577
a(dp578
Vand
p579
F0.05714285714285714
sVtightness
p580
F0.02857142857142857
sVproductions
p581
F0.02857142857142857
sVconsists
p582
F0.02857142857142857
sVT-FLOAT
p583
F0.02857142857142857
sVnull
p584
F0.02857142857142857
sVunit
p585
F0.02857142857142857
sVestimated
p586
F0.02857142857142857
sVfor
p587
F0.02857142857142857
sVprobabilities
p588
F0.02857142857142857
sVwhen
p589
F0.02857142857142857
sg7
F0.08571428571428572
sVonly
p590
F0.02857142857142857
sVpriori
p591
F0.02857142857142857
sVtherefore
p592
F0.02857142857142857
sVunder
p593
F0.02857142857142857
sVcorpus
p594
F0.02857142857142857
sVwe
p595
F0.02857142857142857
sVshall
p596
F0.02857142857142857
sVfree
p597
F0.02857142857142857
sVsuch
p598
F0.02857142857142857
sVthe
p599
F0.02857142857142857
sg58
F0.08571428571428572
sVassume
p600
F0.02857142857142857
sVof
p601
F0.05714285714285714
sVstudy
p602
F0.02857142857142857
sVyields
p603
F0.02857142857142857
sVmodel
p604
F0.05714285714285714
saa(lp605
S'J98-200562'
p606
a(dp607
Vthen
p608
F0.045454545454545456
sVthere
p609
F0.045454545454545456
sVsimplify
p610
F0.045454545454545456
sVperhaps
p611
F0.045454545454545456
sVT-FLOAT
p612
F0.045454545454545456
sVis
p613
F0.045454545454545456
sVthat
p614
F0.045454545454545456
sVit
p615
F0.045454545454545456
sg7
F0.09090909090909091
sVunit
p616
F0.045454545454545456
sVto
p617
F0.045454545454545456
sVor
p618
F0.045454545454545456
sVproductions
p619
F0.045454545454545456
sVtreatment
p620
F0.045454545454545456
sVassuming
p621
F0.045454545454545456
sVno
p622
F0.045454545454545456
sVthe
p623
F0.045454545454545456
sVnull
p624
F0.045454545454545456
sVby
p625
F0.045454545454545456
sVbest
p626
F0.045454545454545456
sVare
p627
F0.045454545454545456
saa(lp628
S'J98-200569'
p629
a(dp630
Vand
p631
F0.029411764705882353
sVit
p632
F0.058823529411764705
sVaddressed
p633
F0.029411764705882353
sVT-FLOAT
p634
F0.029411764705882353
sVfor
p635
F0.058823529411764705
sVT-INT
p636
F0.058823529411764705
sg46
F0.058823529411764705
sg25
F0.058823529411764705
sVcontext-free
p637
F0.029411764705882353
sVto
p638
F0.029411764705882353
sVhidden
p639
F0.029411764705882353
sVextended
p640
F0.029411764705882353
sVmodels
p641
F0.029411764705882353
sVbaum
p642
F0.029411764705882353
sVproblem
p643
F0.029411764705882353
sVhere
p644
F0.029411764705882353
sVregular
p645
F0.029411764705882353
sg36
F0.058823529411764705
sg35
F0.058823529411764705
sVmarkov
p646
F0.029411764705882353
sVestimation
p647
F0.029411764705882353
sVbaker
p648
F0.029411764705882353
sVgrammars
p649
F0.058823529411764705
sVthe
p650
F0.029411764705882353
sVintroduced
p651
F0.029411764705882353
sVfirst
p652
F0.029411764705882353
saa(lp653
S'J98-200568'
p654
a(dp655
Vem
p656
F0.09090909090909091
sValgorithm
p657
F0.09090909090909091
sVthis
p658
F0.09090909090909091
sVof
p659
F0.09090909090909091
sVis
p660
F0.09090909090909091
sViteration
p661
F0.09090909090909091
sVan
p662
F0.09090909090909091
sVinstance
p663
F0.09090909090909091
sVthe
p664
F0.09090909090909091
sVT-FLOAT
p665
F0.09090909090909091
sVprocedure
p666
F0.09090909090909091
saa(lp667
S'J98-20058'
p668
a(dp669
Vunexpected
p670
F0.041666666666666664
sVprobability
p671
F0.041666666666666664
sVless
p672
F0.041666666666666664
sVsimple
p673
F0.041666666666666664
sVinto
p674
F0.041666666666666664
sVone
p675
F0.041666666666666664
sVhave
p676
F0.041666666666666664
sVT-FLOAT
p677
F0.041666666666666664
sVcomplication
p678
F0.041666666666666664
sg7
F0.041666666666666664
sVby
p679
F0.041666666666666664
sg59
F0.041666666666666664
sVmay
p680
F0.041666666666666664
sVgenerated
p681
F0.041666666666666664
sVan
p682
F0.041666666666666664
sVthan
p683
F0.041666666666666664
sVruns
p684
F0.041666666666666664
sVgrammar
p685
F0.041666666666666664
sVunfortunately
p686
F0.041666666666666664
sVlanguage
p687
F0.041666666666666664
sVthis
p688
F0.041666666666666664
sVthe
p689
F0.08333333333333333
sVprocedure
p690
F0.041666666666666664
saa(lp691
S'J98-20059'
p692
a(dp693
Vprobability
p694
F0.04
sVis
p695
F0.04
sVsome
p696
F0.04
sVzero
p697
F0.04
sVhave
p698
F0.04
sVT-FLOAT
p699
F0.04
sVto
p700
F0.04
sVterminating
p701
F0.04
sVbe
p702
F0.04
sVinfinity
p703
F0.04
sVgreater
p704
F0.04
sVthat
p705
F0.04
sVmay
p706
F0.04
sVnever
p707
F0.04
sVreason
p708
F0.04
sVthan
p709
F0.04
sVderivation
p710
F0.04
sVlost
p711
F0.04
sV--
p712
F0.04
sVof
p713
F0.04
sVtree
p714
F0.04
sVmass
p715
F0.04
sVcan
p716
F0.04
sVthe
p717
F0.08
saa(lp718
S'J98-20052'
p719
a(dp720
Vfor
p721
F0.1111111111111111
sVrather
p722
F0.1111111111111111
sVassignment
p723
F0.1111111111111111
sVis
p724
F0.1111111111111111
sVproper
p725
F0.1111111111111111
sVsubtle
p726
F0.1111111111111111
sVthe
p727
F0.1111111111111111
sVT-FLOAT
p728
F0.1111111111111111
sVcondition
p729
F0.1111111111111111
saa(lp730
S'J98-20053'
p731
a(dp732
Vand
p733
F0.037037037037037035
sVis
p734
F0.037037037037037035
sg7
F0.037037037037037035
sVas
p735
F0.037037037037037035
sVsentences
p736
F0.037037037037037035
sVproper
p737
F0.037037037037037035
sVestimated
p738
F0.07407407407407407
sVparsed
p739
F0.037037037037037035
sVfrom
p740
F0.037037037037037035
sVprobabilities
p741
F0.037037037037037035
sVunparsed
p742
F0.037037037037037035
sVquestion
p743
F0.037037037037037035
sVsystem
p744
F0.037037037037037035
sVto
p745
F0.037037037037037035
sVproduction
p746
F0.037037037037037035
sVbe
p747
F0.037037037037037035
sVarises
p748
F0.037037037037037035
sVnot
p749
F0.037037037037037035
sVan
p750
F0.037037037037037035
sVT-FLOAT
p751
F0.037037037037037035
sVwhether
p752
F0.037037037037037035
sVcan
p753
F0.037037037037037035
sVthe
p754
F0.037037037037037035
sVor
p755
F0.07407407407407407
sVautomatically
p756
F0.037037037037037035
saa(lp757
S'J98-20051'
p758
a(dp759
Vall
p760
F0.034482758620689655
sVprobability
p761
F0.034482758620689655
sVless
p762
F0.034482758620689655
sVis
p763
F0.034482758620689655
sVan
p764
F0.034482758620689655
sVparse
p765
F0.034482758620689655
sVproductions
p766
F0.034482758620689655
sVT-FLOAT
p767
F0.034482758620689655
sVprobabilities
p768
F0.034482758620689655
sVcontext-free
p769
F0.034482758620689655
sVgenerate
p770
F0.034482758620689655
sVto
p771
F0.034482758620689655
sVfinite
p772
F0.034482758620689655
sVthan
p773
F0.034482758620689655
sVmay
p774
F0.034482758620689655
sVassignment
p775
F0.034482758620689655
sVtrees
p776
F0.034482758620689655
sVone
p777
F0.034482758620689655
sVthe
p778
F0.10344827586206896
sg58
F0.034482758620689655
sVimproper
p779
F0.034482758620689655
sg59
F0.034482758620689655
sVgrammar
p780
F0.034482758620689655
sVof
p781
F0.10344827586206896
sVdistribution
p782
F0.034482758620689655
saa(lp783
S'J98-20056'
p784
a(dp785
Vprobability
p786
F0.023809523809523808
sVcfg
p787
F0.047619047619047616
sVparse
p788
F0.023809523809523808
sVrendering
p789
F0.023809523809523808
sVthrough
p790
F0.023809523809523808
sVare
p791
F0.023809523809523808
sVchoosing
p792
F0.023809523809523808
sVT-FLOAT
p793
F0.023809523809523808
sVpcfg
p794
F0.023809523809523808
sVmake
p795
F0.023809523809523808
sVprobable
p796
F0.023809523809523808
sVfit
p797
F0.023809523809523808
sg46
F0.023809523809523808
sg25
F0.023809523809523808
sVfurthermore
p798
F0.023809523809523808
sg7
F0.047619047619047616
sVlanguages
p799
F0.023809523809523808
sVto
p800
F0.023809523809523808
sVposteriori
p801
F0.023809523809523808
sVreadily
p802
F0.023809523809523808
sVthem
p803
F0.023809523809523808
sV's
p804
F0.07142857142857142
sVwith
p805
F0.023809523809523808
sVmost
p806
F0.023809523809523808
sVprobabilistic
p807
F0.023809523809523808
sVthe
p808
F0.047619047619047616
sg58
F0.047619047619047616
sVambiguous
p809
F0.023809523809523808
sVfor
p810
F0.023809523809523808
sV--
p811
F0.023809523809523808
sVof
p812
F0.023809523809523808
sVmaximum
p813
F0.023809523809523808
sVrule
p814
F0.023809523809523808
sVdistribution
p815
F0.023809523809523808
sVsuitable
p816
F0.023809523809523808
sVor
p817
F0.023809523809523808
saa(lp818
S'J98-20057'
p819
a(dp820
g58
F0.05263157894736842
sVon
p821
F0.05263157894736842
sVall
p822
F0.05263157894736842
sVset
p823
F0.05263157894736842
sVfrom
p824
F0.05263157894736842
sVprobability
p825
F0.05263157894736842
sVfor
p826
F0.05263157894736842
sVthat
p827
F0.05263157894736842
sVof
p828
F0.05263157894736842
sVsymbol
p829
F0.10526315789473684
sg7
F0.05263157894736842
sVplaced
p830
F0.05263157894736842
sVproductions
p831
F0.05263157894736842
sVT-FLOAT
p832
F0.05263157894736842
sVeach
p833
F0.05263157894736842
sVthe
p834
F0.05263157894736842
sVis
p835
F0.05263157894736842
sVnonterminal
p836
F0.05263157894736842
saa(lp837
S'J98-20054'
p838
a(dp839
Vwe
p840
F0.08333333333333333
sVthat
p841
F0.08333333333333333
sVprobabilities
p842
F0.08333333333333333
sValways
p843
F0.08333333333333333
sVshow
p844
F0.08333333333333333
sVhere
p845
F0.08333333333333333
sVproduction
p846
F0.08333333333333333
sVyield
p847
F0.08333333333333333
sVproper
p848
F0.08333333333333333
sVT-FLOAT
p849
F0.08333333333333333
sVestimated
p850
F0.08333333333333333
sVdistributions
p851
F0.08333333333333333
saa(lp852
S'J98-20055'
p853
a(dp854
Vand
p855
F0.041666666666666664
sVbecause
p856
F0.08333333333333333
sV's
p857
F0.041666666666666664
sg46
F0.041666666666666664
sg25
F0.041666666666666664
sVT-FLOAT
p858
F0.041666666666666664
sVof
p859
F0.125
sVcontext-free
p860
F0.041666666666666664
sVavailability
p861
F0.041666666666666664
sVtheir
p862
F0.041666666666666664
sVgrammars
p863
F0.041666666666666664
sVefficient
p864
F0.041666666666666664
sValgorithms
p865
F0.041666666666666664
sVare
p866
F0.041666666666666664
sVcoverage
p867
F0.041666666666666664
sVcfg
p868
F0.041666666666666664
sVuseful
p869
F0.041666666666666664
sVthe
p870
F0.041666666666666664
sVparsing
p871
F0.041666666666666664
sVbroad
p872
F0.041666666666666664
sVrelatively
p873
F0.041666666666666664
saa(lp874
S'J98-2005101'
p875
a(dp876
VT-INT
p877
F0.5
sVT-FLOAT
p878
F0.5
saa(lp879
S'J98-2005100'
p880
a(dp881
Vand
p882
F0.10526315789473684
sVfoundation
p883
F0.05263157894736842
sVoffice
p884
F0.05263157894736842
sVdempster
p885
F0.05263157894736842
sVlaird
p886
F0.05263157894736842
sg7
F0.21052631578947367
sg89
F0.05263157894736842
sVrubin
p887
F0.05263157894736842
sg58
F0.05263157894736842
sVthe
p888
F0.05263157894736842
sVT-FLOAT
p889
F0.21052631578947367
sg528
F0.05263157894736842
saa(lp890
S'J98-2005103'
p891
a(dp892
Vem
p893
F0.1
sVvia
p894
F0.1
sVfrom
p895
F0.1
sValgorithm
p896
F0.1
sVdata
p897
F0.1
sVmaximum
p898
F0.1
sVthe
p899
F0.1
sVlikelihood
p900
F0.1
sVT-FLOAT
p901
F0.1
sVincomplete
p902
F0.1
saa(lp903
S'J98-2005102'
p904
a(dp905
Vnaval
p906
F0.1111111111111111
sg46
F0.1111111111111111
sg25
F0.1111111111111111
sg89
F0.1111111111111111
sVT-INT
p907
F0.2222222222222222
sVof
p908
F0.1111111111111111
sVT-FLOAT
p909
F0.1111111111111111
sVresearch
p910
F0.1111111111111111
saa(lp911
S'J98-2005104'
p912
a(dp913
g431
F0.07142857142857142
sVT-INT
p914
F0.14285714285714285
sVof
p915
F0.07142857142857142
sVjournal
p916
F0.07142857142857142
sVroyal
p917
F0.07142857142857142
sg7
F0.14285714285714285
sVsociety
p918
F0.07142857142857142
sVstatistical
p919
F0.07142857142857142
sVseries
p920
F0.07142857142857142
sVthe
p921
F0.07142857142857142
sg59
F0.07142857142857142
sVT-FLOAT
p922
F0.07142857142857142
saa(lp923
S'J98-200558'
p924
a(dp925
Vset
p926
F0.020833333333333332
sVprobability
p927
F0.020833333333333332
sVmarginal
p928
F0.020833333333333332
sVover
p929
F0.020833333333333332
sVsubstantially
p930
F0.020833333333333332
sVneed
p931
F0.020833333333333332
sg399
F0.020833333333333332
sg46
F0.08333333333333333
sg25
F0.08333333333333333
sVsum
p932
F0.020833333333333332
sVsince
p933
F0.020833333333333332
sg7
F0.020833333333333332
sVto
p934
F0.020833333333333332
sVcomplex
p935
F0.020833333333333332
sg21
F0.020833333333333332
sg59
F0.020833333333333332
sg51
F0.020833333333333332
sVis
p936
F0.041666666666666664
sVmore
p937
F0.020833333333333332
sVwe
p938
F0.020833333333333332
sVthat
p939
F0.020833333333333332
sVf~
p940
F0.020833333333333332
sVnow
p941
F0.020833333333333332
sVlikelihood
p942
F0.020833333333333332
sVT-FLOAT
p943
F0.020833333333333332
sg58
F0.020833333333333332
sg213
F0.041666666666666664
sVof
p944
F0.020833333333333332
sVyield
p945
F0.020833333333333332
sg9
F0.0625
sg67
F0.041666666666666664
sg266
F0.08333333333333333
sVthe
p946
F0.041666666666666664
saa(lp947
S'J98-200550'
p948
a(dp949
Vand
p950
F0.024390243902439025
sVall
p951
F0.024390243902439025
sVset
p952
F0.024390243902439025
sVprobability
p953
F0.024390243902439025
sVshow
p954
F0.024390243902439025
sVis
p955
F0.04878048780487805
sVparse
p956
F0.024390243902439025
sVT-FLOAT
p957
F0.024390243902439025
sVif
p958
F0.04878048780487805
sVprobabilities
p959
F0.024390243902439025
sg25
F0.024390243902439025
sg7
F0.04878048780487805
sVT-INT
p960
F0.024390243902439025
sVproduction
p961
F0.024390243902439025
sVunder
p962
F0.024390243902439025
sg51
F0.024390243902439025
sVca
p963
F0.024390243902439025
sVthen
p964
F0.024390243902439025
sVwe
p965
F0.024390243902439025
sVthat
p966
F0.024390243902439025
sVf~
p967
F0.07317073170731707
sVgenerated
p968
F0.024390243902439025
sVtrees
p969
F0.024390243902439025
sVff
p970
F0.024390243902439025
sVfi
p971
F0.024390243902439025
sVfl
p972
F0.024390243902439025
sVby
p973
F0.024390243902439025
sg61
F0.024390243902439025
sVof
p974
F0.04878048780487805
sVmaximum-likelihood
p975
F0.024390243902439025
sVwill
p976
F0.024390243902439025
sg46
F0.024390243902439025
sVthe
p977
F0.07317073170731707
saa(lp978
S'J98-200551'
p979
a(dp980
Vthe
p981
F0.047619047619047616
sg431
F0.09523809523809523
sVfrom
p982
F0.047619047619047616
sVconsider
p983
F0.047619047619047616
sVparent
p984
F0.047619047619047616
sVsequence
p985
F0.047619047619047616
sVof
p986
F0.09523809523809523
sVthat
p987
F0.047619047619047616
sVleads
p988
F0.047619047619047616
sVT-INT
p989
F0.047619047619047616
sg64
F0.047619047619047616
sVproductions
p990
F0.047619047619047616
sVarose
p991
F0.047619047619047616
sVin
p992
F0.047619047619047616
sVT-FLOAT
p993
F0.09523809523809523
sVany
p994
F0.047619047619047616
sVto
p995
F0.047619047619047616
sVif
p996
F0.047619047619047616
saa(lp997
S'J98-200552'
p998
a(dp999
Vand
p1000
F0.05263157894736842
sVthen
p1001
F0.05263157894736842
sVlast
p1002
F0.05263157894736842
sVprobability
p1003
F0.10526315789473684
sVsequence
p1004
F0.05263157894736842
sg7
F0.05263157894736842
sVsample
p1005
F0.05263157894736842
sVzero
p1006
F0.10526315789473684
sVproduction
p1007
F0.05263157894736842
sVhence
p1008
F0.05263157894736842
sVthe
p1009
F0.15789473684210525
sVhas
p1010
F0.10526315789473684
sVT-FLOAT
p1011
F0.05263157894736842
sg17
F0.05263157894736842
saa(lp1012
S'J98-200553'
p1013
a(dp1014
Vsequence
p1015
F0.03225806451612903
sVis
p1016
F0.03225806451612903
sVmove
p1017
F0.03225806451612903
sVsample
p1018
F0.03225806451612903
sVvariable
p1019
F0.03225806451612903
sVthrough
p1020
F0.03225806451612903
sVin
p1021
F0.06451612903225806
sVcertainly
p1022
F0.03225806451612903
sVancestors
p1023
F0.03225806451612903
sg46
F0.03225806451612903
sg25
F0.03225806451612903
sg7
F0.03225806451612903
sVfinding
p1024
F0.03225806451612903
sVuntil
p1025
F0.03225806451612903
sV``
p1026
F0.03225806451612903
sVrepresented
p1027
F0.06451612903225806
sVs-to-b
p1028
F0.03225806451612903
sVT-FLOAT
p1029
F0.03225806451612903
sV''
p1030
F0.03225806451612903
sg431
F0.03225806451612903
sVof
p1031
F0.03225806451612903
sVup
p1032
F0.03225806451612903
sg64
F0.03225806451612903
sVthe
p1033
F0.12903225806451613
sVotherwise
p1034
F0.03225806451612903
sVfirst
p1035
F0.03225806451612903
saa(lp1036
S'J98-200554'
p1037
a(dp1038
Vand
p1039
F0.045454545454545456
sVgiven
p1040
F0.045454545454545456
sVhas/
p1041
F0.045454545454545456
sVfrom
p1042
F0.045454545454545456
sVT-INT
p1043
F0.045454545454545456
sVprobability
p1044
F0.045454545454545456
sVthat
p1045
F0.09090909090909091
sVT-FLOAT
p1046
F0.045454545454545456
sVconclude
p1047
F0.045454545454545456
sVsequence
p1048
F0.045454545454545456
sg7
F0.045454545454545456
sVsame
p1049
F0.045454545454545456
sVto
p1050
F0.045454545454545456
sVzero
p1051
F0.045454545454545456
sVproduction
p1052
F0.045454545454545456
sVvariable
p1053
F0.045454545454545456
sVapply
p1054
F0.045454545454545456
sVthe
p1055
F0.13636363636363635
sVreasoning
p1056
F0.045454545454545456
saa(lp1057
S'J98-200555'
p1058
a(dp1059
Vem
p1060
F0.07142857142857142
sVlinguistics
p1061
F0.07142857142857142
sVcomputational
p1062
F0.07142857142857142
sValgorithm
p1063
F0.07142857142857142
sVnumber
p1064
F0.07142857142857142
sg7
F0.07142857142857142
sVvolume
p1065
F0.07142857142857142
sVT-INT
p1066
F0.2857142857142857
sVT-FLOAT
p1067
F0.14285714285714285
sVthe
p1068
F0.07142857142857142
saa(lp1069
S'J98-200556'
p1070
a(dp1071
Vcontains
p1072
F0.047619047619047616
sVderivation
p1073
F0.047619047619047616
sV--
p1074
F0.047619047619047616
sVT-FLOAT
p1075
F0.047619047619047616
sVunobserved
p1076
F0.047619047619047616
sg7
F0.14285714285714285
sVtrees
p1077
F0.047619047619047616
sVsample
p1078
F0.047619047619047616
sg266
F0.09523809523809523
sVonly
p1079
F0.047619047619047616
sVyields
p1080
F0.047619047619047616
sVare
p1081
F0.047619047619047616
sVusually
p1082
F0.047619047619047616
sVthe
p1083
F0.14285714285714285
sVor
p1084
F0.047619047619047616
sVcorpus
p1085
F0.047619047619047616
saa(lp1086
S'J98-200557'
p1087
a(dp1088
g46
F0.07142857142857142
sg213
F0.07142857142857142
sVfor
p1089
F0.07142857142857142
sg257
F0.07142857142857142
sg25
F0.07142857142857142
sg89
F0.07142857142857142
sVT-INT
p1090
F0.07142857142857142
sVt*
p1091
F0.07142857142857142
sVeach
p1092
F0.07142857142857142
sg266
F0.14285714285714285
sVT-FLOAT
p1093
F0.07142857142857142
sg184
F0.14285714285714285
saa(lp1094
S'J98-200549'
p1095
a(dp1096
Vtightness
p1097
F0.02564102564102564
sVprobability
p1098
F0.02564102564102564
sVis
p1099
F0.07692307692307693
sVhard
p1100
F0.02564102564102564
sVit
p1101
F0.02564102564102564
sV~ence
p1102
F0.02564102564102564
sVsee
p1103
F0.02564102564102564
sVin
p1104
F0.02564102564102564
sVany
p1105
F0.05128205128205128
sVbased
p1106
F0.02564102564102564
sVfurthermore
p1107
F0.02564102564102564
sg7
F0.02564102564102564
sVto
p1108
F0.02564102564102564
sVhas
p1109
F0.02564102564102564
sVissue
p1110
F0.02564102564102564
sVindependent
p1111
F0.02564102564102564
sVprobabilitiesg
p1112
F0.02564102564102564
sVthat
p1113
F0.05128205128205128
sVassignment
p1114
F0.02564102564102564
sVupon
p1115
F0.02564102564102564
sVnot
p1116
F0.02564102564102564
sVsuch
p1117
F0.02564102564102564
sVT-FLOAT
p1118
F0.02564102564102564
sg431
F0.02564102564102564
sVderivation
p1119
F0.02564102564102564
sV--
p1120
F0.02564102564102564
sVof
p1121
F0.07692307692307693
sVzero
p1122
F0.02564102564102564
sVmaximum-likelihood
p1123
F0.02564102564102564
sVthis
p1124
F0.02564102564102564
sVthe
p1125
F0.05128205128205128
sVarising
p1126
F0.02564102564102564
saa(lp1127
S'J98-200548'
p1128
a(dp1129
g431
F0.05555555555555555
sV--
p1130
F0.05555555555555555
sVassignment
p1131
F0.05555555555555555
sVis
p1132
F0.05555555555555555
sVof
p1133
F0.05555555555555555
sVby
p1134
F0.05555555555555555
sg46
F0.05555555555555555
sg25
F0.05555555555555555
sVT-FLOAT
p1135
F0.05555555555555555
sVparticular
p1136
F0.05555555555555555
sVfi
p1137
F0.05555555555555555
sVthe
p1138
F0.1111111111111111
sVunaffected
p1139
F0.05555555555555555
sVlikelihood
p1140
F0.05555555555555555
sVevidently
p1141
F0.05555555555555555
sVfl
p1142
F0.05555555555555555
sg17
F0.05555555555555555
saa(lp1143
S'J98-200547'
p1144
a(dp1145
Varbitrarily
p1146
F0.05263157894736842
sVthen
p1147
F0.05263157894736842
sVwe
p1148
F0.05263157894736842
sg431
F0.05263157894736842
sVthat
p1149
F0.05263157894736842
sV--
p1150
F0.05263157894736842
sg25
F0.05263157894736842
sg400
F0.05263157894736842
sg7
F0.05263157894736842
sVrespected
p1151
F0.05263157894736842
sg46
F0.05263157894736842
sVonly
p1152
F0.05263157894736842
sVcan
p1153
F0.05263157894736842
sVT-FLOAT
p1154
F0.05263157894736842
sVrequiring
p1155
F0.05263157894736842
sVfi
p1156
F0.05263157894736842
sVbe
p1157
F0.05263157894736842
sVfl
p1158
F0.05263157894736842
sVassign
p1159
F0.05263157894736842
saa(lp1160
S'J98-200546'
p1161
a(dp1162
Vamong
p1163
F0.058823529411764705
sg431
F0.058823529411764705
sg213
F0.058823529411764705
sVcabc
p1164
F0.058823529411764705
sVis
p1165
F0.058823529411764705
sVunobserved
p1166
F0.058823529411764705
sg7
F0.11764705882352941
sVtrees
p1167
F0.058823529411764705
sVparse
p1168
F0.058823529411764705
sVT-INT
p1169
F0.058823529411764705
sVsuppose
p1170
F0.058823529411764705
sVcan
p1171
F0.058823529411764705
sg68
F0.058823529411764705
sVthe
p1172
F0.058823529411764705
sVT-FLOAT
p1173
F0.11764705882352941
saa(lp1174
S'J98-200545'
p1175
a(dp1176
V~i=lf
p1177
F0.018518518518518517
sVis
p1178
F0.018518518518518517
sVea
p1179
F0.018518518518518517
sg7
F0.037037037037037035
sVrelative
p1180
F0.018518518518518517
sVe~
p1181
F0.018518518518518517
sVfrequency
p1182
F0.018518518518518517
sVc~
p1183
F0.018518518518518517
sVb-~
p1184
F0.018518518518518517
sg46
F0.09259259259259259
sg25
F0.07407407407407407
sVcai
p1185
F0.037037037037037035
sVT-INT
p1186
F0.07407407407407407
sg21
F0.018518518518518517
sV~fl
p1187
F0.018518518518518517
sg51
F0.018518518518518517
sg184
F0.018518518518518517
sV``
p1188
F0.018518518518518517
sV~=lf
p1189
F0.018518518518518517
sV~/
p1190
F0.037037037037037035
sVthe
p1191
F0.037037037037037035
sV''
p1192
F0.018518518518518517
sg431
F0.05555555555555555
sVnatural
p1193
F0.018518518518518517
sV--
p1194
F0.05555555555555555
sg385
F0.018518518518518517
sVmaximum-likelihood
p1195
F0.018518518518518517
sV-+o
p1196
F0.018518518518518517
sg64
F0.018518518518518517
sVestimator
p1197
F0.037037037037037035
sg66
F0.018518518518518517
sVT-FLOAT
p1198
F0.05555555555555555
sg17
F0.018518518518518517
saa(lp1199
S'J98-200544'
p1200
a(dp1201
Vab
p1202
F0.02
sVca
p1203
F0.02
sVdenote
p1204
F0.02
sV=l
p1205
F0.02
sVT-FLOAT
p1206
F0.02
sg89
F0.02
sVsa
p1207
F0.02
sg46
F0.1
sg25
F0.08
sg400
F0.02
sVsince
p1208
F0.02
sg7
F0.02
sg401
F0.04
sVT-INT
p1209
F0.1
sg65
F0.02
sg21
F0.04
sg59
F0.02
sg51
F0.02
sVb+/
p1210
F0.02
sVfi
p1211
F0.04
sVfl
p1212
F0.02
sVby
p1213
F0.02
sg431
F0.04
sg213
F0.02
sg62
F0.02
sV--
p1214
F0.02
sV+/
p1215
F0.02
sVmaximum-likelihood
p1216
F0.02
sg64
F0.02
sVestimator
p1217
F0.02
sg68
F0.02
sVthe
p1218
F0.02
sVq~i=lf
p1219
F0.02
sg17
F0.04
saa(lp1220
S'J98-200542'
p1221
a(dp1222
Vand
p1223
F0.008264462809917356
sVset
p1224
F0.008264462809917356
sVlogp
p1225
F0.008264462809917356
sVca
p1226
F0.01652892561983471
sVl
p1227
F0.01652892561983471
sVparse
p1228
F0.008264462809917356
sVgrammars
p1229
F0.008264462809917356
sVfrequency
p1230
F0.008264462809917356
sVin
p1231
F0.01652892561983471
sVay
p1232
F0.008264462809917356
sVi=
p1233
F0.008264462809917356
sVmaximum-likelihood
p1234
F0.008264462809917356
sVdata
p1235
F0.008264462809917356
sV~f
p1236
F0.008264462809917356
sVer
p1237
F0.01652892561983471
sVgiven
p1238
F0.008264462809917356
sVlikelihood
p1239
F0.01652892561983471
sVlog
p1240
F0.008264462809917356
sVa~c~
p1241
F0.008264462809917356
sVto
p1242
F0.01652892561983471
sg46
F0.04132231404958678
sg25
F0.049586776859504134
sVsection
p1243
F0.008264462809917356
sVcontext-free
p1244
F0.008264462809917356
sg7
F0.05785123966942149
sVby
p1245
F0.008264462809917356
sVT-INT
p1246
F0.03305785123966942
sVdrawn
p1247
F0.008264462809917356
sg21
F0.01652892561983471
sVfinite
p1248
F0.008264462809917356
sg51
F0.01652892561983471
sVis
p1249
F0.01652892561983471
sVfunction
p1250
F0.008264462809917356
sVwe
p1251
F0.008264462809917356
sVterms
p1252
F0.008264462809917356
sVgeman
p1253
F0.008264462809917356
sVcal
p1254
F0.008264462809917356
sVdistribution
p1255
F0.008264462809917356
sVtrees
p1256
F0.008264462809917356
sVwish
p1257
F0.008264462809917356
sg17
F0.01652892561983471
sVa~
p1258
F0.008264462809917356
sVestimate
p1259
F0.008264462809917356
sVprobabilistic
p1260
F0.008264462809917356
sVthe
p1261
F0.06611570247933884
sVrecall
p1262
F0.008264462809917356
sg58
F0.04132231404958678
sVii
p1263
F0.01652892561983471
sVindependently
p1264
F0.008264462809917356
sg59
F0.01652892561983471
sVimposed
p1265
F0.008264462809917356
sVderivation
p1266
F0.008264462809917356
sg62
F0.008264462809917356
sV--
p1267
F0.008264462809917356
sVof
p1268
F0.049586776859504134
sVaccording
p1269
F0.008264462809917356
sg89
F0.01652892561983471
sg9
F0.04132231404958678
sVcai
p1270
F0.008264462809917356
sVestimator
p1271
F0.008264462809917356
sVcan
p1272
F0.008264462809917356
sVchi
p1273
F0.008264462809917356
sVcab
p1274
F0.008264462809917356
sVT-FLOAT
p1275
F0.03305785123966942
sVintroduced
p1276
F0.008264462809917356
sg400
F0.008264462809917356
sVcon
p1277
F0.008264462809917356
saa(lp1278
S'J98-200541'
p1279
a(dp1280
g64
F0.2
sVT-FLOAT
p1281
F0.4
sVore*
p1282
F0.2
sg66
F0.2
saa(lp1283
S'J98-200540'
p1284
a(dp1285
Vva
p1286
F0.02702702702702703
sVproductions
p1287
F0.02702702702702703
sVthrough
p1288
F0.02702702702702703
sVare
p1289
F0.02702702702702703
sVin
p1290
F0.02702702702702703
sVc~
p1291
F0.02702702702702703
sg46
F0.02702702702702703
sVprobabilities
p1292
F0.02702702702702703
sg25
F0.02702702702702703
sg7
F0.05405405405405406
sVT-INT
p1293
F0.08108108108108109
sVway
p1294
F0.02702702702702703
sg59
F0.08108108108108109
sg51
F0.02702702702702703
sVthat
p1295
F0.02702702702702703
sVusual
p1296
F0.02702702702702703
sVsuch
p1297
F0.02702702702702703
sg36
F0.02702702702702703
sg35
F0.02702702702702703
sVT-FLOAT
p1298
F0.02702702702702703
sg58
F0.02702702702702703
sV-~
p1299
F0.02702702702702703
sg213
F0.02702702702702703
sV--
p1300
F0.02702702702702703
sg9
F0.05405405405405406
sg65
F0.02702702702702703
sg68
F0.02702702702702703
sVthe
p1301
F0.05405405405405406
sVintroduced
p1302
F0.02702702702702703
sg17
F0.02702702702702703
saa(lp1303
S'J98-200538'
p1304
a(dp1305
g46
F0.05555555555555555
sVwe
p1306
F0.05555555555555555
sVprobabilities
p1307
F0.05555555555555555
sVto
p1308
F0.05555555555555555
sVwith
p1309
F0.05555555555555555
sg25
F0.05555555555555555
sVavoid
p1310
F0.05555555555555555
sVof
p1311
F0.05555555555555555
sVuse
p1312
F0.05555555555555555
sg9
F0.05555555555555555
sg65
F0.05555555555555555
sVplace
p1313
F0.05555555555555555
sVin
p1314
F0.05555555555555555
sVthe
p1315
F0.05555555555555555
sVtypical
p1316
F0.05555555555555555
sVconfusion
p1317
F0.05555555555555555
sVT-FLOAT
p1318
F0.05555555555555555
sVmore
p1319
F0.05555555555555555
saa(lp1320
S'J98-200539'
p1321
a(dp1322
g58
F0.1
sVand
p1323
F0.05
sVol
p1324
F0.05
sg213
F0.1
sVform
p1325
F0.05
sVo~
p1326
F0.05
sg281
F0.05
sVeach
p1327
F0.05
sg68
F0.05
sg7
F0.05
sVproduction
p1328
F0.05
sg65
F0.05
sVin
p1329
F0.05
sVthe
p1330
F0.05
sVhas
p1331
F0.05
sVwhere
p1332
F0.05
sVT-FLOAT
p1333
F0.05
sg17
F0.05
saa(lp1334
S'J98-200532'
p1335
a(dp1336
Vprobability
p1337
F0.16666666666666666
sVis
p1338
F0.16666666666666666
sVmaximum-likelihood
p1339
F0.16666666666666666
sVtight
p1340
F0.16666666666666666
sVthe
p1341
F0.16666666666666666
sVT-FLOAT
p1342
F0.16666666666666666
saa(lp1343
S'J98-200533'
p1344
a(dp1345
Vsequence
p1346
F0.05263157894736842
sg46
F0.10526315789473684
sg25
F0.10526315789473684
sVleft-to-right
p1347
F0.05263157894736842
sVterminals
p1348
F0.05263157894736842
sg532
F0.05263157894736842
sg7
F0.05263157894736842
sVT-INT
p1349
F0.05263157894736842
sVonly
p1350
F0.05263157894736842
sVyields
p1351
F0.05263157894736842
sVT-FLOAT
p1352
F0.05263157894736842
sVof
p1353
F0.05263157894736842
sg266
F0.10526315789473684
sVthe
p1354
F0.05263157894736842
sg21
F0.05263157894736842
sVif
p1355
F0.05263157894736842
saa(lp1356
S'J98-200530'
p1357
a(dp1358
Vaa
p1359
F0.045454545454545456
sg58
F0.13636363636363635
sVfor
p1360
F0.045454545454545456
sg62
F0.09090909090909091
sg46
F0.09090909090909091
sg25
F0.09090909090909091
sVwi
p1361
F0.045454545454545456
sVodi
p1362
F0.09090909090909091
sVT-FLOAT
p1363
F0.045454545454545456
sVeach
p1364
F0.045454545454545456
sVhence
p1365
F0.045454545454545456
sg21
F0.09090909090909091
sg184
F0.045454545454545456
sg17
F0.09090909090909091
saa(lp1366
S'J98-200537'
p1367
a(dp1368
Vand
p1369
F0.021739130434782608
sVset
p1370
F0.06521739130434782
sVgenerally
p1371
F0.021739130434782608
sVdenote
p1372
F0.021739130434782608
sg46
F0.043478260869565216
sg25
F0.043478260869565216
sVcontext-free
p1373
F0.021739130434782608
sg7
F0.15217391304347827
sVterminal
p1374
F0.021739130434782608
sVstart
p1375
F0.021739130434782608
sVproduction
p1376
F0.021739130434782608
sVfinite
p1377
F0.06521739130434782
sVmore
p1378
F0.021739130434782608
sVsymbol
p1379
F0.021739130434782608
sV-
p1380
F0.021739130434782608
sVlet
p1381
F0.021739130434782608
sVvariable
p1382
F0.021739130434782608
sg213
F0.021739130434782608
sVwith
p1383
F0.021739130434782608
sg58
F0.021739130434782608
sVgrammar
p1384
F0.021739130434782608
sg61
F0.021739130434782608
sVrule
p1385
F0.021739130434782608
sg64
F0.043478260869565216
sg65
F0.043478260869565216
sg66
F0.043478260869565216
sg68
F0.06521739130434782
sVT-FLOAT
p1386
F0.021739130434782608
sVor
p1387
F0.021739130434782608
saa(lp1388
S'J98-200534'
p1389
a(dp1390
Vem
p1391
F0.041666666666666664
sVsurface
p1392
F0.041666666666666664
sV''
p1393
F0.041666666666666664
sVsee
p1394
F0.041666666666666664
sVare
p1395
F0.041666666666666664
sVT-FLOAT
p1396
F0.041666666666666664
sVto
p1397
F0.041666666666666664
sg46
F0.041666666666666664
sg25
F0.041666666666666664
sVsection
p1398
F0.041666666666666664
sg7
F0.041666666666666664
sVT-INT
p1399
F0.041666666666666664
sViteratively
p1400
F0.041666666666666664
sVavailable
p1401
F0.041666666666666664
sVbe
p1402
F0.041666666666666664
sV``
p1403
F0.041666666666666664
sVused
p1404
F0.041666666666666664
sVlikelihood
p1405
F0.041666666666666664
sVclimb
p1406
F0.041666666666666664
sValgorithm
p1407
F0.041666666666666664
sVcan
p1408
F0.041666666666666664
sg266
F0.041666666666666664
sVthe
p1409
F0.08333333333333333
saa(lp1410
S'J98-200535'
p1411
a(dp1412
Vand
p1413
F0.03333333333333333
sVsimple
p1414
F0.03333333333333333
sVis
p1415
F0.03333333333333333
sVone
p1416
F0.03333333333333333
sVobserved
p1417
F0.03333333333333333
sVas
p1418
F0.03333333333333333
sVin
p1419
F0.06666666666666667
sVif
p1420
F0.03333333333333333
sVfor
p1421
F0.03333333333333333
sVhad
p1422
F0.03333333333333333
sg7
F0.03333333333333333
sVsame
p1423
F0.03333333333333333
sVconverges
p1424
F0.03333333333333333
sVwe
p1425
F0.03333333333333333
sVhere
p1426
F0.03333333333333333
sVstep
p1427
F0.03333333333333333
sVwi
p1428
F0.03333333333333333
sVT-FLOAT
p1429
F0.03333333333333333
sVentire
p1430
F0.03333333333333333
sVtree
p1431
F0.03333333333333333
sVestimator
p1432
F0.03333333333333333
sVparse
p1433
F0.03333333333333333
sVeach
p1434
F0.03333333333333333
sVthe
p1435
F0.13333333333333333
sVexample
p1436
F0.03333333333333333
sg17
F0.03333333333333333
saa(lp1437
S'J98-200529'
p1438
a(dp1439
Vaa
p1440
F0.024
sVand
p1441
F0.008
sVset
p1442
F0.008
sVy'~nlf
p1443
F0.008
sVsentence
p1444
F0.008
sVtree
p1445
F0.008
sVis
p1446
F0.016
sVnumber
p1447
F0.008
sVparse
p1448
F0.008
sVsee
p1449
F0.008
sVfrequency
p1450
F0.008
sVoccurrences
p1451
F0.008
sVin
p1452
F0.008
sVare
p1453
F0.008
sVgiven
p1454
F0.008
sVfor
p1455
F0.008
sg46
F0.048
sg25
F0.048
sVsection
p1456
F0.008
sVthere
p1457
F0.008
sVwhen
p1458
F0.008
sg7
F0.056
sVT-INT
p1459
F0.04
sVenough
p1460
F0.008
sVproduction
p1461
F0.008
sg21
F0.032
sVfinite
p1462
F0.008
sVsensibly
p1463
F0.008
sVambiguous
p1464
F0.008
sg95
F0.008
sV``
p1465
F0.024
sVmultiple
p1466
F0.008
sV~i=
p1467
F0.008
sVwl
p1468
F0.008
sVm
p1469
F0.032
sVtrees
p1470
F0.008
sVwi
p1471
F0.024
sValthough
p1472
F0.008
sg36
F0.008
sg35
F0.008
sVthe
p1473
F0.064
sg58
F0.072
sVrelative
p1474
F0.008
sg62
F0.024
sVof
p1475
F0.04
sV''
p1476
F0.008
sVparses
p1477
F0.008
sVmaximum-likelihood
p1478
F0.008
sg9
F0.008
sVestimator
p1479
F0.016
sVproductions
p1480
F0.016
sg67
F0.032
sValways
p1481
F0.008
sVT-FLOAT
p1482
F0.04
sVwhere
p1483
F0.008
sg400
F0.008
sVinvolves
p1484
F0.008
sg17
F0.04
saa(lp1485
S'J98-200528'
p1486
a(dp1487
g58
F0.1111111111111111
sVwhat
p1488
F0.1111111111111111
sVfrom
p1489
F0.1111111111111111
sVis
p1490
F0.1111111111111111
sg9
F0.1111111111111111
sVestimated
p1491
F0.1111111111111111
sVdata
p1492
F0.1111111111111111
sV?
p1493
F0.1111111111111111
sVif
p1494
F0.1111111111111111
saa(lp1495
S'J98-200521'
p1496
a(dp1497
Vand
p1498
F0.03225806451612903
sVconsistent
p1499
F0.03225806451612903
sVwetherell
p1500
F0.03225806451612903
sVan
p1501
F0.03225806451612903
sV''
p1502
F0.06451612903225806
sVin
p1503
F0.03225806451612903
sVuse
p1504
F0.03225806451612903
sVstatistics
p1505
F0.03225806451612903
sVasymptotic
p1506
F0.03225806451612903
sVtight
p1507
F0.03225806451612903
sg46
F0.03225806451612903
sg25
F0.03225806451612903
sg7
F0.06451612903225806
sVto
p1508
F0.03225806451612903
sVinstead
p1509
F0.03225806451612903
sV``
p1510
F0.06451612903225806
sVbut
p1511
F0.03225806451612903
sVothers
p1512
F0.03225806451612903
sVrefers
p1513
F0.03225806451612903
sVT-FLOAT
p1514
F0.03225806451612903
sVdesignation
p1515
F0.03225806451612903
sVof
p1516
F0.06451612903225806
sVcorrectness
p1517
F0.03225806451612903
sVestimator
p1518
F0.03225806451612903
sVconsistency
p1519
F0.03225806451612903
sVthe
p1520
F0.06451612903225806
saa(lp1521
S'J98-200520'
p1522
a(dp1523
Vand
p1524
F0.022727272727272728
sVcomputational
p1525
F0.022727272727272728
sVis
p1526
F0.06818181818181818
sVnumber
p1527
F0.022727272727272728
sVan
p1528
F0.022727272727272728
sVestimating
p1529
F0.022727272727272728
sVwetherell
p1530
F0.022727272727272728
sVlinguistics
p1531
F0.022727272727272728
sVdifferent
p1532
F0.022727272727272728
sVfrom
p1533
F0.045454545454545456
sVsystem
p1534
F0.022727272727272728
sVfor
p1535
F0.022727272727272728
sVhas
p1536
F0.022727272727272728
sg46
F0.022727272727272728
sg25
F0.022727272727272728
sVunparsed
p1537
F0.022727272727272728
sVquestion
p1538
F0.022727272727272728
sg7
F0.045454545454545456
sVT-INT
p1539
F0.045454545454545456
sVproduction
p1540
F0.022727272727272728
sVconjectured
p1541
F0.022727272727272728
sVcorpus
p1542
F0.022727272727272728
sg59
F0.022727272727272728
sVtight
p1543
F0.022727272727272728
sVthat
p1544
F0.022727272727272728
sVit
p1545
F0.022727272727272728
sVvolume
p1546
F0.022727272727272728
sVlikelihood
p1547
F0.022727272727272728
sVT-FLOAT
p1548
F0.022727272727272728
sg58
F0.045454545454545456
sVscheme
p1549
F0.022727272727272728
sVmaximum
p1550
F0.022727272727272728
sVprobabilities
p1551
F0.022727272727272728
sVresulting
p1552
F0.022727272727272728
sVthe
p1553
F0.022727272727272728
sVintroduced
p1554
F0.022727272727272728
sVsimilar
p1555
F0.022727272727272728
sVasked
p1556
F0.022727272727272728
saa(lp1557
S'J98-200523'
p1558
a(dp1559
g58
F0.11538461538461539
sVaa
p1560
F0.038461538461538464
sVand
p1561
F0.038461538461538464
sVT-INT
p1562
F0.038461538461538464
sVprobability
p1563
F0.038461538461538464
sVto
p1564
F0.07692307692307693
sg46
F0.07692307692307693
sg25
F0.07692307692307693
sVq
p1565
F0.038461538461538464
sg9
F0.038461538461538464
sVsecond
p1566
F0.038461538461538464
sVproduction
p1567
F0.038461538461538464
sV-p
p1568
F0.038461538461538464
sVT-FLOAT
p1569
F0.038461538461538464
sVthe
p1570
F0.07692307692307693
sg17
F0.07692307692307693
sg51
F0.038461538461538464
sVassign
p1571
F0.038461538461538464
sVfirst
p1572
F0.038461538461538464
saa(lp1573
S'J98-200522'
p1574
a(dp1575
Vand
p1576
F0.030303030303030304
sVaa
p1577
F0.030303030303030304
sVcfg
p1578
F0.030303030303030304
sVis
p1579
F0.06060606060606061
sVone
p1580
F0.06060606060606061
sVin
p1581
F0.030303030303030304
sVtrivial
p1582
F0.030303030303030304
sg7
F0.030303030303030304
sVterminal
p1583
F0.06060606060606061
sVonly
p1584
F0.030303030303030304
sg59
F0.030303030303030304
sVform
p1585
F0.030303030303030304
sVnormal
p1586
F0.030303030303030304
sVsymbol
p1587
F0.06060606060606061
sVwith
p1588
F0.030303030303030304
sVT-FLOAT
p1589
F0.030303030303030304
sVnonterminal
p1590
F0.030303030303030304
sg58
F0.15151515151515152
sVchomsky
p1591
F0.030303030303030304
sVthe
p1592
F0.06060606060606061
sVwhere
p1593
F0.030303030303030304
sVexample
p1594
F0.030303030303030304
sg17
F0.06060606060606061
saa(lp1595
S'J98-200525'
p1596
a(dp1597
Vsh+l
p1598
F0.1111111111111111
sVpsi
p1599
F0.1111111111111111
sg400
F0.1111111111111111
sg7
F0.1111111111111111
sVgeneral
p1600
F0.1111111111111111
sg1565
F0.1111111111111111
sVin
p1601
F0.1111111111111111
sVT-FLOAT
p1602
F0.1111111111111111
sg51
F0.1111111111111111
saa(lp1603
S'J98-200524'
p1604
a(dp1605
Vand
p1606
F0.015873015873015872
sVaa
p1607
F0.015873015873015872
sVall
p1608
F0.015873015873015872
sVprobability
p1609
F0.015873015873015872
sVless
p1610
F0.015873015873015872
sg267
F0.031746031746031744
sVtotal
p1611
F0.015873015873015872
sVpq
p1612
F0.015873015873015872
sV$
p1613
F0.031746031746031744
sVfor
p1614
F0.015873015873015872
sVT-INT
p1615
F0.047619047619047616
sg400
F0.015873015873015872
sg7
F0.06349206349206349
sVthan
p1616
F0.015873015873015872
sVto
p1617
F0.06349206349206349
sg51
F0.031746031746031744
sVbe
p1618
F0.015873015873015872
sVcorresponding
p1619
F0.031746031746031744
sVtrees
p1620
F0.015873015873015872
sVlet
p1621
F0.015873015873015872
sVwith
p1622
F0.015873015873015872
sVthe
p1623
F0.015873015873015872
sg58
F0.14285714285714285
sV--
p1624
F0.031746031746031744
sVof
p1625
F0.015873015873015872
sVequal
p1626
F0.015873015873015872
sVexample
p1627
F0.015873015873015872
sg1565
F0.031746031746031744
sVdepth
p1628
F0.015873015873015872
sVsh
p1629
F0.015873015873015872
sg385
F0.015873015873015872
sVT-FLOAT
p1630
F0.031746031746031744
sg269
F0.031746031746031744
sVor
p1631
F0.015873015873015872
sg17
F0.07936507936507936
saa(lp1632
S'J98-200527'
p1633
a(dp1634
Vand
p1635
F0.05714285714285714
sVprobability
p1636
F0.02857142857142857
sVshow
p1637
F0.02857142857142857
sVis
p1638
F0.08571428571428572
sVhard
p1639
F0.02857142857142857
sVit
p1640
F0.02857142857142857
sVproper
p1641
F0.02857142857142857
sVif
p1642
F0.05714285714285714
sVto
p1643
F0.05714285714285714
sg46
F0.02857142857142857
sg25
F0.02857142857142857
sg7
F0.05714285714285714
sVconverges
p1644
F0.02857142857142857
sVT-INT
p1645
F0.02857142857142857
sVonly
p1646
F0.02857142857142857
sg184
F0.02857142857142857
sVobtained
p1647
F0.02857142857142857
sVthat
p1648
F0.05714285714285714
sVmeaning
p1649
F0.02857142857142857
sVnot
p1650
F0.02857142857142857
sg58
F0.02857142857142857
sg257
F0.02857142857142857
sVmin
p1651
F0.02857142857142857
sg9
F0.02857142857142857
sVsh
p1652
F0.02857142857142857
sVnondecreasing
p1653
F0.02857142857142857
sVT-FLOAT
p1654
F0.02857142857142857
sg17
F0.02857142857142857
saa(lp1655
S'J98-200526'
p1656
a(dp1657
Vand
p1658
F0.02564102564102564
sVprobability
p1659
F0.05128205128205128
sVproduces
p1660
F0.02564102564102564
sVterminate
p1661
F0.02564102564102564
sVit
p1662
F0.02564102564102564
sg7
F0.02564102564102564
sVsymbols
p1663
F0.02564102564102564
sVT-FLOAT
p1664
F0.02564102564102564
sg46
F0.02564102564102564
sg25
F0.02564102564102564
sVless
p1665
F0.02564102564102564
sVtwo
p1666
F0.02564102564102564
sVto
p1667
F0.02564102564102564
sVproduction
p1668
F0.02564102564102564
sVcondition
p1669
F0.02564102564102564
sVterminates
p1670
F0.02564102564102564
sg385
F0.02564102564102564
sg59
F0.02564102564102564
sVwhich
p1671
F0.02564102564102564
sVnow
p1672
F0.02564102564102564
sVwith
p1673
F0.07692307692307693
sVthan
p1674
F0.02564102564102564
sVnonterminal
p1675
F0.02564102564102564
sVmust
p1676
F0.02564102564102564
sVon
p1677
F0.02564102564102564
sVof
p1678
F0.02564102564102564
sVtree
p1679
F0.02564102564102564
sVequal
p1680
F0.02564102564102564
sg1565
F0.02564102564102564
sg9
F0.02564102564102564
sVdepth
p1681
F0.02564102564102564
sVeach
p1682
F0.02564102564102564
sVthe
p1683
F0.05128205128205128
sVor
p1684
F0.02564102564102564
sVfirst
p1685
F0.02564102564102564
saa(lp1686
S'J98-200594'
p1687
a(dp1688
Vand
p1689
F0.09090909090909091
sg58
F0.045454545454545456
sVgood
p1690
F0.045454545454545456
sg1227
F0.045454545454545456
sVfor
p1691
F0.045454545454545456
sVadvice
p1692
F0.045454545454545456
sg7
F0.09090909090909091
sg66
F0.045454545454545456
sVmuch
p1693
F0.045454545454545456
sVplace
p1694
F0.045454545454545456
sVbooth
p1695
F0.045454545454545456
sVthompson
p1696
F0.045454545454545456
sVthe
p1697
F0.045454545454545456
sg65
F0.045454545454545456
sVT-FLOAT
p1698
F0.22727272727272727
sVfirst
p1699
F0.045454545454545456
saa(lp1700
S'J98-200595'
p1701
a(dp1702
VT-INT
p1703
F0.5
sVT-FLOAT
p1704
F0.5
saa(lp1705
S'J98-200596'
p1706
a(dp1707
VT-FLOAT
p1708
F0.25
sValong
p1709
F0.25
sVthe
p1710
F0.25
sVway
p1711
F0.25
saa(lp1712
S'J98-200597'
p1713
a(dp1714
Vsupported
p1715
F0.0625
sVapplying
p1716
F0.0625
sVoffice
p1717
F0.0625
sVprobability
p1718
F0.0625
sVarmy
p1719
F0.0625
sVthis
p1720
F0.0625
sVT-FLOAT
p1721
F0.0625
sVabstract
p1722
F0.0625
sVwork
p1723
F0.0625
sVmeasures
p1724
F0.0625
sVresearch
p1725
F0.0625
sVlanguages
p1726
F0.0625
sVto
p1727
F0.0625
sVthe
p1728
F0.0625
sVwas
p1729
F0.0625
sVby
p1730
F0.0625
saa(lp1731
S'J98-200590'
p1732
a(dp1733
Vexpectations
p1734
F0.14285714285714285
sVare
p1735
F0.14285714285714285
sVin
p1736
F0.14285714285714285
sVhence
p1737
F0.14285714285714285
sVthe
p1738
F0.14285714285714285
sVfinite
p1739
F0.14285714285714285
sVT-FLOAT
p1740
F0.14285714285714285
saa(lp1741
S'J98-200591'
p1742
a(dp1743
Vand
p1744
F0.01694915254237288
sVexcept
p1745
F0.01694915254237288
sVas
p1746
F0.01694915254237288
sVin
p1747
F0.01694915254237288
sVbefore
p1748
F0.01694915254237288
sg46
F0.1016949152542373
sg25
F0.1016949152542373
sVfurthermore
p1749
F0.01694915254237288
sVwhen
p1750
F0.01694915254237288
sg7
F0.03389830508474576
sVsame
p1751
F0.01694915254237288
sVwhich
p1752
F0.01694915254237288
sg21
F0.1016949152542373
sg59
F0.03389830508474576
sg51
F0.03389830508474576
sg184
F0.01694915254237288
sVsatisfy
p1753
F0.01694915254237288
sVcase
p1754
F0.01694915254237288
sVT-FLOAT
p1755
F0.01694915254237288
sg58
F0.11864406779661017
sg62
F0.0847457627118644
sg257
F0.01694915254237288
sVconditions
p1756
F0.01694915254237288
sg64
F0.01694915254237288
sg67
F0.0847457627118644
sVthe
p1757
F0.01694915254237288
sg17
F0.01694915254237288
saa(lp1758
S'J98-200592'
p1759
a(dp1760
Vindebted
p1761
F0.03571428571428571
sVconclude
p1762
F0.03571428571428571
sVare
p1763
F0.03571428571428571
sVstatistical
p1764
F0.03571428571428571
sVagain
p1765
F0.03571428571428571
sVfunctions
p1766
F0.03571428571428571
sVfor
p1767
F0.03571428571428571
sVprobabilistic
p1768
F0.03571428571428571
sg7
F0.03571428571428571
sVmark
p1769
F0.03571428571428571
sVto
p1770
F0.03571428571428571
sg51
F0.03571428571428571
sVacknowledgments
p1771
F0.03571428571428571
sVwe
p1772
F0.07142857142857142
sVthat
p1773
F0.03571428571428571
sVprocesses
p1774
F0.03571428571428571
sg36
F0.03571428571428571
sg35
F0.03571428571428571
sVmarkov
p1775
F0.03571428571428571
sVqs
p1776
F0.03571428571428571
sVjohnson
p1777
F0.03571428571428571
sVof
p1778
F0.07142857142857142
sg532
F0.03571428571428571
sVT-FLOAT
p1779
F0.07142857142857142
sVestimation
p1780
F0.03571428571428571
saa(lp1781
S'J98-200593'
p1782
a(dp1783
Vlook
p1784
F0.07142857142857142
sVT-INT
p1785
F0.14285714285714285
sVthis
p1786
F0.07142857142857142
sVencouraging
p1787
F0.07142857142857142
sVus
p1788
F0.07142857142857142
sg7
F0.07142857142857142
sVto
p1789
F0.07142857142857142
sVat
p1790
F0.07142857142857142
sVin
p1791
F0.07142857142857142
sVproblem
p1792
F0.07142857142857142
sg59
F0.07142857142857142
sVT-FLOAT
p1793
F0.07142857142857142
sVinequalities
p1794
F0.07142857142857142
saa(lp1795
S'J98-200598'
p1796
a(dp1797
VT-FLOAT
p1798
F0.3333333333333333
sVtrans
p1799
F0.3333333333333333
sVieee
p1800
F0.3333333333333333
saa(lp1801
S'J98-200599'
p1802
a(dp1803
Von
p1804
F0.0625
sVcT-INT
p1805
F0.0625
sg46
F0.0625
sg25
F0.0625
sVnational
p1806
F0.0625
sVcomputers
p1807
F0.0625
sg7
F0.125
sVT-INT
p1808
F0.125
sV-gT-INT
p1809
F0.0625
sVT-FLOAT
p1810
F0.0625
sVscience
p1811
F0.0625
sVdaal
p1812
F0.0625
sg59
F0.0625
sVthe
p1813
F0.0625
saa(lp1814
S'J98-200518'
p1815
a(dp1816
Vand
p1817
F0.03278688524590164
sVbrown
p1818
F0.01639344262295082
sVappeared
p1819
F0.01639344262295082
sVintelligence
p1820
F0.01639344262295082
sVresults
p1821
F0.01639344262295082
sVone
p1822
F0.01639344262295082
sVsee
p1823
F0.01639344262295082
sVin
p1824
F0.03278688524590164
sVour
p1825
F0.01639344262295082
sValternative
p1826
F0.01639344262295082
sVieee
p1827
F0.01639344262295082
sVmachine
p1828
F0.01639344262295082
sVusa
p1829
F0.01639344262295082
sVprovidence
p1830
F0.01639344262295082
sg46
F0.03278688524590164
sg25
F0.04918032786885246
sVsection
p1831
F0.01639344262295082
sg281
F0.01639344262295082
sg7
F0.08196721311475409
sVnote
p1832
F0.01639344262295082
sVT-INT
p1833
F0.08196721311475409
sVmathematics
p1834
F0.01639344262295082
sVmain
p1835
F0.01639344262295082
sVri
p1836
F0.01639344262295082
sVdivision
p1837
F0.01639344262295082
sVadded
p1838
F0.01639344262295082
sVrecently
p1839
F0.01639344262295082
sVtransactions
p1840
F0.01639344262295082
sVbened
p1841
F0.01639344262295082
sVcorollary
p1842
F0.01639344262295082
sg36
F0.01639344262295082
sVan
p1843
F0.01639344262295082
sg35
F0.01639344262295082
sVT-FLOAT
p1844
F0.01639344262295082
sVapplied
p1845
F0.01639344262295082
sVon
p1846
F0.01639344262295082
sg59
F0.01639344262295082
sVof
p1847
F0.04918032786885246
sVuniversity
p1848
F0.01639344262295082
sV~nchez
p1849
F0.01639344262295082
sVanalysis
p1850
F0.01639344262295082
sg64
F0.01639344262295082
sVpattern
p1851
F0.01639344262295082
sVthe
p1852
F0.01639344262295082
sVproof
p1853
F0.03278688524590164
saa(lp1854
S'J98-200519'
p1855
a(dp1856
Van
p1857
F0.043478260869565216
sVsee
p1858
F0.043478260869565216
sVproductions
p1859
F0.043478260869565216
sVnull
p1860
F0.043478260869565216
sVunit
p1861
F0.043478260869565216
sVfrom
p1862
F0.043478260869565216
sVT-INT
p1863
F0.08695652173913043
sVunparsed
p1864
F0.043478260869565216
sVwhen
p1865
F0.043478260869565216
sg7
F0.043478260869565216
sVestimating
p1866
F0.043478260869565216
sg21
F0.043478260869565216
sVmodel
p1867
F0.043478260869565216
sVwe
p1868
F0.043478260869565216
sVshall
p1869
F0.043478260869565216
sVcorpus
p1870
F0.043478260869565216
sg58
F0.043478260869565216
sVassume
p1871
F0.043478260869565216
sVwithout
p1872
F0.043478260869565216
sVsection
p1873
F0.043478260869565216
sVT-FLOAT
p1874
F0.043478260869565216
sVor
p1875
F0.043478260869565216
saa(lp1876
S'J98-200514'
p1877
a(dp1878
Vsimple
p1879
F0.03333333333333333
sVis
p1880
F0.03333333333333333
sVsee
p1881
F0.03333333333333333
sVin
p1882
F0.03333333333333333
sVpcfg
p1883
F0.03333333333333333
sVfrom
p1884
F0.03333333333333333
sVfor
p1885
F0.06666666666666667
sVestimating
p1886
F0.03333333333333333
sg46
F0.03333333333333333
sg25
F0.03333333333333333
sVsection
p1887
F0.03333333333333333
sVthere
p1888
F0.03333333333333333
sg7
F0.06666666666666667
sVT-INT
p1889
F0.03333333333333333
sVproduction
p1890
F0.03333333333333333
sVcorpus
p1891
F0.03333333333333333
sVtrees
p1892
F0.03333333333333333
sVT-FLOAT
p1893
F0.03333333333333333
sg58
F0.1
sVprescription
p1894
F0.03333333333333333
sVof
p1895
F0.03333333333333333
sVmaximum-likelihood
p1896
F0.03333333333333333
sVprobabilities
p1897
F0.03333333333333333
sVresulting
p1898
F0.03333333333333333
sVthe
p1899
F0.03333333333333333
sVexample
p1900
F0.03333333333333333
saa(lp1901
S'J98-200515'
p1902
a(dp1903
Vtight
p1904
F0.25
sVis
p1905
F0.25
sVit
p1906
F0.25
sg1493
F0.25
saa(lp1907
S'J98-200516'
p1908
a(dp1909
Vem
p1910
F0.0196078431372549
sVand
p1911
F0.0196078431372549
sVdo
p1912
F0.0392156862745098
sVis
p1913
F0.0392156862745098
sVsome
p1914
F0.0196078431372549
sVan
p1915
F0.0196078431372549
sVsee
p1916
F0.0196078431372549
sVestimated
p1917
F0.0196078431372549
sVassign
p1918
F0.0196078431372549
sVpcfg
p1919
F0.0196078431372549
sVif
p1920
F0.0196078431372549
sVagain
p1921
F0.0196078431372549
sVT-INT
p1922
F0.0196078431372549
sg46
F0.0196078431372549
sg25
F0.0196078431372549
sVunparsed
p1923
F0.0196078431372549
sVthere
p1924
F0.0196078431372549
sVquestion
p1925
F0.0196078431372549
sg7
F0.0196078431372549
sVsame
p1926
F0.0196078431372549
sVto
p1927
F0.0392156862745098
sVcorpus
p1928
F0.0196078431372549
sg59
F0.0196078431372549
sVapproach
p1929
F0.0196078431372549
sg1493
F0.0196078431372549
sVthen
p1930
F0.0196078431372549
sVwe
p1931
F0.0196078431372549
sVarises
p1932
F0.0196078431372549
sV's
p1933
F0.0196078431372549
sVget
p1934
F0.0196078431372549
sVtrees
p1935
F0.0196078431372549
sVbaum-welsh
p1936
F0.0196078431372549
sVinfinite
p1937
F0.0196078431372549
sVactual
p1938
F0.0196078431372549
sValgorithm
p1939
F0.0196078431372549
sV--
p1940
F0.0196078431372549
sViterative
p1941
F0.0196078431372549
sVmaximum-likelihood
p1942
F0.0196078431372549
sVprobabilities
p1943
F0.0196078431372549
sVmass
p1944
F0.0196078431372549
sVsection
p1945
F0.0196078431372549
sVthe
p1946
F0.0784313725490196
sVestimation
p1947
F0.0196078431372549
sVor
p1948
F0.0392156862745098
saa(lp1949
S'J98-200517'
p1950
a(dp1951
Vboth
p1952
F0.07692307692307693
sVwe
p1953
F0.07692307692307693
sVprobability
p1954
F0.07692307692307693
sVthat
p1955
F0.07692307692307693
sVT-FLOAT
p1956
F0.07692307692307693
sVis
p1957
F0.07692307692307693
sVshow
p1958
F0.07692307692307693
sVwill
p1959
F0.07692307692307693
sVtight
p1960
F0.07692307692307693
sVin
p1961
F0.07692307692307693
sVcases
p1962
F0.07692307692307693
sVestimated
p1963
F0.07692307692307693
sVthe
p1964
F0.07692307692307693
saa(lp1965
S'J98-200510'
p1966
a(dp1967
Vand
p1968
F0.057971014492753624
sVtightness
p1969
F0.014492753623188406
sVphenomenon
p1970
F0.014492753623188406
sVprobability
p1971
F0.014492753623188406
sVnumbers
p1972
F0.014492753623188406
sVis
p1973
F0.014492753623188406
sV``
p1974
F0.014492753623188406
sVwe
p1975
F0.014492753623188406
sVone
p1976
F0.014492753623188406
sV''
p1977
F0.014492753623188406
sVunderstood
p1978
F0.014492753623188406
sVsee
p1979
F0.014492753623188406
sVgrowth
p1980
F0.014492753623188406
sVare
p1981
F0.014492753623188406
sVin
p1982
F0.014492753623188406
sVT-FLOAT
p1983
F0.014492753623188406
sVtotal
p1984
F0.014492753623188406
sVfrom
p1985
F0.014492753623188406
sVmatrix
p1986
F0.014492753623188406
sVfor
p1987
F0.028985507246376812
sVT-INT
p1988
F0.043478260869565216
sg46
F0.028985507246376812
sg25
F0.028985507246376812
sVthere
p1989
F0.014492753623188406
sg35
F0.043478260869565216
sg7
F0.043478260869565216
sVto
p1990
F0.014492753623188406
sVwhich
p1991
F0.014492753623188406
sVexpected
p1992
F0.014492753623188406
sVbooth
p1993
F0.014492753623188406
sVtests
p1994
F0.014492753623188406
sVrules
p1995
F0.014492753623188406
sVderived
p1996
F0.014492753623188406
sVthompson
p1997
F0.014492753623188406
sVgenerated
p1998
F0.014492753623188406
sVinvolving
p1999
F0.014492753623188406
sVknown
p2000
F0.014492753623188406
sg36
F0.043478260869565216
sVprobabilistic
p2001
F0.014492753623188406
sVby
p2002
F0.028985507246376812
sg58
F0.014492753623188406
sVsymbols
p2003
F0.014492753623188406
sVthis
p2004
F0.014492753623188406
sVof
p2005
F0.014492753623188406
sVwell
p2006
F0.028985507246376812
sVequal
p2007
F0.014492753623188406
sVgrenander
p2008
F0.014492753623188406
sVharris
p2009
F0.014492753623188406
sVmass
p2010
F0.014492753623188406
sVthe
p2011
F0.028985507246376812
sVexample
p2012
F0.014492753623188406
sVmean
p2013
F0.014492753623188406
saa(lp2014
S'J98-200511'
p2015
a(dp2016
Vwhat
p2017
F0.1
sVfrom
p2018
F0.1
sVprobabilities
p2019
F0.1
sVproduction
p2020
F0.1
sVare
p2021
F0.1
sVthe
p2022
F0.1
sVestimated
p2023
F0.1
sVdata
p2024
F0.1
sg1493
F0.1
sVif
p2025
F0.1
saa(lp2026
S'J98-200512'
p2027
a(dp2028
g58
F0.13043478260869565
sVwe
p2029
F0.08695652173913043
sVfrom
p2030
F0.043478260869565216
sVsamples
p2031
F0.043478260869565216
sVfor
p2032
F0.043478260869565216
sVthat
p2033
F0.08695652173913043
sVof
p2034
F0.043478260869565216
sg7
F0.08695652173913043
sVcollection
p2035
F0.043478260869565216
sVparsed
p2036
F0.043478260869565216
sVT-FLOAT
p2037
F0.043478260869565216
sVas
p2038
F0.043478260869565216
sVsuppose
p2039
F0.043478260869565216
sVtreat
p2040
F0.043478260869565216
sVhave
p2041
F0.043478260869565216
sVgrammar
p2042
F0.043478260869565216
sVcorpus
p2043
F0.043478260869565216
sVexample
p2044
F0.043478260869565216
saa(lp2045
S'J98-200513'
p2046
a(dp2047
Vset
p2048
F0.025
sVprobability
p2049
F0.025
sVis
p2050
F0.025
sVit
p2051
F0.025
sVan
p2052
F0.025
sVsample
p2053
F0.05
sVzero
p2054
F0.025
sVare
p2055
F0.025
sVin
p2056
F0.025
sVif
p2057
F0.025
sVbased
p2058
F0.025
sVsystem
p2059
F0.025
sVprobabilities
p2060
F0.025
sg7
F0.025
sVto
p2061
F0.05
sVproduction
p2062
F0.025
sVfinite
p2063
F0.025
sVhope
p2064
F0.025
sVthen
p2065
F0.025
sVassigns
p2066
F0.025
sVthat
p2067
F0.05
sVupon
p2068
F0.025
sVtrees
p2069
F0.05
sVproduce
p2070
F0.025
sVinfinite
p2071
F0.025
sVestimate
p2072
F0.025
sVT-FLOAT
p2073
F0.025
sg58
F0.025
sVof
p2074
F0.05
sVwill
p2075
F0.025
sVreasonable
p2076
F0.025
sVthe
p2077
F0.1
saa.