(lp0
(lp1
S'N01-1011100'
p2
a(dp3
Vand
p4
F2.0
sVtraining
p5
F1.0
sVfrom
p6
F1.0
sVcapitalization
p7
F1.0
sVpunctuation
p8
F1.0
sVare
p9
F1.0
sVtest
p10
F1.0
sVthe
p11
F1.0
sVremoved
p12
F1.0
sVdata
p13
F1.0
sVT-FLOAT
p14
F1.0
saa(lp15
S'N01-1011103'
p16
a(dp17
Vand
p18
F1.0
sVprocess
p19
F1.0
sVtree
p20
F1.0
sVdisambiguation
p21
F1.0
sVnumber
p22
F2.0
sVlikely
p23
F1.0
sVare
p24
F1.0
sVin
p25
F1.0
sVout
p26
F1.0
sVcandidate
p27
F1.0
sVdecision
p28
F1.0
sVlearner
p29
F1.0
sVto
p30
F2.0
sV?
p31
F1.0
sVbe
p32
F1.0
sVthat
p33
F1.0
sVpossible
p34
F1.0
sVfocus
p35
F1.0
sVstep
p36
F1.0
sVT-FLOAT
p37
F1.0
sVa
p38
F2.0
sVon
p39
F1.0
sVhelpful
p40
F1.0
sVthis
p41
F1.0
sVof
p42
F2.0
sVallows
p43
F1.0
sVlarge
p44
F1.0
sVlters
p45
F1.0
sVbigrams
p46
F2.0
sVsmall
p47
F1.0
sVthe
p48
F2.0
saa(lp49
S'N01-1011102'
p50
a(dp51
g38
F1.0
sVbe
p52
F1.0
sVbigram
p53
F1.0
sVto
p54
F1.0
sVT-FLOAT
p55
F1.0
sVoccurred
p56
F1.0
sVtimes
p57
F1.0
sVT-INT
p58
F1.0
sVas
p59
F1.0
sVhave
p60
F1.0
sVincluded
p61
F1.0
sVfeature
p62
F1.0
sVthe
p63
F1.0
sVmore
p64
F1.0
sVor
p65
F1.0
sVmust
p66
F1.0
saa(lp67
S'N01-1011105'
p68
a(dp69
Vtraining
p70
F1.0
sVactual
p71
F1.0
sVthis
p72
F1.0
sVof
p73
F1.0
sVis
p74
F1.0
sVto
p75
F1.0
sValgorithms
p76
F1.0
sVlearning
p77
F1.0
sVinput
p78
F1.0
sVrepresentation
p79
F1.0
sVthe
p80
F3.0
sVdata
p81
F1.0
sVT-FLOAT
p82
F1.0
saa(lp83
S'N01-1011104'
p84
a(dp85
Vand
p86
F1.0
sVset
p87
F1.0
sVoccurrence
p88
F1.0
sVone
p89
F1.0
sVare
p90
F1.0
sVin
p91
F1.0
sVbelong
p92
F1.0
sVfeature
p93
F3.0
sVto
p94
F1.0
sVtest
p95
F1.0
sVthat
p96
F1.0
sVdata
p97
F1.0
sVT-FLOAT
p98
F1.0
sVrepresents
p99
F1.0
sVtraining
p100
F1.0
sVof
p101
F2.0
sVvectors
p102
F1.0
sVbigrams
p103
F1.0
sVconverted
p104
F1.0
sVeach
p105
F1.0
sVthe
p106
F4.0
sVwhere
p107
F1.0
saa(lp108
S'N01-1011107'
p109
a(dp110
Vand
p111
F1.0
sVinstances
p112
F1.0
sVmost
p113
F1.0
sVdetermines
p114
F1.0
sVassigns
p115
F1.0
sVclassi
p116
F1.0
sVto
p117
F1.0
sVin
p118
F2.0
sVtraining
p119
F1.0
sVmajority
p120
F1.0
sVthat
p121
F1.0
sVsimply
p122
F1.0
sVfrequent
p123
F1.0
sVall
p124
F1.0
sVsense
p125
F1.0
sVtest
p126
F1.0
sVthe
p127
F4.0
sVdata
p128
F2.0
sVT-FLOAT
p129
F1.0
sg31
F1.0
sVer
p130
F1.0
saa(lp131
S'N01-1011109'
p132
a(dp133
Vall
p134
F1.0
sVused
p135
F1.0
sVto
p136
F1.0
sVthese
p137
F1.0
sVof
p138
F1.0
sVdisambiguate
p139
F1.0
sVmodels
p140
F1.0
sVare
p141
F1.0
sVT-FLOAT
p142
F1.0
sVtest
p143
F1.0
sVlearned
p144
F1.0
sVdata
p145
F1.0
sVthe
p146
F1.0
saa(lp147
S'N01-1011108'
p148
a(dp149
Vset
p150
F1.0
sVis
p151
F2.0
sVincluded
p152
F1.0
sVas
p153
F1.0
sVin
p154
F1.0
sVer
p155
F1.0
sVbased
p156
F1.0
sVfeature
p157
F2.0
sVT-INT
p158
F1.0
sVoccurs
p159
F1.0
sg31
F1.0
sVmore
p160
F1.0
sVthat
p161
F1.0
sVnaive
p162
F1.0
sVevery
p163
F1.0
sVbayesian
p164
F1.0
sVdata
p165
F1.0
sVT-FLOAT
p166
F1.0
sg38
F2.0
sVon
p167
F1.0
sVtraining
p168
F1.0
sVword
p169
F1.0
sVclassi
p170
F1.0
sVtimes
p171
F1.0
sVthe
p172
F2.0
sVwhere
p173
F1.0
sVor
p174
F1.0
saa(lp175
S'N01-1011189'
p176
a(dp177
Vand
p178
F1.0
sVset
p179
F1.0
sVsimple
p180
F1.0
sVaccurate
p181
F1.0
sVsense
p182
F1.0
sVresults
p183
F1.0
sVpaper
p184
F1.0
sVlearning
p185
F1.0
sVin
p186
F1.0
sVdecision
p187
F1.0
sVfeature
p188
F1.0
sVdisambiguation
p189
F1.0
sVshows
p190
F1.0
sVcombination
p191
F1.0
sVthat
p192
F1.0
sVstandard
p193
F1.0
sVT-FLOAT
p194
F1.0
sg38
F2.0
sVmade
p195
F1.0
sVword
p196
F1.0
sValgorithm
p197
F1.0
sVthis
p198
F1.0
sVof
p199
F2.0
sVtree
p200
F1.0
sVup
p201
F1.0
sVbigrams
p202
F1.0
sVthe
p203
F1.0
saa(lp204
S'N01-1011188'
p205
a(dp206
Vraw
p207
F1.0
sVwe
p208
F1.0
sVbigram
p209
F1.0
sVfeatures
p210
F1.0
sVthat
p211
F1.0
sVthis
p212
F1.0
sVtext
p213
F1.0
sVis
p214
F1.0
sVsince
p215
F1.0
sV,
p216
F1.0
sVto
p217
F1.0
sVidentify
p218
F1.0
sVare
p219
F2.0
sVeasy
p220
F1.0
sVin
p221
F1.0
sVT-FLOAT
p222
F1.0
sVviable
p223
F1.0
sVoptimistic
p224
F1.0
saa(lp225
S'N01-1011181'
p226
a(dp227
Vbe
p228
F1.0
sVrequirement
p229
F1.0
sVmade
p230
F1.0
sVthat
p231
F1.0
sVof
p232
F1.0
sVease
p233
F1.0
sVup
p234
F1.0
sVtwo
p235
F1.0
sVto
p236
F1.0
sVbigrams
p237
F1.0
sVT-FLOAT
p238
F1.0
sVwords
p239
F1.0
sVrst
p240
F1.0
sVconsecutive
p241
F1.0
sVthe
p242
F2.0
sVis
p243
F1.0
sg31
F1.0
saa(lp244
S'N01-1011180'
p245
a(dp246
g38
F1.0
sVwork
p247
F1.0
sVthis
p248
F1.0
sVof
p249
F1.0
sVthere
p250
F1.0
sVnumber
p251
F1.0
sVimmediate
p252
F1.0
sVto
p253
F1.0
sVextensions
p254
F1.0
sVare
p255
F1.0
sVT-FLOAT
p256
F1.0
saa(lp257
S'N01-1011183'
p258
a(dp259
g38
F1.0
sVbigrams
p260
F1.0
sVpower
p261
F1.0
sVcandidate
p262
F1.0
sVT-FLOAT
p263
F1.0
sVdivergence
p264
F1.0
sVis
p265
F1.0
sVselected
p266
F1.0
sVltering
p267
F1.0
sVstep
p268
F1.0
sVto
p269
F1.0
sVsecond
p270
F1.0
sVeliminate
p271
F1.0
sVwhich
p272
F1.0
sVstatistic
p273
F1.0
sVthe
p274
F2.0
sVby
p275
F2.0
sg31
F1.0
sVare
p276
F1.0
saa(lp277
S'N01-1011182'
p278
a(dp279
Vseparated
p280
F1.0
sVbe
p281
F1.0
sVwe
p282
F1.0
sVfor
p283
F1.0
sVrather
p284
F1.0
sVtext
p285
F1.0
sVcomponent
p286
F1.0
sVsearch
p287
F1.0
sg216
F1.0
sVwill
p288
F1.0
sVmay
p289
F1.0
sVbigrams
p290
F1.0
sVother
p291
F1.0
sVT-FLOAT
p292
F1.0
sVwords
p293
F2.0
sVin
p294
F1.0
sVthe
p295
F2.0
sVwhere
p296
F1.0
sVby
p297
F1.0
saa(lp298
S'N01-1011185'
p299
a(dp300
Vdanger
p301
F1.0
sVis
p302
F1.0
sVltering
p303
F1.0
sVan
p304
F1.0
sVare
p305
F1.0
sVin
p306
F1.0
sVT-FLOAT
p307
F1.0
sVinteresting
p308
F1.0
sVdecision
p309
F1.0
sVsince
p310
F1.0
sVlearner
p311
F1.0
sg216
F1.0
sVjudged
p312
F1.0
sVincreasing
p313
F1.0
sVissue
p314
F1.0
sg31
F1.0
sVmost
p315
F1.0
sVstep
p316
F1.0
sVranked
p317
F1.0
sVdespite
p318
F1.0
sVnot
p319
F1.0
sVhighly
p320
F1.0
sVby
p321
F1.0
sVfragmentation
p322
F1.0
sVthis
p323
F1.0
sVof
p324
F1.0
sVtree
p325
F1.0
sVinformative
p326
F1.0
sVbigrams
p327
F1.0
sValways
p328
F1.0
sVthe
p329
F4.0
saa(lp330
S'N01-1011184'
p331
a(dp332
Vall
p333
F1.0
sVconsider
p334
F1.0
sVwould
p335
F1.0
sVtree
p336
F1.0
sVdecision
p337
F1.0
sVlearner
p338
F1.0
sg216
F1.0
sVpossible
p339
F1.0
sVbigrams
p340
F1.0
sVinstead
p341
F1.0
sVthe
p342
F1.0
sVT-FLOAT
p343
F1.0
saa(lp344
S'N01-1011187'
p345
a(dp346
Vtagged
p347
F1.0
sVtext
p348
F1.0
sVdisambiguation
p349
F1.0
sVsense
p350
F1.0
sVbene
p351
F1.0
sVperformed
p352
F1.0
sVlearning
p353
F1.0
sVin
p354
F1.0
sVhope
p355
F1.0
sg216
F2.0
sVto
p356
F2.0
sVadapt
p357
F1.0
sVapproach
p358
F1.0
sVis
p359
F1.0
sg31
F1.0
sVwe
p360
F1.0
sVT-FLOAT
p361
F1.0
sVterm
p362
F1.0
sVlonger
p363
F1.0
sVunsupervised
p364
F1.0
sVthis
p365
F1.0
sVof
p366
F1.0
sVwithout
p367
F1.0
sVt
p368
F1.0
sVthe
p369
F2.0
sVwhere
p370
F1.0
saa(lp371
S'N01-1011186'
p372
a(dp373
Vprocess
p374
F1.0
sVdisambiguation
p375
F1.0
sVltering
p376
F1.0
sVsigni
p377
F1.0
sVsources
p378
F1.0
sVcant
p379
F1.0
sVdetermine
p380
F1.0
sVin
p381
F1.0
sVif
p382
F1.0
sVinformation
p383
F1.0
sg216
F1.0
sVever
p384
F1.0
sg31
F2.0
sVbe
p385
F1.0
sVwe
p386
F1.0
sVthat
p387
F1.0
sVeliminates
p388
F1.0
sVparticular
p389
F1.0
sVT-FLOAT
p390
F1.0
sVof
p391
F1.0
sVcould
p392
F1.0
sVwill
p393
F1.0
sVbigrams
p394
F1.0
sVthe
p395
F1.0
saa(lp396
S'N01-1011116'
p397
a(dp398
Vand
p399
F1.0
sVsystem
p400
F1.0
sVsingle
p401
F1.0
sVhave
p402
F1.0
sVin
p403
F1.0
sVT-FLOAT
p404
F1.0
sVany
p405
F1.0
sVbest
p406
F2.0
sVshown
p407
F1.0
sVfrom
p408
F1.0
sVthat
p409
F1.0
sg216
F2.0
sVactually
p410
F1.0
sVT-INT
p411
F1.0
sg31
F1.0
sVaccuracy
p412
F1.0
sVbe
p413
F1.0
sVdi
p414
F1.0
sVmay
p415
F2.0
sVprecision
p416
F1.0
sVhowever
p417
F1.0
sVerent
p418
F1.0
sVcome
p419
F1.0
sVthan
p420
F1.0
sVsenseval
p421
F1.0
sVcolumn
p422
F1.0
sVrecall
p423
F1.0
sVteams
p424
F1.0
sVparticipating
p425
F1.0
sVso
p426
F1.0
sVof
p427
F1.0
sVthe
p428
F2.0
sVhigher
p429
F1.0
saa(lp430
S'N01-1011117'
p431
a(dp432
Vand
p433
F1.0
sVparticipating
p434
F1.0
sVproduct
p435
F1.0
sVfor
p436
F1.0
sVreported
p437
F1.0
sVcolumn
p438
F1.0
sVof
p439
F1.0
sVaverage
p440
F2.0
sVsenseval
p441
F1.0
sVprecision
p442
F1.0
sVteams
p443
F1.0
sVrecall
p444
F1.0
sVT-INT
p445
F1.0
sVT-FLOAT
p446
F1.0
sVin
p447
F1.0
sVthe
p448
F4.0
sVis
p449
F1.0
sVaccuracy
p450
F1.0
saa(lp451
S'N01-1011114'
p452
a(dp453
Vand
p454
F2.0
sVthe
p455
F4.0
sVshow
p456
F1.0
sVbest
p457
F1.0
sVer
p458
F1.0
sVT-INT
p459
F4.0
sg216
F1.0
sVmajority
p460
F1.0
sVcolumns
p461
F1.0
sVaccuracy
p462
F2.0
sVsenseval
p463
F1.0
sVreported
p464
F1.0
sVby
p465
F1.0
sVclassi
p466
F1.0
sVcolumn
p467
F1.0
sVof
p468
F1.0
sVaverage
p469
F1.0
sVreports
p470
F1.0
sVteams
p471
F1.0
sVparticipating
p472
F1.0
sg31
F1.0
sVT-FLOAT
p473
F1.0
saa(lp474
S'N01-1011115'
p475
a(dp476
Vand
p477
F1.0
sVproduct
p478
F1.0
sVat
p479
F1.0
sVT-FLOAT
p480
F1.0
sVwas
p481
F1.0
sVbased
p482
F1.0
sVto
p483
F1.0
sg216
F1.0
sVtheir
p484
F1.0
sVevaluation
p485
F1.0
sVaccuracy
p486
F1.0
sVwe
p487
F1.0
sVsenseval
p488
F1.0
sVprecision
p489
F1.0
sVscores
p490
F1.0
sVby
p491
F1.0
sVthose
p492
F1.0
sVon
p493
F1.0
sVrecall
p494
F1.0
sVtaking
p495
F1.0
sVconverted
p496
F1.0
sVso
p497
F1.0
sVthe
p498
F1.0
saa(lp499
S'N01-1011112'
p500
a(dp501
Vpartial
p502
F1.0
sVfor
p503
F1.0
sVno
p504
F1.0
sVis
p505
F1.0
sVmisses
p506
F1.0
sVassigned
p507
F1.0
sVcredit
p508
F1.0
sVnear
p509
F1.0
sVT-FLOAT
p510
F1.0
saa(lp511
S'N01-1011113'
p512
a(dp513
Vshown
p514
F1.0
sVof
p515
F1.0
sVis
p516
F1.0
sVin
p517
F1.0
sVT-INT
p518
F1.0
sValgorithms
p519
F1.0
sVT-FLOAT
p520
F1.0
sVlearning
p521
F1.0
sVeach
p522
F1.0
sVattained
p523
F1.0
sVtable
p524
F1.0
sVthe
p525
F2.0
sVby
p526
F1.0
sVaccuracy
p527
F1.0
saa(lp528
S'N01-1011110'
p529
a(dp530
Vkept
p531
F1.0
sVseparate
p532
F1.0
sVthis
p533
F1.0
sVis
p534
F1.0
sVT-FLOAT
p535
F1.0
sVtest
p536
F1.0
sVthe
p537
F1.0
sVdata
p538
F1.0
sVuntil
p539
F1.0
sVstage
p540
F1.0
saa(lp541
S'N01-1011111'
p542
a(dp543
Vgrained
p544
F1.0
sVis
p545
F1.0
sg216
F1.0
sVassigned
p546
F1.0
sVas
p547
F1.0
sVtag
p548
F2.0
sVsense
p549
F2.0
sVscoring
p550
F1.0
sVwhen
p551
F1.0
sVne
p552
F1.0
sVonly
p553
F1.0
sVcorrectly
p554
F1.0
sVmethod
p555
F1.0
sg31
F1.0
sVwe
p556
F1.0
sVmatches
p557
F1.0
sVexactly
p558
F1.0
sVtrue
p559
F1.0
sVT-FLOAT
p560
F1.0
sg38
F2.0
sVword
p561
F1.0
sVwhere
p562
F1.0
sVemploy
p563
F1.0
sVthe
p564
F2.0
sVdisambiguated
p565
F1.0
sVcounted
p566
F1.0
saa(lp567
S'N01-1011118'
p568
a(dp569
Vand
p570
F1.0
sVfeatures
p571
F1.0
sVed
p572
F1.0
sVlearning
p573
F1.0
sVstatistic
p574
F1.0
sVT-FLOAT
p575
F1.0
sVdecision
p576
F1.0
sVidenti
p577
F1.0
sVT-INT
p578
F2.0
sg31
F1.0
sVshows
p579
F1.0
sVpower
p580
F1.0
sVdivergence
p581
F1.0
sVusing
p582
F1.0
sVby
p583
F1.0
sg38
F1.0
sValgorithm
p584
F1.0
sVcolumn
p585
F1.0
sVof
p586
F1.0
sVj
p587
F1.0
sVtree
p588
F1.0
sVthe
p589
F4.0
sVaccuracy
p590
F1.0
saa(lp591
S'N01-10112'
p592
a(dp593
Vsenseval
p594
F1.0
sVfrom
p595
F1.0
sVsense-tagged
p596
F1.0
sVthis
p597
F1.0
sVword
p598
F1.0
sVis
p599
F1.0
sVcorpora
p600
F1.0
sVevaluated
p601
F1.0
sVT-INT
p602
F1.0
sVT-FLOAT
p603
F1.0
sVsense
p604
F1.0
sVusing
p605
F1.0
sVthe
p606
F2.0
sVapproach
p607
F1.0
sVdisambiguation
p608
F1.0
sVexercise
p609
F1.0
saa(lp610
S'N01-10113'
p611
a(dp612
Vand
p613
F1.0
sg216
F1.0
sVT-INT
p614
F4.0
sVfor
p615
F2.0
sVreported
p616
F1.0
sVof
p617
F2.0
sVaccurate
p618
F2.0
sVresults
p619
F2.0
sVit
p620
F1.0
sVthan
p621
F2.0
sVaverage
p622
F1.0
sVT-FLOAT
p623
F1.0
sVwords
p624
F2.0
sVthe
p625
F2.0
sVis
p626
F2.0
sVbest
p627
F1.0
sVmore
p628
F2.0
saa(lp629
S'N01-10111'
p630
a(dp631
Vdisambiguation
p632
F1.0
sVan
p633
F1.0
sVpaper
p634
F1.0
sVsense
p635
F2.0
sVoccur
p636
F1.0
sVbased
p637
F1.0
sVdecision
p638
F1.0
sVthat
p639
F1.0
sVpresents
p640
F1.0
sVto
p641
F2.0
sVapproach
p642
F1.0
sVassigns
p643
F1.0
sVon
p644
F1.0
sVT-FLOAT
p645
F1.0
sVcorpus-based
p646
F1.0
sg38
F3.0
sVambiguous
p647
F1.0
sVword
p648
F2.0
sVthis
p649
F1.0
sVtree
p650
F1.0
sVbigrams
p651
F1.0
sVthe
p652
F1.0
sVwhere
p653
F1.0
sVnearby
p654
F1.0
saa(lp655
S'N01-10116'
p656
a(dp657
Vset
p658
F1.0
sVcurrency
p659
F1.0
sVfor
p660
F1.0
sVjaw
p661
F1.0
sVlegislation
p662
F1.0
sg216
F3.0
sV:
p663
F1.0
sVbird
p664
F1.0
sVpending
p665
F1.0
sVmeanings
p666
F1.0
sVpossible
p667
F1.0
sVthe
p668
F1.0
sg38
F2.0
sVhas
p669
F1.0
sVof
p670
F2.0
sVbill
p671
F1.0
sVexample
p672
F1.0
sVsuppose
p673
F1.0
sVfollowing
p674
F1.0
sVT-FLOAT
p675
F1.0
sVpiece
p676
F1.0
sVor
p677
F1.0
saa(lp678
S'N01-10117'
p679
a(dp680
Vsenate
p681
F1.0
sVis
p682
F2.0
sVin
p683
F2.0
sVhuman
p684
F1.0
sVsense
p685
F1.0
sVlegislative
p686
F1.0
sVwhen
p687
F1.0
sg216
F1.0
sVbeing
p688
F1.0
sVreader
p689
F1.0
sVconsideration
p690
F1.0
sVused
p691
F2.0
sVthat
p692
F1.0
sVunder
p693
F1.0
sVimmediately
p694
F1.0
sVT-FLOAT
p695
F1.0
sg38
F1.0
sVunderstands
p696
F1.0
sVof
p697
F1.0
sVbill
p698
F2.0
sVcontext
p699
F1.0
sVthe
p700
F3.0
saa(lp701
S'N01-10114'
p702
a(dp703
Vprocess
p704
F1.0
sVdisambiguation
p705
F1.0
sVsense
p706
F1.0
sVit
p707
F1.0
sVappropriate
p708
F1.0
sVin
p709
F1.0
sVbased
p710
F1.0
sVfor
p711
F1.0
sg216
F1.0
sVwhich
p712
F1.0
sVoccurs
p713
F1.0
sVselecting
p714
F1.0
sVmost
p715
F1.0
sVmeaning
p716
F1.0
sVthe
p717
F3.0
sVis
p718
F1.0
sg38
F1.0
sVon
p719
F1.0
sVword
p720
F2.0
sVof
p721
F1.0
sVcontext
p722
F1.0
sVT-FLOAT
p723
F1.0
saa(lp724
S'N01-10115'
p725
a(dp726
Vset
p727
F1.0
sVis
p728
F1.0
sVpurposes
p729
F1.0
sValready
p730
F1.0
sVsense
p731
F1.0
sVour
p732
F1.0
sVfor
p733
F1.0
sVassumed
p734
F1.0
sg216
F3.0
sVbeen
p735
F1.0
sVinventory
p736
F1.0
sVhas
p737
F1.0
sVmeanings
p738
F1.0
sVthat
p739
F1.0
sVpossible
p740
F1.0
sVit
p741
F1.0
sVthe
p742
F2.0
sVe
p743
F1.0
sVi
p744
F1.0
sVof
p745
F1.0
sVdetermined
p746
F1.0
sVT-FLOAT
p747
F3.0
saa(lp748
S'N01-1011194'
p749
a(dp750
g38
F1.0
sV)
p751
F1.0
sVthis
p752
F1.0
sVof
p753
F1.0
sVin
p754
F1.0
sVpedersen
p755
F1.0
sg216
F1.0
sVpaper
p756
F1.0
sVT-INT
p757
F1.0
sVversion
p758
F1.0
sV(
p759
F1.0
sVpreliminary
p760
F1.0
sVT-FLOAT
p761
F1.0
sVappears
p762
F1.0
saa(lp763
S'N01-10119'
p764
a(dp765
Vmethods
p766
F1.0
sVturned
p767
F1.0
sVcomputer
p768
F1.0
sVT-FLOAT
p769
F1.0
sVbased
p770
F1.0
sVknowledge
p771
F1.0
sVattempting
p772
F1.0
sVprovide
p773
F1.0
sg216
F1.0
sVto
p774
F3.0
sVcorpus
p775
F1.0
sVhas
p776
F1.0
sVreal
p777
F1.0
sVcomparable
p778
F1.0
sVthat
p779
F1.0
sVhumans
p780
F1.0
sVprocessing
p781
F1.0
sVworld
p782
F1.0
sVwith
p783
F1.0
sVthan
p784
F1.0
sVnatural
p785
F1.0
sVlanguage
p786
F1.0
sVprograms
p787
F1.0
sVof
p788
F1.0
sVrather
p789
F1.0
sV{
p790
F2.0
saa(lp791
S'N01-1011192'
p792
a(dp793
Vorganizers
p794
F1.0
sVand
p795
F1.0
sVwe
p796
F1.0
sVfrom
p797
F1.0
sVlike
p798
F1.0
sVwould
p799
F1.0
sVsenseval
p800
F1.0
sVevent
p801
F1.0
sVavailable
p802
F1.0
sVresults
p803
F1.0
sVfor
p804
F1.0
sVto
p805
F1.0
sVT-FLOAT
p806
F1.0
sVfreely
p807
F1.0
sVmaking
p808
F1.0
sVthe
p809
F3.0
sVdata
p810
F1.0
sVT-INT
p811
F1.0
sVthank
p812
F1.0
saa(lp813
S'N01-1011193'
p814
a(dp815
Vin
p816
F1.0
sVhelpful
p817
F1.0
sVnal
p818
F1.0
sVvery
p819
F1.0
sVof
p820
F2.0
sVwere
p821
F1.0
sVthree
p822
F1.0
sVcomments
p823
F1.0
sVpaper
p824
F1.0
sVthis
p825
F1.0
sVversion
p826
F1.0
sVpreparing
p827
F1.0
sVanonymous
p828
F1.0
sVreviewers
p829
F1.0
sVthe
p830
F2.0
sVT-FLOAT
p831
F1.0
sg31
F1.0
saa(lp832
S'N01-1011190'
p833
a(dp834
Vand
p835
F1.0
sVbigram
p836
F1.0
sVshow
p837
F1.0
sVdisambiguation
p838
F1.0
sVresults
p839
F2.0
sVare
p840
F1.0
sVsense
p841
F1.0
sVT-FLOAT
p842
F1.0
sVbest
p843
F1.0
sVaccurate
p844
F1.0
sVcompared
p845
F1.0
sVfrom
p846
F1.0
sVfor
p847
F1.0
sVdecision
p848
F1.0
sVthat
p849
F1.0
sVT-INT
p850
F3.0
sVapproach
p851
F2.0
sVis
p852
F1.0
sVexercise
p853
F1.0
sVmore
p854
F1.0
sVsenseval
p855
F2.0
sVwords
p856
F1.0
sVbased
p857
F1.0
sVwith
p858
F1.0
sVthan
p859
F1.0
sVthose
p860
F1.0
sVword
p861
F1.0
sVthis
p862
F1.0
sVof
p863
F2.0
sVtree
p864
F1.0
sVthe
p865
F4.0
saa(lp866
S'N01-101178'
p867
a(dp868
g38
F1.0
sVcase
p869
F1.0
sVsearch
p870
F1.0
sVrepresentative
p871
F1.0
sVno
p872
F1.0
sVof
p873
F1.0
sVis
p874
F2.0
sVthere
p875
F1.0
sVspace
p876
F1.0
sVfeature
p877
F1.0
sVtrees
p878
F1.0
sVto
p879
F1.0
sVas
p880
F1.0
sVperformed
p881
F1.0
sVT-FLOAT
p882
F1.0
sVdecision
p883
F1.0
sVthe
p884
F2.0
sVwith
p885
F1.0
sVmodel
p886
F1.0
sVbuild
p887
F1.0
saa(lp888
S'N01-101179'
p889
a(dp890
Vand
p891
F1.0
sVbe
p892
F1.0
sVall
p893
F1.0
sVrelevant
p894
F1.0
sVfeatures
p895
F1.0
sVclassi
p896
F1.0
sVassumed
p897
F1.0
sg216
F1.0
sVhand
p898
F1.0
sVto
p899
F2.0
sVtask
p900
F1.0
sVare
p901
F1.0
sVin
p902
F1.0
sVincluded
p903
F1.0
sVinstead
p904
F1.0
sVthe
p905
F2.0
sVat
p906
F1.0
sVT-FLOAT
p907
F1.0
sg31
F1.0
sVer
p908
F1.0
saa(lp909
S'N01-101176'
p910
a(dp911
Vstump
p912
F1.0
sVis
p913
F3.0
sVone
p914
F1.0
sVsingle
p915
F1.0
sVT-FLOAT
p916
F1.0
sVto
p917
F1.0
sg751
F1.0
sg759
F1.0
sVdecision
p918
F3.0
sVlearner
p919
F1.0
sg216
F1.0
sVT-INT
p920
F1.0
sVnode
p921
F1.0
sVadded
p922
F1.0
sVthat
p923
F1.0
sVafter
p924
F1.0
sVholte
p925
F1.0
sVmost
p926
F1.0
sVfeature
p927
F1.0
sVby
p928
F1.0
sg38
F2.0
sVcreated
p929
F1.0
sVtree
p930
F3.0
sVinformative
p931
F1.0
sVstopping
p932
F1.0
sVthe
p933
F3.0
saa(lp934
S'N01-101177'
p935
a(dp936
Vand
p937
F1.0
sVamong
p938
F1.0
sVfeatures
p939
F1.0
sVcertain
p940
F1.0
sVis
p941
F1.0
sVassumptions
p942
F1.0
sVin
p943
F1.0
sVhart
p944
F1.0
sVer
p945
F1.0
sVbased
p946
F1.0
sg751
F1.0
sg759
F1.0
sg216
F1.0
sVT-INT
p947
F1.0
sVcorpus
p948
F1.0
sVblanket
p949
F1.0
sg31
F1.0
sVinteractions
p950
F1.0
sVnaive
p951
F1.0
sVbayesian
p952
F1.0
sVT-FLOAT
p953
F1.0
sg38
F1.0
sVon
p954
F1.0
sVabout
p955
F1.0
sVclassi
p956
F1.0
sVduda
p957
F1.0
sVthe
p958
F2.0
saa(lp959
S'N01-101174'
p960
a(dp961
Vand
p962
F1.0
sVstump
p963
F1.0
sg216
F2.0
sVlearning
p964
F1.0
sVin
p965
F1.0
sVer
p966
F2.0
sValso
p967
F1.0
sVdecision
p968
F1.0
sVthree
p969
F1.0
sVmajority
p970
F1.0
sg663
F1.0
sg31
F2.0
sVwe
p971
F1.0
sVnaive
p972
F1.0
sVbenchmark
p973
F1.0
sVbayesian
p974
F1.0
sVT-FLOAT
p975
F1.0
sVinclude
p976
F1.0
sVclassi
p977
F2.0
sVthis
p978
F1.0
sVstudy
p979
F1.0
sValgorithms
p980
F1.0
sVthe
p981
F3.0
saa(lp982
S'N01-101175'
p983
a(dp984
Vinstance
p985
F1.0
sVmost
p986
F1.0
sVassigns
p987
F1.0
sVclassi
p988
F1.0
sVto
p989
F1.0
sVin
p990
F2.0
sVtraining
p991
F1.0
sVmajority
p992
F1.0
sVevery
p993
F1.0
sVcommon
p994
F1.0
sVsense
p995
F1.0
sVtest
p996
F1.0
sVthe
p997
F4.0
sVdata
p998
F2.0
sVT-FLOAT
p999
F1.0
sg31
F1.0
sVer
p1000
F1.0
saa(lp1001
S'N01-101172'
p1002
a(dp1003
Vfeatures
p1004
F1.0
sVcorresponds
p1005
F1.0
sVobserved
p1006
F1.0
sVinstances
p1007
F1.0
sVthrough
p1008
F1.0
sVare
p1009
F1.0
sVpath
p1010
F1.0
sVT-FLOAT
p1011
F1.0
sVfrom
p1012
F1.0
sVdecision
p1013
F1.0
sVto
p1014
F1.0
sVnding
p1015
F1.0
sVtest
p1016
F1.0
sVlearned
p1017
F1.0
sg31
F1.0
sVnode
p1018
F1.0
sVthat
p1019
F1.0
sVleaf
p1020
F1.0
sVwith
p1021
F1.0
sVby
p1022
F1.0
sg38
F2.0
sVdisambiguated
p1023
F1.0
sVtree
p1024
F1.0
sVthe
p1025
F3.0
sVroot
p1026
F1.0
saa(lp1027
S'N01-101173'
p1028
a(dp1029
Vthe
p1030
F1.0
sVbigram
p1031
F1.0
sVseries
p1032
F1.0
sVis
p1033
F1.0
sVit
p1034
F1.0
sVan
p1035
F2.0
sVthrough
p1036
F1.0
sVin
p1037
F1.0
sVT-FLOAT
p1038
F1.0
sVif
p1039
F1.0
sVasks
p1040
F1.0
sg216
F1.0
sVinstance
p1041
F1.0
sVwindow
p1042
F1.0
sVtest
p1043
F1.0
sVoccurs
p1044
F1.0
sVavailable
p1045
F1.0
sVtests
p1046
F1.0
sVparticular
p1047
F1.0
sVby
p1048
F1.0
sg38
F2.0
sVambiguous
p1049
F1.0
sVword
p1050
F1.0
sVof
p1051
F3.0
sVcontext
p1052
F1.0
sVeach
p1053
F1.0
sVpassing
p1054
F1.0
sVwhere
p1055
F1.0
sVdisambiguated
p1056
F1.0
saa(lp1057
S'N01-101170'
p1058
a(dp1059
Vand
p1060
F1.0
sVspeci
p1061
F1.0
sVtree
p1062
F1.0
sVgeneral
p1063
F1.0
sVgeneralize
p1064
F1.0
sVexamples
p1065
F1.0
sVin
p1066
F1.0
sg216
F1.0
sVto
p1067
F2.0
sVnew
p1068
F1.0
sg31
F1.0
sVbe
p1069
F1.0
sVtraining
p1070
F1.0
sVnot
p1071
F1.0
sVsuch
p1072
F1.0
sVoverly
p1073
F1.0
sVdata
p1074
F1.0
sVT-FLOAT
p1075
F1.0
sg38
F1.0
sVc
p1076
F1.0
sVwell
p1077
F1.0
sVwill
p1078
F1.0
sVthe
p1079
F1.0
saa(lp1080
S'N01-101171'
p1081
a(dp1082
Vfollowed
p1083
F1.0
sVis
p1084
F1.0
sVsome
p1085
F1.0
sVgeneralize
p1086
F1.0
sVare
p1087
F1.0
sVlearning
p1088
F1.0
sVpruning
p1089
F1.0
sVto
p1090
F2.0
sVtherefore
p1091
F1.0
sVnew
p1092
F1.0
sVnodes
p1093
F1.0
sVthat
p1094
F1.0
sVstep
p1095
F1.0
sVproduce
p1096
F1.0
sVeliminated
p1097
F1.0
sVby
p1098
F1.0
sVcircumstances
p1099
F1.0
sg38
F2.0
sVtree
p1100
F1.0
sVreorganized
p1101
F1.0
sVcan
p1102
F1.0
sVT-FLOAT
p1103
F1.0
sVwhere
p1104
F1.0
sVor
p1105
F1.0
saa(lp1106
S'N01-1011163'
p1107
a(dp1108
Vset
p1109
F2.0
sVfeatures
p1110
F1.0
sVaccurate
p1111
F1.0
sVan
p1112
F2.0
sVresult
p1113
F1.0
sVlearning
p1114
F2.0
sVin
p1115
F2.0
sVgiven
p1116
F1.0
sVno
p1117
F1.0
sVperform
p1118
F1.0
sVthere
p1119
F1.0
sVwhen
p1120
F1.0
sg216
F2.0
sVuninformative
p1121
F1.0
sVother
p1122
F1.0
sVdisambiguation
p1123
F1.0
sVused
p1124
F1.0
sVthat
p1125
F1.0
sVbut
p1126
F1.0
sVwords
p1127
F1.0
sVfeature
p1128
F1.0
sVwith
p1129
F1.0
sVis
p1130
F1.0
sg38
F1.0
sVwide
p1131
F1.0
sValgorithm
p1132
F1.0
sVof
p1133
F2.0
sVwell
p1134
F1.0
sVwill
p1135
F1.0
sVinformative
p1136
F1.0
sVrange
p1137
F1.0
sVmisleading
p1138
F1.0
sValgorithms
p1139
F1.0
sVcan
p1140
F1.0
sVT-FLOAT
p1141
F1.0
sVor
p1142
F1.0
saa(lp1143
S'N01-1011162'
p1144
a(dp1145
Vset
p1146
F1.0
sVcontributors
p1147
F1.0
sVless
p1148
F1.0
sVdisambiguation
p1149
F1.0
sVsigni
p1150
F1.0
sVcant
p1151
F1.0
sVare
p1152
F2.0
sVlearning
p1153
F1.0
sVin
p1154
F2.0
sVour
p1155
F1.0
sVT-FLOAT
p1156
F1.0
sVfeature
p1157
F1.0
sVbeen
p1158
F1.0
sVto
p1159
F1.0
sVhas
p1160
F1.0
sg31
F1.0
sVaccuracy
p1161
F1.0
sVthat
p1162
F1.0
sVfar
p1163
F1.0
sVthan
p1164
F1.0
sVvariations
p1165
F2.0
sVexperience
p1166
F1.0
sValgorithms
p1167
F1.0
sVthe
p1168
F1.0
saa(lp1169
S'N01-1011160'
p1170
a(dp1171
Vand
p1172
F1.0
sVstudied
p1173
F1.0
sVco
p1174
F1.0
sVoccurrence
p1175
F1.0
sVdisambiguation
p1176
F1.0
sVan
p1177
F1.0
sVhave
p1178
F1.0
sVsense
p1179
F1.0
sVT-FLOAT
p1180
F1.0
sVfeatures
p1181
F1.0
sVshown
p1182
F1.0
sVbased
p1183
F1.0
sVnaive
p1184
F1.0
sVto
p1185
F2.0
sg751
F1.0
sg759
F1.0
sVpedersen
p1186
F1.0
sg216
F3.0
sVT-INT
p1187
F1.0
sVwidely
p1188
F1.0
sVapproach
p1189
F1.0
sVensemble
p1190
F1.0
sg31
F1.0
sVwe
p1191
F1.0
sVmultiple
p1192
F1.0
sVinterest
p1193
F1.0
sVclassi
p1194
F1.0
sVnouns
p1195
F1.0
sVvarying
p1196
F1.0
sVbayesian
p1197
F1.0
sVfrom
p1198
F1.0
sVline
p1199
F1.0
sVthe
p1200
F1.0
sVis
p1201
F1.0
sVon
p1202
F2.0
sVword
p1203
F1.0
sVers
p1204
F1.0
sVwindows
p1205
F1.0
sVof
p1206
F1.0
sVpresented
p1207
F1.0
sVwell
p1208
F1.0
sVsized
p1209
F1.0
sVperform
p1210
F1.0
sVcontext
p1211
F1.0
sVeach
p1212
F1.0
sg790
F1.0
sVwhere
p1213
F1.0
saa(lp1214
S'N01-1011167'
p1215
a(dp1216
g38
F2.0
sVwide
p1217
F1.0
sVand
p1218
F2.0
sVbe
p1219
F1.0
sVof
p1220
F2.0
sVaccurate
p1221
F1.0
sVavailable
p1222
F1.0
sg216
F1.0
sVimplementations
p1223
F1.0
sVto
p1224
F1.0
sVrange
p1225
F2.0
sVare
p1226
F2.0
sVthey
p1227
F1.0
sVknown
p1228
F1.0
sVrobust
p1229
F1.0
sVT-FLOAT
p1230
F1.0
sVdomains
p1231
F1.0
sVacross
p1232
F1.0
saa(lp1233
S'N01-1011166'
p1234
a(dp1235
Vwe
p1236
F1.0
sVthat
p1237
F1.0
sVthese
p1238
F1.0
sVdecision
p1239
F1.0
sVtrees
p1240
F1.0
sVcriteria
p1241
F1.0
sVmeet
p1242
F1.0
sVT-FLOAT
p1243
F1.0
sVbelieve
p1244
F1.0
saa(lp1245
S'N01-1011165'
p1246
a(dp1247
Vand
p1248
F2.0
sVamong
p1249
F1.0
sVshed
p1250
F1.0
sVfeatures
p1251
F1.0
sVaccurate
p1252
F1.0
sVfeature
p1253
F1.0
sVlearning
p1254
F1.0
sVour
p1255
F2.0
sVrelationships
p1256
F1.0
sVto
p1257
F1.0
sg216
F1.0
sVshould
p1258
F1.0
sValso
p1259
F1.0
sVonly
p1260
F1.0
sVnew
p1261
F1.0
sg31
F1.0
sVning
p1262
F1.0
sVmodels
p1263
F1.0
sVbut
p1264
F1.0
sVunderstanding
p1265
F1.0
sVproduce
p1266
F1.0
sVthey
p1267
F1.0
sVnot
p1268
F1.0
sVre
p1269
F1.0
sVT-FLOAT
p1270
F1.0
sVmust
p1271
F1.0
sVon
p1272
F1.0
sVlight
p1273
F1.0
sVus
p1274
F1.0
sVcontinue
p1275
F1.0
sValgorithms
p1276
F1.0
sVallow
p1277
F1.0
sVsets
p1278
F1.0
sVthe
p1279
F1.0
saa(lp1280
S'N01-1011164'
p1281
a(dp1282
Vand
p1283
F1.0
sVon
p1284
F1.0
sVsenses
p1285
F1.0
sVword
p1286
F1.0
sVdeveloping
p1287
F1.0
sVdistinctions
p1288
F1.0
sVis
p1289
F1.0
sVthat
p1290
F1.0
sVamong
p1291
F1.0
sVfocus
p1292
F1.0
sg216
F1.0
sVtherefore
p1293
F1.0
sVsets
p1294
F1.0
sVdiscovering
p1295
F1.0
sVour
p1296
F1.0
sVT-FLOAT
p1297
F1.0
sVmake
p1298
F1.0
sVfeature
p1299
F1.0
saa(lp1300
S'N01-1011169'
p1301
a(dp1302
Vand
p1303
F2.0
sVparticularly
p1304
F1.0
sVfeatures
p1305
F1.0
sVdisambiguation
p1306
F1.0
sVsense
p1307
F1.0
sVone
p1308
F1.0
sVas
p1309
F1.0
sVwiebe
p1310
F1.0
sVhave
p1311
F1.0
sVin
p1312
F1.0
sVbigram
p1313
F1.0
sVcollocations
p1314
F1.0
sg751
F4.0
sg759
F4.0
sg216
F7.0
sVbeen
p1315
F1.0
sVng
p1316
F1.0
sVT-INT
p1317
F3.0
sVyarowsky
p1318
F1.0
sVis
p1319
F1.0
sVused
p1320
F1.0
sVlee
p1321
F1.0
sVform
p1322
F1.0
sVbruce
p1323
F1.0
sVcomponent
p1324
F1.0
sg743
F1.0
sVT-FLOAT
p1325
F3.0
sVambiguous
p1326
F1.0
sVword
p1327
F2.0
sVfor
p1328
F1.0
sVg
p1329
F1.0
sVof
p1330
F2.0
sVbigrams
p1331
F1.0
sVthe
p1332
F3.0
sVwhere
p1333
F1.0
saa(lp1334
S'N01-1011168'
p1335
a(dp1336
Vand
p1337
F2.0
sVamong
p1338
F1.0
sVfeatures
p1339
F1.0
sVis
p1340
F1.0
sVgeneral
p1341
F1.0
sVexist
p1342
F1.0
sVrelationships
p1343
F1.0
sVtheir
p1344
F1.0
sVprovide
p1345
F1.0
sg216
F1.0
sVto
p1346
F1.0
sVstructure
p1347
F1.0
sVeasy
p1348
F1.0
sVinto
p1349
F1.0
sVmore
p1350
F1.0
sVthat
p1351
F1.0
sVmay
p1352
F1.0
sVdisambiguation
p1353
F1.0
sVmost
p1354
F1.0
sVimportant
p1355
F1.0
sVT-FLOAT
p1356
F1.0
sVinterpret
p1357
F1.0
sVinsights
p1358
F1.0
sVrules
p1359
F1.0
sVof
p1360
F1.0
sVthe
p1361
F1.0
saa(lp1362
S'N01-101169'
p1363
a(dp1364
Vtraining
p1365
F1.0
sVfor
p1366
F1.0
sVdecision
p1367
F1.0
sVcontinues
p1368
F1.0
sVtree
p1369
F1.0
sVall
p1370
F1.0
sVby
p1371
F1.0
sVT-FLOAT
p1372
F1.0
sVaccounted
p1373
F1.0
sVexamples
p1374
F1.0
sVlearning
p1375
F1.0
sVthe
p1376
F2.0
sVuntil
p1377
F1.0
sVare
p1378
F1.0
saa(lp1379
S'N01-101168'
p1380
a(dp1381
Vnode
p1382
F1.0
sVrepresents
p1383
F1.0
sVfeature
p1384
F1.0
sVfor
p1385
F1.0
sVpoint
p1386
F1.0
sVof
p1387
F1.0
sVbetween
p1388
F1.0
sVnumber
p1389
F1.0
sVchoice
p1390
F1.0
sVvalues
p1391
F1.0
sg38
F3.0
sVeach
p1392
F1.0
sVpossible
p1393
F1.0
sVerent
p1394
F1.0
sVdi
p1395
F1.0
sVT-FLOAT
p1396
F1.0
sg31
F1.0
saa(lp1397
S'N01-101164'
p1398
a(dp1399
Vfeatures
p1400
F1.0
sVspeci
p1401
F1.0
sVgeneral
p1402
F1.0
sVas
p1403
F1.0
sVT-FLOAT
p1404
F1.0
sVproceeds
p1405
F1.0
sVadding
p1406
F1.0
sVspace
p1407
F1.0
sVperform
p1408
F1.0
sVfeature
p1409
F1.0
sVto
p1410
F2.0
sg31
F1.0
sVsearch
p1411
F2.0
sVmost
p1412
F1.0
sVthey
p1413
F1.0
sg216
F1.0
sVstructure
p1414
F1.0
sg38
F3.0
sg1076
F1.0
sVof
p1415
F1.0
sVtree
p1416
F1.0
sVinformative
p1417
F1.0
sVthe
p1418
F2.0
saa(lp1419
S'N01-101167'
p1420
a(dp1421
g38
F1.0
sVnode
p1422
F1.0
sVsearch
p1423
F1.0
sVlearned
p1424
F1.0
sVin
p1425
F1.0
sVdecision
p1426
F1.0
sVprocess
p1427
F1.0
sVis
p1428
F1.0
sVselected
p1429
F1.0
sVtree
p1430
F1.0
sVfeature
p1431
F1.0
sVT-FLOAT
p1432
F1.0
sVeach
p1433
F1.0
sVrepresented
p1434
F1.0
sVduring
p1435
F1.0
sVthe
p1436
F2.0
sVby
p1437
F1.0
saa(lp1438
S'N01-101166'
p1439
a(dp1440
Vand
p1441
F1.0
sVtagged
p1442
F1.0
sVmanually
p1443
F1.0
sVin
p1444
F2.0
sVan
p1445
F1.0
sVexamples
p1446
F1.0
sVsense
p1447
F1.0
sVour
p1448
F1.0
sVT-FLOAT
p1449
F1.0
sg216
F1.0
sVto
p1450
F1.0
sVobservations
p1451
F1.0
sg31
F1.0
sVsenses
p1452
F1.0
sVdi
p1453
F1.0
sVpossible
p1454
F1.0
sVerent
p1455
F1.0
sg790
F1.0
sVpartitions
p1456
F1.0
sVcase
p1457
F1.0
sVambiguous
p1458
F1.0
sVword
p1459
F1.0
sVof
p1460
F1.0
sVcorrespond
p1461
F1.0
sVcontext
p1462
F1.0
sVthe
p1463
F3.0
sVare
p1464
F1.0
saa(lp1465
S'N01-101161'
p1466
a(dp1467
g38
F1.0
sVwe
p1468
F1.0
sVstatistics
p1469
F1.0
sVbigram
p1470
F1.0
sVranked
p1471
F1.0
sVpackage
p1472
F1.0
sVdeveloped
p1473
F1.0
sVrange
p1474
F1.0
sVlists
p1475
F1.0
sVto
p1476
F1.0
sVbigrams
p1477
F1.0
sVproduce
p1478
F1.0
sVtests
p1479
F1.0
sVhave
p1480
F1.0
sVof
p1481
F2.0
sVusing
p1482
F1.0
sVthe
p1483
F1.0
sVT-FLOAT
p1484
F1.0
saa(lp1485
S'N01-101163'
p1486
a(dp1487
Vamong
p1488
F1.0
sVused
p1489
F1.0
sVlearning
p1490
F1.0
sVdecision
p1491
F1.0
sVtrees
p1492
F1.0
sVmachine
p1493
F1.0
sVmost
p1494
F1.0
sValgorithms
p1495
F1.0
sVare
p1496
F1.0
sVwidely
p1497
F1.0
sVthe
p1498
F1.0
sVT-FLOAT
p1499
F1.0
saa(lp1500
S'N01-101162'
p1501
a(dp1502
Vand
p1503
F1.0
sVavailable
p1504
F1.0
sVwww
p1505
F1.0
sVfrom
p1506
F1.0
sVd
p1507
F1.0
sVthis
p1508
F1.0
sVfreely
p1509
F1.0
sVis
p1510
F2.0
sVperl
p1511
F1.0
sVwritten
p1512
F1.0
sVedu/~tpederse
p1513
F1.0
sVin
p1514
F1.0
sVT-FLOAT
p1515
F4.0
sVumn
p1516
F1.0
sVsoftware
p1517
F1.0
saa(lp1518
S'N01-1011170'
p1519
a(dp1520
Vrequirement
p1521
F1.0
sVbeing
p1522
F1.0
sVis
p1523
F1.0
sVsome
p1524
F1.0
sVwhile
p1525
F1.0
sVidentify
p1526
F1.0
sVare
p1527
F1.0
sVcollocations
p1528
F1.0
sVno
p1529
F1.0
sVthere
p1530
F1.0
sg216
F1.0
sVinclude
p1531
F1.0
sVbe
p1532
F1.0
sVwe
p1533
F1.0
sVthat
p1534
F2.0
sVT-FLOAT
p1535
F1.0
sVcase
p1536
F1.0
sVword
p1537
F1.0
sVthis
p1538
F1.0
sVof
p1539
F1.0
sVbigrams
p1540
F1.0
sVthe
p1541
F3.0
sVdisambiguated
p1542
F1.0
saa(lp1543
S'N01-1011171'
p1544
a(dp1545
Vand
p1546
F2.0
sVhave
p1547
F2.0
sVdisambiguation
p1548
F1.0
sVin
p1549
F2.0
sVnumber
p1550
F1.0
sVfared
p1551
F1.0
sVmooney
p1552
F1.0
sVlearning
p1553
F1.0
sVsense
p1554
F1.0
sVcomparative
p1555
F1.0
sVT-INT
p1556
F2.0
sg751
F3.0
sg759
F3.0
sVdecision
p1557
F1.0
sVpedersen
p1558
F1.0
sg216
F5.0
sVbeen
p1559
F1.0
sVto
p1560
F1.0
sVused
p1561
F1.0
sVbruce
p1562
F1.0
sVtrees
p1563
F1.0
sVapproaches
p1564
F1.0
sg743
F1.0
sg38
F1.0
sVword
p1565
F1.0
sg1329
F1.0
sVof
p1566
F1.0
sVwell
p1567
F1.0
sVsupervised
p1568
F1.0
sVT-FLOAT
p1569
F3.0
sVstudies
p1570
F1.0
saa(lp1571
S'N01-1011172'
p1572
a(dp1573
Vand
p1574
F2.0
sVset
p1575
F1.0
sVthey
p1576
F2.0
sg216
F2.0
sVin
p1577
F2.0
sVmorphology
p1578
F1.0
sVT-FLOAT
p1579
F1.0
sVcollocations
p1580
F1.0
sVlatter
p1581
F1.0
sVfeature
p1582
F2.0
sVneighboring
p1583
F1.0
sVpart-of-speech
p1584
F1.0
sVused
p1585
F2.0
sVthat
p1586
F1.0
sVwere
p1587
F2.0
sVwords
p1588
F1.0
sVincluded
p1589
F1.0
sVwith
p1590
F2.0
sVformer
p1591
F1.0
sg38
F1.0
sVambiguous
p1592
F1.0
sVword
p1593
F2.0
sVof
p1594
F3.0
sVbag
p1595
F1.0
sVthree
p1596
F1.0
sVsets
p1597
F1.0
sVmixed
p1598
F1.0
sVthe
p1599
F6.0
saa(lp1600
S'N01-1011173'
p1601
a(dp1602
Vbigram
p1603
F1.0
sVfeatures
p1604
F1.0
sVis
p1605
F1.0
sVpaper
p1606
F1.0
sVhave
p1607
F1.0
sVin
p1608
F1.0
sVbased
p1609
F1.0
sVstrictly
p1610
F1.0
sVbeen
p1611
F1.0
sVemployed
p1612
F1.0
sVapproach
p1613
F1.0
sg31
F1.0
sVwe
p1614
F1.0
sVthat
p1615
F2.0
sVtrees
p1616
F1.0
sVrst
p1617
F1.0
sVbelieve
p1618
F1.0
sVT-FLOAT
p1619
F1.0
sVon
p1620
F1.0
sVthis
p1621
F1.0
sVtime
p1622
F1.0
sVthe
p1623
F2.0
sVdecision
p1624
F1.0
saa(lp1625
S'N01-1011174'
p1626
a(dp1627
Vand
p1628
F1.0
sVdisambiguation
p1629
F1.0
sVrelated
p1630
F1.0
sVsense
p1631
F1.0
sVT-INT
p1632
F3.0
sValso
p1633
F1.0
sg751
F4.0
sg759
F4.0
sVdecision
p1634
F1.0
sg216
F6.0
sVbeen
p1635
F1.0
sVto
p1636
F1.0
sVyarowsky
p1637
F2.0
sVhas
p1638
F1.0
sVapproach
p1639
F1.0
sVis
p1640
F1.0
sVapplied
p1641
F1.0
sVthat
p1642
F1.0
sVclosely
p1643
F1.0
sg743
F1.0
sVthe
p1644
F1.0
sg38
F1.0
sVword
p1645
F1.0
sg1329
F1.0
sVstevenson
p1646
F1.0
sVlist
p1647
F1.0
sVwilks
p1648
F1.0
sVT-FLOAT
p1649
F3.0
saa(lp1650
S'N01-1011175'
p1651
a(dp1652
Vbuilding
p1653
F1.0
sVand
p1654
F1.0
sVperform
p1655
F1.0
sVrather
p1656
F1.0
sVlist
p1657
F1.0
sVdisambiguation
p1658
F1.0
sVtree
p1659
F1.0
sg216
F1.0
sVto
p1660
F1.0
sg38
F2.0
sVemployed
p1661
F1.0
sVtraversing
p1662
F1.0
sVT-FLOAT
p1663
F1.0
sVthan
p1664
F1.0
sVis
p1665
F1.0
saa(lp1666
S'N01-1011176'
p1667
a(dp1668
Vtrained
p1669
F1.0
sVless
p1670
F2.0
sVis
p1671
F1.0
sVgeneral
p1672
F1.0
sVas
p1673
F1.0
sVlearning
p1674
F1.0
sVin
p1675
F1.0
sg790
F1.0
sVT-FLOAT
p1676
F1.0
sVsuffer
p1677
F1.0
sVfrom
p1678
F1.0
sVdecision
p1679
F3.0
sVthat
p1680
F1.0
sVto
p1681
F1.0
sV;
p1682
F1.0
sVover
p1683
F1.0
sg38
F2.0
sVmeans
p1684
F1.0
sVmay
p1685
F1.0
sVtrees
p1686
F1.0
sVduring
p1687
F1.0
sVbe
p1688
F1.0
sVthan
p1689
F1.0
sVcase
p1690
F1.0
sVfragmentation
p1691
F1.0
sVthis
p1692
F1.0
sVlist
p1693
F2.0
sVlikely
p1694
F1.0
sVpractical
p1695
F1.0
sVmatter
p1696
F1.0
sVthe
p1697
F2.0
saa(lp1698
S'N01-1011177'
p1699
a(dp1700
Von
p1701
F1.0
sVwe
p1702
F1.0
sVset
p1703
F1.0
sVfor
p1704
F1.0
sVthat
p1705
F1.0
sVT-FLOAT
p1706
F1.0
sVects
p1707
F1.0
sVhowever
p1708
F1.0
sg216
F1.0
sValso
p1709
F1.0
sVused
p1710
F1.0
sVlearning
p1711
F1.0
sVre
p1712
F1.0
sVthe
p1713
F1.0
sVbelieve
p1714
F1.0
sVfragmentation
p1715
F1.0
sVfeature
p1716
F1.0
saa(lp1717
S'N01-1011178'
p1718
a(dp1719
Vbinary
p1720
F1.0
sVfeatures
p1721
F1.0
sVT-INT
p1722
F1.0
sVof
p1723
F1.0
sVapproximately
p1724
F1.0
sVmost
p1725
F1.0
sVat
p1726
F1.0
sVconsists
p1727
F1.0
sVours
p1728
F1.0
sVT-FLOAT
p1729
F1.0
saa(lp1730
S'N01-1011179'
p1731
a(dp1732
Vis
p1733
F1.0
sVresults
p1734
F1.0
sVlikely
p1735
F1.0
sVspaces
p1736
F1.0
sVare
p1737
F1.0
sVin
p1738
F1.0
sVer
p1739
F1.0
sVfrom
p1740
F1.0
sVspace
p1741
F1.0
sVfeature
p1742
F1.0
sVto
p1743
F1.0
sVrelatively
p1744
F1.0
sg31
F1.0
sVthat
p1745
F1.0
sVnot
p1746
F1.0
sg38
F1.0
sVfragmentation
p1747
F1.0
sVthis
p1748
F1.0
sVlarger
p1749
F1.0
sVas
p1750
F2.0
sVsu
p1751
F1.0
sVsmall
p1752
F1.0
sVT-FLOAT
p1753
F1.0
saa(lp1754
S'N01-101152'
p1755
a(dp1756
Vand
p1757
F1.0
sVis
p1758
F1.0
sVmeasure
p1759
F1.0
sVit
p1760
F1.0
sVin
p1761
F1.0
sVrelationships
p1762
F1.0
sVinformation
p1763
F1.0
sVmutual
p1764
F1.0
sVfor
p1765
F1.0
sVT-INT
p1766
F1.0
sg751
F1.0
sg759
F1.0
sVlexical
p1767
F1.0
sg216
F2.0
sVto
p1768
F1.0
sVwidely
p1769
F1.0
sVhanks
p1770
F1.0
sVwas
p1771
F1.0
sg31
F1.0
sVused
p1772
F1.0
sVthat
p1773
F1.0
sVchurch
p1774
F1.0
sVrst
p1775
F1.0
sg38
F1.0
sVpointwise
p1776
F1.0
sVidentifying
p1777
F1.0
sVT-FLOAT
p1778
F1.0
sVintroduced
p1779
F1.0
sVsimilar
p1780
F1.0
saa(lp1781
S'N01-101153'
p1782
a(dp1783
Vand
p1784
F1.0
sVrepresent
p1785
F1.0
sVbigram
p1786
F1.0
sVas
p1787
F1.0
sVmake
p1788
F1.0
sVinformation
p1789
F1.0
sVmutual
p1790
F1.0
sVlog
p1791
F1.0
sg751
F1.0
sg759
F1.0
sVned
p1792
F1.0
sVtwo
p1793
F1.0
sVT-INT
p1794
F8.0
sg1682
F1.0
sg663
F1.0
sV=
p1795
F1.0
sg31
F3.0
sVbe
p1796
F1.0
sVthat
p1797
F1.0
sVde
p1798
F1.0
sVwords
p1799
F1.0
sVT-FLOAT
p1800
F1.0
sV++
p1801
F1.0
sVfollows
p1802
F1.0
sVmi
p1803
F1.0
sVup
p1804
F1.0
sVn
p1805
F4.0
sVcan
p1806
F1.0
sVw
p1807
F4.0
sVthe
p1808
F2.0
sVpointwise
p1809
F1.0
sVwhere
p1810
F1.0
sV+
p1811
F2.0
saa(lp1812
S'N01-101154'
p1813
a(dp1814
Vbigram
p1815
F1.0
sVoften
p1816
F2.0
sVrelative
p1817
F1.0
sVin
p1818
F2.0
sVoccur
p1819
F2.0
sVes
p1820
F1.0
sVinformation
p1821
F1.0
sVmutual
p1822
F1.0
sVhow
p1823
F2.0
sg751
F2.0
sg759
F2.0
sVthey
p1824
F1.0
sVtwo
p1825
F1.0
sVto
p1826
F1.0
sVcorpus
p1827
F1.0
sVquanti
p1828
F1.0
sg31
F1.0
sVdenominator
p1829
F1.0
sVoverall
p1830
F1.0
sVwords
p1831
F1.0
sVT-FLOAT
p1832
F1.0
sg38
F1.0
sVnumerator
p1833
F1.0
sVtogether
p1834
F1.0
sVthe
p1835
F3.0
sVpointwise
p1836
F1.0
saa(lp1837
S'N01-101155'
p1838
a(dp1839
g38
F1.0
sVinformation
p1840
F1.0
sVlimitation
p1841
F1.0
sVis
p1842
F1.0
sVthere
p1843
F1.0
sVhowever
p1844
F1.0
sg216
F1.0
sVto
p1845
F1.0
sVcurious
p1846
F1.0
sVT-FLOAT
p1847
F1.0
sVpointwise
p1848
F1.0
sVmutual
p1849
F1.0
saa(lp1850
S'N01-101156'
p1851
a(dp1852
Vand
p1853
F2.0
sVbigram
p1854
F2.0
sVincreasingly
p1855
F1.0
sVas
p1856
F2.0
sVresult
p1857
F1.0
sVin
p1858
F2.0
sVtimes
p1859
F1.0
sVoccur
p1860
F1.0
sVwhose
p1861
F1.0
sg216
F2.0
sVdecreases
p1862
F1.0
sVT-INT
p1863
F6.0
sVonly
p1864
F1.0
sVcorpus
p1865
F1.0
sVoccurs
p1866
F1.0
sVthat
p1867
F2.0
sVmeasures
p1868
F1.0
sVcomponent
p1869
F1.0
sVpart
p1870
F1.0
sVwords
p1871
F1.0
sVstrong
p1872
F1.0
sVT-FLOAT
p1873
F1.0
sVassociation
p1874
F1.0
sg38
F2.0
sVof
p1875
F3.0
sVvalue
p1876
F1.0
sg1805
F2.0
sVwill
p1877
F1.0
sg1807
F4.0
sVthe
p1878
F2.0
saa(lp1879
S'N01-101157'
p1880
a(dp1881
Vand
p1882
F1.0
sVbigram
p1883
F1.0
sVthus
p1884
F1.0
sVone
p1885
F1.0
sVassigned
p1886
F1.0
sVin
p1887
F1.0
sVoccur
p1888
F2.0
sVinformation
p1889
F1.0
sVmutual
p1890
F1.0
sVthat
p1891
F2.0
sg216
F2.0
sVto
p1892
F1.0
sVoutside
p1893
F1.0
sVcorpus
p1894
F1.0
sVbe
p1895
F1.0
sVwhose
p1896
F1.0
sVnever
p1897
F1.0
sVcomponent
p1898
F1.0
sVgiven
p1899
F1.0
sVwords
p1900
F1.0
sVT-FLOAT
p1901
F1.0
sg38
F1.0
sVmaximum
p1902
F1.0
sVwill
p1903
F1.0
sVbigrams
p1904
F1.0
sVtime
p1905
F1.0
sVthe
p1906
F1.0
sVpointwise
p1907
F1.0
saa(lp1908
S'N01-101158'
p1909
a(dp1910
Vuseful
p1911
F1.0
sVdisambiguation
p1912
F1.0
sVas
p1913
F1.0
sVare
p1914
F1.0
sVT-FLOAT
p1915
F1.0
sVyet
p1916
F1.0
sVinformation
p1917
F1.0
sVmutual
p1918
F1.0
sVfor
p1919
F1.0
sVprove
p1920
F1.0
sg216
F1.0
sVdominate
p1921
F1.0
sVthat
p1922
F1.0
sVmost
p1923
F1.0
sVranked
p1924
F1.0
sVthey
p1925
F1.0
sVnot
p1926
F1.0
sVby
p1927
F1.0
sg38
F1.0
sVthese
p1928
F1.0
sVlist
p1929
F1.0
sVwill
p1930
F1.0
sVbigrams
p1931
F1.0
sVdetermined
p1932
F1.0
sVusually
p1933
F1.0
sVthe
p1934
F1.0
sVpointwise
p1935
F1.0
saa(lp1936
S'N01-1011138'
p1937
a(dp1938
Vand
p1939
F1.0
sVbigram
p1940
F1.0
sVfeatures
p1941
F1.0
sVshow
p1942
F1.0
sVof
p1943
F1.0
sVselected
p1944
F1.0
sVnumber
p1945
F1.0
sVresults
p1946
F1.0
sVT-INT
p1947
F3.0
sVexperimental
p1948
F1.0
sVtable
p1949
F1.0
sVthe
p1950
F1.0
sg663
F1.0
sVT-FLOAT
p1951
F1.0
sVcolumns
p1952
F1.0
saa(lp1953
S'N01-101132'
p1954
a(dp1955
Vbigram
p1956
F1.0
sVbig
p1957
F1.0
sVhow
p1958
F1.0
sVof
p1959
F1.0
sVin
p1960
F1.0
sVvalue
p1961
F1.0
sg1805
F1.0
sVcorpus
p1962
F1.0
sVT-INT
p1963
F1.0
sVcat
p1964
F1.0
sVT-FLOAT
p1965
F1.0
sVmany
p1966
F1.0
sVthe
p1967
F3.0
sVtimes
p1968
F1.0
sVoccurs
p1969
F1.0
sVshows
p1970
F1.0
saa(lp1971
S'N01-101133'
p1972
a(dp1973
Vand
p1974
F1.0
sVword
p1975
F1.0
sVoften
p1976
F1.0
sVhow
p1977
F1.0
sVnot
p1978
F1.0
sVof
p1979
F1.0
sVis
p1980
F2.0
sVsecond
p1981
F1.0
sVvalue
p1982
F1.0
sg1805
F1.0
sVT-INT
p1983
F1.0
sVbigrams
p1984
F1.0
sVT-FLOAT
p1985
F1.0
sVbig
p1986
F1.0
sVrst
p1987
F1.0
sVthe
p1988
F3.0
sVcat
p1989
F1.0
sVwhere
p1990
F1.0
sVoccur
p1991
F1.0
sg31
F1.0
sVshows
p1992
F1.0
saa(lp1993
S'N01-101131'
p1994
a(dp1995
Vand
p1996
F1.0
sVthe
p1997
F1.0
sVbigram
p1998
F1.0
sVfigure
p1999
F1.0
sVpaper
p2000
F1.0
sVin
p2001
F1.0
sVtable
p2002
F1.0
sVcounts
p2003
F1.0
sVfor
p2004
F1.0
sVT-INT
p2005
F3.0
sVway
p2006
F1.0
sg31
F1.0
sVsummarizes
p2007
F1.0
sVused
p2008
F1.0
sVnotation
p2009
F1.0
sVcontingency
p2010
F1.0
sVby
p2011
F1.0
sg38
F1.0
sVword
p2012
F1.0
sVthis
p2013
F1.0
sVof
p2014
F1.0
sVT-FLOAT
p2015
F1.0
saa(lp2016
S'N01-101136'
p2017
a(dp2018
Vand
p2019
F1.0
sg751
F1.0
sVfamily
p2020
F1.0
sVpower
p2021
F1.0
sVread
p2022
F1.0
sg759
F1.0
sVdivergence
p2023
F1.0
sg216
F1.0
sVintroduce
p2024
F1.0
sVT-INT
p2025
F1.0
sVstatistics
p2026
F1.0
sg368
F1.0
sVgoodness
p2027
F1.0
sVof
p2028
F2.0
sVthe
p2029
F1.0
sVcressie
p2030
F1.0
sVT-FLOAT
p2031
F1.0
sg31
F1.0
saa(lp2032
S'N01-101137'
p2033
a(dp2034
g38
F1.0
sVand
p2035
F1.0
sVstatistics
p2036
F1.0
sVratio
p2037
F1.0
sVfamily
p2038
F1.0
sVT-INT
p2039
F2.0
sVthis
p2040
F1.0
sVof
p2041
F1.0
sVbelong
p2042
F1.0
sVwell
p2043
F1.0
sVnumber
p2044
F1.0
sVstatistic
p2045
F1.0
sg216
F1.0
sVto
p2046
F1.0
sVincluding
p2047
F1.0
sVstatisticg
p2048
F1.0
sVknown
p2049
F1.0
sVpearson'sx
p2050
F1.0
sVthe
p2051
F1.0
sVlikelihood
p2052
F1.0
sVT-FLOAT
p2053
F1.0
saa(lp2054
S'N01-101134'
p2055
a(dp2056
Vand
p2057
F3.0
sVbigram
p2058
F1.0
sVoften
p2059
F1.0
sVsecond
p2060
F1.0
sVin
p2061
F2.0
sVcounts
p2062
F1.0
sVcat
p2063
F1.0
sVany
p2064
F1.0
sVT-INT
p2065
F2.0
sg1811
F2.0
sVoccur
p2066
F1.0
sVindicate
p2067
F1.0
sVcorpus
p2068
F1.0
sg31
F1.0
sVbig
p2069
F1.0
sVhow
p2070
F1.0
sVwords
p2071
F2.0
sVrst
p2072
F1.0
sVT-FLOAT
p2073
F1.0
sVof
p2074
F1.0
sVas
p2075
F1.0
sg1805
F2.0
sVthe
p2076
F3.0
saa(lp2077
S'N01-101135'
p2078
a(dp2079
Vfamily
p2080
F1.0
sVpower
p2081
F1.0
sVT-INT
p2082
F2.0
sV++
p2083
F1.0
sVof
p2084
F1.0
sVis
p2085
F1.0
sVdivergence
p2086
F1.0
sVnumber
p2087
F1.0
sVby
p2088
F1.0
sVT-FLOAT
p2089
F3.0
sVbigrams
p2090
F1.0
sg1805
F1.0
sVin
p2091
F1.0
sVrepresented
p2092
F1.0
sVthe
p2093
F3.0
sVtotal
p2094
F1.0
sVcorpus
p2095
F1.0
saa(lp2096
S'N01-1011149'
p2097
a(dp2098
Vand
p2099
F1.0
sVall
p2100
F1.0
sVbigram
p2101
F1.0
sVfeatures
p2102
F2.0
sVed
p2103
F1.0
sVltering
p2104
F1.0
sVexperiments
p2105
F1.0
sVin
p2106
F1.0
sVT-FLOAT
p2107
F1.0
sVfor
p2108
F1.0
sVno
p2109
F1.0
sVdecision
p2110
F2.0
sVthere
p2111
F1.0
sVlearner
p2112
F1.0
sg216
F2.0
sVidenti
p2113
F1.0
sVto
p2114
F1.0
sVeliminate
p2115
F1.0
sVmany
p2116
F1.0
sg31
F2.0
sVused
p2117
F1.0
sVthat
p2118
F1.0
sVcandidate
p2119
F1.0
sVtrees
p2120
F1.0
sVmost
p2121
F1.0
sVstep
p2122
F1.0
sVwords
p2123
F1.0
sVby
p2124
F1.0
sVon
p2125
F1.0
sVwent
p2126
F1.0
sVthese
p2127
F1.0
sVof
p2128
F2.0
sVtree
p2129
F1.0
sVwere
p2130
F1.0
sVthe
p2131
F4.0
saa(lp2132
S'N01-101138'
p2133
a(dp2134
Vand
p2135
F1.0
sVbigram
p2136
F2.0
sVis
p2137
F1.0
sVin
p2138
F1.0
sVobserved
p2139
F1.0
sVij
p2140
F3.0
sVmeasure
p2141
F1.0
sVcounts
p2142
F1.0
sVestimated
p2143
F1.0
sVoccur
p2144
F1.0
sVbased
p2145
F1.0
sg751
F2.0
sg759
F2.0
sVstrictly
p2146
F1.0
sg216
F1.0
sVassumption
p2147
F1.0
sVexpected
p2148
F1.0
sVthat
p2149
F1.0
sVcomponent
p2150
F1.0
sVdivergence
p2151
F1.0
sVchance
p2152
F1.0
sVwords
p2153
F1.0
sVby
p2154
F1.0
sVon
p2155
F1.0
sVthese
p2156
F1.0
sVof
p2157
F1.0
sVm
p2158
F2.0
sVtogether
p2159
F1.0
sg1805
F1.0
sVT-FLOAT
p2160
F1.0
sVthe
p2161
F5.0
sVwhere
p2162
F1.0
saa(lp2163
S'N01-101139'
p2164
a(dp2165
Vand
p2166
F1.0
sVdealing
p2167
F1.0
sVover
p2168
F1.0
sVargues
p2169
F1.0
sVdunning
p2170
F1.0
sVin
p2171
F1.0
sVdistributions
p2172
F1.0
sVT-INT
p2173
F3.0
sg751
F1.0
sg759
F1.0
sVwhen
p2174
F1.0
sg216
F2.0
sVfavor
p2175
F1.0
sVvery
p2176
F1.0
sVdata
p2177
F1.0
sVespecially
p2178
F1.0
sg1329
F1.0
sVof
p2179
F1.0
sVwith
p2180
F1.0
sVskewed
p2181
F1.0
sVsparse
p2182
F1.0
sVx
p2183
F1.0
sVT-FLOAT
p2184
F1.0
saa(lp2185
S'N01-1011136'
p2186
a(dp2187
Vand
p2188
F1.0
sVnode
p2189
F1.0
sVstump
p2190
F1.0
sVto
p2191
F1.0
sVshow
p2192
F1.0
sVdecision
p2193
F1.0
sVselected
p2194
F1.0
sVserve
p2195
F1.0
sVT-INT
p2196
F2.0
sVas
p2197
F1.0
sVthe
p2198
F2.0
sVT-FLOAT
p2199
F1.0
sVcolumns
p2200
F1.0
saa(lp2201
S'N01-1011145'
p2202
a(dp2203
Vnode
p2204
F1.0
sVrepresents
p2205
F1.0
sVend
p2206
F1.0
sVthat
p2207
F1.0
sVof
p2208
F1.0
sVdecision
p2209
F1.0
sVsense
p2210
F1.0
sVtree
p2211
F1.0
sVthrough
p2212
F1.0
sg38
F2.0
sVeach
p2213
F1.0
sVleaf
p2214
F1.0
sVthe
p2215
F2.0
sVpath
p2216
F1.0
sVmakes
p2217
F1.0
sVT-FLOAT
p2218
F1.0
sVdistinction
p2219
F1.0
saa(lp2220
S'N01-1011144'
p2221
a(dp2222
Vand
p2223
F1.0
sVerence
p2224
F1.0
sVleaf
p2225
F1.0
sVdi
p2226
F1.0
sVof
p2227
F1.0
sVis
p2228
F1.0
sVnumber
p2229
F1.0
sVT-FLOAT
p2230
F1.0
sVinternal
p2231
F1.0
sVsimply
p2232
F1.0
sVbetween
p2233
F1.0
sVthe
p2234
F4.0
sVtotal
p2235
F1.0
sVnodes
p2236
F3.0
sg31
F1.0
saa(lp2237
S'N01-1011147'
p2238
a(dp2239
g38
F1.0
sVwill
p2240
F1.0
sVfeatures
p2241
F1.0
sVthat
p2242
F1.0
sVof
p2243
F3.0
sVaccurate
p2244
F1.0
sVnumber
p2245
F1.0
sVtrees
p2246
F1.0
sVone
p2247
F1.0
sVhypotheses
p2248
F1.0
sVT-FLOAT
p2249
F1.0
sVbigrams
p2250
F1.0
sVsmall
p2251
F1.0
sVour
p2252
F1.0
sVdecision
p2253
F1.0
sVinclude
p2254
F1.0
sVwas
p2255
F1.0
sVoriginal
p2256
F1.0
sVrelatively
p2257
F1.0
saa(lp2258
S'N01-1011137'
p2259
a(dp2260
Vand
p2261
F1.0
sVleaf
p2262
F1.0
sVto
p2263
F1.0
sVshow
p2264
F1.0
sVof
p2265
F2.0
sVlearned
p2266
F1.0
sVtree
p2267
F1.0
sVnumber
p2268
F2.0
sVrelative
p2269
F1.0
sVT-INT
p2270
F2.0
sVT-FLOAT
p2271
F1.0
sVin
p2272
F1.0
sVdecision
p2273
F1.0
sVthe
p2274
F3.0
sVtotal
p2275
F1.0
sVnodes
p2276
F2.0
sVcolumns
p2277
F1.0
saa(lp2278
S'N01-1011140'
p2279
a(dp2280
Vand
p2281
F1.0
sVamong
p2282
F1.0
sVstump
p2283
F1.0
sVis
p2284
F2.0
sVare
p2285
F1.0
sVmeasure
p2286
F1.0
sVfrom
p2287
F1.0
sVfor
p2288
F1.0
sVchosen
p2289
F1.0
sVdecision
p2290
F1.0
sVsince
p2291
F1.0
sVgenerally
p2292
F1.0
sg216
F1.0
sVto
p2293
F1.0
sVexpected
p2294
F1.0
sVconsistent
p2295
F1.0
sVnode
p2296
F1.0
sVbe
p2297
F1.0
sVranked
p2298
F1.0
sVT-FLOAT
p2299
F1.0
sVthose
p2300
F1.0
sVthis
p2301
F1.0
sVbigrams
p2302
F1.0
sVeach
p2303
F1.0
sVthe
p2304
F2.0
sVtop
p2305
F1.0
saa(lp2306
S'N01-1011143'
p2307
a(dp2308
Vand
p2309
F2.0
sVshown
p2310
F1.0
sVleaf
p2311
F1.0
sVfor
p2312
F1.0
sVof
p2313
F2.0
sVlearned
p2314
F1.0
sVin
p2315
F1.0
sVtree
p2316
F1.0
sVnumber
p2317
F2.0
sVT-INT
p2318
F2.0
sVcolumns
p2319
F1.0
sVT-FLOAT
p2320
F1.0
sVeach
p2321
F1.0
sVthe
p2322
F2.0
sVtotal
p2323
F1.0
sVnodes
p2324
F2.0
sVis
p2325
F1.0
saa(lp2326
S'N01-1011142'
p2327
a(dp2328
Von
p2329
F1.0
sVdifferent
p2330
F1.0
sVbased
p2331
F1.0
sVthat
p2332
F1.0
sVthese
p2333
F2.0
sVT-FLOAT
p2334
F1.0
sVsets
p2335
F1.0
sVfeature
p2336
F1.0
sVtrees
p2337
F1.0
sVsized
p2338
F1.0
sVre
p2339
F1.0
sVare
p2340
F2.0
sVin
p2341
F1.0
sVthe
p2342
F1.0
sVlearned
p2343
F1.0
sVected
p2344
F1.0
saa(lp2345
S'N01-1011125'
p2346
a(dp2347
Vand
p2348
F1.0
sVtasks
p2349
F2.0
sVtree/power
p2350
F1.0
sVaccurate
p2351
F2.0
sVresults
p2352
F1.0
sVT-FLOAT
p2353
F1.0
sVbest
p2354
F1.0
sVcompared
p2355
F1.0
sVfor
p2356
F2.0
sVto
p2357
F1.0
sVdecision
p2358
F1.0
sVwhen
p2359
F1.0
sg216
F1.0
sVT-INT
p2360
F4.0
sVwas
p2361
F1.0
sVmethod
p2362
F1.0
sVmore
p2363
F2.0
sVsenseval
p2364
F1.0
sVdivergence
p2365
F1.0
sVreported
p2366
F2.0
sVthan
p2367
F1.0
sVof
p2368
F2.0
sVaverage
p2369
F1.0
sVthe
p2370
F5.0
sVaccuracy
p2371
F1.0
saa(lp2372
S'N01-1011148'
p2373
a(dp2374
g38
F1.0
sVon
p2375
F1.0
sVmotivated
p2376
F1.0
sVsuccess
p2377
F1.0
sVthis
p2378
F1.0
sVof
p2379
F1.0
sVdecision
p2380
F1.0
sVperforming
p2381
F1.0
sVfeature
p2382
F1.0
sVdisambiguation
p2383
F1.0
sVT-FLOAT
p2384
F1.0
sVsingle
p2385
F1.0
sVstumps
p2386
F1.0
sVin
p2387
F1.0
sVbased
p2388
F1.0
sVthe
p2389
F1.0
sVbigram
p2390
F1.0
sVwas
p2391
F1.0
sVby
p2392
F1.0
saa(lp2393
S'N01-101147'
p2394
a(dp2395
Vassociated
p2396
F1.0
sVed
p2397
F1.0
sVpaper
p2398
F1.0
sVin
p2399
F2.0
sVT-FLOAT
p2400
F1.0
sVoccur
p2401
F1.0
sVfor
p2402
F1.0
sVtop
p2403
F1.0
sg216
F1.0
sVidenti
p2404
F1.0
sVT-INT
p2405
F2.0
sVcorpus
p2406
F1.0
sg31
F1.0
sVmore
p2407
F1.0
sVwe
p2408
F1.0
sVthat
p2409
F1.0
sVranked
p2410
F1.0
sVwith
p2411
F1.0
sVthan
p2412
F1.0
sg38
F1.0
sVtraining
p2413
F1.0
sVword
p2414
F1.0
sVthis
p2415
F1.0
sVtimes
p2416
F1.0
sVbigrams
p2417
F1.0
sVexperiments
p2418
F1.0
sVthe
p2419
F3.0
saa(lp2420
S'N01-101146'
p2421
a(dp2422
Vit
p2423
F1.0
sVassumptions
p2424
F1.0
sVvalue
p2425
F1.0
sVT-FLOAT
p2426
F1.0
sVrely
p2427
F1.0
sVfrom
p2428
F1.0
sVdata
p2429
F1.0
sVsince
p2430
F1.0
sVwhen
p2431
F1.0
sVtest
p2432
F1.0
sVoccurs
p2433
F1.0
sVwe
p2434
F1.0
sV's
p2435
F1.0
sVupon
p2436
F1.0
sVfisher
p2437
F1.0
sVexact
p2438
F1.0
sVthe
p2439
F2.0
sVabout
p2440
F1.0
sVthis
p2441
F1.0
sVof
p2442
F1.0
sVfewer
p2443
F1.0
sVunderlying
p2444
F1.0
sVdistribution
p2445
F1.0
sVmakes
p2446
F1.0
saa(lp2447
S'N01-101145'
p2448
a(dp2449
Vbigram
p2450
F1.0
sVis
p2451
F1.0
sVsigni
p2452
F1.0
sVone
p2453
F1.0
sVat
p2454
F1.0
sVstatistical
p2455
F1.0
sVcounts
p2456
F1.0
sVer
p2457
F1.0
sVcance
p2458
F1.0
sg216
F1.0
sVleast
p2459
F1.0
sVto
p2460
F1.0
sVcausing
p2461
F1.0
sVif
p2462
F1.0
sg31
F2.0
sVthen
p2463
F1.0
sVtests
p2464
F1.0
sVdi
p2465
F1.0
sVmeasures
p2466
F1.0
sVunreliable
p2467
F1.0
sVdistribution
p2468
F1.0
sVof
p2469
F3.0
sVT-FLOAT
p2470
F1.0
sVresulting
p2471
F1.0
sVbecome
p2472
F1.0
sVthe
p2473
F4.0
saa(lp2474
S'N01-101144'
p2475
a(dp2476
Vand
p2477
F1.0
sVwe
p2478
F1.0
sV's
p2479
F1.0
sVfor
p2480
F1.0
sg1329
F1.0
sVperform
p2481
F1.0
sVeach
p2482
F1.0
sVtests
p2483
F1.0
sg216
F2.0
sVT-INT
p2484
F2.0
sVfisher
p2485
F1.0
sg2183
F1.0
sVtest
p2486
F1.0
sVusing
p2487
F1.0
sVbigram
p2488
F1.0
sVexact
p2489
F1.0
sVT-FLOAT
p2490
F1.0
saa(lp2491
S'N01-101143'
p2492
a(dp2493
Vall
p2494
F1.0
sVbigram
p2495
F1.0
sVgoodness
p2496
F1.0
sVin
p2497
F1.0
sVsigni
p2498
F1.0
sVunderly
p2499
F1.0
sVassumptions
p2500
F1.0
sVsame
p2501
F1.0
sVstatistical
p2502
F1.0
sVmeasure
p2503
F1.0
sVtable
p2504
F1.0
sVcounts
p2505
F1.0
sVany
p2506
F1.0
sVcance
p2507
F1.0
sVbased
p2508
F1.0
sVviolate
p2509
F1.0
sVdistributional
p2510
F1.0
sVwhen
p2511
F1.0
sg216
F1.0
sVapproximately
p2512
F1.0
sVshould
p2513
F1.0
sVtests
p2514
F1.0
sVtake
p2515
F1.0
sVapproach
p2516
F1.0
sg31
F2.0
sVdo
p2517
F1.0
sVwe
p2518
F1.0
sVthat
p2519
F2.0
sVstatistics
p2520
F1.0
sVnot
p2521
F1.0
sVcontingency
p2522
F1.0
sVon
p2523
F1.0
sVobservation
p2524
F1.0
sVof
p2525
F3.0
sVT-FLOAT
p2526
F1.0
sg368
F1.0
sVfollowing
p2527
F1.0
sVthe
p2528
F7.0
sVassign
p2529
F1.0
saa(lp2530
S'N01-101142'
p2531
a(dp2532
g38
F1.0
sVunfortunately
p2533
F1.0
sVfor
p2534
F1.0
sVmost
p2535
F1.0
sVof
p2536
F1.0
sVis
p2537
F2.0
sVit
p2538
F1.0
sVsample
p2539
F1.0
sVnot
p2540
F1.0
sVappropriate
p2541
F1.0
sVtest
p2542
F1.0
sVwhich
p2543
F1.0
sVparticular
p2544
F1.0
sVusually
p2545
F1.0
sVT-FLOAT
p2546
F1.0
sVdata
p2547
F1.0
sVclear
p2548
F1.0
saa(lp2549
S'N01-101141'
p2550
a(dp2551
Vand
p2552
F1.0
sVdistributional
p2553
F1.0
sVboth
p2554
F1.0
sVit
p2555
F1.0
sVan
p2556
F1.0
sVunderly
p2557
F1.0
sVas
p2558
F1.0
sVassumptions
p2559
F1.0
sVin
p2560
F1.0
sValternative
p2561
F1.0
sVratio
p2562
F1.0
sVrely
p2563
F1.0
sVlikelihood
p2564
F1.0
sg751
F1.0
sg759
F1.0
sVsince
p2565
F1.0
sVpedersen
p2566
F1.0
sg216
F2.0
sVpresents
p2567
F1.0
sVT-INT
p2568
F1.0
sVdoes
p2569
F1.0
sVtest
p2570
F2.0
sV's
p2571
F2.0
sVthat
p2572
F1.0
sVnot
p2573
F1.0
sVfisher
p2574
F1.0
sVexact
p2575
F1.0
sVT-FLOAT
p2576
F1.0
sVon
p2577
F1.0
sVpearson
p2578
F1.0
sVthis
p2579
F1.0
sVlight
p2580
F1.0
sVof
p2581
F1.0
sVthe
p2582
F2.0
saa(lp2583
S'N01-101140'
p2584
a(dp2585
Vand
p2586
F2.0
sVis
p2587
F1.0
sVone
p2588
F1.0
sVare
p2589
F1.0
sVstatistic
p2590
F1.0
sVT-FLOAT
p2591
F1.0
sVratio
p2592
F1.0
sg751
F1.0
sg759
F1.0
sVthere
p2593
F1.0
sg216
F2.0
sVshould
p2594
F1.0
sVT-INT
p2595
F1.0
sVother
p2596
F1.0
sVtest
p2597
F1.0
sVover
p2598
F1.0
sVmore
p2599
F1.0
sVbe
p2600
F1.0
sV's
p2601
F1.0
sVthat
p2602
F2.0
sVread
p2603
F1.0
sVhowever
p2604
F1.0
sVpreferred
p2605
F1.0
sVnot
p2606
F1.0
sVcases
p2607
F1.0
sVcressie
p2608
F1.0
sVlikelihood
p2609
F1.0
sVthan
p2610
F1.0
sVpearson
p2611
F1.0
sValways
p2612
F1.0
sVreliable
p2613
F1.0
sVsuggest
p2614
F1.0
sVthe
p2615
F2.0
sVwhere
p2616
F1.0
saa(lp2617
S'N01-101149'
p2618
a(dp2619
Vand
p2620
F1.0
sVamong
p2621
F1.0
sVall
p2622
F1.0
sVthem
p2623
F2.0
sVgenerically
p2624
F1.0
sVproduced
p2625
F1.0
sVas
p2626
F1.0
sVsimply
p2627
F1.0
sVstatistic
p2628
F1.0
sVstatistics
p2629
F1.0
sVno
p2630
F1.0
sVrankings
p2631
F1.0
sVmake
p2632
F1.0
sVsince
p2633
F1.0
sg216
F1.0
sVsame
p2634
F1.0
sVto
p2635
F1.0
sVrefer
p2636
F1.0
sVwe
p2637
F1.0
sVpower
p2638
F1.0
sVdivergence
p2639
F1.0
sVT-FLOAT
p2640
F1.0
sVhereafter
p2641
F1.0
sVthese
p2642
F1.0
sVof
p2643
F1.0
sVdistinction
p2644
F1.0
sVthe
p2645
F2.0
saa(lp2646
S'N01-101148'
p2647
a(dp2648
Vand
p2649
F1.0
sVis
p2650
F1.0
sVproduced
p2651
F1.0
sVfrequency
p2652
F1.0
sVdisagreed
p2653
F1.0
sVgiven
p2654
F1.0
sVno
p2655
F1.0
sVrankings
p2656
F1.0
sVthere
p2657
F1.0
sg216
F3.0
sVT-INT
p2658
F2.0
sVlow
p2659
F1.0
sVwhich
p2660
F1.0
sVtest
p2661
F1.0
sV's
p2662
F1.0
sVexcluded
p2663
F1.0
sVthat
p2664
F1.0
sValtogether
p2665
F1.0
sVnot
p2666
F1.0
sVfisher
p2667
F1.0
sVcases
p2668
F1.0
sVexact
p2669
F1.0
sVby
p2670
F1.0
sVsurprising
p2671
F1.0
sg1329
F1.0
sVbigrams
p2672
F1.0
sVwere
p2673
F2.0
sg2183
F1.0
sVT-FLOAT
p2674
F1.0
sVwhere
p2675
F1.0
saa(lp2676
S'N01-101121'
p2677
a(dp2678
Vpre
p2679
F1.0
sVfeatures
p2680
F1.0
sVed
p2681
F1.0
sVdisambiguation
p2682
F1.0
sVit
p2683
F1.0
sg216
F2.0
sVas
p2684
F1.0
sVthrough
p2685
F1.0
sVare
p2686
F1.0
sg790
F3.0
sVT-FLOAT
p2687
F1.0
sVanaphora
p2688
F1.0
sVuse
p2689
F1.0
sVcomplex
p2690
F1.0
sVby
p2691
F1.0
sVhow
p2692
F1.0
sVmuch
p2693
F1.0
sVspeech
p2694
F1.0
sVis
p2695
F2.0
sg31
F1.0
sVmore
p2696
F1.0
sVthat
p2697
F1.0
sVprocessing
p2698
F1.0
sVpart
p2699
F1.0
sVnot
p2700
F1.0
sVsuch
p2701
F1.0
sVparsing
p2702
F1.0
sVidenti
p2703
F1.0
sVtagging
p2704
F1.0
sVimproved
p2705
F1.0
sVof
p2706
F2.0
sVclear
p2707
F1.0
sVthe
p2708
F1.0
sVaccuracy
p2709
F1.0
sVresolution
p2710
F1.0
sVor
p2711
F1.0
saa(lp2712
S'N01-101120'
p2713
a(dp2714
Vand
p2715
F1.0
sVsince
p2716
F1.0
sVco
p2717
F1.0
sVfeatures
p2718
F1.0
sVdeal
p2719
F1.0
sVdisambiguation
p2720
F1.0
sVcontribute
p2721
F1.0
sVsurface
p2722
F1.0
sVoccurrences
p2723
F1.0
sVoften
p2724
F1.0
sVcollocations
p2725
F1.0
sVlexical
p2726
F1.0
sg216
F2.0
sVto
p2727
F1.0
sVtake
p2728
F1.0
sVapproach
p2729
F1.0
sVaccuracy
p2730
F1.0
sVwe
p2731
F1.0
sVT-FLOAT
p2732
F1.0
sg38
F1.0
sVgreat
p2733
F1.0
sVlike
p2734
F1.0
sVthis
p2735
F1.0
sVbigrams
p2736
F1.0
sg790
F1.0
saa(lp2737
S'N01-101123'
p2738
a(dp2739
Vset
p2740
F1.0
sVmethods
p2741
F1.0
sVpaper
p2742
F1.0
sVlearning
p2743
F1.0
sVin
p2744
F1.0
sVour
p2745
F1.0
sVfor
p2746
F2.0
sVdiscussion
p2747
F1.0
sVfeature
p2748
F1.0
sVshould
p2749
F1.0
sVbe
p2750
F1.0
sVthat
p2751
F1.0
sVcontinues
p2752
F1.0
sVincluded
p2753
F1.0
sVwith
p2754
F1.0
sVT-FLOAT
p2755
F1.0
sg38
F1.0
sVidentifying
p2756
F1.0
sVthis
p2757
F1.0
sVof
p2758
F1.0
sVbigrams
p2759
F1.0
sVthe
p2760
F2.0
saa(lp2761
S'N01-101122'
p2762
a(dp2763
Vpre
p2764
F1.0
sVupper
p2765
F1.0
sVdisambiguation
p2766
F1.0
sVone
p2767
F1.0
sVsubstantial
p2768
F1.0
sVour
p2769
F1.0
sVT-FLOAT
p2770
F1.0
sVestablish
p2771
F1.0
sVrequirements
p2772
F1.0
sVobjectives
p2773
F1.0
sVfeature
p2774
F1.0
sVto
p2775
F1.0
sVis
p2776
F1.0
sVaccuracy
p2777
F1.0
sVdo
p2778
F1.0
sVthat
p2779
F1.0
sVprocessing
p2780
F1.0
sVnot
p2781
F1.0
sVusing
p2782
F1.0
sg790
F1.0
sg38
F1.0
sVon
p2783
F1.0
sVof
p2784
F2.0
sVclear
p2785
F1.0
sVimpose
p2786
F1.0
sVbounds
p2787
F1.0
sVsets
p2788
F1.0
sVthe
p2789
F1.0
saa(lp2790
S'N01-101125'
p2791
a(dp2792
Vand
p2793
F1.0
sVthen
p2794
F1.0
sVresults
p2795
F1.0
sVpresented
p2796
F1.0
sVis
p2797
F1.0
sVdiscussed
p2798
F1.0
sg216
F1.0
sVempirical
p2799
F1.0
sVare
p2800
F1.0
sVthe
p2801
F2.0
sVdata
p2802
F1.0
sVT-FLOAT
p2803
F1.0
sVexperimental
p2804
F1.0
saa(lp2805
S'N01-101124'
p2806
a(dp2807
Vthen
p2808
F1.0
sVdescribed
p2809
F1.0
sVfor
p2810
F1.0
sValgorithm
p2811
F1.0
sVthat
p2812
F1.0
sVsome
p2813
F1.0
sVdecision
p2814
F1.0
sVtree
p2815
F1.0
sg216
F1.0
sVpurposes
p2816
F1.0
sVincluded
p2817
F1.0
sVas
p2818
F1.0
sVT-FLOAT
p2819
F1.0
sValgorithms
p2820
F1.0
sVare
p2821
F2.0
sVlearning
p2822
F2.0
sVof
p2823
F1.0
sVbenchmark
p2824
F1.0
sVthe
p2825
F1.0
sVcomparison
p2826
F1.0
sVis
p2827
F1.0
saa(lp2828
S'N01-101127'
p2829
a(dp2830
Vbigram
p2831
F1.0
sVoccurrence
p2832
F1.0
sVfigure
p2833
F1.0
sVdeveloped
p2834
F1.0
sVdisambiguation
p2835
F1.0
sVsense
p2836
F1.0
sVan
p2837
F1.0
sVhave
p2838
F1.0
sVin
p2839
F2.0
sVcounts
p2840
F1.0
sg1805
F9.0
sVoccur
p2841
F1.0
sVT-INT
p2842
F18.0
sg1811
F4.0
sg216
F1.0
sVtotals
p2843
F2.0
sVto
p2844
F2.0
sVwhich
p2845
F1.0
sVtext
p2846
F2.0
sVconsecutive
p2847
F1.0
sg663
F3.0
sVapproach
p2848
F1.0
sg31
F1.0
sVbe
p2849
F1.0
sVwe
p2850
F2.0
sVterms
p2851
F1.0
sVthat
p2852
F2.0
sVbig
p2853
F2.0
sVde
p2854
F1.0
sVtwo
p2855
F1.0
sVwords
p2856
F1.0
sVthe
p2857
F1.0
sg38
F1.0
sVrepresents
p2858
F1.0
sVword
p2859
F1.0
sVne
p2860
F1.0
sV++
p2861
F1.0
sVof
p2862
F3.0
sg1795
F9.0
sVcat
p2863
F2.0
sVT-FLOAT
p2864
F1.0
sVbigrams
p2865
F1.0
sVrepresentation
p2866
F1.0
sVentirely
p2867
F1.0
saa(lp2868
S'N01-101126'
p2869
a(dp2870
Vand
p2871
F1.0
sg38
F1.0
sVwe
p2872
F1.0
sVndings
p2873
F1.0
sVof
p2874
F2.0
sVdiscussion
p2875
F1.0
sVwork
p2876
F1.0
sVanalysis
p2877
F1.0
sVan
p2878
F1.0
sVrelated
p2879
F1.0
sVour
p2880
F1.0
sVclose
p2881
F1.0
sVT-FLOAT
p2882
F1.0
sVwith
p2883
F1.0
sg31
F1.0
saa(lp2884
S'N01-101129'
p2885
a(dp2886
Vand
p2887
F1.0
sVmethods
p2888
F1.0
sVstatistical
p2889
F1.0
sVcarefully
p2890
F1.0
sVselect
p2891
F1.0
sVgiven
p2892
F1.0
sVchosen
p2893
F1.0
sVinteresting
p2894
F1.0
sg216
F1.0
sVto
p2895
F1.0
sVbe
p2896
F1.0
sVused
p2897
F1.0
sVnature
p2898
F1.0
sVdata
p2899
F1.0
sVT-FLOAT
p2900
F1.0
sVmust
p2901
F1.0
sVthis
p2902
F1.0
sVof
p2903
F1.0
sVskewed
p2904
F1.0
sVbigrams
p2905
F1.0
sVsparse
p2906
F1.0
sVthe
p2907
F2.0
saa(lp2908
S'N01-101128'
p2909
a(dp2910
g38
F1.0
sVfairly
p2911
F1.0
sg1682
F1.0
sVcorpora
p2912
F1.0
sVtime
p2913
F1.0
sVcharacteristics
p2914
F1.0
sVconsistent
p2915
F1.0
sVdistributional
p2916
F1.0
sVone
p2917
F1.0
sVthem
p2918
F1.0
sVoccur
p2919
F1.0
sVmajority
p2920
F1.0
sVbigrams
p2921
F1.0
sVare
p2922
F1.0
sVT-FLOAT
p2923
F1.0
sVof
p2924
F2.0
sVthe
p2925
F1.0
sVonly
p2926
F1.0
sVacross
p2927
F1.0
saa(lp2928
S'N01-1011158'
p2929
a(dp2930
g38
F2.0
sVand
p2931
F1.0
sVleaf
p2932
F1.0
sg751
F1.0
sg759
F1.0
sVdecision
p2933
F2.0
sVtree
p2934
F1.0
sVnode
p2935
F1.0
sVT-INT
p2936
F4.0
sVinternal
p2937
F1.0
sV/
p2938
F1.0
sVT-FLOAT
p2939
F1.0
sVof
p2940
F1.0
sVstump
p2941
F1.0
sVnodes
p2942
F1.0
sVhas
p2943
F1.0
sVwith
p2944
F1.0
sVthe
p2945
F1.0
sVstructure
p2946
F1.0
saa(lp2947
S'N01-1011159'
p2948
a(dp2949
Vand
p2950
F1.0
sVset
p2951
F1.0
sVuseful
p2952
F1.0
sVfeatures
p2953
F1.0
sVbe
p2954
F1.0
sVis
p2955
F1.0
sVboth
p2956
F1.0
sVone
p2957
F1.0
sVidentify
p2958
F1.0
sVour
p2959
F1.0
sVfor
p2960
F1.0
sVobjectives
p2961
F1.0
sVto
p2962
F1.0
sVcore
p2963
F1.0
sVdisambiguating
p2964
F1.0
sVthat
p2965
F1.0
sVwords
p2966
F1.0
sVusing
p2967
F1.0
sVclass
p2968
F1.0
sg38
F2.0
sVwide
p2969
F1.0
sVmethodologies
p2970
F1.0
sVunsupervised
p2971
F1.0
sVof
p2972
F3.0
sVwill
p2973
F1.0
sVsupervised
p2974
F1.0
sVlong-term
p2975
F1.0
sVT-FLOAT
p2976
F1.0
saa(lp2977
S'N01-1011152'
p2978
a(dp2979
Vselection
p2980
F1.0
sVfeatures
p2981
F1.0
sVtext
p2982
F1.0
sVis
p2983
F2.0
sVraw
p2984
F1.0
sVset
p2985
F1.0
sVfrom
p2986
F1.0
sVfor
p2987
F1.0
sVto
p2988
F2.0
sVtop
p2989
F1.0
sVsince
p2990
F1.0
sVlearner
p2991
F1.0
sg216
F1.0
sVT-INT
p2992
F2.0
sVonly
p2993
F1.0
sVexpected
p2994
F1.0
sVbe
p2995
F1.0
sVmea
p2996
F1.0
sVform
p2997
F1.0
sVmost
p2998
F1.0
sVranked
p2999
F1.0
sVwords
p3000
F1.0
sVT-FLOAT
p3001
F1.0
sVcandidate
p3002
F1.0
sVpresented
p3003
F1.0
sVthis
p3004
F1.0
sVof
p3005
F2.0
sVtree
p3006
F1.0
sVbigrams
p3007
F2.0
sVthe
p3008
F5.0
sVdecision
p3009
F1.0
saa(lp3010
S'N01-1011153'
p3011
a(dp3012
Vand
p3013
F1.0
sVall
p3014
F1.0
sVset
p3015
F1.0
sVfeatures
p3016
F1.0
sVbe
p3017
F1.0
sVfeature
p3018
F1.0
sVare
p3019
F2.0
sVin
p3020
F2.0
sVT-FLOAT
p3021
F1.0
sVif
p3022
F2.0
sVrankings
p3023
F1.0
sVtop
p3024
F1.0
sVthere
p3025
F3.0
sg216
F1.0
sVT-INT
p3026
F4.0
sVmore
p3027
F2.0
sVthen
p3028
F2.0
sVsuch
p3029
F1.0
sVthat
p3030
F1.0
sVmay
p3031
F1.0
sVoccurred
p3032
F1.0
sVincluded
p3033
F1.0
sVties
p3034
F1.0
sVthan
p3035
F3.0
sVfewer
p3036
F1.0
sVtimes
p3037
F1.0
sVbigrams
p3038
F2.0
sVwere
p3039
F1.0
sVthe
p3040
F3.0
saa(lp3041
S'N01-1011150'
p3042
a(dp3043
Vbe
p3044
F1.0
sVshown
p3045
F1.0
sVfeatures
p3046
F1.0
sVcandidate
p3047
F1.0
sVT-INT
p3048
F2.0
sVthis
p3049
F1.0
sVof
p3050
F2.0
sVnodes
p3051
F1.0
sVnumber
p3052
F2.0
sVor
p3053
F1.0
sVcomparing
p3054
F1.0
sVas
p3055
F1.0
sVinternal
p3056
F1.0
sVcan
p3057
F1.0
sVT-FLOAT
p3058
F1.0
sVin
p3059
F1.0
sVseen
p3060
F1.0
sVthe
p3061
F2.0
sVwith
p3062
F1.0
sVby
p3063
F1.0
sVcolumns
p3064
F1.0
saa(lp3065
S'N01-1011156'
p3066
a(dp3067
Vmethods
p3068
F1.0
sVthat
p3069
F1.0
sVT-FLOAT
p3070
F1.0
sVdecision
p3071
F1.0
sVbenchmark
p3072
F1.0
sg216
F1.0
sVtrees
p3073
F1.0
sVnote
p3074
F1.0
sVto
p3075
F1.0
sVfinally
p3076
F1.0
sVsmallest
p3077
F1.0
sVare
p3078
F1.0
sVour
p3079
F1.0
sVthe
p3080
F1.0
sVequivalent
p3081
F1.0
sVfunctionally
p3082
F1.0
saa(lp3083
S'N01-1011157'
p3084
a(dp3085
g38
F2.0
sVnode
p3086
F1.0
sVand
p3087
F1.0
sVleaf
p3088
F1.0
sVmajority
p3089
F1.0
sVno
p3090
F1.0
sg751
F1.0
sg759
F1.0
sVdecision
p3091
F1.0
sVacts
p3092
F1.0
sVtree
p3093
F1.0
sg2938
F1.0
sVT-INT
p3094
F3.0
sVas
p3095
F1.0
sVinternal
p3096
F1.0
sVclassi
p3097
F1.0
sVnodes
p3098
F1.0
sVwith
p3099
F1.0
sVT-FLOAT
p3100
F1.0
sg31
F1.0
sVer
p3101
F1.0
saa(lp3102
S'N01-1011154'
p3103
a(dp3104
Vinto
p3105
F2.0
sg216
F1.0
sVinstances
p3106
F1.0
sVdistinct
p3107
F1.0
sVdecision
p3108
F1.0
sVtwo
p3109
F1.0
sVbetween
p3110
F1.0
sVseeks
p3111
F1.0
sVsenses
p3112
F1.0
sVthat
p3113
F1.0
sVsuring
p3114
F1.0
sVwords
p3115
F1.0
sVthe
p3116
F3.0
sVassociation
p3117
F1.0
sVambiguous
p3118
F1.0
sVword
p3119
F1.0
sVof
p3120
F1.0
sVpartition
p3121
F1.0
sVtree
p3122
F1.0
sVwhile
p3123
F1.0
sVT-FLOAT
p3124
F1.0
sVbigrams
p3125
F1.0
saa(lp3126
S'N01-1011155'
p3127
a(dp3128
Vand
p3129
F1.0
sVbigram
p3130
F2.0
sVmeasure
p3131
F1.0
sVas
p3132
F2.0
sVin
p3133
F2.0
sVdecisions
p3134
F1.0
sVratio
p3135
F1.0
sVinformation
p3136
F1.0
sVwhat
p3137
F1.0
sVbased
p3138
F1.0
sVdecision
p3139
F1.0
sVlearner
p3140
F1.0
sg216
F2.0
sVto
p3141
F2.0
sVbetween
p3142
F1.0
sVnodes
p3143
F1.0
sVinclude
p3144
F1.0
sVsense
p3145
F1.0
sVoverall
p3146
F1.0
sVmutual
p3147
F1.0
sVgain
p3148
F1.0
sVparticular
p3149
F2.0
sVusing
p3150
F1.0
sVT-FLOAT
p3151
F1.0
sg38
F2.0
sVon
p3152
F1.0
sVword
p3153
F1.0
sVtree
p3154
F2.0
sVthe
p3155
F5.0
sVmakes
p3156
F1.0
saa(lp3157
S'N01-101114'
p3158
a(dp3159
Vtagged
p3160
F1.0
sVrelevant
p3161
F1.0
sVoccurrence
p3162
F1.0
sVprocess
p3163
F1.0
sVtext
p3164
F1.0
sVis
p3165
F2.0
sVsome
p3166
F1.0
sg216
F1.0
sVsurrounding
p3167
F1.0
sVsense
p3168
F1.0
sVT-FLOAT
p3169
F1.0
sVthat
p3170
F1.0
sVfeature
p3171
F2.0
sVto
p3172
F2.0
sVconverted
p3173
F1.0
sVinto
p3174
F1.0
sVbe
p3175
F1.0
sVrepresents
p3176
F1.0
sVdisambiguation
p3177
F1.0
sVan
p3178
F1.0
sg790
F1.0
sg38
F1.0
sVambiguous
p3179
F1.0
sVword
p3180
F1.0
sVconsidered
p3181
F1.0
sVof
p3182
F2.0
sVvector
p3183
F1.0
sVeach
p3184
F2.0
sVthe
p3185
F2.0
sVproperty
p3186
F1.0
sVwhere
p3187
F1.0
saa(lp3188
S'N01-101115'
p3189
a(dp3190
Vand
p3191
F1.0
sVset
p3192
F1.0
sVfeatures
p3193
F1.0
sVis
p3194
F1.0
sVan
p3195
F1.0
sVutilized
p3196
F1.0
sVhuman
p3197
F1.0
sVin
p3198
F1.0
sVgiven
p3199
F1.0
sVthere
p3200
F1.0
sg216
F1.0
sVpotentially
p3201
F1.0
sVnite
p3202
F1.0
sVexibility
p3203
F1.0
sg31
F1.0
sVbe
p3204
F1.0
sVthat
p3205
F1.0
sVT-FLOAT
p3206
F1.0
sVlanguage
p3207
F1.0
sVof
p3208
F2.0
sVcould
p3209
F1.0
sVcomplexity
p3210
F1.0
sVthe
p3211
F1.0
saa(lp3212
S'N01-101116'
p3213
a(dp3214
Vfeatures
p3215
F1.0
sVed
p3216
F1.0
sVsources
p3217
F1.0
sVin
p3218
F2.0
sg790
F1.0
sVT-FLOAT
p3219
F1.0
sVreadily
p3220
F1.0
sVinformation
p3221
F1.0
sVbased
p3222
F1.0
sVknowledge
p3223
F1.0
sg216
F2.0
sVrelying
p3224
F1.0
sVtext
p3225
F1.0
sVcorpus
p3226
F1.0
sg31
F1.0
sVbe
p3227
F1.0
sVextensive
p3228
F1.0
sVthat
p3229
F1.0
sVhowever
p3230
F1.0
sVapproaches
p3231
F1.0
sVexternal
p3232
F1.0
sVidenti
p3233
F1.0
sVon
p3234
F1.0
sVconsist
p3235
F1.0
sVof
p3236
F1.0
sVwithout
p3237
F1.0
sVcan
p3238
F1.0
sVusually
p3239
F1.0
sVthe
p3240
F1.0
saa(lp3241
S'N01-101117'
p3242
a(dp3243
Vand
p3244
F2.0
sVwords
p3245
F2.0
sVpresence
p3246
F1.0
sVcertain
p3247
F1.0
sVwithin
p3248
F1.0
sVsome
p3249
F1.0
sVsurrounding
p3250
F1.0
sg790
F2.0
sVT-FLOAT
p3251
F1.0
sVsyntactic
p3252
F1.0
sVsentence
p3253
F1.0
sg216
F2.0
sVwindow
p3254
F1.0
sVspeech
p3255
F1.0
sVvarious
p3256
F1.0
sVinclude
p3257
F1.0
sVpart
p3258
F1.0
sVkey
p3259
F1.0
sVproperties
p3260
F1.0
sVambiguous
p3261
F1.0
sVword
p3262
F1.0
sVthese
p3263
F1.0
sVof
p3264
F5.0
sVcontext
p3265
F1.0
sVthe
p3266
F4.0
sVtypically
p3267
F1.0
saa(lp3268
S'N01-101110'
p3269
a(dp3270
Vand
p3271
F1.0
sVlarge
p3272
F1.0
sVuse
p3273
F1.0
sVstatistics
p3274
F1.0
sVfrom
p3275
F2.0
sVsamples
p3276
F1.0
sVlanguage
p3277
F1.0
sVthese
p3278
F1.0
sVof
p3279
F2.0
sVinduce
p3280
F1.0
sVmachine
p3281
F1.0
sVto
p3282
F1.0
sVapproaches
p3283
F1.0
sVmodels
p3284
F1.0
sVlearning
p3285
F1.0
sVtext
p3286
F1.0
sVusage
p3287
F1.0
sVT-FLOAT
p3288
F1.0
sVtechniques
p3289
F1.0
saa(lp3290
S'N01-101111'
p3291
a(dp3292
Vvia
p3293
F1.0
sVperform
p3294
F1.0
sVlearning
p3295
F1.0
sVto
p3296
F1.0
sVthese
p3297
F1.0
sg216
F1.0
sVmodels
p3298
F1.0
sVtasks
p3299
F1.0
sVsupervised
p3300
F1.0
sVare
p3301
F1.0
sVtrained
p3302
F1.0
sVparticular
p3303
F1.0
sVusually
p3304
F1.0
sVT-FLOAT
p3305
F1.0
saa(lp3306
S'N01-101112'
p3307
a(dp3308
Vmanually
p3309
F1.0
sVis
p3310
F1.0
sVsense
p3311
F2.0
sVsome
p3312
F1.0
sVnumber
p3313
F1.0
sVan
p3314
F2.0
sVappropriate
p3315
F1.0
sVpaper
p3316
F1.0
sVsentences
p3317
F1.0
sVT-FLOAT
p3318
F1.0
sVfrom
p3319
F1.0
sVannotated
p3320
F1.0
sVfor
p3321
F1.0
sVdecision
p3322
F1.0
sVbeen
p3323
F1.0
sVdenotes
p3324
F1.0
sVinstance
p3325
F1.0
sVdescribes
p3326
F1.0
sVlearned
p3327
F1.0
sVhas
p3328
F1.0
sVapproach
p3329
F1.0
sVthat
p3330
F2.0
sVmost
p3331
F1.0
sVwith
p3332
F1.0
sVthe
p3333
F1.0
sg38
F2.0
sVambiguous
p3334
F1.0
sVword
p3335
F1.0
sVthis
p3336
F1.0
sVof
p3337
F2.0
sVtree
p3338
F1.0
sVtag
p3339
F1.0
sVcontext
p3340
F1.0
sVeach
p3341
F1.0
sg790
F1.0
sVwhere
p3342
F2.0
saa(lp3343
S'N01-101113'
p3344
a(dp3345
Vtagged
p3346
F1.0
sVinto
p3347
F1.0
sVlearning
p3348
F1.0
sVsense
p3349
F1.0
sg790
F1.0
sVfor
p3350
F1.0
sg216
F1.0
sVto
p3351
F1.0
sVcorpus
p3352
F1.0
sVmore
p3353
F1.0
sVbe
p3354
F1.0
sVform
p3355
F1.0
sVprocessing
p3356
F1.0
sVregular
p3357
F1.0
sVthe
p3358
F1.0
sVmust
p3359
F1.0
sg38
F1.0
sVprior
p3360
F1.0
sVconverted
p3361
F1.0
sVT-FLOAT
p3362
F1.0
sVsuitable
p3363
F1.0
sVautomatic
p3364
F1.0
saa(lp3365
S'N01-1011128'
p3366
a(dp3367
Vand
p3368
F2.0
sVall
p3369
F1.0
sVbigram
p3370
F3.0
sVwords
p3371
F1.0
sg216
F2.0
sVsurrounding
p3372
F1.0
sVas
p3373
F1.0
sVin
p3374
F1.0
sVconsists
p3375
F1.0
sVT-FLOAT
p3376
F1.0
sVoccur
p3377
F1.0
sVfor
p3378
F1.0
sVprove
p3379
F1.0
sVsince
p3380
F1.0
sVwhen
p3381
F3.0
sVtwo
p3382
F1.0
sVT-INT
p3383
F6.0
sVother
p3384
F1.0
sg1682
F1.0
sVevents
p3385
F1.0
sVmore
p3386
F1.0
sVbe
p3387
F1.0
sVtests
p3388
F1.0
sVto
p3389
F1.0
sVpower
p3390
F1.0
sVdivergence
p3391
F1.0
sVpossible
p3392
F1.0
sVthey
p3393
F2.0
sVneither
p3394
F1.0
sg38
F2.0
sVaccount
p3395
F1.0
sVof
p3396
F1.0
sVreliable
p3397
F1.0
sVoccurs
p3398
F1.0
sVwithout
p3399
F1.0
sg1807
F6.0
sVthe
p3400
F2.0
sVor
p3401
F1.0
saa(lp3402
S'N01-101118'
p3403
a(dp3404
Vset
p3405
F1.0
sVtext
p3406
F1.0
sVin
p3407
F2.0
sVtwo
p3408
F1.0
sVpaper
p3409
F1.0
sVsequences
p3410
F1.0
sVoccur
p3411
F1.0
sVfeature
p3412
F1.0
sVapproach
p3413
F1.0
sg38
F2.0
sg216
F1.0
sVthat
p3414
F1.0
sVupon
p3415
F1.0
sVthe
p3416
F1.0
sVrelies
p3417
F1.0
sVmade
p3418
F1.0
sVword
p3419
F1.0
sVthis
p3420
F1.0
sVof
p3421
F1.0
sVup
p3422
F1.0
sVbigrams
p3423
F1.0
sVT-FLOAT
p3424
F1.0
saa(lp3425
S'N01-101119'
p3426
a(dp3427
Vright
p3428
F1.0
sVbigram
p3429
F1.0
sVfeatures
p3430
F1.0
sVbeing
p3431
F1.0
sVis
p3432
F1.0
sVwithin
p3433
F1.0
sVsome
p3434
F1.0
sVnumber
p3435
F1.0
sVan
p3436
F1.0
sVrepresented
p3437
F1.0
sVin
p3438
F1.0
sVT-FLOAT
p3439
F1.0
sVbinary
p3440
F1.0
sVT-INT
p3441
F1.0
sVapproximately
p3442
F1.0
sVindicate
p3443
F1.0
sVwhich
p3444
F1.0
sVhas
p3445
F1.0
sVoccurs
p3446
F1.0
sVto
p3447
F1.0
sVthat
p3448
F1.0
sVoccurred
p3449
F1.0
sVwords
p3450
F1.0
sVparticular
p3451
F1.0
sVnot
p3452
F1.0
sVby
p3453
F1.0
sg38
F1.0
sVambiguous
p3454
F1.0
sVword
p3455
F2.0
sVwhether
p3456
F1.0
sVof
p3457
F2.0
sVcontext
p3458
F1.0
sVthe
p3459
F3.0
sVdisambiguated
p3460
F1.0
sVor
p3461
F2.0
sVleft
p3462
F1.0
saa(lp3463
S'N01-101198'
p3464
a(dp3465
Vshown
p3466
F1.0
sVsenses
p3467
F1.0
sVfor
p3468
F1.0
sVT-INT
p3469
F1.0
sVdistinct
p3470
F1.0
sVof
p3471
F1.0
sVis
p3472
F1.0
sVeach
p3473
F1.0
sVnumber
p3474
F1.0
sVcolumn
p3475
F1.0
sVtask
p3476
F1.0
sVin
p3477
F2.0
sVtest
p3478
F1.0
sVthe
p3479
F2.0
sVdata
p3480
F1.0
sVT-FLOAT
p3481
F1.0
saa(lp3482
S'N01-101199'
p3483
a(dp3484
Vtask
p3485
F1.0
sVfor
p3486
F1.0
sVprocess
p3487
F1.0
sVis
p3488
F1.0
sVrepeated
p3489
F1.0
sVeach
p3490
F1.0
sVfollowing
p3491
F1.0
sVthe
p3492
F1.0
sVT-FLOAT
p3493
F1.0
saa(lp3494
S'N01-1011126'
p3495
a(dp3496
Vbe
p3497
F1.0
sVresults
p3498
F1.0
sVfor
p3499
F1.0
sVthan
p3500
F1.0
sVto
p3501
F1.0
sVproving
p3502
F1.0
sVdecision
p3503
F1.0
sVsenseval
p3504
F1.0
sVwell
p3505
F1.0
sVfared
p3506
F1.0
sVT-INT
p3507
F2.0
sg216
F1.0
sValso
p3508
F1.0
sVtasks
p3509
F1.0
sVT-FLOAT
p3510
F1.0
sVstumps
p3511
F1.0
sVof
p3512
F1.0
sVthe
p3513
F3.0
sVaccurate
p3514
F1.0
sVbest
p3515
F1.0
sVmore
p3516
F1.0
saa(lp3517
S'N01-101194'
p3518
a(dp3519
Vand
p3520
F1.0
sVadjective
p3521
F1.0
sVas
p3522
F1.0
sVare
p3523
F1.0
sVprovided
p3524
F1.0
sVfor
p3525
F4.0
sg216
F3.0
sVnote
p3526
F1.0
sVparts
p3527
F1.0
sVspeech
p3528
F2.0
sVwas
p3529
F1.0
sVthat
p3530
F1.0
sVverb
p3531
F1.0
sVwords
p3532
F1.0
sVnot
p3533
F1.0
sVencoded
p3534
F1.0
sVT-FLOAT
p3535
F1.0
sg38
F1.0
sVnoun
p3536
F1.0
sVof
p3537
F2.0
sg1805
F1.0
sVp
p3538
F1.0
sVpart
p3539
F1.0
sVv
p3540
F1.0
sVthe
p3541
F2.0
sVwhere
p3542
F1.0
saa(lp3543
S'N01-101195'
p3544
a(dp3545
Vand
p3546
F2.0
sVtraining
p3547
F1.0
sVtask
p3548
F1.0
sVfor
p3549
F1.0
sVT-INT
p3550
F2.0
sVof
p3551
F1.0
sVin
p3552
F1.0
sVnumber
p3553
F1.0
sVinstances
p3554
F1.0
sVare
p3555
F1.0
sVT-FLOAT
p3556
F1.0
sVeach
p3557
F1.0
sVtest
p3558
F1.0
sVthe
p3559
F1.0
sVcolumns
p3560
F1.0
sVshown
p3561
F1.0
saa(lp3562
S'N01-101196'
p3563
a(dp3564
Vambiguous
p3565
F1.0
sVor
p3566
F1.0
sVword
p3567
F1.0
sVsentence
p3568
F1.0
sVsurrounding
p3569
F1.0
sVof
p3570
F1.0
sVin
p3571
F1.0
sVwell
p3572
F1.0
sVtwo
p3573
F1.0
sVone
p3574
F1.0
sVinstance
p3575
F1.0
sVas
p3576
F2.0
sVsentences
p3577
F1.0
sVT-FLOAT
p3578
F1.0
sVwhich
p3579
F1.0
sVeach
p3580
F1.0
sVconsists
p3581
F1.0
sVthe
p3582
F2.0
sVoccurs
p3583
F1.0
saa(lp3584
S'N01-101197'
p3585
a(dp3586
Vavailable
p3587
F1.0
sVambiguous
p3588
F1.0
sVword
p3589
F1.0
sVwords
p3590
F1.0
sVfor
p3591
F1.0
sVless
p3592
F1.0
sVsurrounding
p3593
F1.0
sVT-FLOAT
p3594
F1.0
sVis
p3595
F1.0
sVeach
p3596
F1.0
sVgeneral
p3597
F1.0
sVT-INT
p3598
F1.0
sVcontext
p3599
F1.0
sVin
p3600
F1.0
sVthe
p3601
F1.0
sVtotal
p3602
F1.0
sVthan
p3603
F1.0
saa(lp3604
S'N01-101190'
p3605
a(dp3606
Vused
p3607
F1.0
sVmultiple
p3608
F1.0
sVdi
p3609
F1.0
sVof
p3610
F1.0
sVwere
p3611
F1.0
sVsome
p3612
F1.0
sVparts
p3613
F1.0
sVas
p3614
F1.0
sVtasks
p3615
F1.0
sVspeech
p3616
F1.0
sVwords
p3617
F1.0
sVin
p3618
F1.0
sVerent
p3619
F1.0
sVT-FLOAT
p3620
F1.0
sg31
F1.0
saa(lp3621
S'N01-101191'
p3622
a(dp3623
g38
F2.0
sVand
p3624
F1.0
sVuse
p3625
F1.0
sVtasks
p3626
F1.0
sVassociated
p3627
F1.0
sVfor
p3628
F2.0
sVT-FLOAT
p3629
F1.0
sVthere
p3630
F1.0
sVtwo
p3631
F1.0
sg216
F2.0
sVits
p3632
F1.0
sVas
p3633
F2.0
sVother
p3634
F1.0
sVwere
p3635
F1.0
sVnoun
p3636
F1.0
sVthe
p3637
F1.0
sVone
p3638
F1.0
sVwith
p3639
F1.0
sVexample
p3640
F1.0
sVbet
p3641
F1.0
sVverb
p3642
F1.0
saa(lp3643
S'N01-101192'
p3644
a(dp3645
Vtasks
p3646
F1.0
sVdi
p3647
F1.0
sVof
p3648
F1.0
sVdisambiguation
p3649
F1.0
sVthere
p3650
F1.0
sVthus
p3651
F1.0
sg216
F1.0
sVT-INT
p3652
F2.0
sVinvolving
p3653
F1.0
sVare
p3654
F1.0
sVwords
p3655
F1.0
sVerent
p3656
F1.0
sVthe
p3657
F1.0
sVT-FLOAT
p3658
F1.0
sg31
F1.0
saa(lp3659
S'N01-101193'
p3660
a(dp3661
Vand
p3662
F1.0
sVshown
p3663
F1.0
sVtask
p3664
F1.0
sVassociated
p3665
F1.0
sVcolumn
p3666
F1.0
sVof
p3667
F1.0
sVin
p3668
F2.0
sVT-INT
p3669
F2.0
sVpart
p3670
F1.0
sVspeech
p3671
F1.0
sVare
p3672
F1.0
sVwords
p3673
F1.0
sVeach
p3674
F1.0
sVtable
p3675
F1.0
sVthe
p3676
F1.0
sVwith
p3677
F1.0
sVT-FLOAT
p3678
F1.0
saa(lp3679
S'N01-1011124'
p3680
a(dp3681
g38
F3.0
sVloss
p3682
F1.0
sg216
F2.0
sVand
p3683
F1.0
sVmeans
p3684
F2.0
sVcolumn
p3685
F1.0
sVwin
p3686
F1.0
sVaccurate
p3687
F3.0
sVless
p3688
F1.0
sVit
p3689
F3.0
sVmethod
p3690
F1.0
sVT-FLOAT
p3691
F1.0
sVequally
p3692
F1.0
sVin
p3693
F1.0
sVtie
p3694
F1.0
sVthe
p3695
F2.0
sVshows
p3696
F1.0
sVwas
p3697
F3.0
sVthan
p3698
F1.0
sVmore
p3699
F1.0
saa(lp3700
S'N01-1011123'
p3701
a(dp3702
Vlast
p3703
F1.0
sVto
p3704
F1.0
sVtree/power
p3705
F1.0
sVof
p3706
F2.0
sVdecision
p3707
F1.0
sVdivergence
p3708
F1.0
sVmethod
p3709
F2.0
sVrelative
p3710
F1.0
sVT-INT
p3711
F1.0
sVscore
p3712
F1.0
sVevery
p3713
F1.0
sVT-FLOAT
p3714
F1.0
sVwin-tie-loss
p3715
F1.0
sVtable
p3716
F1.0
sVthe
p3717
F3.0
sVother
p3718
F1.0
sVline
p3719
F1.0
sVshows
p3720
F1.0
saa(lp3721
S'N01-1011122'
p3722
a(dp3723
g38
F1.0
sVon
p3724
F1.0
sVby
p3725
F1.0
sVset
p3726
F1.0
sVbased
p3727
F1.0
sVpower
p3728
F1.0
sVdivergence
p3729
F1.0
sVdecision
p3730
F1.0
sVtree
p3731
F1.0
sVfeature
p3732
F1.0
sVmethod
p3733
F1.0
sVmost
p3734
F1.0
sVdetermined
p3735
F1.0
sVT-FLOAT
p3736
F1.0
sVstatistic
p3737
F1.0
sVthe
p3738
F3.0
sVaccurate
p3739
F1.0
sVis
p3740
F1.0
saa(lp3741
S'N01-1011121'
p3742
a(dp3743
g38
F1.0
sVon
p3744
F1.0
sVset
p3745
F1.0
sVbased
p3746
F1.0
sVclassi
p3747
F1.0
sVcolumn
p3748
F1.0
sVof
p3749
F2.0
sVnaive
p3750
F1.0
sg216
F1.0
sVfeature
p3751
F1.0
sVT-INT
p3752
F1.0
sVfinally
p3753
F1.0
sVbag
p3754
F1.0
sVwords
p3755
F1.0
sVbayesian
p3756
F1.0
sVthe
p3757
F2.0
sVaccuracy
p3758
F1.0
sVer
p3759
F1.0
sVT-FLOAT
p3760
F1.0
sg31
F1.0
sVshows
p3761
F1.0
saa(lp3762
S'N01-101183'
p3763
a(dp3764
Vand
p3765
F1.0
sVavailable
p3766
F1.0
sVwww
p3767
F1.0
sVjava
p3768
F1.0
sVnz/~ml
p3769
F1.0
sVfrom
p3770
F1.0
sVfreely
p3771
F1.0
sVis
p3772
F2.0
sVac
p3773
F1.0
sVwaikato
p3774
F1.0
sVwritten
p3775
F1.0
sVin
p3776
F1.0
sVcs
p3777
F1.0
sVweka
p3778
F1.0
sVT-FLOAT
p3779
F5.0
saa(lp3780
S'N01-101182'
p3781
a(dp3782
Vand
p3783
F2.0
sVstump
p3784
F1.0
sVimplementations
p3785
F1.0
sVbayesian
p3786
F1.0
sVas
p3787
F1.0
sVer
p3788
F1.0
sVuse
p3789
F1.0
sVweka
p3790
F1.0
sg751
F2.0
sg759
F2.0
sVdecision
p3791
F2.0
sVlearner
p3792
F1.0
sg216
F3.0
sVT-INT
p3793
F4.0
sg31
F1.0
sVwe
p3794
F1.0
sVfrank
p3795
F1.0
sVnaive
p3796
F1.0
sVwitten
p3797
F1.0
sVknown
p3798
F1.0
sVT-FLOAT
p3799
F2.0
sg1076
F1.0
sVclassi
p3800
F1.0
sVof
p3801
F1.0
sg587
F1.0
sVtree
p3802
F1.0
sVthe
p3803
F4.0
saa(lp3804
S'N01-101181'
p3805
a(dp3806
Vset
p3807
F1.0
sVoften
p3808
F1.0
sVis
p3809
F2.0
sVit
p3810
F2.0
sg216
F1.0
sVsample
p3811
F1.0
sVindicates
p3812
F1.0
sVin
p3813
F2.0
sVT-FLOAT
p3814
F1.0
sVbinary
p3815
F1.0
sVnot
p3816
F1.0
sVfeature
p3817
F2.0
sVwindow
p3818
F1.0
sVoccurs
p3819
F1.0
sVused
p3820
F1.0
sVthat
p3821
F1.0
sVmost
p3822
F1.0
sVevery
p3823
F1.0
sVwords
p3824
F1.0
sVrepresented
p3825
F1.0
sVwith
p3826
F1.0
sVby
p3827
F1.0
sg38
F2.0
sVambiguous
p3828
F1.0
sVtraining
p3829
F1.0
sVword
p3830
F2.0
sVsurrounding
p3831
F1.0
sVwhether
p3832
F1.0
sVof
p3833
F2.0
sVbag
p3834
F1.0
sVcontext
p3835
F1.0
sVthe
p3836
F3.0
sVwhere
p3837
F1.0
sVor
p3838
F1.0
saa(lp3839
S'N01-101180'
p3840
a(dp3841
g38
F1.0
sVindependent
p3842
F1.0
sVall
p3843
F1.0
sVsense
p3844
F1.0
sVfeatures
p3845
F1.0
sVthat
p3846
F1.0
sVof
p3847
F2.0
sVis
p3848
F2.0
sVthere
p3849
F1.0
sVfeature
p3850
F1.0
sVword
p3851
F1.0
sg216
F1.0
sVconditionally
p3852
F1.0
sVT-FLOAT
p3853
F1.0
sVassumption
p3854
F1.0
sVambiguous
p3855
F1.0
sVeach
p3856
F1.0
sVfurther
p3857
F1.0
sVthe
p3858
F2.0
sVgiven
p3859
F1.0
sVother
p3860
F1.0
saa(lp3861
S'N01-101187'
p3862
a(dp3863
Vand
p3864
F1.0
sg751
F1.0
sVpalmer
p3865
F1.0
sg216
F1.0
sVT-INT
p3866
F1.0
sVT-FLOAT
p3867
F1.0
saa(lp3868
S'N01-101186'
p3869
a(dp3870
Vand
p3871
F2.0
sVwww
p3872
F1.0
sVresults
p3873
F1.0
sVpaper
p3874
F1.0
sVincluding
p3875
F1.0
sVat
p3876
F1.0
sVin
p3877
F2.0
sVuk/events/senseval/
p3878
F1.0
sVweb
p3879
F1.0
sVadditional
p3880
F1.0
sg751
F1.0
sg759
F2.0
sg216
F2.0
sVkilgarri
p3881
F1.0
sVto
p3882
F1.0
sVdetails
p3883
F1.0
sVexercise
p3884
F1.0
sg31
F1.0
sVbe
p3885
F1.0
sVsenseval
p3886
F1.0
sVsite
p3887
F1.0
sVac
p3888
F1.0
sVdata
p3889
F1.0
sVT-FLOAT
p3890
F4.0
sVbton
p3891
F1.0
sVabout
p3892
F1.0
sVthis
p3893
F1.0
sVitri
p3894
F1.0
sVcan
p3895
F1.0
sVfound
p3896
F1.0
sVthe
p3897
F3.0
sVreferred
p3898
F1.0
saa(lp3899
S'N01-101185'
p3900
a(dp3901
Vten
p3902
F1.0
sVthis
p3903
F1.0
sVof
p3904
F1.0
sVteams
p3905
F1.0
sVT-FLOAT
p3906
F1.0
sVportion
p3907
F1.0
sVsupervised
p3908
F1.0
sVlearning
p3909
F1.0
sVin
p3910
F1.0
sVthe
p3911
F1.0
sVparticipated
p3912
F1.0
sVevent
p3913
F1.0
saa(lp3914
S'N01-101184'
p3915
a(dp3916
Vand
p3917
F1.0
sVtraining
p3918
F1.0
sVfrom
p3919
F1.0
sVutilizes
p3920
F1.0
sVsenseval
p3921
F1.0
sVevaluation
p3922
F1.0
sVstudy
p3923
F1.0
sVsense
p3924
F1.0
sVempirical
p3925
F1.0
sVT-INT
p3926
F1.0
sVT-FLOAT
p3927
F1.0
sVsystems
p3928
F1.0
sVword
p3929
F1.0
sVof
p3930
F1.0
sVtest
p3931
F1.0
sVour
p3932
F1.0
sVthe
p3933
F2.0
sVdata
p3934
F1.0
sVdisambiguation
p3935
F1.0
saa(lp3936
S'N01-1011134'
p3937
a(dp3938
Vand
p3939
F1.0
sVword
p3940
F1.0
sVcolumn
p3941
F1.0
sVof
p3942
F1.0
sVT-INT
p3943
F1.0
sVpart
p3944
F1.0
sVspeech
p3945
F1.0
sVthe
p3946
F1.0
sVT-FLOAT
p3947
F1.0
sVshows
p3948
F1.0
saa(lp3949
S'N01-101189'
p3950
a(dp3951
Vtagged
p3952
F1.0
sVsense
p3953
F1.0
sVinstances
p3954
F1.0
sVoccurrences
p3955
F1.0
sVin
p3956
F2.0
sg790
F1.0
sVT-FLOAT
p3957
F1.0
sVfrom
p3958
F1.0
sVtest
p3959
F1.0
sVlearned
p3960
F1.0
sVbe
p3961
F1.0
sVthat
p3962
F1.0
sVparticular
p3963
F1.0
sVbased
p3964
F1.0
sVdata
p3965
F2.0
sVthe
p3966
F4.0
sg38
F2.0
sVon
p3967
F1.0
sVtraining
p3968
F1.0
sVtask
p3969
F1.0
sVword
p3970
F1.0
sVof
p3971
F1.0
sVeach
p3972
F1.0
sVmodel
p3973
F1.0
sVrequires
p3974
F1.0
sVdisambiguated
p3975
F1.0
saa(lp3976
S'N01-101188'
p3977
a(dp3978
Vand
p3979
F1.0
sVprovided
p3980
F1.0
sVwe
p3981
F1.0
sVtasks
p3982
F1.0
sVfrom
p3983
F1.0
sVfor
p3984
F1.0
sVsenseval
p3985
F1.0
sVall
p3986
F1.0
sVT-INT
p3987
F1.0
sVtest
p3988
F1.0
sVwhich
p3989
F1.0
sVwere
p3990
F1.0
sVincluded
p3991
F1.0
sVtraining
p3992
F1.0
sVT-FLOAT
p3993
F1.0
sVdata
p3994
F1.0
saa(lp3995
S'N01-1011130'
p3996
a(dp3997
Vand
p3998
F1.0
sVtasks
p3999
F1.0
sVless
p4000
F1.0
sVamazev
p4001
F1.0
sVaccurate
p4002
F1.0
sVare
p4003
F1.0
sVT-FLOAT
p4004
F1.0
sVpromise-n
p4005
F1.0
sVbitter-p
p4006
F1.0
sVdecision
p4007
F1.0
sVthere
p4008
F1.0
sg216
F5.0
sg2938
F1.0
sVT-INT
p4009
F1.0
sg1682
F1.0
sVapproach
p4010
F1.0
sVis
p4011
F1.0
sVpower
p4012
F1.0
sVsenseval
p4013
F1.0
sVscrap-n
p4014
F1.0
sVdivergence
p4015
F1.0
sVshirt-n
p4016
F1.0
sVthan
p4017
F1.0
sVaverage
p4018
F1.0
sVtree
p4019
F1.0
sVthe
p4020
F2.0
sVwhere
p4021
F1.0
sVsanction-p
p4022
F1.0
saa(lp4023
S'N01-1011131'
p4024
a(dp4025
Vwas
p4026
F2.0
sVand
p4027
F1.0
sVamaze-v
p4028
F1.0
sV%
p4029
F2.0
sVT-INT
p4030
F4.0
sVsenseval
p4031
F1.0
sVwhere
p4032
F1.0
sVaverage
p4033
F1.0
sVtree
p4034
F1.0
sVoccurred
p4035
F1.0
sg216
F1.0
sVmost
p4036
F1.0
sVdramatic
p4037
F1.0
sVdecision
p4038
F1.0
sVthe
p4039
F3.0
sVdifference
p4040
F1.0
sVwith
p4041
F1.0
sVT-FLOAT
p4042
F3.0
sVaccuracy
p4043
F1.0
saa(lp4044
S'N01-1011132'
p4045
a(dp4046
Vbelonged
p4047
F1.0
sVin
p4048
F2.0
sVan
p4049
F1.0
sVsingle
p4050
F1.0
sVsense
p4051
F2.0
sVunusual
p4052
F1.0
sVinstance
p4053
F1.0
sg216
F1.0
sVto
p4054
F1.0
sVtest
p4055
F1.0
sVwas
p4056
F2.0
sVminority
p4057
F1.0
sVthat
p4058
F1.0
sVhowever
p4059
F1.0
sVevery
p4060
F1.0
sVdata
p4061
F2.0
sVT-FLOAT
p4062
F1.0
sg38
F2.0
sVtraining
p4063
F1.0
sVtask
p4064
F1.0
sVthis
p4065
F1.0
sVthe
p4066
F2.0
sVwhere
p4067
F1.0
saa(lp4068
S'N01-1011133'
p4069
a(dp4070
Vand
p4071
F1.0
sVshown
p4072
F1.0
sVword
p4073
F1.0
sVfor
p4074
F1.0
sVcharacteristics
p4075
F1.0
sVdecision
p4076
F2.0
sVeach
p4077
F1.0
sVtrees
p4078
F1.0
sVT-INT
p4079
F1.0
sVT-FLOAT
p4080
F1.0
sVare
p4081
F1.0
sVstumps
p4082
F1.0
sVof
p4083
F1.0
sVin
p4084
F1.0
sVthe
p4085
F2.0
sVtable
p4086
F1.0
sVlearned
p4087
F1.0
saa.