(dp0
Vall
p1
F2.833213344056216
sVsignific
p2
F4.418840607796598
sVfollow
p3
F3.5263605246161616
sVsettlement
p4
F4.418840607796598
sVhierarch
p5
F3.7376696182833684
sVwhose
p6
F4.02535169073515
sVdepend
p7
F4.418840607796598
sVtransduc
p8
F4.02535169073515
sVto
p9
F1.3862943611198906
sVprogram
p10
F5.111987788356544
sVth
p11
F5.111987788356544
sVsens
p12
F4.02535169073515
sVintroduc
p13
F3.7376696182833684
sVsourc
p14
F3.7376696182833684
sVeveri
p15
F5.111987788356544
sVstring
p16
F5.111987788356544
sVrise
p17
F5.111987788356544
sVdistort
p18
F5.111987788356544
sVverb
p19
F4.02535169073515
sVpartofspeech
p20
F5.111987788356544
sVveri
p21
F4.418840607796598
sVnoisychannel
p22
F5.111987788356544
sVtri
p23
F5.111987788356544
sVsyntaxbas
p24
F2.302585092994046
sVdid
p25
F4.02535169073515
sVdig
p26
F5.111987788356544
sVlist
p27
F5.111987788356544
sViter
p28
F4.418840607796598
sVp
p29
F3.7376696182833684
sVvector
p30
F5.111987788356544
sVstringtostr
p31
F5.111987788356544
sVsmall
p32
F4.418840607796598
sVlever
p33
F5.111987788356544
sVrepres
p34
F4.02535169073515
sVcfg
p35
F5.111987788356544
sVdirect
p36
F4.02535169073515
sVsecond
p37
F4.02535169073515
sVdesign
p38
F4.418840607796598
sVpass
p39
F5.111987788356544
sVeven
p40
F4.02535169073515
sVwill
p41
F4.02535169073515
sVwhat
p42
F5.111987788356544
sVappear
p43
F4.418840607796598
sVsection
p44
F4.418840607796598
sVlearner
p45
F4.02535169073515
sVcalcul
p46
F5.111987788356544
sVdelet
p47
F4.418840607796598
sVversion
p48
F4.418840607796598
sVintersect
p49
F5.111987788356544
sVnew
p50
F2.3978952727983707
sV;
p51
F3.5263605246161616
sVpublic
p52
F4.418840607796598
sVbestknown
p53
F5.111987788356544
sVpenalti
p54
F5.111987788356544
sVled
p55
F4.02535169073515
sVderiv
p56
F4.418840607796598
sVcompos
p57
F5.111987788356544
sVnever
p58
F5.111987788356544
sVhere
p59
F4.02535169073515
sVbodi
p60
F4.418840607796598
sVaddress
p61
F4.418840607796598
sV[
p62
F5.111987788356544
sVstrong
p63
F4.02535169073515
sVmodifi
p64
F5.111987788356544
sVsinc
p65
F4.418840607796598
sVwait
p66
F5.111987788356544
sVresidenti
p67
F4.418840607796598
sVsearch
p68
F5.111987788356544
sVmilitari
p69
F5.111987788356544
sVlarger
p70
F4.02535169073515
sVvbn
p71
F5.111987788356544
sVobserv
p72
F4.418840607796598
sVamount
p73
F5.111987788356544
sVpermit
p74
F5.111987788356544
sVstudi
p75
F4.418840607796598
sVcounti
p76
F5.111987788356544
sVhighestweight
p77
F5.111987788356544
sVvia
p78
F5.111987788356544
sVdanger
p79
F4.418840607796598
sVappli
p80
F3.5263605246161616
sVprefer
p81
F4.418840607796598
sVoverfit
p82
F4.02535169073515
sVtotal
p83
F4.418840607796598
sVunit
p84
F4.418840607796598
sVuse
p85
F1.9459101490553132
sVfrom
p86
F2.833213344056216
sVdescrib
p87
F3.7376696182833684
sVgloss
p88
F5.111987788356544
sVtwo
p89
F2.833213344056216
sVnext
p90
F5.111987788356544
sVfew
p91
F4.418840607796598
sVautomata
p92
F5.111987788356544
sVdisambigu
p93
F5.111987788356544
sVtype
p94
F4.418840607796598
sVtoday
p95
F4.418840607796598
sVremaind
p96
F5.111987788356544
sV``
p97
F4.02535169073515
sVrelax
p98
F4.418840607796598
sVthus
p99
F4.418840607796598
sVsplit/merg
p100
F5.111987788356544
sVrelat
p101
F5.111987788356544
sVmira
p102
F2.302585092994046
sVtrain
p103
F2.4849066497880004
sVexamin
p104
F5.111987788356544
sVparticular
p105
F4.02535169073515
sVmust
p106
F5.111987788356544
sVword
p107
F2.5649493574615367
sVibm
p108
F5.111987788356544
sVhous
p109
F5.111987788356544
sVthis
p110
F2.302585092994046
sVwork
p111
F3.332204510175204
sVuniqu
p112
F5.111987788356544
sVmt
p113
F3.332204510175204
sVobvious
p114
F4.418840607796598
sVcan
p115
F2.833213344056216
sVlearn
p116
F3.332204510175204
sVroot
p117
F4.02535169073515
sVproblemat
p118
F5.111987788356544
sVinfus
p119
F4.418840607796598
sVindic
p120
F5.111987788356544
sVcoalit
p121
F4.418840607796598
sVphrase
p122
F4.418840607796598
sVonlin
p123
F5.111987788356544
sVoccur
p124
F5.111987788356544
sVwatanab
p125
F4.02535169073515
sVinsertth
p126
F5.111987788356544
sVmultipl
p127
F5.111987788356544
sVthing
p128
F3.7376696182833684
sVrather
p129
F5.111987788356544
sVanoth
p130
F3.7376696182833684
sVget
p131
F4.418840607796598
sValway
p132
F5.111987788356544
sVforest
p133
F4.418840607796598
sVinstead
p134
F5.111987788356544
sVmay
p135
F5.111987788356544
sVchines
p136
F3.1780538303479458
sVafter
p137
F5.111987788356544
sVvariant
p138
F5.111987788356544
sVnpc
p139
F5.111987788356544
sVwrong
p140
F5.111987788356544
sVgiza++
p141
F5.111987788356544
sVdate
p142
F5.111987788356544
sVsuch
p143
F4.418840607796598
sVcomma
p144
F4.02535169073515
sVdata
p145
F2.772588722239781
sVparallel
p146
F4.418840607796598
sVaverag
p147
F4.418840607796598
sVa
p148
F1.3862943611198906
sVattempt
p149
F5.111987788356544
sVthird
p150
F5.111987788356544
sVcorrespond
p151
F5.111987788356544
sVproduc
p152
F4.02535169073515
sVissu
p153
F5.111987788356544
sVmarton
p154
F5.111987788356544
sVso
p155
F5.111987788356544
sVallow
p156
F5.111987788356544
sVphrasal
p157
F4.418840607796598
sVkneserney
p158
F5.111987788356544
sVorder
p159
F5.111987788356544
sVwind
p160
F5.111987788356544
sVpreposit
p161
F4.418840607796598
sVconstitu
p162
F5.111987788356544
sVover
p163
F3.332204510175204
sVbecaus
p164
F4.02535169073515
sVmeter
p165
F5.111987788356544
sVpaper
p166
F4.418840607796598
sVthrough
p167
F4.418840607796598
sVstill
p168
F4.418840607796598
sVhow
p169
F4.418840607796598
sVfix
p170
F4.02535169073515
sV,
p171
F1.0986122886681098
sVpend
p172
F5.111987788356544
sVtherefor
p173
F3.7376696182833684
sVvbns
p174
F5.111987788356544
sVthen
p175
F3.5263605246161616
sVthem
p176
F4.02535169073515
sVcrash
p177
F5.111987788356544
sVsentenc
p178
F3.7376696182833684
sVsafe
p179
F5.111987788356544
sVoverestim
p180
F5.111987788356544
sVthey
p181
F4.418840607796598
sVhalf
p182
F4.418840607796598
sVnot
p183
F3.7376696182833684
sVnow
p184
F4.418840607796598
sVtendenc
p185
F5.111987788356544
sVgrammar
p186
F4.418840607796598
sVminimumerrorr
p187
F5.111987788356544
sVdrop
p188
F5.111987788356544
sVeach
p189
F3.044522437723423
sVjanuari
p190
F5.111987788356544
sVside
p191
F3.7376696182833684
sVsubset
p192
F4.418840607796598
sVinclin
p193
F5.111987788356544
sVweight
p194
F2.5649493574615367
sVfinish
p195
F5.111987788356544
sVexpect
p196
F5.111987788356544
sVour
p197
F2.302585092994046
sVhappen
p198
F5.111987788356544
sVinserti
p199
F5.111987788356544
sVextract
p200
F3.7376696182833684
sVspecial
p201
F5.111987788356544
sVbaselin
p202
F3.332204510175204
sVvariabl
p203
F4.02535169073515
sVshown
p204
F3.5263605246161616
sVshortcom
p205
F5.111987788356544
sVqc
p206
F5.111987788356544
sVresearch
p207
F5.111987788356544
sVcategori
p208
F4.418840607796598
sVoptim
p209
F4.02535169073515
sVcorrect
p210
F5.111987788356544
sVgram
p211
F5.111987788356544
sVdataset
p212
F5.111987788356544
sVlinear
p213
F4.418840607796598
sVinsid
p214
F5.111987788356544
sVmillion
p215
F4.02535169073515
sVfree
p216
F5.111987788356544
sVstandard
p217
F5.111987788356544
sVmiratrain
p218
F5.111987788356544
sVbase
p219
F5.111987788356544
sVperform
p220
F3.5263605246161616
sVg
p221
F4.418840607796598
sVcould
p222
F5.111987788356544
sVsynchron
p223
F5.111987788356544
sVmodest
p224
F4.418840607796598
sVturn
p225
F5.111987788356544
sVperhap
p226
F5.111987788356544
sVoutsid
p227
F5.111987788356544
sVretain
p228
F5.111987788356544
sVture
p229
F5.111987788356544
sVsubtl
p230
F5.111987788356544
sVinteract
p231
F5.111987788356544
sVfrequent
p232
F5.111987788356544
sVfirst
p233
F3.7376696182833684
sVorigin
p234
F5.111987788356544
sVrang
p235
F5.111987788356544
sVreimplement
p236
F5.111987788356544
sVfeel
p237
F4.418840607796598
sVindepend
p238
F5.111987788356544
sVqualiti
p239
F4.02535169073515
sVnumber
p240
F4.02535169073515
sVone
p241
F5.111987788356544
sVreopen
p242
F5.111987788356544
sValreadi
p243
F4.418840607796598
sVfi
p244
F5.111987788356544
sVdiffer
p245
F4.418840607796598
sVresnik
p246
F5.111987788356544
sVassoci
p247
F5.111987788356544
sVtop
p248
F5.111987788356544
sVgalley
p249
F5.111987788356544
sVsystem
p250
F2.0794415416798357
sVconstruct
p251
F5.111987788356544
sVfm
p252
F5.111987788356544
sVtheir
p253
F3.7376696182833684
sVattack
p254
F4.418840607796598
sVtoo
p255
F4.418840607796598
sVnatur
p256
F5.111987788356544
sVwhite
p257
F5.111987788356544
sVscheme
p258
F5.111987788356544
sVunalign
p259
F5.111987788356544
sVthat
p260
F1.791759469228055
sVpunish
p261
F3.1780538303479458
sVtool
p262
F5.111987788356544
sVtook
p263
F5.111987788356544
sVpart
p264
F4.418840607796598
sVpars
p265
F3.7376696182833684
sVsomewhat
p266
F5.111987788356544
sVdomin
p267
F5.111987788356544
sVwordcontext
p268
F4.418840607796598
sVnbest
p269
F5.111987788356544
sVtarget
p270
F5.111987788356544
sVprovid
p271
F4.418840607796598
sVtree
p272
F3.1780538303479458
sVstructur
p273
F4.418840607796598
sVpasttens
p274
F5.111987788356544
sVwere
p275
F3.5263605246161616
sVposit
p276
F4.418840607796598
sVtargetlanguag
p277
F5.111987788356544
sVbet
p278
F5.111987788356544
sVare
p279
F2.302585092994046
sVand
p280
F1.3862943611198906
sVcomput
p281
F4.418840607796598
sVran
p282
F4.02535169073515
sVani
p283
F4.418840607796598
sVgale
p284
F5.111987788356544
sVhave
p285
F2.833213344056216
sVtabl
p286
F3.332204510175204
sVneed
p287
F3.5263605246161616
sVseen
p288
F5.111987788356544
sVseem
p289
F4.418840607796598
sVsaw
p290
F4.418840607796598
sVtechniqu
p291
F4.418840607796598
sVinform
p292
F4.418840607796598
sVation
p293
F5.111987788356544
sVespeci
p294
F5.111987788356544
sVsourcesid
p295
F3.5263605246161616
sVaccuraci
p296
F4.418840607796598
sVnote
p297
F4.418840607796598
sValso
p298
F3.7376696182833684
sVtake
p299
F5.111987788356544
sVwhich
p300
F3.1780538303479458
sVcombin
p301
F3.7376696182833684
sVgolan
p302
F4.418840607796598
sVbegin
p303
F5.111987788356544
sVbetterqu
p304
F5.111987788356544
sVincorpor
p305
F3.5263605246161616
sVtrace
p306
F5.111987788356544
sVthough
p307
F5.111987788356544
sVwhi
p308
F5.111987788356544
sVmost
p309
F4.418840607796598
sVpetrov
p310
F5.111987788356544
sVplan
p311
F4.418840607796598
sVpair
p312
F5.111987788356544
sV]
p313
F5.111987788356544
sVthe
p314
F0.6931471805599453
sVlee
p315
F5.111987788356544
sV=count
p316
F5.111987788356544
sVphrasebas
p317
F5.111987788356544
sVdoe
p318
F5.111987788356544
sVerror
p319
F5.111987788356544
sVdetermin
p320
F4.418840607796598
sVchiang
p321
F4.418840607796598
sVdetriment
p322
F5.111987788356544
sVfact
p323
F5.111987788356544
sVshow
p324
F3.1780538303479458
sVtext
p325
F5.111987788356544
sVrandom
p326
F5.111987788356544
sVparticip
p327
F5.111987788356544
sVsyntax
p328
F3.5263605246161616
sVtalbot
p329
F5.111987788356544
sVrough
p330
F5.111987788356544
sVfind
p331
F4.418840607796598
sVimpact
p332
F4.418840607796598
sVoch
p333
F5.111987788356544
sVonli
p334
F5.111987788356544
sVactiv
p335
F4.418840607796598
sVstate
p336
F4.02535169073515
sVthan
p337
F5.111987788356544
sVscore
p338
F4.02535169073515
sVanalyz
p339
F4.418840607796598
sVlocal
p340
F5.111987788356544
sVdo
p341
F4.02535169073515
sVremedi
p342
F5.111987788356544
sVcube
p343
F4.418840607796598
sVcontribut
p344
F5.111987788356544
sVrerank
p345
F5.111987788356544
sVspurious
p346
F5.111987788356544
sVjoint
p347
F5.111987788356544
sVtargetsid
p348
F4.418840607796598
sVhiero
p349
F2.9444389791664403
sVrequir
p350
F5.111987788356544
sVprune
p351
F4.418840607796598
sVyield
p352
F5.111987788356544
sVbad
p353
F5.111987788356544
sVintegr
p354
F5.111987788356544
sVcontain
p355
F5.111987788356544
sVtagger
p356
F5.111987788356544
sVexpectationmaxim
p357
F5.111987788356544
sVlinguist
p358
F4.418840607796598
sVwhere
p359
F5.111987788356544
sVnist
p360
F5.111987788356544
sVset
p361
F2.9444389791664403
sVexpel
p362
F4.418840607796598
sVsee
p363
F4.02535169073515
sVresult
p364
F3.332204510175204
sVbest
p365
F4.02535169073515
sVbylin
p366
F5.111987788356544
sVcloser
p367
F5.111987788356544
sVsaid
p368
F3.332204510175204
sVbitext
p369
F3.7376696182833684
sVboundari
p370
F5.111987788356544
sVmisus
p371
F5.111987788356544
sVfigur
p372
F4.02535169073515
sVrestructur
p373
F4.418840607796598
sVvarious
p374
F4.418840607796598
sVtoplevel
p375
F5.111987788356544
sVbetween
p376
F4.02535169073515
sVdrawn
p377
F5.111987788356544
sVneither
p378
F5.111987788356544
sVexperi
p379
F4.02535169073515
sVapproach
p380
F5.111987788356544
sVacross
p381
F5.111987788356544
sVwe
p382
F1.3862943611198906
sVkorea
p383
F4.418840607796598
sVsyntact
p384
F3.332204510175204
sVisol
p385
F5.111987788356544
sVentir
p386
F4.418840607796598
sVpertain
p387
F5.111987788356544
sVcome
p388
F5.111987788356544
sVaddit
p389
F5.111987788356544
sVruleoverlap
p390
F5.111987788356544
sVc
p391
F5.111987788356544
sVhowev
p392
F4.418840607796598
sVrelabel
p393
F4.418840607796598
sVequal
p394
F5.111987788356544
sVs
p395
F4.418840607796598
sVcontext
p396
F3.7376696182833684
sVmani
p397
F3.7376696182833684
sVamong
p398
F4.418840607796598
sVwiden
p399
F5.111987788356544
sVpoint
p400
F5.111987788356544
sVberkeley
p401
F5.111987788356544
sVperiod
p402
F4.418840607796598
sVsuppli
p403
F5.111987788356544
sVspeak
p404
F4.418840607796598
sVquit
p405
F5.111987788356544
sVpp
p406
F5.111987788356544
sVclarif
p407
F4.418840607796598
sVslowli
p408
F5.111987788356544
sVdue
p409
F5.111987788356544
sVbeen
p410
F4.02535169073515
sVmuch
p411
F5.111987788356544
sVgoodtur
p412
F4.418840607796598
sVsbarc
p413
F5.111987788356544
sVdeeper
p414
F5.111987788356544
sVnonlex
p415
F5.111987788356544
sVboth
p416
F3.1780538303479458
sVtogeth
p417
F4.418840607796598
sVan
p418
F3.1780538303479458
sVspirit
p419
F5.111987788356544
sVthose
p420
F5.111987788356544
sVstatist
p421
F4.02535169073515
sVcase
p422
F4.418840607796598
sVhas
p423
F4.02535169073515
sVlook
p424
F5.111987788356544
sVthese
p425
F2.4849066497880004
sValign
p426
F4.418840607796598
sVcorpora
p427
F5.111987788356544
sVemploy
p428
F5.111987788356544
sVwhile
p429
F5.111987788356544
sVabov
p430
F5.111987788356544
sVunmotiv
p431
F5.111987788356544
sVmargin
p432
F4.418840607796598
sVregion
p433
F5.111987788356544
sVincrement
p434
F5.111987788356544
sVadvantag
p435
F5.111987788356544
sVis
p436
F2.0794415416798357
sVgenerat
p437
F3.5263605246161616
sVhenc
p438
F5.111987788356544
sVit
p439
F2.6390573296152584
sVvp
p440
F5.111987788356544
sVgrammat
p441
F5.111987788356544
sVsubstanti
p442
F5.111987788356544
sVin
p443
F1.791759469228055
sVinspector
p444
F4.418840607796598
sVsever
p445
F5.111987788356544
sVif
p446
F4.418840607796598
sVminim
p447
F4.418840607796598
sV)
p448
F5.111987788356544
sVsuggest
p449
F5.111987788356544
sVmake
p450
F3.7376696182833684
sVcross
p451
F4.418840607796598
sVtopscor
p452
F5.111987788356544
sVdecod
p453
F2.833213344056216
sVsplit
p454
F5.111987788356544
sVprobabl
p455
F3.7376696182833684
sVyoon
p456
F4.418840607796598
sVevid
p457
F4.418840607796598
sVbonus
p458
F5.111987788356544
sVwherea
p459
F5.111987788356544
sVeffect
p460
F4.418840607796598
sVhand
p461
F5.111987788356544
sVimprov
p462
F2.833213344056216
sVimplement
p463
F5.111987788356544
sVtune
p464
F3.332204510175204
sVtask
p465
F4.418840607796598
sVdiscourag
p466
F5.111987788356544
sVi
p467
F5.111987788356544
sVhypothes
p468
F5.111987788356544
sVqualit
p469
F5.111987788356544
sVexampl
p470
F3.5263605246161616
sVenglish
p471
F2.4849066497880004
sVmodel
p472
F2.0794415416798357
sVreward
p473
F3.7376696182833684
sVsubmodel
p474
F5.111987788356544
sVobtain
p475
F3.7376696182833684
sVseparatelytun
p476
F5.111987788356544
sVyet
p477
F5.111987788356544
sVlanguag
p478
F2.9444389791664403
sVprevious
p479
F4.418840607796598
sVrapid
p480
F5.111987788356544
sVcommon
p481
F5.111987788356544
sVhad
p482
F5.111987788356544
sVadd
p483
F3.5263605246161616
sVgrow
p484
F4.418840607796598
sVchinese/english
p485
F5.111987788356544
sVmatch
p486
F5.111987788356544
sVquirk
p487
F5.111987788356544
sVdisciplin
p488
F5.111987788356544
sVterm
p489
F5.111987788356544
sVtest
p490
F3.332204510175204
sVenvis
p491
F5.111987788356544
sVinsert
p492
F3.5263605246161616
sVlike
p493
F5.111987788356544
sVspecif
p494
F5.111987788356544
sVnegat
p495
F5.111987788356544
sVcollect
p496
F5.111987788356544
sVbenefit
p497
F5.111987788356544
sVoutput
p498
F3.7376696182833684
sVsoft
p499
F5.111987788356544
sVlation
p500
F5.111987788356544
sVbilingu
p501
F4.418840607796598
sVtitl
p502
F5.111987788356544
sVoften
p503
F5.111987788356544
sVcaptur
p504
F5.111987788356544
sVsome
p505
F4.418840607796598
sVguarante
p506
F5.111987788356544
sVsurpris
p507
F5.111987788356544
sVfor
p508
F1.791759469228055
sVoverlap
p509
F4.418840607796598
sVcontrast
p510
F5.111987788356544
sVestim
p511
F5.111987788356544
sVlarg
p512
F4.418840607796598
sVcontent
p513
F5.111987788356544
sV?
p514
F4.02535169073515
sVmachin
p515
F3.7376696182833684
sVbe
p516
F2.9444389791664403
sVencourag
p517
F5.111987788356544
sVrun
p518
F5.111987788356544
sVslight
p519
F4.418840607796598
sVdiscount
p520
F3.5263605246161616
sVngram
p521
F4.02535169073515
sVckystyl
p522
F5.111987788356544
sVsqueez
p523
F5.111987788356544
sValthough
p524
F5.111987788356544
sVbinar
p525
F5.111987788356544
sVby
p526
F2.4849066497880004
sVon
p527
F2.0794415416798357
sVactual
p528
F5.111987788356544
sVconstraint
p529
F4.418840607796598
sVof
p530
F1.0986122886681098
sVofftheshelf
p531
F5.111987788356544
sVunfortun
p532
F5.111987788356544
sVor
p533
F3.1780538303479458
sVeffici
p534
F4.418840607796598
sVinto
p535
F3.044522437723423
sVwithin
p536
F4.418840607796598
sVmert
p537
F2.4849066497880004
sVthree
p538
F4.418840607796598
sVtargetsyntax
p539
F5.111987788356544
sVlargescal
p540
F5.111987788356544
sVrisk
p541
F4.02535169073515
sVmanag
p542
F5.111987788356544
sVlog
p543
F5.111987788356544
sVarea
p544
F5.111987788356544
sVthere
p545
F3.332204510175204
sVquestion
p546
F4.418840607796598
sVtransform
p547
F4.418840607796598
sVclass
p548
F5.111987788356544
sVavail
p549
F4.02535169073515
sVinclud
p550
F3.5263605246161616
sVway
p551
F5.111987788356544
sVcrammer
p552
F5.111987788356544
sV:
p553
F1.9459101490553132
sVwas
p554
F4.02535169073515
sVanalysi
p555
F5.111987788356544
sVonecount
p556
F4.418840607796598
sVnorth
p557
F4.418840607796598
sVoffer
p558
F4.418840607796598
sVforc
p559
F4.418840607796598
sVbut
p560
F3.332204510175204
sVlink
p561
F5.111987788356544
sVtranslat
p562
F2.0794415416798357
sVline
p563
F4.418840607796598
sVisra
p564
F4.418840607796598
sVwith
p565
F2.302585092994046
sVconclus
p566
F5.111987788356544
sVhe
p567
F4.418840607796598
sVcount
p568
F3.5263605246161616
sVpull
p569
F5.111987788356544
sVpossibl
p570
F3.7376696182833684
sVj
p571
F5.111987788356544
sVsmooth
p572
F5.111987788356544
sVup
p573
F4.02535169073515
sVus
p574
F4.418840607796598
sVfinitest
p575
F5.111987788356544
sVun
p576
F4.418840607796598
sVfundament
p577
F5.111987788356544
sVproblem
p578
F4.02535169073515
sVmore
p579
F3.7376696182833684
sVsimilar
p580
F4.418840607796598
sVpenal
p581
F4.418840607796598
sVfeatur
p582
F1.0986122886681098
sVad
p583
F4.418840607796598
sVevalu
p584
F5.111987788356544
sVm
p585
F5.111987788356544
sVdure
p586
F5.111987788356544
sVparser
p587
F3.5263605246161616
sVchan
p588
F5.111987788356544
sVal
p589
F2.772588722239781
sVgeneral
p590
F5.111987788356544
sVas
p591
F2.9444389791664403
sVat
p592
F3.7376696182833684
sVet
p593
F2.772588722239781
sVing
p594
F5.111987788356544
sVfill
p595
F4.418840607796598
sVincorrect
p596
F5.111987788356544
sVagain
p597
F5.111987788356544
sVno
p598
F4.02535169073515
sVcollin
p599
F5.111987788356544
sVsequenti
p600
F5.111987788356544
sVwhen
p601
F3.5263605246161616
sVnewswir
p602
F5.111987788356544
sVng
p603
F5.111987788356544
sVother
p604
F3.044522437723423
sVfutur
p605
F5.111987788356544
sVvarieti
p606
F5.111987788356544
sVnp
p607
F5.111987788356544
sVnode
p608
F4.02535169073515
sVdraw
p609
F5.111987788356544
sVwordalign
p610
F5.111987788356544
sVsymbol
p611
F4.418840607796598
sVwordinsert
p612
F5.111987788356544
sVbrief
p613
F5.111987788356544
sVbillion
p614
F5.111987788356544
sVe
p615
F4.02535169073515
sVlead
p616
F5.111987788356544
sValgorithm
p617
F3.5263605246161616
sVrule
p618
F1.791759469228055
sVnontermin
p619
F3.332204510175204
sVdiscrimin
p620
F4.02535169073515
sVpotenti
p621
F5.111987788356544
sVtime
p622
F3.332204510175204
sVdegrad
p623
F5.111987788356544
sVstringtotre
p624
F5.111987788356544
s.