(dp0
Vrepresent
p1
F5.303304908059076
sVall
p2
F2.772588722239781
sVedg
p3
F2.3978952727983707
sVillustr
p4
F5.303304908059076
sVfocus
p5
F5.303304908059076
sVsignific
p6
F3.5263605246161616
sVsupplement
p7
F5.303304908059076
sVlatter
p8
F5.303304908059076
sVfollow
p9
F3.713572066704308
sVevalu
p10
F3.713572066704308
sVconsider
p11
F5.303304908059076
sVcontent
p12
F4.204692619390966
sVprivat
p13
F5.303304908059076
sVwish
p14
F5.303304908059076
sVgraph
p15
F2.4849066497880004
sVto
p16
F1.3862943611198906
sVwnop
p17
F5.303304908059076
sVsens
p18
F1.6094379124341003
sVta
p19
F5.303304908059076
sVsourc
p20
F4.61512051684126
sVrelations/edg
p21
F5.303304908059076
sVlrm
p22
F4.61512051684126
sVandreevskaia
p23
F4.61512051684126
sVverb
p24
F4.61512051684126
sVpartofspeech
p25
F4.61512051684126
sVveri
p26
F5.303304908059076
sVaffect
p27
F5.303304908059076
sVironi
p28
F5.303304908059076
sVstrand
p29
F5.303304908059076
sVunigram
p30
F5.303304908059076
sVlevel
p31
F3.1354942159291497
sVlist
p32
F3.258096538021482
sVedu/mpq
p33
F5.303304908059076
sVitem
p34
F3.9318256327243257
sVvector
p35
F5.303304908059076
sVsmall
p36
F3.9318256327243257
sVdir
p37
F4.61512051684126
sVten
p38
F3.713572066704308
sVnatur
p39
F5.303304908059076
sVnaiv
p40
F4.61512051684126
sVfold
p41
F4.204692619390966
sVsecond
p42
F4.204692619390966
sVfurther
p43
F5.303304908059076
sVbelief
p44
F5.303304908059076
sVeven
p45
F5.303304908059076
sVsupervis
p46
F2.6390573296152584
sVcompar
p47
F4.61512051684126
sVblum
p48
F5.303304908059076
sVsection
p49
F3.258096538021482
sVfavour
p50
F4.61512051684126
sVhenceforth
p51
F5.303304908059076
sVexperiment
p52
F4.204692619390966
sVconduct
p53
F4.61512051684126
sVgh
p54
F5.303304908059076
sVmethod
p55
F3.258096538021482
sVunlabel
p56
F2.3978952727983707
sVlee
p57
F5.303304908059076
sVv
p58
F5.303304908059076
sVsatisfi
p59
F5.303304908059076
sVkamp
p60
F5.303304908059076
sVaddress
p61
F5.303304908059076
sVvertic
p62
F2.70805020110221
sVunsupervis
p63
F4.61512051684126
sVlarger
p64
F3.9318256327243257
sVprecis
p65
F4.61512051684126
sVprior
p66
F3.5263605246161616
sVamount
p67
F5.303304908059076
sVbase
p68
F4.61512051684126
sVopinion
p69
F3.5263605246161616
sV{
p70
F5.303304908059076
sVclearcut
p71
F5.303304908059076
sVsemant
p72
F5.303304908059076
sVvia
p73
F3.1354942159291497
sVregardless
p74
F5.303304908059076
sVbagof
p75
F5.303304908059076
sVappli
p76
F5.303304908059076
sVnewspap
p77
F5.303304908059076
sVtotal
p78
F5.303304908059076
sVselect
p79
F4.61512051684126
sVuse
p80
F1.6094379124341003
sVfrom
p81
F3.367295829986474
sVdescrib
p82
F3.367295829986474
sV&
p83
F5.303304908059076
sVdistinct
p84
F4.61512051684126
sVgloss
p85
F3.5263605246161616
sVtackl
p86
F5.303304908059076
sVtwo
p87
F2.3978952727983707
sVfew
p88
F5.303304908059076
sVformul
p89
F4.61512051684126
sVdisambigu
p90
F5.303304908059076
sVtype
p91
F4.61512051684126
sVmore
p92
F3.044522437723423
sVcomparison
p93
F4.61512051684126
sVrelat
p94
F1.9459101490553132
sVhurt
p95
F4.61512051684126
sVadapt
p96
F5.303304908059076
sVtrain
p97
F2.833213344056216
sVparticular
p98
F5.303304908059076
sVhold
p99
F5.303304908059076
sVhigh
p100
F3.5263605246161616
sVaccount
p101
F4.61512051684126
sVword
p102
F1.791759469228055
sVthis
p103
F3.258096538021482
sVwork
p104
F2.9444389791664403
sVannot
p105
F3.5263605246161616
sVremain
p106
F4.61512051684126
sVobvious
p107
F4.61512051684126
sVcan
p108
F2.302585092994046
sVlearn
p109
F3.713572066704308
sVded
p110
F5.303304908059076
sVundirect
p111
F5.303304908059076
sVscan
p112
F4.61512051684126
sVprocess
p113
F5.303304908059076
sVindic
p114
F3.9318256327243257
sVtraining/test
p115
F4.204692619390966
sVminimum
p116
F2.772588722239781
sVexplor
p117
F4.61512051684126
sVmpqa
p118
F4.61512051684126
sVpositive/neg
p119
F5.303304908059076
sVdivid
p120
F5.303304908059076
sVrather
p121
F5.303304908059076
sVanoth
p122
F5.303304908059076
sVclassifi
p123
F2.833213344056216
sValway
p124
F5.303304908059076
sVsever
p125
F5.303304908059076
sVinstead
p126
F4.61512051684126
sVmorpholog
p127
F5.303304908059076
sVsio
p128
F5.303304908059076
sVfscore
p129
F4.204692619390966
sVeither
p130
F5.303304908059076
sVlikewis
p131
F4.61512051684126
sVreflect
p132
F4.61512051684126
sVwrong
p133
F5.303304908059076
sVsuch
p134
F2.833213344056216
sVreligio
p135
F5.303304908059076
sVassoci
p136
F5.303304908059076
sVantonym
p137
F5.303304908059076
sVaverag
p138
F5.303304908059076
sVa
p139
F1.3862943611198906
sVshort
p140
F4.204692619390966
sVessenti
p141
F5.303304908059076
sVcorrespond
p142
F3.1354942159291497
sVsu
p143
F4.204692619390966
sVexclud
p144
F4.61512051684126
sVsk
p145
F5.303304908059076
sVinform
p146
F4.204692619390966
sVsi
p147
F5.303304908059076
sVcombin
p148
F4.61512051684126
sVincorpor
p149
F5.303304908059076
sVsl
p150
F5.303304908059076
sVsc
p151
F5.303304908059076
sVse
p152
F5.303304908059076
sVhelp
p153
F5.303304908059076
sVover
p154
F5.303304908059076
sVincreas
p155
F4.61512051684126
sVpaper
p156
F5.303304908059076
sVpang
p157
F5.303304908059076
sVer
p158
F5.303304908059076
sVhierarchi
p159
F4.61512051684126
sVlf
p160
F5.303304908059076
sVle
p161
F5.303304908059076
sVgroup
p162
F5.303304908059076
sVhow
p163
F3.713572066704308
sVchosen
p164
F5.303304908059076
sVlm
p165
F5.303304908059076
sV,
p166
F1.0986122886681098
sVbetter
p167
F3.258096538021482
sVgrade
p168
F5.303304908059076
sVlr
p169
F5.303304908059076
sVmincut
p170
F2.1972245773362196
sVmain
p171
F5.303304908059076
sVmight
p172
F3.9318256327243257
sVthen
p173
F4.204692619390966
sVthem
p174
F4.61512051684126
sVgood
p175
F4.61512051684126
sVrecal
p176
F4.61512051684126
sVsentenc
p177
F4.204692619390966
sVoveral
p178
F5.303304908059076
sViniti
p179
F4.61512051684126
sVframework
p180
F3.258096538021482
sVthey
p181
F3.1354942159291497
sVst
p182
F4.204692619390966
sVnot
p183
F3.5263605246161616
sVnow
p184
F5.303304908059076
sVdiscuss
p185
F4.204692619390966
sVpossess
p186
F5.303304908059076
sVterm
p187
F5.303304908059076
sVrevers
p188
F4.61512051684126
sVl
p189
F5.303304908059076
sVhyponym
p190
F4.61512051684126
sVeasili
p191
F5.303304908059076
sVachiev
p192
F3.1354942159291497
sVeach
p193
F3.367295829986474
sVdisregard
p194
F5.303304908059076
sVsubset
p195
F3.9318256327243257
sVen
p196
F5.303304908059076
sVei
p197
F5.303304908059076
sVweight
p198
F2.4849066497880004
sVed
p199
F5.303304908059076
sVidea
p200
F4.61512051684126
sVmilar
p201
F5.303304908059076
sVstatic
p202
F5.303304908059076
sVconnect
p203
F3.258096538021482
sVet
p204
F3.713572066704308
sVbeyond
p205
F5.303304908059076
sVreduct
p206
F4.61512051684126
sVout
p207
F5.303304908059076
sVshown
p208
F4.61512051684126
sVcooccurr
p209
F5.303304908059076
sVsentiment
p210
F5.303304908059076
sVgoe
p211
F5.303304908059076
sVresearch
p212
F5.303304908059076
sVcategori
p213
F5.303304908059076
sVre
p214
F5.303304908059076
sVra
p215
F4.61512051684126
sVformula
p216
F5.303304908059076
sVrn
p217
F5.303304908059076
sVforth
p218
F5.303304908059076
sVcorrect
p219
F5.303304908059076
sVdataset
p220
F2.70805020110221
sVlinear
p221
F5.303304908059076
sVargu
p222
F5.303304908059076
sVeci
p223
F5.303304908059076
sVstandard
p224
F3.367295829986474
sVreason
p225
F3.9318256327243257
sVect
p226
F4.61512051684126
sVdictionari
p227
F4.61512051684126
sVput
p228
F5.303304908059076
sVfilter
p229
F5.303304908059076
sVatt
p230
F5.303304908059076
sVw
p231
F4.61512051684126
sVtakamura
p232
F4.61512051684126
sVprincipl
p233
F5.303304908059076
sVassign
p234
F3.1354942159291497
sVfrequent
p235
F4.61512051684126
sVfirst
p236
F3.713572066704308
sVoper
p237
F5.303304908059076
sVmajor
p238
F5.303304908059076
sVrelati
p239
F5.303304908059076
sVcarri
p240
F5.303304908059076
sVindepend
p241
F5.303304908059076
sVnumber
p242
F5.303304908059076
sVrank
p243
F4.61512051684126
sVone
p244
F3.258096538021482
sVrestrict
p245
F4.61512051684126
sVwill
p246
F4.204692619390966
sValreadi
p247
F5.303304908059076
sVconstruct
p248
F3.5263605246161616
sVpredefin
p249
F5.303304908059076
sVsize
p250
F3.5263605246161616
sVavail
p251
F5.303304908059076
sVgiven
p252
F4.204692619390966
sVdata
p253
F1.9459101490553132
sVleast
p254
F5.303304908059076
sVtheir
p255
F3.1354942159291497
sVadject
p256
F4.61512051684126
sVton
p257
F5.303304908059076
sVstatement
p258
F5.303304908059076
sVcorpus
p259
F3.713572066704308
sVscheme
p260
F4.61512051684126
sVnoisi
p261
F5.303304908059076
sVlow
p262
F4.61512051684126
sVwordbas
p263
F5.303304908059076
sVoption
p264
F5.303304908059076
sVthat
p265
F1.791759469228055
sVpubs/papers/goldstandard
p266
F5.303304908059076
sVspecifi
p267
F5.303304908059076
sVemploy
p268
F5.303304908059076
sVpart
p269
F3.9318256327243257
sVnoun
p270
F4.61512051684126
sVthan
p271
F3.1354942159291497
sVserv
p272
F5.303304908059076
sVb
p273
F5.303304908059076
sVprovid
p274
F5.303304908059076
sVsubjective/object
p275
F4.61512051684126
sVremov
p276
F5.303304908059076
sVrate
p277
F4.204692619390966
sVstructur
p278
F5.303304908059076
sVr
p279
F4.61512051684126
sVposit
p280
F5.303304908059076
sVare
p281
F2.1972245773362196
sVand
p282
F1.3862943611198906
sVcomput
p283
F4.61512051684126
sVani
p284
F3.713572066704308
sVhave
p285
F3.5263605246161616
sVtabl
p286
F2.9444389791664403
sVneed
p287
F3.9318256327243257
sVseen
p288
F4.204692619390966
sVseem
p289
F4.61512051684126
sVelement
p290
F5.303304908059076
sVlie
p291
F5.303304908059076
sVprobabl
p292
F4.204692619390966
sVmoreov
p293
F4.61512051684126
sVaccuraci
p294
F3.5263605246161616
sValso
p295
F2.5649493574615367
sVexampl
p296
F2.70805020110221
sVtake
p297
F5.303304908059076
sVwhich
p298
F3.1354942159291497
sVso
p299
F4.204692619390966
sVdivers
p300
F5.303304908059076
sVsingl
p301
F5.303304908059076
sVtherefor
p302
F4.61512051684126
sVdistribut
p303
F3.713572066704308
sVobject
p304
F3.258096538021482
sVlibsvm
p305
F5.303304908059076
sVlexic
p306
F3.367295829986474
sVhyponymi
p307
F5.303304908059076
sVmost
p308
F4.61512051684126
sVpair
p309
F5.303304908059076
sVrepresen
p310
F5.303304908059076
sVthe
p311
F0.6931471805599453
sVlater
p312
F5.303304908059076
sVm
p313
F3.367295829986474
sVdetermin
p314
F4.204692619390966
sVlink
p315
F3.713572066704308
sVchawla
p316
F5.303304908059076
sV}
p317
F5.303304908059076
sVfact
p318
F5.303304908059076
sVgold
p319
F5.303304908059076
sVshow
p320
F3.367295829986474
sVtext
p321
F4.204692619390966
sVrandom
p322
F4.61512051684126
sVfind
p323
F3.9318256327243257
sVonli
p324
F3.1354942159291497
sVexplain
p325
F5.303304908059076
sVfigur
p326
F3.5263605246161616
sVshould
p327
F4.204692619390966
sVanalyz
p328
F5.303304908059076
sVlsl
p329
F5.303304908059076
sVdo
p330
F3.367295829986474
sVlexica
p331
F5.303304908059076
sVexpress
p332
F3.9318256327243257
sVstop
p333
F5.303304908059076
sVda
p334
F5.303304908059076
sVreport
p335
F5.303304908059076
sVorgan
p336
F5.303304908059076
sVoutperform
p337
F3.713572066704308
sVbay
p338
F4.61512051684126
sVqc
p339
F5.303304908059076
sVlrmsl
p340
F4.61512051684126
sVcontrast
p341
F4.61512051684126
sVpartit
p342
F4.61512051684126
sVcontain
p343
F3.713572066704308
sVlinguist
p344
F5.303304908059076
sVwhere
p345
F3.9318256327243257
sVview
p346
F5.303304908059076
sVkernel
p347
F5.303304908059076
sVset
p348
F2.70805020110221
sVcrossvalid
p349
F4.204692619390966
sVtation
p350
F5.303304908059076
sVunfavour
p351
F5.303304908059076
sVknowledg
p352
F5.303304908059076
sVwe
p353
F1.3862943611198906
sVsee
p354
F3.713572066704308
sVsubjectivitypreserv
p355
F3.9318256327243257
sVdisadvantag
p356
F5.303304908059076
sVsel
p357
F5.303304908059076
sVbest
p358
F3.9318256327243257
sVsubject
p359
F1.9459101490553132
sV#
p360
F4.204692619390966
sV)
p361
F5.303304908059076
sVlabel
p362
F2.772588722239781
sVstate
p363
F5.303304908059076
sVbridg
p364
F5.303304908059076
sVmislead
p365
F5.303304908059076
sVbetween
p366
F2.9444389791664403
sVit
p367
F2.3978952727983707
sVimport
p368
F3.713572066704308
sVexperi
p369
F4.204692619390966
sVapproach
p370
F2.772588722239781
sVacross
p371
F4.204692619390966
sV//www
p372
F4.61512051684126
sVesuli
p373
F4.61512051684126
sVspars
p374
F4.204692619390966
sVextend
p375
F5.303304908059076
sVsubjectivityambigu
p376
F4.204692619390966
sVisol
p377
F4.204692619390966
sVcut
p378
F2.4849066497880004
sVcsie
p379
F5.303304908059076
sVaddit
p380
F3.5263605246161616
sVboth
p381
F3.9318256327243257
sVc
p382
F5.303304908059076
sVnongraph
p383
F4.61512051684126
sVhowev
p384
F3.367295829986474
sVpitt
p385
F5.303304908059076
sVagainst
p386
F5.303304908059076
sVs
p387
F3.1354942159291497
sVstateoftheart
p388
F5.303304908059076
sVimprov
p389
F4.204692619390966
sVunl
p390
F5.303304908059076
sVsimpli
p391
F5.303304908059076
sVoverview
p392
F5.303304908059076
sVclassif
p393
F2.4849066497880004
sVcy
p394
F4.61512051684126
sVfeatur
p395
F2.772588722239781
sVdiffer
p396
F2.3978952727983707
sVcs
p397
F5.303304908059076
sVrespect
p398
F4.204692619390966
sVthroughout
p399
F5.303304908059076
sVassum
p400
F5.303304908059076
sVsummar
p401
F5.303304908059076
sVcu
p402
F4.61512051684126
sVpr
p403
F5.303304908059076
sVstrong
p404
F4.204692619390966
sVwieb
p405
F3.1354942159291497
sVadverb
p406
F4.204692619390966
sVtabel
p407
F5.303304908059076
sVfro
p408
F5.303304908059076
sVdue
p409
F5.303304908059076
sVbeen
p410
F4.204692619390966
sVcompon
p411
F4.61512051684126
sVmcnemar
p412
F5.303304908059076
sVtreat
p413
F5.303304908059076
sVinterest
p414
F5.303304908059076
sVbasic
p415
F5.303304908059076
sVpo
p416
F5.303304908059076
sVcal
p417
F5.303304908059076
sVpresenc
p418
F5.303304908059076
sVsummari
p419
F5.303304908059076
sVmine
p420
F5.303304908059076
sVrepres
p421
F4.61512051684126
sVspin
p422
F5.303304908059076
sVpresent
p423
F4.61512051684126
sVnoun/verb
p424
F5.303304908059076
sVdirecthypernym
p425
F5.303304908059076
sVthese
p426
F4.61512051684126
sVsimilarto
p427
F4.61512051684126
sVproperti
p428
F4.61512051684126
sVharder
p429
F5.303304908059076
sVcommerci
p430
F5.303304908059076
sVcontextu
p431
F5.303304908059076
sVn
p432
F4.61512051684126
sVaim
p433
F4.61512051684126
sVdefin
p434
F5.303304908059076
sVain
p435
F5.303304908059076
sVabov
p436
F4.61512051684126
sVerror
p437
F4.204692619390966
sVriv
p438
F5.303304908059076
sVis
p439
F1.6094379124341003
sVgenerat
p440
F3.713572066704308
sVthus
p441
F4.204692619390966
sVvm
p442
F5.303304908059076
sVrespectiv
p443
F5.303304908059076
sVitself
p444
F5.303304908059076
sVin
p445
F1.3862943611198906
sVym
p446
F5.303304908059076
sVrib
p447
F5.303304908059076
sVwordnet
p448
F2.0794415416798357
sVif
p449
F3.713572066704308
sVresult
p450
F2.3978952727983707
sVpar
p451
F5.303304908059076
sVminim
p452
F5.303304908059076
sVperform
p453
F2.70805020110221
sVsuggest
p454
F5.303304908059076
sVmake
p455
F5.303304908059076
sVbelong
p456
F5.303304908059076
sVsame
p457
F3.1354942159291497
sVbinari
p458
F3.713572066704308
sVhtml
p459
F5.303304908059076
sVsplit
p460
F5.303304908059076
sVlargest
p461
F5.303304908059076
sVdocument
p462
F4.61512051684126
sVinfer
p463
F5.303304908059076
sVhttp
p464
F4.61512051684126
sVwherea
p465
F4.61512051684126
sVkim
p466
F5.303304908059076
sVmani
p467
F4.61512051684126
sVexpand
p468
F5.303304908059076
sVlower
p469
F5.303304908059076
sVtask
p470
F5.303304908059076
sVi
p471
F3.9318256327243257
sVentri
p472
F5.303304908059076
sVwell
p473
F3.713572066704308
sVnon
p474
F5.303304908059076
sVde
p475
F5.303304908059076
sVwithout
p476
F4.204692619390966
sVy
p477
F5.303304908059076
sVmodel
p478
F3.9318256327243257
sVacadem
p479
F5.303304908059076
sVdimension
p480
F5.303304908059076
sVflicker
p481
F5.303304908059076
sVpropos
p482
F3.258096538021482
sVpredetermin
p483
F5.303304908059076
sVjust
p484
F5.303304908059076
sVless
p485
F4.204692619390966
sVconverg
p486
F5.303304908059076
sVobtain
p487
F5.303304908059076
sVhuman
p488
F4.61512051684126
sVlanguag
p489
F5.303304908059076
sVlesk
p490
F5.303304908059076
sVconcentr
p491
F5.303304908059076
sVweb
p492
F5.303304908059076
sVeli
p493
F5.303304908059076
sVuptod
p494
F5.303304908059076
sVele
p495
F5.303304908059076
sVidentif
p496
F4.61512051684126
sVadd
p497
F5.303304908059076
sVhas
p498
F4.204692619390966
sVsebastiani
p499
F4.61512051684126
sVearli
p500
F5.303304908059076
sVapplic
p501
F5.303304908059076
sVmayb
p502
F5.303304908059076
sVpreserv
p503
F5.303304908059076
sVintuit
p504
F5.303304908059076
sVapart
p505
F4.61512051684126
sVmeasur
p506
F4.204692619390966
sVd
p507
F4.204692619390966
sVnegat
p508
F5.303304908059076
sVcollect
p509
F4.204692619390966
sVnecessari
p510
F5.303304908059076
sVt
p511
F3.367295829986474
sVpage
p512
F4.61512051684126
sVmonosem
p513
F3.5263605246161616
sVright
p514
F4.61512051684126
sVoften
p515
F4.61512051684126
sVdeal
p516
F5.303304908059076
sVmanual
p517
F4.61512051684126
sVsome
p518
F4.61512051684126
sVguarante
p519
F5.303304908059076
sVfor
p520
F1.791759469228055
sVsemisupervis
p521
F2.3978952727983707
sVmarkert
p522
F4.204692619390966
sVdefinit
p523
F3.9318256327243257
sViff
p524
F5.303304908059076
sVrecognit
p525
F3.713572066704308
sVestim
p526
F5.303304908059076
sVlarg
p527
F3.713572066704308
sVunit
p528
F5.303304908059076
sVsynset
p529
F5.303304908059076
sVcondit
p530
F5.303304908059076
sV?
p531
F5.303304908059076
sVrefer
p532
F5.303304908059076
sVbe
p533
F2.3978952727983707
sVgraphbas
p534
F4.61512051684126
sVrun
p535
F5.303304908059076
sVba
p536
F5.303304908059076
sVsource/sink
p537
F5.303304908059076
sVagreement
p538
F5.303304908059076
sVwhi
p539
F4.61512051684126
sVstep
p540
F4.61512051684126
sValthough
p541
F5.303304908059076
sVby
p542
F2.6390573296152584
sVmihalcea
p543
F3.5263605246161616
sVon
p544
F2.302585092994046
sVabout
p545
F5.303304908059076
sVactual
p546
F5.303304908059076
sVof
p547
F1.0986122886681098
sVo
p548
F5.303304908059076
sVacl
p549
F5.303304908059076
sVmarkert/data
p550
F5.303304908059076
sVdegre
p551
F4.204692619390966
sVor
p552
F2.5649493574615367
sVscrupulo
p553
F5.303304908059076
sVinto
p554
F3.713572066704308
sVautomat
p555
F3.713572066704308
sVthree
p556
F4.61512051684126
sVsimilarity/associ
p557
F5.303304908059076
sVdirecthyponym
p558
F5.303304908059076
sVthere
p559
F3.5263605246161616
sVbodi
p560
F5.303304908059076
sVlike
p561
F3.713572066704308
sVreli
p562
F4.61512051684126
sVinclud
p563
F4.204692619390966
sVway
p564
F5.303304908059076
sVprecision/recal
p565
F5.303304908059076
sVbergler
p566
F4.61512051684126
sVcall
p567
F4.61512051684126
sV:
p568
F2.302585092994046
sVwas
p569
F5.303304908059076
sVhy
p570
F4.61512051684126
sVpe
p571
F5.303304908059076
sVthesaurus
p572
F5.303304908059076
sVbut
p573
F5.303304908059076
sVsubjset
p574
F5.303304908059076
sVsame/
p575
F5.303304908059076
sVho
p576
F4.61512051684126
sVwith
p577
F1.9459101490553132
sVconclus
p578
F4.61512051684126
sVcount
p579
F5.303304908059076
sVpull
p580
F4.61512051684126
sValgorithm
p581
F2.4849066497880004
sVconsist
p582
F5.303304908059076
sVwhether
p583
F3.9318256327243257
sVut
p584
F5.303304908059076
sVj
p585
F5.303304908059076
sVup
p586
F5.303304908059076
sVus
p587
F4.204692619390966
sVmaximumflow
p588
F5.303304908059076
sVui
p589
F5.303304908059076
sVsubjectiv
p590
F5.303304908059076
sVproblem
p591
F3.258096538021482
sVremaind
p592
F5.303304908059076
sVsimilar
p593
F2.9444389791664403
sVex
p594
F5.303304908059076
sVcurv
p595
F3.367295829986474
sVac
p596
F4.61512051684126
sVab
p597
F5.303304908059076
sVconstant
p598
F3.713572066704308
sVad
p599
F5.303304908059076
sVcreat
p600
F5.303304908059076
sVai
p601
F5.303304908059076
sVal
p602
F3.713572066704308
sVan
p603
F2.5649493574615367
sVas
p604
F1.791759469228055
sVexist
p605
F4.61512051684126
sVat
p606
F2.772588722239781
sVour
p607
F2.1972245773362196
sVaggrav
p608
F5.303304908059076
sVing
p609
F5.303304908059076
sVcheck
p610
F4.61512051684126
sVmicrownop
p611
F3.5263605246161616
sVlmnosl
p612
F5.303304908059076
sV%
p613
F2.4849066497880004
sVno
p614
F4.204692619390966
sVallow
p615
F4.61512051684126
sVwhen
p616
F5.303304908059076
sVdetail
p617
F3.713572066704308
sVny
p618
F4.61512051684126
sVother
p619
F2.833213344056216
sVhovi
p620
F5.303304908059076
sVfutur
p621
F4.204692619390966
sVvarieti
p622
F5.303304908059076
sVtest
p623
F3.258096538021482
sVbaselin
p624
F3.713572066704308
sVpolar
p625
F3.258096538021482
sVlend
p626
F5.303304908059076
sVsvml
p627
F5.303304908059076
sVui+
p628
F5.303304908059076
sVvertex
p629
F3.713572066704308
sVconsid
p630
F5.303304908059076
sVprevious
p631
F3.9318256327243257
sVreduc
p632
F4.61512051684126
sVsvm
p633
F2.70805020110221
sVe
p634
F3.1354942159291497
sVlead
p635
F4.61512051684126
sVfurthermor
p636
F5.303304908059076
sVn/
p637
F5.303304908059076
sVreliabl
p638
F5.303304908059076
sVpartsofspeech
p639
F4.61512051684126
sVu
p640
F3.9318256327243257
s.