(lp0
(lp1
S'P05-1004129'
p2
a(dp3
Vright
p4
F1.0
sVbeing
p5
F1.0
sVis
p6
F2.0
sVan
p7
F1.0
sVvp
p8
F3.0
sVprogressive
p9
F1.0
sVif
p10
F2.0
sVfrom
p11
F1.0
sV)
p12
F1.0
sV(
p13
F1.0
sV,
p14
F1.0
sVpassive
p15
F1.0
sVto
p16
F1.0
sV;
p17
F1.0
sV:
p18
F1.0
sVexcept
p19
F1.0
sVscans
p20
F1.0
sVbe
p21
F1.0
sVform
p22
F1.0
sVbecomes
p23
F2.0
sVverb
p24
F2.0
sVactive
p25
F1.0
sVencountered
p26
F2.0
sVT-FLOAT
p27
F1.0
sVa
p28
F1.0
sVauxiliary
p29
F1.0
sValgorithm
p30
F1.0
sVof
p31
F1.0
sVthe
p32
F4.0
sVotherwise
p33
F1.0
sVleft
p34
F1.0
saa(lp35
S'P05-1004128'
p36
a(dp37
g28
F1.0
sVbe
p38
F1.0
sVhead
p39
F1.0
sVform
p40
F1.0
sVthen
p41
F1.0
sVof
p42
F1.0
sVis
p43
F1.0
sVvp
p44
F1.0
sVverb
p45
F1.0
sVbecomes
p46
F1.0
sVattributive
p47
F1.0
sVthe
p48
F2.0
sVT-FLOAT
p49
F1.0
sVif
p50
F1.0
saa(lp51
S'P05-1004127'
p52
a(dp53
g28
F1.0
sVinitially
p54
F1.0
sVis
p55
F1.0
sVvp
p56
F1.0
sVas
p57
F1.0
sVcategorised
p58
F1.0
sVactive
p59
F1.0
sVT-FLOAT
p60
F1.0
saa(lp61
S'P05-1004126'
p62
a(dp63
Vhead
p64
F1.0
sVconsidered
p65
F1.0
sVis
p66
F1.0
sVeach
p67
F1.0
sVvp
p68
F1.0
sVrightmost
p69
F1.0
sVverb
p70
F1.0
sVdetermination
p71
F1.0
sVin
p72
F1.0
sVtense
p73
F1.0
sVthe
p74
F2.0
sVT-FLOAT
p75
F1.0
saa(lp76
S'P05-1004125'
p77
a(dp78
Vhead
p79
F1.0
sVthis
p80
F1.0
sVafter
p81
F1.0
sVunattached
p82
F1.0
sVremains
p83
F1.0
sVonly
p84
F1.0
sVnp
p85
F1.0
sVphrase
p86
F1.0
sVthe
p87
F1.0
sVT-FLOAT
p88
F1.0
saa(lp89
S'P05-1004124'
p90
a(dp91
Vpp
p92
F1.0
sVthis
p93
F1.0
sVcorresponds
p94
F1.0
sVto
p95
F1.0
sVattachment
p96
F1.0
sVassuming
p97
F1.0
sVT-FLOAT
p98
F1.0
sVright-branching
p99
F1.0
saa(lp100
S'P05-1004123'
p101
a(dp102
g28
F2.0
sVnoun
p103
F3.0
sVgr
p104
F2.0
sVcreated
p105
F2.0
sVT-FLOAT
p106
F1.0
sVis
p107
F3.0
sVprepositional
p108
F1.0
sg14
F2.0
sVencountered
p109
F1.0
sVpreposition
p110
F1.0
sVbetween
p111
F1.0
sVan
p112
F1.0
sVheads
p113
F1.0
sVthe
p114
F1.0
sVotherwise
p115
F1.0
sVappositional
p116
F1.0
sVif
p117
F1.0
saa(lp118
S'P05-1004122'
p119
a(dp120
Vand
p121
F1.0
sVright
p122
F1.0
sVpps
p123
F1.0
sVpass
p124
F2.0
sVT-FLOAT
p125
F1.0
sVheads
p126
F1.0
sVgrs
p127
F1.0
sVT-INT
p128
F1.0
sg14
F2.0
sVunattached
p129
F1.0
sVto
p130
F1.0
sVbetween
p131
F1.0
sg18
F1.0
sVscans
p132
F1.0
sVcreating
p133
F1.0
sVpost-modifiers
p134
F1.0
sVnps
p135
F2.0
sVnoun
p136
F1.0
sVthis
p137
F1.0
sVof
p138
F1.0
sVpost-modifier
p139
F1.0
sVthe
p140
F1.0
sVleft
p141
F1.0
saa(lp142
S'P05-1004121'
p143
a(dp144
Vand
p145
F1.0
sVpp
p146
F1.0
sVheads
p147
F1.0
sVwithin
p148
F1.0
sVremain
p149
F1.0
sVunattached
p150
F1.0
sVonly
p151
F1.0
sVeach
p152
F1.0
sVnp
p153
F2.0
sVthe
p154
F1.0
sVT-FLOAT
p155
F1.0
saa(lp156
S'P05-1004120'
p157
a(dp158
Vnoun
p159
F1.0
sVcompounds
p160
F1.0
sVthis
p161
F1.0
sVcorresponds
p162
F1.0
sVto
p163
F1.0
sVassuming
p164
F1.0
sVT-FLOAT
p165
F1.0
sVright-branching
p166
F1.0
saa(lp167
S'P05-100469'
p168
a(dp169
Vand
p170
F1.0
sVcompare
p171
F1.0
sVset
p172
F1.0
sVnouns
p173
F1.0
sVcross-validation
p174
F1.0
sVhave
p175
F1.0
sVtheir
p176
F1.0
sVwordnet
p177
F3.0
sVuse
p178
F1.0
sVfrom
p179
F1.0
sVfor
p180
F1.0
sVT-INT
p181
F7.0
sVsince
p182
F1.0
sVbeen
p183
F1.0
sVto
p184
F1.0
sVpercentage
p185
F1.0
sVevaluation
p186
F2.0
sVadded
p187
F1.0
sVthat
p188
F2.0
sVstandard
p189
F1.0
sVuses
p190
F1.0
sVthey
p191
F1.0
sVwith
p192
F1.0
sVthe
p193
F2.0
sg28
F2.0
sVtraining
p194
F1.0
sVthis
p195
F1.0
sVapproach
p196
F1.0
sVcommon
p197
F1.0
sVof
p198
F1.0
sVsmall
p199
F1.0
sVT-FLOAT
p200
F5.0
sVwords
p201
F1.0
saa(lp202
S'P05-100468'
p203
a(dp204
Vand
p205
F1.0
sVextra
p206
F1.0
sVhave
p207
F1.0
sVwordnet
p208
F1.0
sVfor
p209
F1.0
sVbeen
p210
F1.0
sVto
p211
F1.0
sVversion
p212
F1.0
sVnew
p213
F1.0
sg18
F1.0
sVevaluation
p214
F1.0
sVinserting
p215
F1.0
sVadded
p216
F1.0
sVthat
p217
F1.0
sVvery
p218
F1.0
sVpropose
p219
F1.0
sVnouns
p220
F1.0
sVsupersense
p221
F1.0
sVT-FLOAT
p222
F1.0
sVtagging
p223
F1.0
sg28
F2.0
sVnatural
p224
F1.0
sVjohnson
p225
F1.0
sVof
p226
F1.0
sVcommon
p227
F1.0
sVthe
p228
F1.0
sVciaramita
p229
F1.0
saa(lp230
S'P05-100465'
p231
a(dp232
Vand
p233
F4.0
sVnamed
p234
F1.0
sVfeatures
p235
F1.0
sVentity
p236
F1.0
sVtagger
p237
F1.0
sVin
p238
F1.0
sVT-FLOAT
p239
F1.0
sVperceptron
p240
F1.0
sVrecognition
p241
F1.0
sVbased
p242
F1.0
sVsyntactic
p243
F1.0
sg12
F1.0
sg13
F1.0
sg14
F3.0
sVT-INT
p244
F1.0
sVcrammer
p245
F1.0
sVsystems
p246
F1.0
sVwhich
p247
F1.0
sVcollocation
p248
F1.0
sVstandard
p249
F1.0
sVuses
p250
F1.0
sVsupersense
p251
F1.0
sVspelling
p252
F1.0
sVthe
p253
F2.0
sg28
F1.0
sVon
p254
F1.0
sVsinger
p255
F1.0
sVwsd
p256
F1.0
sVjohnson
p257
F1.0
sVcommon
p258
F1.0
sVimplement
p259
F1.0
sVmulti-class
p260
F1.0
sVciaramita
p261
F1.0
sVclassifier
p262
F1.0
saa(lp263
S'P05-100464'
p264
a(dp265
Vused
p266
F1.0
sVthis
p267
F1.0
sVis
p268
F1.0
sVtechnique
p269
F1.0
sVsame
p270
F1.0
sVto
p271
F1.0
sVas
p272
F1.0
sVin
p273
F1.0
sVour
p274
F1.0
sVsupersense
p275
F1.0
sVapproach
p276
F1.0
sVT-FLOAT
p277
F1.0
sVtagging
p278
F1.0
saa(lp279
S'P05-100467'
p280
a(dp281
Vtraining
p282
F1.0
sValgorithm
p283
F1.0
sVfor
p284
F1.0
sVefficient
p285
F1.0
sVdeveloped
p286
F1.0
sVover
p287
F1.0
sVan
p288
F1.0
sVestimating
p289
F1.0
sVhierarchical
p290
F1.0
sVT-FLOAT
p291
F1.0
sVthey
p292
F1.0
sVthe
p293
F1.0
sVdata
p294
F1.0
sVmodel
p295
F1.0
saa(lp296
S'P05-100466'
p297
a(dp298
Vand
p299
F1.0
sVhierarchy
p300
F1.0
sVinsight
p301
F1.0
sVnumber
p302
F1.0
sVinstances
p303
F1.0
sVas
p304
F1.0
sVwordnet
p305
F1.0
sVuse
p306
F1.0
sVannotated
p307
F1.0
sVtheir
p308
F1.0
sVincrease
p309
F1.0
sVto
p310
F1.0
sVwas
p311
F1.0
sVusing
p312
F1.0
sVdata
p313
F1.0
sVT-FLOAT
p314
F1.0
sVmassively
p315
F1.0
sVtraining
p316
F2.0
sVnoun
p317
F1.0
sVof
p318
F1.0
sVglosses
p319
F1.0
sVthe
p320
F3.0
saa(lp321
S'P05-100461'
p322
a(dp323
Vthey
p324
F1.0
sVpreviously
p325
F1.0
sVassigned
p326
F1.0
sVsynonyms
p327
F1.0
sVfurther
p328
F1.0
sVT-FLOAT
p329
F1.0
sVtechniques
p330
F1.0
sVuse
p331
F1.0
sVT-INT
p332
F1.0
sVfor
p333
F1.0
sValso
p334
F1.0
sVtop
p335
F1.0
sg14
F1.0
sVsame
p336
F1.0
sVlabel
p337
F1.0
sVto
p338
F2.0
sVthat
p339
F1.0
sVmost
p340
F1.0
sVunseen
p341
F1.0
sVusing
p342
F1.0
sVclass
p343
F1.0
sVword
p344
F1.0
sVvector-space
p345
F1.0
sVcommon
p346
F1.0
sVthe
p347
F3.0
sVwords
p348
F1.0
saa(lp349
S'P05-100463'
p350
a(dp351
Vand
p352
F1.0
sVnearest
p353
F1.0
sVsemantic
p354
F1.0
sVsimilarity
p355
F1.0
sVhierarchy
p356
F1.0
sVin
p357
F1.0
sVsynonyms
p358
F2.0
sVusing
p359
F1.0
sVbased
p360
F1.0
sVfor
p361
F2.0
sVunknown
p362
F1.0
sVto
p363
F1.0
sVlocation
p364
F1.0
sVthen
p365
F1.0
sg28
F1.0
sVmeasures
p366
F1.0
sVlatent
p367
F1.0
sVT-FLOAT
p368
F1.0
sVhe
p369
F1.0
sVsearches
p370
F1.0
sVon
p371
F1.0
sVword
p372
F1.0
sVthese
p373
F1.0
sVextracts
p374
F1.0
sVvector-space
p375
F1.0
sVanalysis
p376
F1.0
sVthe
p377
F2.0
sVfirst
p378
F1.0
saa(lp379
S'P05-100462'
p380
a(dp381
g28
F1.0
sVinsert
p382
F1.0
sVhierarchy
p383
F1.0
sVinto
p384
F1.0
sVtechnique
p385
F1.0
sVwiddows
p386
F1.0
sVto
p387
F1.0
sVuses
p388
F1.0
sVwords
p389
F1.0
sVthe
p390
F1.0
sVsimilar
p391
F1.0
sVT-FLOAT
p392
F1.0
sVwordnet
p393
F1.0
saa(lp394
S'P05-1004138'
p395
a(dp396
g28
F1.0
sVthen
p397
F1.0
sVpp
p398
F1.0
sVcreated
p399
F1.0
sVis
p400
F2.0
sVobject
p401
F1.0
sVan
p402
F1.0
sVT-FLOAT
p403
F1.0
sVrelation
p404
F1.0
sVfollowing
p405
F1.0
sVphrase
p406
F1.0
sVthe
p407
F1.0
sVindirect
p408
F1.0
sVif
p409
F1.0
saa(lp410
S'P05-1004139'
p411
a(dp412
Vand
p413
F1.0
sVis
p414
F2.0
sVan
p415
F1.0
sVpreposition
p416
F1.0
sVdetermine
p417
F1.0
sVindirect
p418
F1.0
sVpp
p419
F1.0
sVbetween
p420
F1.0
sVditransitive
p421
F1.0
sVhead
p422
F2.0
sVthat
p423
F1.0
sVobject
p424
F1.0
sVverb
p425
F3.0
sVmodifying
p426
F1.0
sVT-FLOAT
p427
F1.0
sg28
F2.0
sVinteraction
p428
F1.0
sVnoun
p429
F1.0
sVwhether
p430
F1.0
sValternatively
p431
F1.0
sVof
p432
F2.0
sVthe
p433
F6.0
sVor
p434
F1.0
saa(lp435
S'P05-1004216'
p436
a(dp437
g28
F1.0
sVcurrently
p438
F1.0
sVhandle
p439
F1.0
sVof
p440
F1.0
sVthere
p441
F1.0
sVproblems
p442
F1.0
sVnumber
p443
F1.0
sVsystem
p444
F1.0
sVdoes
p445
F1.0
sVare
p446
F1.0
sVnot
p447
F1.0
sVour
p448
F1.0
sVT-FLOAT
p449
F1.0
saa(lp450
S'P05-1004134'
p451
a(dp452
Vrepresent
p453
F1.0
sVfor
p454
F1.0
sVantigen
p455
F1.0
sVis
p456
F1.0
sg14
F1.0
sVT-FLOAT
p457
F1.0
sVof
p458
F1.0
sVthe
p459
F1.0
sVexample
p460
F1.0
sVsubject
p461
F1.0
saa(lp462
S'P05-1004135'
p463
a(dp464
Vright
p465
F2.0
sVsentences
p466
F1.0
sVvp
p467
F1.0
sVassociating
p468
F1.0
sVpass
p469
F2.0
sVits
p470
F1.0
sVpp
p471
F1.0
sVT-INT
p472
F1.0
sg14
F2.0
sVto
p473
F2.0
sVnp
p474
F1.0
sg18
F1.0
sVscans
p475
F1.0
sVhead
p476
F2.0
sVverb
p477
F1.0
sVwith
p478
F1.0
sVT-FLOAT
p479
F1.0
sVthis
p480
F1.0
sVof
p481
F1.0
sVpost-attachment
p482
F1.0
sVthe
p483
F3.0
sVfirst
p484
F1.0
sVor
p485
F1.0
sVleft
p486
F1.0
saa(lp487
S'P05-1004136'
p488
a(dp489
Vand
p490
F1.0
sVthen
p491
F1.0
sVclassed
p492
F1.0
sVcreated
p493
F1.0
sVis
p494
F2.0
sVobject
p495
F1.0
sVdirect
p496
F1.0
sVan
p497
F1.0
sVvp
p498
F1.0
sVnp
p499
F1.0
sVas
p500
F1.0
sVrelation
p501
F1.0
sg28
F1.0
sVactive
p502
F1.0
sVphrase
p503
F1.0
sVthe
p504
F2.0
sVwas
p505
F1.0
sVT-FLOAT
p506
F1.0
sVif
p507
F1.0
saa(lp508
S'P05-1004137'
p509
a(dp510
Vand
p511
F1.0
sVpassive
p512
F1.0
sVclassed
p513
F1.0
sVthen
p514
F1.0
sVis
p515
F2.0
sVcreated
p516
F1.0
sVan
p517
F1.0
sVvp
p518
F1.0
sVas
p519
F1.0
sVrelation
p520
F1.0
sg28
F1.0
sVnp
p521
F1.0
sVphrase
p522
F1.0
sVthe
p523
F2.0
sVsubject
p524
F1.0
sVwas
p525
F1.0
sVT-FLOAT
p526
F1.0
sVif
p527
F1.0
saa(lp528
S'P05-1004130'
p529
a(dp530
Von
p531
F1.0
sVheads
p532
F1.0
sVvps
p533
F1.0
sVof
p534
F1.0
sVremain
p535
F1.0
sVunattached
p536
F1.0
sVT-FLOAT
p537
F1.0
sVonly
p538
F1.0
sVeither
p539
F1.0
sVnoun
p540
F1.0
sVthe
p541
F1.0
sVside
p542
F1.0
saa(lp543
S'P05-1004131'
p544
a(dp545
Vpasses
p546
F1.0
sVvp
p547
F1.0
sVon
p548
F1.0
sVheads
p549
F1.0
sVobjects
p550
F1.0
sVto
p551
F1.0
sVthese
p552
F1.0
sVof
p553
F1.0
sVdepending
p554
F1.0
sVthree
p555
F1.0
sVor
p556
F1.0
sVvoice
p557
F1.0
sVattach
p558
F1.0
sVas
p559
F1.0
sVverb
p560
F1.0
sVeither
p561
F1.0
sVT-FLOAT
p562
F1.0
sVthe
p563
F4.0
sVsubjects
p564
F1.0
sVremaining
p565
F1.0
saa(lp566
S'P05-1004132'
p567
a(dp568
Vright
p569
F1.0
sVpass
p570
F2.0
sVpre-attachment
p571
F1.0
sVvp
p572
F1.0
sVassociating
p573
F1.0
sVsentences
p574
F1.0
sVits
p575
F1.0
sVT-INT
p576
F1.0
sg14
F2.0
sVto
p577
F2.0
sVnp
p578
F1.0
sg18
F1.0
sVscans
p579
F1.0
sVhead
p580
F2.0
sVverb
p581
F1.0
sVwith
p582
F1.0
sVthe
p583
F3.0
sVthis
p584
F1.0
sVof
p585
F1.0
sVT-FLOAT
p586
F1.0
sVfirst
p587
F1.0
sVleft
p588
F2.0
saa(lp589
S'P05-1004133'
p590
a(dp591
g28
F2.0
sVcreated
p592
F2.0
sVdirect
p593
F1.0
sVis
p594
F3.0
sVobject
p595
F1.0
sg14
F2.0
sVotherwise
p596
F1.0
sVvp
p597
F1.0
sVT-FLOAT
p598
F1.0
sVrelation
p599
F2.0
sVactive
p600
F1.0
sVthe
p601
F1.0
sVsubject
p602
F1.0
sg17
F1.0
sVif
p603
F1.0
saa(lp604
S'P05-1004233'
p605
a(dp606
Vand
p607
F4.0
sVfeedback
p608
F1.0
sVclark
p609
F1.0
sVreviewers
p610
F1.0
sVexperiments
p611
F1.0
sVour
p612
F1.0
sVthank
p613
F1.0
sVwould
p614
F1.0
sVtheir
p615
F1.0
sVanswering
p616
F1.0
sg14
F1.0
sVfor
p617
F3.0
sVto
p618
F2.0
sVstephen
p619
F1.0
sVmassi
p620
F1.0
sVwe
p621
F1.0
sVhis
p622
F1.0
sVanonymous
p623
F1.0
sVdata
p624
F1.0
sVT-FLOAT
p625
F1.0
sVsupplying
p626
F1.0
sVhelpful
p627
F1.0
sVlike
p628
F1.0
sVthese
p629
F1.0
sVqueries
p630
F1.0
sVcorrections
p631
F1.0
sVthe
p632
F1.0
sVciaramita
p633
F1.0
sVoriginal
p634
F1.0
saa(lp635
S'P05-1004232'
p636
a(dp637
Vnlp
p638
F1.0
sVtasks
p639
F1.0
sVsemantic
p640
F1.0
sVmethods
p641
F2.0
sVsimilarity
p642
F1.0
sVis
p643
F1.0
sVsome
p644
F1.0
sVan
p645
F1.0
sVif
p646
F1.0
sVfor
p647
F1.0
sVdemonstrates
p648
F1.0
sVapplication
p649
F1.0
sVenough
p650
F1.0
sVavailable
p651
F1.0
sVthat
p652
F1.0
sVdata
p653
F1.0
sVunsupervised
p654
F1.0
sVthis
p655
F1.0
sVoutperform
p656
F1.0
sVsupervised
p657
F1.0
sVcan
p658
F1.0
sVof
p659
F1.0
sVT-FLOAT
p660
F1.0
saa(lp661
S'P05-1004231'
p662
a(dp663
Voften
p664
F1.0
sVis
p665
F1.0
sVtag
p666
F1.0
sVare
p667
F1.0
sVinformation
p668
F1.0
sVfor
p669
F1.0
sVattempting
p670
F1.0
sVneeded
p671
F1.0
sVcorpus
p672
F1.0
sVwe
p673
F1.0
sVto
p674
F2.0
sVvery
p675
F1.0
sVacquire
p676
F1.0
sVnouns
p677
F1.0
sVsupersense
p678
F1.0
sVsuch
p679
F1.0
sVT-FLOAT
p680
F1.0
sVcontextual
p681
F1.0
sg28
F1.0
sVrare
p682
F1.0
sVreliable
p683
F1.0
sVthe
p684
F1.0
saa(lp685
S'P05-1004230'
p686
a(dp687
g28
F2.0
sVnlp
p688
F1.0
sVuse
p689
F1.0
sVto
p690
F1.0
sVthis
p691
F1.0
sVdemonstrates
p692
F1.0
sVshallow
p693
F1.0
sVpipeline
p694
F1.0
sValso
p695
F1.0
sVefficient
p696
F1.0
sVpaper
p697
F1.0
sVmassive
p698
F1.0
sVT-FLOAT
p699
F1.0
sVof
p700
F1.0
sVvery
p701
F1.0
sVthe
p702
F1.0
sVprocess
p703
F1.0
sVcorpus
p704
F1.0
saa(lp705
S'P05-1004234'
p706
a(dp707
Vcommonwealth
p708
F1.0
sVand
p709
F1.0
sVsupported
p710
F1.0
sVcouncil
p711
F1.0
sVaustralian
p712
F1.0
sg14
F1.0
sVbeen
p713
F1.0
sVresearch
p714
F1.0
sVT-INT
p715
F1.0
sVsydney
p716
F1.0
sVtravelling
p717
F1.0
sVhas
p718
F1.0
sVdiscovery
p719
F1.0
sVby
p720
F1.0
sVdp
p721
F1.0
sg28
F1.0
sVthis
p722
F1.0
sVuniversity
p723
F1.0
sVwork
p724
F1.0
sVproject
p725
F1.0
sVT-FLOAT
p726
F1.0
sVscholarship
p727
F2.0
saa(lp728
S'P05-100450'
p729
a(dp730
Vwhich
p731
F1.0
sVto
p732
F1.0
sVaverage
p733
F1.0
sVco-occurrence
p734
F1.0
sVapproximate
p735
F1.0
sVT-INT
p736
F1.0
sVwindow
p737
F1.0
sVdesigned
p738
F1.0
sVwords
p739
F1.0
sVlength
p740
F1.0
sVthe
p741
F1.0
sVdocument
p742
F1.0
sVwas
p743
F2.0
sVT-FLOAT
p744
F1.0
saa(lp745
S'P05-100451'
p746
a(dp747
Vand
p748
F1.0
sVnoun
p749
F1.0
sVdetermining
p750
F1.0
sVcaraballo
p751
F1.0
sVspecificity
p752
F1.0
sVraw
p753
F1.0
sVexplored
p754
F1.0
sVtext
p755
F1.0
sVhave
p756
F1.0
sVcharniak
p757
F1.0
sVfrom
p758
F1.0
sVT-FLOAT
p759
F1.0
saa(lp760
S'P05-100452'
p761
a(dp762
Vand
p763
F1.0
sVsimple
p764
F1.0
sVover
p765
F1.0
sVfrequency
p766
F1.0
sVare
p767
F1.0
sVcounts
p768
F1.0
sVfind
p769
F1.0
sVoccupation
p770
F1.0
sV%
p771
F1.0
sVordering
p772
F1.0
sg14
F2.0
sVT-INT
p773
F1.0
sVway
p774
F1.0
sVvehicle
p775
F1.0
sVachieving
p776
F1.0
sVaccuracy
p777
F1.0
sVthat
p778
F1.0
sVfood
p779
F1.0
sVmost
p780
F1.0
sVthey
p781
F1.0
sVT-FLOAT
p782
F1.0
sVtypes
p783
F1.0
sVparent-child
p784
F1.0
sVeffective
p785
F1.0
sVof
p786
F2.0
sVdetermining
p787
F1.0
sVthe
p788
F2.0
saa(lp789
S'P05-100453'
p790
a(dp791
Vbe
p792
F1.0
sVgiven
p793
F1.0
sVnoun
p794
F1.0
sVwords
p795
F1.0
sVsurrounding
p796
F1.0
sVsuccessful
p797
F1.0
sVof
p798
F2.0
sVconditional
p799
F1.0
sVto
p800
F1.0
sVother
p801
F1.0
sVentropy
p802
F1.0
sVT-FLOAT
p803
F1.0
sVthey
p804
F1.0
sVmeasure
p805
F1.0
sVfound
p806
F1.0
sVthe
p807
F4.0
sVwas
p808
F1.0
sVdistribution
p809
F1.0
saa(lp810
S'P05-100454'
p811
a(dp812
g28
F2.0
sVbuilding
p813
F1.0
sVnecessary
p814
F1.0
sVfor
p815
F1.0
sVordering
p816
F1.0
sVis
p817
F1.0
sVhierarchy
p818
F1.0
sVstep
p819
F1.0
sVspecificity
p820
F1.0
sVnoun
p821
F1.0
sVT-FLOAT
p822
F1.0
saa(lp823
S'P05-100455'
p824
a(dp825
g28
F1.0
sVthis
p826
F1.0
sVhowever
p827
F1.0
sg14
F1.0
sVhierarchy
p828
F1.0
sVcan
p829
F1.0
sValone
p830
F1.0
sVnot
p831
F1.0
sVT-FLOAT
p832
F1.0
sVapproach
p833
F1.0
sVclearly
p834
F1.0
sVbuild
p835
F1.0
saa(lp836
S'P05-100456'
p837
a(dp838
Vsubsumes
p839
F1.0
sVfor
p840
F1.0
sVless
p841
F1.0
sVmany
p842
F1.0
sVis
p843
F1.0
sg14
F1.0
sVentity
p844
F1.0
sVinstance
p845
F1.0
sVconcepts
p846
F1.0
sVit
p847
F1.0
sVT-FLOAT
p848
F1.0
sVthan
p849
F1.0
sVfrequent
p850
F1.0
saa(lp851
S'P05-100457'
p852
a(dp853
Vright
p854
F1.0
sVabstract
p855
F1.0
sVit
p856
F1.0
sVexisting
p857
F1.0
sVT-FLOAT
p858
F1.0
sVrather
p859
F1.0
sVcreate
p860
F1.0
sVadd
p861
F1.0
sVto
p862
F3.0
sVonly
p863
F1.0
sVstructure
p864
F1.0
sVbe
p865
F1.0
sVan
p866
F1.0
sVpossible
p867
F1.0
sVbeginners
p868
F1.0
sVwords
p869
F1.0
sVunique
p870
F1.0
sVthan
p871
F1.0
sVcategories
p872
F1.0
sVthis
p873
F1.0
sVup
p874
F1.0
sVwill
p875
F1.0
sVsuggests
p876
F1.0
sVthe
p877
F1.0
saa(lp878
S'P05-100432'
p879
a(dp880
Vand
p881
F1.0
sVshown
p882
F1.0
sVnoun
p883
F1.0
sVof
p884
F1.0
sVT-INT
p885
F1.0
sVnames
p886
F1.0
sVin
p887
F1.0
sVlex-files
p888
F1.0
sVtable
p889
F1.0
sVthe
p890
F2.0
sVT-FLOAT
p891
F1.0
sVare
p892
F1.0
sVdescriptions
p893
F1.0
saa(lp894
S'P05-100433'
p895
a(dp896
Vbeginner
p897
F1.0
sVhierarchy
p898
F1.0
sVsome
p899
F1.0
sVas
p900
F1.0
sVare
p901
F1.0
sVdirectly
p902
F1.0
sVin
p903
F1.0
sVT-INT
p904
F2.0
sVto
p905
F1.0
sg12
F1.0
sg13
F1.0
sVtop
p906
F1.0
sg14
F4.0
sVgrouped
p907
F1.0
sVnodes
p908
F1.0
sVfellbaum
p909
F1.0
sVmap
p910
F1.0
sVbeginners
p911
F1.0
sVhyponyms
p912
F1.0
sVothers
p913
F1.0
sVlex-files
p914
F1.0
sVunique
p915
F2.0
sVT-FLOAT
p916
F1.0
sg28
F1.0
sVlevel
p917
F1.0
sVof
p918
F1.0
sVtogether
p919
F1.0
sVpage
p920
F1.0
sVwhile
p921
F1.0
sVthe
p922
F2.0
sVcalled
p923
F1.0
saa(lp924
S'P05-100430'
p925
a(dp926
g28
F1.0
sVset
p927
F1.0
sVform
p928
F1.0
sVof
p929
F1.0
sVwithin
p930
F1.0
sVdistinctions
p931
F1.0
sVsense
p932
F1.0
sVlex-files
p933
F1.0
sVT-FLOAT
p934
F1.0
sVcoarse-grained
p935
F1.0
sVwordnet
p936
F1.0
saa(lp937
S'P05-100431'
p938
a(dp939
Vand
p940
F2.0
sVcovers
p941
F2.0
sVin
p942
F3.0
sVwordnet
p943
F1.0
sVgroup
p944
F1.0
sVcompanionship
p945
F1.0
sVfor
p946
F1.0
sVT-INT
p947
F2.0
sg14
F4.0
sVappears
p948
F1.0
sVfine-grained
p949
F1.0
sVstate
p950
F1.0
sVwhich
p951
F2.0
sg17
F1.0
sg18
F1.0
sVsenses
p952
F1.0
sVcompany
p953
F2.0
sVcommercial
p954
F1.0
sVlex-files
p955
F1.0
sVtroupe
p956
F1.0
sVthe
p957
F2.0
sVsocial
p958
F1.0
sVfollowing
p959
F1.0
sVT-FLOAT
p960
F2.0
sVexample
p961
F1.0
saa(lp962
S'P05-100436'
p963
a(dp964
Vbe
p965
F1.0
sVused
p966
F1.0
sVnoun
p967
F1.0
sValso
p968
F1.0
sVhierarchy
p969
F1.0
sVcould
p970
F1.0
sVthere
p971
F1.0
sVsupersenses
p972
F1.0
sVbeginners
p973
F1.0
sVT-INT
p974
F1.0
sVas
p975
F1.0
sVare
p976
F1.0
sVwhich
p977
F1.0
sVin
p978
F1.0
sVthe
p979
F1.0
sVunique
p980
F1.0
sVT-FLOAT
p981
F1.0
sVwordnet
p982
F1.0
saa(lp983
S'P05-100437'
p984
a(dp985
g28
F1.0
sVreducing
p986
F1.0
sVT-INT
p987
F1.0
sVmanually
p988
F1.0
sVhierarchy
p989
F1.0
sVminiwordnet
p990
F1.0
sVproduced
p991
F1.0
sVto
p992
F1.0
sVcategories
p993
F1.0
sVT-FLOAT
p994
F1.0
sVbroad
p995
F1.0
sVthe
p996
F1.0
sVhas
p997
F1.0
sVciaramita
p998
F1.0
sVby
p999
F1.0
sVwordnet
p1000
F1.0
saa(lp1001
S'P05-100434'
p1002
a(dp1003
Vand
p1004
F1.0
sVsubsumes
p1005
F1.0
sVfor
p1006
F1.0
sVattribute
p1007
F1.0
sVtime
p1008
F1.0
sg14
F4.0
sVT-FLOAT
p1009
F1.0
sVabstraction
p1010
F1.0
sVrelation
p1011
F1.0
sVcommunication
p1012
F1.0
sVlex-files
p1013
F1.0
sVthe
p1014
F1.0
sVexample
p1015
F1.0
sVquantity
p1016
F1.0
saa(lp1017
S'P05-100435'
p1018
a(dp1019
Vand
p1020
F1.0
sVnoun
p1021
F1.0
sVjohnson
p1022
F1.0
sVsupersenses
p1023
F1.0
sVclasses
p1024
F1.0
sVcall
p1025
F1.0
sVthe
p1026
F1.0
sVciaramita
p1027
F1.0
sVT-FLOAT
p1028
F1.0
sVlex-file
p1029
F1.0
saa(lp1030
S'P05-100438'
p1031
a(dp1032
Vet
p1033
F1.0
sVT-FLOAT
p1034
F1.0
sVciaramita
p1035
F1.0
sVal
p1036
F1.0
saa(lp1037
S'P05-100439'
p1038
a(dp1039
Vhierarchy
p1040
F1.0
sVdescribe
p1041
F1.0
sVas
p1042
F1.0
sVdirectly
p1043
F1.0
sVin
p1044
F1.0
sVing
p1045
F1.0
sVwordnet
p1046
F1.0
sVappear
p1047
F1.0
sVtwo
p1048
F1.0
sVhow
p1049
F1.0
sVnodes
p1050
F1.0
sVbe
p1051
F1.0
sVused
p1052
F1.0
sVsynsets
p1053
F1.0
sVunderneath
p1054
F1.0
sVlex-files
p1055
F1.0
sVwith
p1056
F1.0
sVT-FLOAT
p1057
F1.0
sg28
F1.0
sVlevel
p1058
F1.0
sVcan
p1059
F1.0
sVthe
p1060
F2.0
sVroot
p1061
F1.0
saa(lp1062
S'P05-1004101'
p1063
a(dp1064
Vand
p1065
F1.0
sVfunction
p1066
F1.0
sVused
p1067
F1.0
sVweight
p1068
F1.0
sVT-FLOAT
p1069
F1.0
sVis
p1070
F1.0
sVcurran
p1071
F1.0
sg14
F1.0
sVmoens
p1072
F1.0
sVextraction
p1073
F1.0
sVwhich
p1074
F1.0
sVin
p1075
F1.0
sVcollocation
p1076
F1.0
sVthe
p1077
F1.0
sVintroduced
p1078
F1.0
sVttest
p1079
F1.0
saa(lp1080
S'P05-1004100'
p1081
a(dp1082
Vfunction
p1083
F1.0
sVweight
p1084
F1.0
sVwt
p1085
F2.0
sg12
F2.0
sg13
F2.0
sVis
p1086
F1.0
sg14
F4.0
sVfor
p1087
F1.0
sVwgt
p1088
F1.0
sVr
p1089
F2.0
sVrelation
p1090
F1.0
sVw
p1091
F2.0
sVthe
p1092
F1.0
sVwhere
p1093
F1.0
sVT-FLOAT
p1094
F1.0
saa(lp1095
S'P05-1004103'
p1096
a(dp1097
Vand
p1098
F1.0
sVextraction
p1099
F1.0
sVtagged
p1100
F1.0
sVchunked
p1101
F1.0
sVrun
p1102
F1.0
sValgorithm
p1103
F1.0
sVgrammatical
p1104
F1.0
sVtext
p1105
F1.0
sVis
p1106
F1.0
sVafter
p1107
F1.0
sVpos
p1108
F1.0
sVbeen
p1109
F1.0
sg14
F1.0
sVraw
p1110
F1.0
sVrelation
p1111
F1.0
sVT-FLOAT
p1112
F1.0
sVchunks
p1113
F1.0
sVthe
p1114
F3.0
sVhas
p1115
F1.0
sVover
p1116
F1.0
saa(lp1117
S'P05-1004102'
p1118
a(dp1119
Vand
p1120
F2.0
sVgrammatical
p1121
F1.0
sVproduct
p1122
F1.0
sg18
F1.0
sVprobability
p1123
F1.0
sVT-INT
p1124
F2.0
sVof
p1125
F1.0
sVextraction
p1126
F1.0
sg14
F1.0
sVhere
p1127
F1.0
sVjoint
p1128
F1.0
sVcompares
p1129
F1.0
sVT-FLOAT
p1130
F2.0
sVcontext
p1131
F1.0
sVrelation
p1132
F1.0
sVthe
p1133
F3.0
sVt-test
p1134
F1.0
sVdistributions
p1135
F1.0
sVheadword
p1136
F1.0
saa(lp1137
S'P05-1004107'
p1138
a(dp1139
Vand
p1140
F1.0
sVof
p1141
F1.0
sVT-INT
p1142
F2.0
sVpart
p1143
F1.0
sVspeech
p1144
F1.0
sVchunking
p1145
F1.0
sVT-FLOAT
p1146
F2.0
sVtagging
p1147
F1.0
saa(lp1148
S'P05-1004203'
p1149
a(dp1150
Vand
p1151
F1.0
sVexploring
p1152
F1.0
sVcompare
p1153
F1.0
sVwords
p1154
F1.0
sVfor
p1155
F1.0
sVthese
p1156
F1.0
sVthe
p1157
F2.0
sVis
p1158
F1.0
sVvectors
p1159
F1.0
sVthemselves
p1160
F1.0
sVagainst
p1161
F1.0
sVan
p1162
F1.0
sVto
p1163
F1.0
sVT-FLOAT
p1164
F1.0
sVcontext
p1165
F1.0
sVsupersense
p1166
F1.0
sValternative
p1167
F1.0
sVcreate
p1168
F1.0
sVapproach
p1169
F1.0
sVworth
p1170
F1.0
sVcategories
p1171
F1.0
saa(lp1172
S'P05-1004108'
p1173
a(dp1174
Vand
p1175
F1.0
sVclark
p1176
F1.0
sVtreebank
p1177
F1.0
sVcurran
p1178
F1.0
sVpos
p1179
F1.0
sVsecond
p1180
F1.0
sVtagger
p1181
F1.0
sVat
p1182
F1.0
sVtrained
p1183
F1.0
sVet
p1184
F1.0
sVour
p1185
F1.0
sg12
F2.0
sVto
p1186
F1.0
sVimplementation
p1187
F1.0
sg13
F2.0
sg14
F4.0
sVper
p1188
F1.0
sVT-INT
p1189
F4.0
sVpenn
p1190
F1.0
sVbe
p1191
F1.0
sVaround
p1192
F1.0
sVentire
p1193
F1.0
sVvery
p1194
F1.0
sVal
p1195
F1.0
sVuses
p1196
F1.0
sVdesigned
p1197
F1.0
sVwords
p1198
F1.0
sVT-FLOAT
p1199
F2.0
sVtagging
p1200
F1.0
sg28
F1.0
sVon
p1201
F1.0
sVsextant
p1202
F1.0
sVof
p1203
F1.0
sVmaximum
p1204
F1.0
sVefficient
p1205
F1.0
sVmarcus
p1206
F1.0
sVentropy
p1207
F1.0
sVthe
p1208
F1.0
saa(lp1209
S'P05-1004202'
p1210
a(dp1211
Vand
p1212
F1.0
sVguessing
p1213
F1.0
sVall
p1214
F1.0
sVhelp
p1215
F1.0
sVare
p1216
F1.0
sVin
p1217
F2.0
sVsensible
p1218
F1.0
sVfrom
p1219
F1.0
sVno
p1220
F1.0
sg14
F2.0
sValso
p1221
F1.0
sVrules
p1222
F1.0
sVwords
p1223
F1.0
sVdata
p1224
F1.0
sVT-FLOAT
p1225
F1.0
sVcase
p1226
F1.0
sVlower
p1227
F1.0
sVjohnson
p1228
F1.0
sVof
p1229
F1.0
sVcould
p1230
F1.0
sVso
p1231
F1.0
sVthe
p1232
F2.0
sVciaramita
p1233
F1.0
saa(lp1234
S'P05-1004189'
p1235
a(dp1236
Vset
p1237
F1.0
sVresults
p1238
F1.0
sVas
p1239
F1.0
sVtable
p1240
F1.0
sVwordnet
p1241
F1.0
sg771
F1.0
sVby
p1242
F1.0
sVT-INT
p1243
F4.0
sVother
p1244
F1.0
sVabove
p1245
F1.0
sVtest
p1246
F1.0
sVbest-performing
p1247
F1.0
sg18
F1.0
sVwas
p1248
F1.0
sVaccuracy
p1249
F1.0
sVbreakdown
p1250
F1.0
sVnearly
p1251
F1.0
sVsupersense
p1252
F1.0
sVcombinations
p1253
F1.0
sVdescribed
p1254
F1.0
sVparameter
p1255
F1.0
sVwith
p1256
F1.0
sVthe
p1257
F3.0
sVon
p1258
F1.0
sVseveral
p1259
F1.0
sVof
p1260
F2.0
sVperforming
p1261
F1.0
sVwell
p1262
F1.0
sVT-FLOAT
p1263
F2.0
sVconfigurations
p1264
F1.0
saa(lp1265
S'P05-1004188'
p1266
a(dp1267
Vresults
p1268
F1.0
sVT-INT
p1269
F1.0
sVsummarised
p1270
F1.0
sVare
p1271
F1.0
sVin
p1272
F1.0
sVtable
p1273
F1.0
sVthe
p1274
F1.0
sVT-FLOAT
p1275
F1.0
saa(lp1276
S'P05-1004222'
p1277
a(dp1278
Vand
p1279
F3.0
sVcompare
p1280
F1.0
sVset
p1281
F1.0
sVover
p1282
F1.0
sVresults
p1283
F1.0
sVexperiments
p1284
F2.0
sVdetermine
p1285
F1.0
sVour
p1286
F1.0
sVbeyond
p1287
F1.0
sVquality
p1288
F1.0
sVwordnet
p1289
F1.0
sVprevious
p1290
F1.0
sVimpact
p1291
F1.0
sVtheir
p1292
F1.0
sVperform
p1293
F1.0
sVsize
p1294
F1.0
sg14
F1.0
sVto
p1295
F4.0
sVcorpus
p1296
F2.0
sVinclude
p1297
F1.0
sVmore
p1298
F1.0
sVwe
p1299
F1.0
sVintend
p1300
F1.0
sVextend
p1301
F1.0
sVon
p1302
F1.0
sVdifficulty
p1303
F1.0
sVT-FLOAT
p1304
F1.0
sVrecent
p1305
F1.0
sg28
F1.0
sValso
p1306
F1.0
sVjohnson
p1307
F1.0
sVversions
p1308
F1.0
sVof
p1309
F4.0
sVsizes
p1310
F1.0
sVrange
p1311
F1.0
sVthe
p1312
F3.0
sVciaramita
p1313
F1.0
saa(lp1314
S'P05-1004201'
p1315
a(dp1316
Vincorporate
p1317
F1.0
sVwords
p1318
F1.0
sVis
p1319
F1.0
sVit
p1320
F1.0
sg14
F2.0
sVexpect
p1321
F1.0
sVhand-built
p1322
F1.0
sVproper
p1323
F1.0
sVour
p1324
F1.0
sVwould
p1325
F1.0
sVto
p1326
F1.0
sVperform
p1327
F1.0
sVsince
p1328
F1.0
sVsystem
p1329
F1.0
sVextraction
p1330
F1.0
sVdoes
p1331
F1.0
sVlocation
p1332
F1.0
sVwe
p1333
F1.0
sVwere
p1334
F1.0
sVbut
p1335
F1.0
sVquite
p1336
F1.0
sVnouns
p1337
F1.0
sVsupersense
p1338
F1.0
sVnot
p1339
F1.0
sVusing
p1340
F1.0
sVT-FLOAT
p1341
F1.0
sVsynonym
p1342
F1.0
sVunfortunately
p1343
F1.0
sVthese
p1344
F1.0
sVmany
p1345
F1.0
sVclassified
p1346
F1.0
sVwell
p1347
F1.0
sVconcrete
p1348
F1.0
sVso
p1349
F1.0
sVof
p1350
F1.0
sVthe
p1351
F2.0
sVclassifier
p1352
F1.0
saa(lp1353
S'P05-1004224'
p1354
a(dp1355
Vand
p1356
F1.0
sVthere
p1357
F1.0
sVhierarchy
p1358
F1.0
sVis
p1359
F2.0
sVwordnet
p1360
F1.0
sVeven
p1361
F1.0
sVadditional
p1362
F1.0
sVfor
p1363
F1.0
sVinheritance
p1364
F1.0
sVinteresting
p1365
F1.0
sVfine-grained
p1366
F1.0
sVsince
p1367
F1.0
sVhow
p1368
F1.0
sVcombine
p1369
F1.0
sVissue
p1370
F1.0
sVmore
p1371
F2.0
sVbe
p1372
F1.0
sVused
p1373
F1.0
sVto
p1374
F1.0
sVcombination
p1375
F1.0
sVthat
p1376
F1.0
sVhere
p1377
F1.0
sVT-FLOAT
p1378
F1.0
sVstructure
p1379
F1.0
sVsynonym
p1380
F1.0
sVof
p1381
F3.0
sVvectors
p1382
F2.0
sVcan
p1383
F1.0
sVsets
p1384
F1.0
sVsmall
p1385
F1.0
sVthe
p1386
F4.0
saa(lp1387
S'P05-1004226'
p1388
a(dp1389
g28
F1.0
sVwordnet
p1390
F1.0
sVnoun
p1391
F1.0
sVwhich
p1392
F1.0
sVtheir
p1393
F1.0
sVpreviously
p1394
F1.0
sVextracts
p1395
F1.0
sVin
p1396
F1.0
sVsupersenses
p1397
F1.0
sVto
p1398
F1.0
sVsynonyms
p1399
F1.0
sVcommon
p1400
F1.0
sVunseen
p1401
F1.0
sVusing
p1402
F1.0
sVvote
p1403
F1.0
sVour
p1404
F1.0
sVT-FLOAT
p1405
F2.0
sVapproach
p1406
F1.0
sVT-INT
p1407
F2.0
sVclassify
p1408
F1.0
saa(lp1409
S'P05-1004227'
p1410
a(dp1411
Vand
p1412
F1.0
sVnumber
p1413
F1.0
sVsynonyms
p1414
F1.0
sVfrequency
p1415
F1.0
sVhave
p1416
F1.0
sVT-FLOAT
p1417
F1.0
sVtheir
p1418
F1.0
sVbest
p1419
F1.0
sVincrease
p1420
F1.0
sVparameters
p1421
F1.0
sVT-INT
p1422
F1.0
sg14
F1.0
sVexperimented
p1423
F1.0
sVextracted
p1424
F1.0
sVfinding
p1425
F1.0
sVfiltered
p1426
F1.0
sVseveral
p1427
F1.0
sVwe
p1428
F1.0
sVto
p1429
F1.0
sVthat
p1430
F1.0
sVuses
p1431
F1.0
sVconfiguration
p1432
F1.0
sVwith
p1433
F1.0
sVby
p1434
F1.0
sVcontexts
p1435
F1.0
sVof
p1436
F1.0
sVreliability
p1437
F1.0
sVthe
p1438
F1.0
saa(lp1439
S'P05-1004181'
p1440
a(dp1441
Vunambiguous
p1442
F1.0
sVnearest
p1443
F1.0
sVwe
p1444
F1.0
sVsynonym
p1445
F1.0
sVand
p1446
F2.0
sVjust
p1447
F1.0
sVconsidered
p1448
F1.0
sVtop
p1449
F1.0
sg14
F5.0
sVT-INT
p1450
F6.0
sVsynonyms
p1451
F1.0
sVusing
p1452
F1.0
sVthe
p1453
F2.0
sVT-FLOAT
p1454
F1.0
saa(lp1455
S'P05-1004180'
p1456
a(dp1457
Vconsidered
p1458
F1.0
sVmany
p1459
F1.0
sVis
p1460
F1.0
sVquestion
p1461
F1.0
sVnext
p1462
F1.0
sVhow
p1463
F1.0
sVsynonyms
p1464
F1.0
sVare
p1465
F1.0
sVthe
p1466
F1.0
sVT-FLOAT
p1467
F1.0
saa(lp1468
S'P05-1004183'
p1469
a(dp1470
Vwe
p1471
F1.0
sVfiltering
p1472
F1.0
sVpolysemous
p1473
F1.0
sVnouns
p1474
F1.0
sVT-FLOAT
p1475
F1.0
sVor
p1476
F1.0
sVwords
p1477
F1.0
sVexperimented
p1478
F1.0
sg14
F1.0
sVhighly
p1479
F1.0
sValso
p1480
F1.0
sVsynonyms
p1481
F1.0
sVtwo
p1482
F1.0
sVhave
p1483
F1.0
sVmore
p1484
F1.0
sVthree
p1485
F1.0
sVwith
p1486
F2.0
sVby
p1487
F1.0
sVeliminating
p1488
F1.0
sVout
p1489
F1.0
saa(lp1490
S'P05-1004182'
p1491
a(dp1492
Vall
p1493
F1.0
sVused
p1494
F1.0
sVof
p1495
F1.0
sVtop
p1496
F1.0
sVperforming
p1497
F1.0
sVT-INT
p1498
F1.0
sVsynonyms
p1499
F1.0
sVthe
p1500
F1.0
sVT-FLOAT
p1501
F1.0
sVconfigurations
p1502
F1.0
saa(lp1503
S'P05-1004185'
p1504
a(dp1505
Vand
p1506
F1.0
sVguessing
p1507
F1.0
sVwe
p1508
F1.0
sVsimilarity
p1509
F1.0
sVrules
p1510
F1.0
sVuse
p1511
F1.0
sVwhen
p1512
F2.0
sg14
F1.0
sVto
p1513
F4.0
sVfinally
p1514
F1.0
sVfall-back
p1515
F1.0
sVdecide
p1516
F1.0
sVmeasure
p1517
F1.0
sVneed
p1518
F1.0
sVthe
p1519
F2.0
sVT-FLOAT
p1520
F1.0
saa(lp1521
S'P05-1004184'
p1522
a(dp1523
g28
F1.0
sVlittle
p1524
F1.0
sVmake
p1525
F1.0
sVturned
p1526
F1.0
sVhowever
p1527
F1.0
sg14
F1.0
sVfilter
p1528
F1.0
sVto
p1529
F1.0
sVsuch
p1530
F1.0
sVT-FLOAT
p1531
F1.0
sVdifference
p1532
F1.0
sVout
p1533
F1.0
saa(lp1534
S'P05-1004187'
p1535
a(dp1536
Vguessing
p1537
F1.0
sVall
p1538
F1.0
sVhas
p1539
F1.0
sVany
p1540
F1.0
sVthan
p1541
F1.0
sVsimilarity
p1542
F1.0
sVrules
p1543
F1.0
sVT-FLOAT
p1544
F1.0
sVit
p1545
F1.0
sVsystem
p1546
F1.0
sVsurprisingly
p1547
F1.0
sVbetter
p1548
F1.0
sVinformation
p1549
F1.0
sVat
p1550
F1.0
sVnot
p1551
F1.0
sVthe
p1552
F2.0
sVworks
p1553
F1.0
sg14
F1.0
sVif
p1554
F1.0
saa(lp1555
S'P05-1004186'
p1556
a(dp1557
Vand
p1558
F1.0
sVword
p1559
F1.0
sVfor
p1560
F1.0
sVthis
p1561
F1.0
sVof
p1562
F1.0
sVis
p1563
F1.0
sVnumber
p1564
F1.0
sVlooking
p1565
F1.0
sVT-FLOAT
p1566
F1.0
sVdetermined
p1567
F1.0
sVfrequency
p1568
F1.0
sVat
p1569
F1.0
sVunknown
p1570
F1.0
sVattributes
p1571
F1.0
sVthe
p1572
F2.0
sVby
p1573
F1.0
saa(lp1574
S'P05-100447'
p1575
a(dp1576
Vand
p1577
F1.0
sVinformation
p1578
F1.0
sVuse
p1579
F1.0
sVshallow
p1580
F1.0
sVe
p1581
F1.0
sVg
p1582
F1.0
sVfor
p1583
F1.0
sVapplications
p1584
F1.0
sVinteresting
p1585
F1.0
sVis
p1586
F1.0
sVthat
p1587
F1.0
sVquestion
p1588
F1.0
sg14
F1.0
sValso
p1589
F1.0
sVanswering
p1590
F1.0
sVsemantics
p1591
F1.0
sVextraction
p1592
F1.0
sVsupersense
p1593
F1.0
sVT-FLOAT
p1594
F3.0
sVmany
p1595
F1.0
sVtagging
p1596
F1.0
saa(lp1597
S'P05-100446'
p1598
a(dp1599
Vbe
p1600
F1.0
sVextending
p1601
F1.0
sVterms
p1602
F1.0
sVgoal
p1603
F1.0
sVinsert
p1604
F1.0
sVthis
p1605
F1.0
sVT-FLOAT
p1606
F1.0
sVis
p1607
F1.0
sVlexical
p1608
F1.0
sVable
p1609
F1.0
sg14
F3.0
sVnecessary
p1610
F1.0
sVto
p1611
F2.0
sVultimate
p1612
F1.0
sVstructure
p1613
F1.0
sVinto
p1614
F1.0
sVnew
p1615
F1.0
sVthe
p1616
F2.0
sVwhere
p1617
F1.0
sVclearly
p1618
F1.0
sVresources
p1619
F1.0
saa(lp1620
S'P05-100445'
p1621
a(dp1622
Vhierarchy
p1623
F1.0
sVis
p1624
F1.0
sVsuccessfully
p1625
F1.0
sVit
p1626
F1.0
sVitself
p1627
F1.0
sVdirectly
p1628
F1.0
sVfine-grained
p1629
F1.0
sVdistinctions
p1630
F1.0
sg14
F1.0
sVto
p1631
F1.0
sVinto
p1632
F1.0
sVbe
p1633
F1.0
sVmay
p1634
F1.0
sVpossible
p1635
F1.0
sVwords
p1636
F1.0
sVT-FLOAT
p1637
F1.0
sVinsert
p1638
F1.0
sVtask
p1639
F1.0
sVthis
p1640
F1.0
sVof
p1641
F1.0
sVsolved
p1642
F1.0
sVthe
p1643
F2.0
sVonce
p1644
F1.0
saa(lp1645
S'P05-100444'
p1646
a(dp1647
Vadding
p1648
F1.0
sVwordnet
p1649
F1.0
sVhierarchy
p1650
F1.0
sVprovide
p1651
F1.0
sVT-FLOAT
p1652
F1.0
sVassistance
p1653
F1.0
sVsupersense
p1654
F1.0
sVsemiautomated
p1655
F1.0
sVto
p1656
F2.0
sVcan
p1657
F1.0
sVwords
p1658
F1.0
sVautomated
p1659
F1.0
sVlexicographers
p1660
F1.0
sVthe
p1661
F1.0
sVor
p1662
F1.0
sVtagging
p1663
F1.0
saa(lp1664
S'P05-100443'
p1665
a(dp1666
Vand
p1667
F1.0
sVnamed
p1668
F1.0
sVset
p1669
F1.0
sVunseen
p1670
F1.0
sVis
p1671
F1.0
sVgranularity
p1672
F1.0
sVentity
p1673
F1.0
sVrecognition
p1674
F1.0
sVfor
p1675
F1.0
sVto
p1676
F1.0
sg12
F1.0
sVsuggest
p1677
F1.0
sg14
F1.0
sVpredominantly
p1678
F1.0
sValso
p1679
F1.0
sVtagging
p1680
F1.0
sVwhich
p1681
F1.0
sVlabelling
p1682
F1.0
sVhas
p1683
F1.0
sVlocation
p1684
F1.0
sVterms
p1685
F1.0
sVthat
p1686
F1.0
sVvery
p1687
F1.0
sVthey
p1688
F1.0
sVsupersense
p1689
F1.0
sVwith
p1690
F1.0
sVcategories
p1691
F1.0
sg28
F1.0
sg1581
F1.0
sg1582
F1.0
sVof
p1692
F1.0
sVperson
p1693
F1.0
sg13
F1.0
sVsmall
p1694
F1.0
sVT-FLOAT
p1695
F3.0
sVsimilar
p1696
F2.0
saa(lp1697
S'P05-100442'
p1698
a(dp1699
Vand
p1700
F1.0
sVstill
p1701
F1.0
sVjohnson
p1702
F1.0
sVthat
p1703
F1.0
sVdistinctions
p1704
F1.0
sVsupersenses
p1705
F1.0
sVT-FLOAT
p1706
F1.0
sVmaintained
p1707
F1.0
sVare
p1708
F1.0
sVkey
p1709
F1.0
sVsense
p1710
F1.0
sVthe
p1711
F1.0
sVbelieve
p1712
F1.0
sVciaramita
p1713
F1.0
sVby
p1714
F1.0
saa(lp1715
S'P05-100441'
p1716
a(dp1717
Vbeing
p1718
F1.0
sVcriticised
p1719
F1.0
sVtopic
p1720
F1.0
sVexperts
p1721
F1.0
sVare
p1722
F1.0
sVhave
p1723
F1.0
sVwordnet
p1724
F1.0
sVeven
p1725
F1.0
sVfor
p1726
F2.0
sVdistinctions
p1727
F1.0
sg14
F1.0
sVbeen
p1728
F1.0
sVto
p1729
F1.0
sVtoo
p1730
F1.0
sVwhich
p1731
F1.0
sVdifficult
p1732
F1.0
sVsenses
p1733
F1.0
sVcoarser-grained
p1734
F1.0
sVdistinguish
p1735
F1.0
sVthan
p1736
F1.0
sVthese
p1737
F1.0
sVT-FLOAT
p1738
F1.0
saa(lp1739
S'P05-1004205'
p1740
a(dp1741
Vcompare
p1742
F1.0
sVless
p1743
F1.0
sVover
p1744
F1.0
sg14
F2.0
sVin
p1745
F1.0
sVT-FLOAT
p1746
F1.0
sg12
F1.0
sg13
F1.0
sVheadwords
p1747
F1.0
sVsystem
p1748
F1.0
sVcurrent
p1749
F1.0
sVT-INT
p1750
F3.0
sVonly
p1751
F1.0
sVmuch
p1752
F1.0
sVwhich
p1753
F1.0
sVis
p1754
F1.0
sVwe
p1755
F1.0
sVvocabulary
p1756
F1.0
sVcomparison
p1757
F1.0
sVsupersense
p1758
F1.0
sVthan
p1759
F1.0
sVmust
p1760
F1.0
sg28
F2.0
sVentire
p1761
F1.0
sVword
p1762
F1.0
sVvectors
p1763
F1.0
sVagainst
p1764
F2.0
sVefficient
p1765
F1.0
sVcontext
p1766
F1.0
sVthe
p1767
F2.0
saa(lp1768
S'P05-100449'
p1769
a(dp1770
Vover
p1771
F1.0
sVnews
p1772
F1.0
sVinformation
p1773
F1.0
sVmutual
p1774
F1.0
sVadds
p1775
F1.0
sVfor
p1776
F1.0
sVT-INT
p1777
F3.0
sg12
F1.0
sg13
F1.0
sVlexical
p1778
F1.0
sg14
F1.0
sVextracted
p1779
F1.0
sVtrigger
p1780
F1.0
sVbeeferman
p1781
F1.0
sVcorpus
p1782
F1.0
sVmillion
p1783
F1.0
sVbroadcast
p1784
F1.0
sVcollocation
p1785
F1.0
sVfrom
p1786
F1.0
sg28
F1.0
sVpairs
p1787
F2.0
sVword
p1788
F1.0
sVusing
p1789
F1.0
sVof
p1790
F1.0
sVfreenet
p1791
F1.0
sVT-FLOAT
p1792
F1.0
saa(lp1793
S'P05-100448'
p1794
a(dp1795
Vand
p1796
F2.0
sVconcept
p1797
F1.0
sVaddresses
p1798
F1.0
sVhierarchy
p1799
F1.0
sVmanipulating
p1800
F1.0
sVwordnet
p1801
F1.0
sVfrom
p1802
F1.0
sVconsiderable
p1803
F1.0
sVresearch
p1804
F1.0
sVnew
p1805
F1.0
sVstatistically
p1806
F1.0
sVstructurally
p1807
F1.0
sVconstruction
p1808
F1.0
sVusing
p1809
F1.0
sVthe
p1810
F3.0
sVstructure
p1811
F1.0
sg28
F1.0
sVof
p1812
F3.0
sVwordnets
p1813
F1.0
sVamount
p1814
F1.0
sVenglish
p1815
F1.0
sVT-FLOAT
p1816
F1.0
saa(lp1817
S'P05-100421'
p1818
a(dp1819
Vannotated
p1820
F1.0
sVunsupervised
p1821
F1.0
sVthis
p1822
F1.0
sVrequire
p1823
F1.0
sVthat
p1824
F1.0
sVan
p1825
F1.0
sVpaper
p1826
F1.0
sVto
p1827
F1.0
sVdescribes
p1828
F1.0
sVsentences
p1829
F1.0
sVdoes
p1830
F1.0
sVsupersense
p1831
F1.0
sVnot
p1832
F1.0
sVT-FLOAT
p1833
F1.0
sVapproach
p1834
F1.0
sVtagging
p1835
F1.0
saa(lp1836
S'P05-100423'
p1837
a(dp1838
Vthen
p1839
F1.0
sVthese
p1840
F1.0
sVof
p1841
F1.0
sVsupersenses
p1842
F1.0
sVto
p1843
F1.0
sVsynonyms
p1844
F1.0
sVare
p1845
F1.0
sVdetermine
p1846
F1.0
sVsupersense
p1847
F1.0
sVthe
p1848
F2.0
sVT-FLOAT
p1849
F1.0
sVcombined
p1850
F1.0
saa(lp1851
S'P05-100422'
p1852
a(dp1853
g28
F1.0
sVunknown
p1854
F1.0
sVwe
p1855
F1.0
sVretrieve
p1856
F1.0
sVfor
p1857
F1.0
sVsimilarity
p1858
F1.0
sVof
p1859
F1.0
sVvector-space
p1860
F1.0
sVuse
p1861
F1.0
sg14
F1.0
sVto
p1862
F1.0
sVsynonyms
p1863
F1.0
sVnumber
p1864
F1.0
sVnoun
p1865
F1.0
sVcommon
p1866
F1.0
sVeach
p1867
F1.0
sVinstead
p1868
F1.0
sVT-FLOAT
p1869
F1.0
saa(lp1870
S'P05-100424'
p1871
a(dp1872
Vand
p1873
F1.0
sVon
p1874
F2.0
sVbased
p1875
F1.0
sVsignificantly
p1876
F1.0
sVT-INT
p1877
F5.0
sVthis
p1878
F1.0
sVperceptron
p1879
F1.0
sVsame
p1880
F1.0
sVdataset
p1881
F1.0
sVoutperforms
p1882
F1.0
sVthe
p1883
F2.0
sVmulti-class
p1884
F1.0
sVapproach
p1885
F1.0
sVT-FLOAT
p1886
F4.0
sVwordnet
p1887
F1.0
saa(lp1888
S'P05-100427'
p1889
a(dp1890
Vfiles
p1891
F1.0
sVthere
p1892
F1.0
sVsemantic
p1893
F1.0
sVhierarchy
p1894
F1.0
sVinto
p1895
F1.0
sVlexfiles
p1896
F1.0
sVare
p1897
F1.0
sVin
p1898
F1.0
sVT-FLOAT
p1899
F1.0
sVwordnet
p1900
F1.0
sg12
F1.0
sVbroad
p1901
F1.0
sVinitial
p1902
F1.0
sg14
F1.0
sVT-INT
p1903
F1.0
sVemployed
p1904
F1.0
sVinserting
p1905
F1.0
sVlexicographer
p1906
F1.0
sVwords
p1907
F1.0
sVphase
p1908
F1.0
sVby
p1909
F1.0
sVlexicographers
p1910
F1.0
sVof
p1911
F1.0
sVclasses
p1912
F1.0
sg13
F1.0
sVthe
p1913
F2.0
sVcalled
p1914
F1.0
saa(lp1915
S'P05-100426'
p1916
a(dp1917
Vphenomenon
p1918
F1.0
sVactions
p1919
F1.0
sVshape
p1920
F1.0
sVrelation
p1921
F1.0
sVlinguistics
p1922
F1.0
sVgroup
p1923
F1.0
sg13
F1.0
sVtemporal
p1924
F1.0
sVT-INT
p1925
F3.0
sVlocation
p1926
F1.0
sVstable
p1927
F1.0
sVfood
p1928
F1.0
sVnot
p1929
F1.0
sVman-made
p1930
F2.0
sVpeople/things/ideas
p1931
F1.0
sVassociation
p1932
F1.0
sVd
p1933
F1.0
sVprocesses
p1934
F3.0
sVcognitive
p1935
F1.0
sVcognition
p1936
F1.0
sVl
p1937
F2.0
sVshapes
p1938
F1.0
sVp
p1939
F1.0
sVqc
p1940
F1.0
sVt
p1941
F1.0
sVx
p1942
F1.0
sVpeople
p1943
F3.0
sVphenomena
p1944
F1.0
sVmotive
p1945
F1.0
sVmeasure
p1946
F1.0
sVevent
p1947
F1.0
sVdrinks
p1948
F1.0
sVfor
p1949
F1.0
sVemotions
p1950
F1.0
sVstate
p1951
F1.0
sVbetween
p1952
F1.0
sVbody
p1953
F2.0
sV-fi
p1954
F1.0
sVobjects
p1955
F4.0
sVc
p1956
F1.0
sVsubstance
p1957
F1.0
sVof
p1958
F5.0
sVo
p1959
F1.0
sVs
p1960
F1.0
sVact
p1961
F1.0
sVattributes
p1962
F1.0
sVor
p1963
F2.0
sVcomputational
p1964
F1.0
sVcommunication
p1965
F1.0
sVnoun
p1966
F1.0
sVfeelings
p1967
F1.0
sVdimensional
p1968
F1.0
sVtable
p1969
F1.0
sVtransfer
p1970
F1.0
sVthree
p1971
F1.0
sVrelations
p1972
F2.0
sg18
F1.0
sVpossession
p1973
F3.0
sVsubstances
p1974
F1.0
sVquantities
p1975
F1.0
sVartifact
p1976
F1.0
sVgoals
p1977
F1.0
sg1581
F3.0
sVgroupings
p1978
F1.0
sVplants
p1979
F1.0
sVanimals
p1980
F1.0
sVn
p1981
F1.0
sg1089
F1.0
sVfeeling
p1982
F1.0
sVand
p1983
F9.0
sVfiles
p1984
F1.0
sVprocess
p1985
F1.0
sVattribute
p1986
F1.0
sVstates
p1987
F1.0
sVfoods
p1988
F1.0
sVin
p1989
F1.0
sVcontents
p1990
F2.0
sVaffairs
p1991
F1.0
sg12
F1.0
sVacts
p1992
F1.0
sVcommunicative
p1993
F1.0
sVparts
p1994
F1.0
sVwordnet
p1995
F1.0
sVanimal
p1996
F1.0
sVspatial
p1997
F1.0
sVunits
p1998
F1.0
sVevents
p1999
F1.0
sVplant
p2000
F1.0
sVlexicographer
p2001
F1.0
sVobject
p2002
F1.0
sVtwo
p2003
F1.0
sVnatural
p2004
F4.0
sVi
p2005
F2.0
sVperson
p2006
F1.0
sVtime
p2007
F2.0
sVposition
p2008
F1.0
sVquantity
p2009
F1.0
saa(lp2010
S'P05-100429'
p2011
a(dp2012
Vand
p2013
F1.0
sVT-INT
p2014
F3.0
sVfor
p2015
F3.0
sVsyntactic
p2016
F1.0
sg14
F1.0
sValso
p2017
F1.0
sVadjectives
p2018
F1.0
sVclasses
p2019
F1.0
sVadverbs
p2020
F1.0
sVare
p2021
F1.0
sVusing
p2022
F1.0
sVlex-files
p2023
F1.0
sVorganised
p2024
F1.0
sVT-FLOAT
p2025
F1.0
sg18
F1.0
sVother
p2026
F1.0
sVverbs
p2027
F1.0
saa(lp2028
S'P05-100428'
p2029
a(dp2030
Vand
p2031
F1.0
sg28
F1.0
sVcontaining
p2032
F1.0
sVnoun
p2033
F1.0
sVfor
p2034
F1.0
sVlevel
p2035
F1.0
sVhierarchy
p2036
F2.0
sVT-FLOAT
p2037
F1.0
sVtop
p2038
F1.0
sVthere
p2039
F1.0
sVtops
p2040
F1.0
sg14
F1.0
sVcalled
p2041
F1.0
sVT-INT
p2042
F1.0
sVare
p2043
F1.0
sVfile
p2044
F1.0
sVin
p2045
F1.0
sVlex-files
p2046
F1.0
sVthe
p2047
F3.0
sVnodes
p2048
F1.0
saa(lp2049
S'P05-1004212'
p2050
a(dp2051
Vone
p2052
F1.0
sVin
p2053
F1.0
sVfind
p2054
F1.0
sVthese
p2055
F1.0
sVappear
p2056
F1.0
sVfor
p2057
F1.0
sg12
F1.0
sg13
F1.0
sVto
p2058
F2.0
sVtake
p2059
F1.0
sVbetween
p2060
F1.0
sVacross
p2061
F1.0
sVbe
p2062
F1.0
sVthat
p2063
F1.0
sVwords
p2064
F2.0
sVsupersense
p2065
F1.0
sVintersection
p2066
F1.0
sVthe
p2067
F2.0
sg1581
F1.0
sVwould
p2068
F1.0
sg2005
F1.0
sVvectors
p2069
F1.0
sVsolution
p2070
F1.0
sVcontexts
p2071
F1.0
sVcommon
p2072
F1.0
sVeach
p2073
F1.0
sVT-FLOAT
p2074
F3.0
saa(lp2075
S'P05-1004116'
p2076
a(dp2077
Vpasses
p2078
F1.0
sVall
p2079
F2.0
sVfrom
p2080
F1.0
sVwhich
p2081
F1.0
sVsentence
p2082
F1.0
sVthis
p2083
F1.0
sVof
p2084
F1.0
sVcompleted
p2085
F1.0
sVcontains
p2086
F1.0
sVlist
p2087
F1.0
sVpairs
p2088
F1.0
sVbeen
p2089
F2.0
sVextracted
p2090
F1.0
sVfive
p2091
F1.0
sVhave
p2092
F2.0
sVnounmodifier/verb
p2093
F1.0
sVthe
p2094
F2.0
sVT-FLOAT
p2095
F1.0
sVassociation
p2096
F1.0
sVonce
p2097
F1.0
saa(lp2098
S'P05-1004117'
p2099
a(dp2100
Vshown
p2101
F1.0
sVsextant
p2102
F1.0
sVT-INT
p2103
F1.0
sVgrammatical
p2104
F1.0
sVof
p2105
F1.0
sVextracted
p2106
F1.0
sVrelation
p2107
F1.0
sVare
p2108
F1.0
sVT-FLOAT
p2109
F1.0
sVin
p2110
F1.0
sVtable
p2111
F1.0
sVthe
p2112
F1.0
sVby
p2113
F1.0
sVtypes
p2114
F1.0
saa(lp2115
S'P05-1004115'
p2116
a(dp2117
g28
F1.0
sVused
p2118
F1.0
sVword
p2119
F1.0
sVattached
p2120
F1.0
sVis
p2121
F2.0
sVglobal
p2122
F1.0
sVlist
p2123
F1.0
sVto
p2124
F1.0
sValready
p2125
F1.0
sVdetermine
p2126
F1.0
sVthe
p2127
F1.0
sVT-FLOAT
p2128
F1.0
sVif
p2129
F1.0
saa(lp2130
S'P05-1004112'
p2131
a(dp2132
VT-INT
p2133
F2.0
sVT-FLOAT
p2134
F2.0
sVmorphological
p2135
F1.0
sVanalysis
p2136
F1.0
saa(lp2137
S'P05-1004113'
p2138
a(dp2139
Vand
p2140
F1.0
sVminnen
p2141
F1.0
sVgeneration
p2142
F1.0
sVis
p2143
F1.0
sVaffix
p2144
F1.0
sVal
p2145
F1.0
sVgrammars
p2146
F1.0
sVour
p2147
F1.0
sVet
p2148
F1.0
sVimplemented
p2149
F1.0
sVfor
p2150
F1.0
sg12
F1.0
sg13
F1.0
sg14
F3.0
sVT-INT
p2151
F1.0
sVwhich
p2152
F1.0
sVmorpha
p2153
F1.0
sVsussex
p2154
F1.0
sVmorphological
p2155
F1.0
sVsplitting
p2156
F1.0
sVuses
p2157
F1.0
sVlex
p2158
F1.0
sVusing
p2159
F1.0
sVanalyser
p2160
F1.0
sVT-FLOAT
p2161
F2.0
sVboth
p2162
F1.0
sVimplementation
p2163
F1.0
sVthe
p2164
F1.0
saa(lp2165
S'P05-1004110'
p2166
a(dp2167
Vand
p2168
F1.0
sVis
p2169
F1.0
sVchunker
p2170
F1.0
sVentropy
p2171
F1.0
sVtrained
p2172
F1.0
sVchunks
p2173
F1.0
sVour
p2174
F1.0
sVextracted
p2175
F1.0
sVconll
p2176
F1.0
sVfrom
p2177
F1.0
sVT-INT
p2178
F1.0
sVto
p2179
F1.0
sVimplementation
p2180
F1.0
sVfeature
p2181
F1.0
sValso
p2182
F1.0
sVwhich
p2183
F1.0
sVpenn
p2184
F1.0
sVhas
p2185
F1.0
sVtreebank
p2186
F1.0
sVentire
p2187
F1.0
sVuses
p2188
F1.0
sVusing
p2189
F1.0
sVT-FLOAT
p2190
F1.0
sVtypes
p2191
F1.0
sg28
F1.0
sVon
p2192
F1.0
sVscript
p2193
F1.0
sVmaximum
p2194
F1.0
sVkoeling
p2195
F1.0
sVthe
p2196
F2.0
sVsimilar
p2197
F1.0
saa(lp2198
S'P05-1004118'
p2199
a(dp2200
Vand
p2201
F1.0
sVare
p2202
F1.0
sVrt
p2203
F1.0
sVpasses
p2204
F1.0
sVinverse
p2205
F1.0
sVdescribed
p2206
F1.0
sVfor
p2207
F1.0
sVT-INT
p2208
F1.0
sg12
F2.0
sg13
F2.0
sVcreate
p2209
F1.0
sg14
F3.0
sVrelations
p2210
F2.0
sValso
p2211
F1.0
sVbetween
p2212
F1.0
sVwe
p2213
F1.0
sVthat
p2214
F1.0
sVmodify
p2215
F1.0
sVwt
p2216
F2.0
sVnouns
p2217
F1.0
sVrepresenting
p2218
F1.0
sVT-FLOAT
p2219
F2.0
sVnn
p2220
F1.0
sVbelow
p2221
F1.0
sVnnprep
p2222
F1.0
sVcan
p2223
F1.0
sg1091
F2.0
sVthe
p2224
F2.0
sVfact
p2225
F1.0
saa(lp2226
S'P05-10042'
p2227
a(dp2228
Vsemantic
p2229
F1.0
sVinto
p2230
F1.0
sVone
p2231
F1.0
sVinsertion
p2232
F1.0
sVwordnet
p2233
F1.0
sVT-INT
p2234
F1.0
sVtheir
p2235
F1.0
sVunknown
p2236
F1.0
sVto
p2237
F1.0
sVtagging
p2238
F1.0
sVused
p2239
F1.0
sVassigns
p2240
F1.0
sVnouns
p2241
F1.0
sVsupersense
p2242
F1.0
sVby
p2243
F1.0
sVcategories
p2244
F1.0
sVlexicographers
p2245
F1.0
sVof
p2246
F1.0
sVmanual
p2247
F1.0
sVorganise
p2248
F1.0
sVbroad
p2249
F1.0
sVT-FLOAT
p2250
F1.0
saa(lp2251
S'P05-10043'
p2252
a(dp2253
Vand
p2254
F1.0
sg28
F1.0
sVtraining
p2255
F1.0
sVset
p2256
F1.0
sVsynonym
p2257
F1.0
sVannotated
p2258
F1.0
sVjohnson
p2259
F1.0
sVas
p2260
F1.0
sVtagger
p2261
F1.0
sVexamples
p2262
F1.0
sVwhich
p2263
F1.0
sVglosses
p2264
F1.0
sVuses
p2265
F1.0
sVT-FLOAT
p2266
F1.0
sVciaramita
p2267
F1.0
sVpresent
p2268
F1.0
saa(lp2269
S'P05-1004217'
p2270
a(dp2271
Vsimilarity
p2272
F1.0
sVresults
p2273
F1.0
sVsystem
p2274
F1.0
sVas
p2275
F1.0
sVidentify
p2276
F1.0
sVnames
p2277
F1.0
sVin
p2278
F1.0
sVproper
p2279
F1.0
sVour
p2280
F1.0
sVto
p2281
F1.0
sg12
F1.0
sg13
F1.0
sVthat
p2282
F1.0
sg14
F1.0
sVentities
p2283
F1.0
sVlocation
p2284
F1.0
sVwhich
p2285
F1.0
sVinclude
p2286
F1.0
sVdifficult
p2287
F1.0
sVdo
p2288
F1.0
sVwe
p2289
F1.0
sVcorrectly
p2290
F1.0
sVmeans
p2291
F1.0
sVvery
p2292
F1.0
sVnot
p2293
F1.0
sVbe
p2294
F1.0
sVT-FLOAT
p2295
F1.0
sVcan
p2296
F1.0
sVfirstly
p2297
F1.0
sVdemonstrate
p2298
F1.0
sVthe
p2299
F1.0
saa(lp2300
S'P05-10041'
p2301
a(dp2302
Vlimited
p2303
F1.0
sVcoverage
p2304
F1.0
sVnlp
p2305
F1.0
sVis
p2306
F1.0
sVT-FLOAT
p2307
F1.0
sVfor
p2308
F1.0
sVunknown
p2309
F1.0
sVsystems
p2310
F1.0
sVwhich
p2311
F1.0
sVresources
p2312
F1.0
sVclassifying
p2313
F1.0
sVlexical-semantic
p2314
F1.0
sVproblem
p2315
F1.0
sValleviated
p2316
F1.0
sVsignificant
p2317
F1.0
sVbe
p2318
F1.0
sVby
p2319
F1.0
sg28
F1.0
sVof
p2320
F1.0
sVcan
p2321
F1.0
sVthe
p2322
F2.0
sVwords
p2323
F1.0
sVautomatically
p2324
F1.0
saa(lp2325
S'P05-10046'
p2326
a(dp2327
Vand
p2328
F5.0
sVclark
p2329
F1.0
sVtext
p2330
F1.0
sVpasca
p2331
F1.0
sVpearce
p2332
F1.0
sVhave
p2333
F1.0
sVfrom
p2334
F1.0
sVT-INT
p2335
F4.0
sVto
p2336
F2.0
sg12
F4.0
sg13
F4.0
sVanswering
p2337
F1.0
sVquestion
p2338
F1.0
sg14
F5.0
sVbeen
p2339
F1.0
sVsmoothing
p2340
F1.0
sVextraction
p2341
F1.0
sVcollocation
p2342
F1.0
sVranging
p2343
F1.0
sVresources
p2344
F1.0
sg28
F1.0
sVclassification
p2345
F1.0
sVsuccessful
p2346
F1.0
sVlexical-semantic
p2347
F1.0
sVprocessing
p2348
F1.0
sVproblems
p2349
F1.0
sVweir
p2350
F1.0
sVmccallum
p2351
F1.0
sVharabagiu
p2352
F1.0
sVapplied
p2353
F1.0
sVwide
p2354
F1.0
sVnatural
p2355
F1.0
sVlanguage
p2356
F1.0
sVof
p2357
F1.0
sVbaker
p2358
F1.0
sVclass-based
p2359
F1.0
sVrange
p2360
F1.0
sVT-FLOAT
p2361
F1.0
saa(lp2362
S'P05-10047'
p2363
a(dp2364
Vinfluenced
p2365
F1.0
sVsignificantly
p2366
F1.0
sVnlp
p2367
F1.0
sg12
F1.0
sg13
F1.0
sVin
p2368
F2.0
sg14
F2.0
sVresearch
p2369
F1.0
sVT-INT
p2370
F1.0
sVwordnet
p2371
F1.0
sVparticular
p2372
F1.0
sVT-FLOAT
p2373
F1.0
sVhas
p2374
F1.0
sVfellbaum
p2375
F1.0
saa(lp2376
S'P05-10044'
p2377
a(dp2378
Vsignificantly
p2379
F1.0
sVsimilarity
p2380
F1.0
sVdescribe
p2381
F1.0
sVan
p2382
F1.0
sVoutperforms
p2383
F1.0
sVtagger
p2384
F1.0
sVexamples
p2385
F1.0
sVbased
p2386
F1.0
sVannotated
p2387
F1.0
sg14
F2.0
sVtheir
p2388
F1.0
sVdoes
p2389
F1.0
sVwhich
p2390
F1.0
sVapproach
p2391
F1.0
sVwe
p2392
F1.0
sVbut
p2393
F1.0
sVnot
p2394
F1.0
sVon
p2395
F1.0
sVunsupervised
p2396
F1.0
sVrequire
p2397
F1.0
sVvector-space
p2398
F1.0
sVT-FLOAT
p2399
F1.0
saa(lp2400
S'P05-10045'
p2401
a(dp2402
Vwe
p2403
F1.0
sVsemantic
p2404
F1.0
sVcalculating
p2405
F1.0
sVfor
p2406
F1.0
sVsimilarity
p2407
F1.0
sVof
p2408
F1.0
sVvector-space
p2409
F1.0
sVuse
p2410
F1.0
sVan
p2411
F1.0
sVlarge
p2412
F1.0
sValso
p2413
F1.0
sVshallow-parsed
p2414
F1.0
sVT-FLOAT
p2415
F1.0
sVdemonstrate
p2416
F1.0
sVthe
p2417
F1.0
sVextremely
p2418
F1.0
sVcorpus
p2419
F1.0
saa(lp2420
S'P05-1004196'
p2421
a(dp2422
Vand
p2423
F1.0
sVboth
p2424
F1.0
sVperson
p2425
F1.0
sVattribute
p2426
F1.0
sVsets
p2427
F1.0
sg14
F1.0
sVsupersenses
p2428
F1.0
sVmost
p2429
F1.0
sVwere
p2430
F1.0
sVact
p2431
F1.0
sVin
p2432
F1.0
sVtest
p2433
F1.0
sVthe
p2434
F1.0
sVT-FLOAT
p2435
F1.0
sVfrequent
p2436
F1.0
saa(lp2437
S'P05-1004197'
p2438
a(dp2439
Vand
p2440
F2.0
sVthe
p2441
F3.0
sVfollowed
p2442
F1.0
sVis
p2443
F1.0
sVin
p2444
F1.0
sVto
p2445
F1.0
sg14
F3.0
sVeasiest
p2446
F1.0
sVT-INT
p2447
F5.0
sVtest
p2448
F1.0
sVcorrect
p2449
F1.0
sVget
p2450
F1.0
sVfood
p2451
F1.0
sVartifact
p2452
F1.0
sVsupersense
p2453
F1.0
sVby
p2454
F1.0
sVcategories
p2455
F1.0
sVboth
p2456
F1.0
sVsubstance
p2457
F1.0
sVof
p2458
F1.0
sVperson
p2459
F1.0
sVsets
p2460
F1.0
sVT-FLOAT
p2461
F4.0
sVfrequent
p2462
F1.0
saa(lp2463
S'P05-10048'
p2464
a(dp2465
Vand
p2466
F3.0
sVdomain
p2467
F1.0
sVresource
p2468
F1.0
sVunfortunately
p2469
F1.0
sVtimeconsuming
p2470
F1.0
sVthese
p2471
F1.0
sVrequiring
p2472
F1.0
sVmanually
p2473
F1.0
sg14
F2.0
sVto
p2474
F1.0
sVmaintain
p2475
F1.0
sVexpertise
p2476
F1.0
sVare
p2477
F1.0
sVlinguistic
p2478
F1.0
sVdevelop
p2479
F1.0
sVT-FLOAT
p2480
F1.0
sVextremely
p2481
F1.0
sVconsiderable
p2482
F1.0
sVlabour-intensive
p2483
F1.0
saa(lp2484
S'P05-10049'
p2485
a(dp2486
Vand
p2487
F2.0
sVmigrate
p2488
F1.0
sVinto
p2489
F1.0
sVobsolete
p2490
F1.0
sVare
p2491
F2.0
sVsense
p2492
F1.0
sVdistinctions
p2493
F1.0
sg14
F2.0
sVcontinually
p2494
F1.0
sVtechnical
p2495
F1.0
sg18
F1.0
sVmerged
p2496
F1.0
sVterms
p2497
F1.0
sVcoined
p2498
F1.0
sVpossibly
p2499
F1.0
sVwords
p2500
F1.0
sVnot
p2501
F1.0
sVwith
p2502
F1.0
sVT-FLOAT
p2503
F1.0
sVevolution
p2504
F1.0
sVmade
p2505
F1.0
sVlanguage
p2506
F1.0
sVlexicographers
p2507
F1.0
sVkeep
p2508
F1.0
sVpace
p2509
F1.0
sVvernacular
p2510
F1.0
sVcan
p2511
F1.0
sVbecome
p2512
F1.0
sVthe
p2513
F1.0
sVor
p2514
F1.0
saa(lp2515
S'P05-1004192'
p2516
a(dp2517
Vand
p2518
F1.0
sVon
p2519
F1.0
sVsignificantly
p2520
F1.0
sVjohnson
p2521
F1.0
sVboth
p2522
F1.0
sVoutperform
p2523
F1.0
sVis
p2524
F1.0
sVeven
p2525
F1.0
sVresults
p2526
F1.0
sVsystem
p2527
F1.0
sVunsupervised
p2528
F1.0
sVthough
p2529
F1.0
sVsets
p2530
F1.0
sVtest
p2531
F1.0
sVour
p2532
F2.0
sVT-FLOAT
p2533
F1.0
sVciaramita
p2534
F1.0
saa(lp2535
S'P05-1004193'
p2536
a(dp2537
Vand
p2538
F1.0
sVset
p2539
F2.0
sVthat
p2540
F1.0
sVdemonstrates
p2541
F1.0
sVis
p2542
F1.0
sVharder
p2543
F1.0
sVlarge
p2544
F1.0
sVT-INT
p2545
F8.0
sVmuch
p2546
F1.0
sVbetween
p2547
F1.0
sVtest
p2548
F1.0
sVour
p2549
F1.0
sVthe
p2550
F2.0
sVdifference
p2551
F1.0
sVT-FLOAT
p2552
F6.0
sVaccuracy
p2553
F1.0
saa(lp2554
S'P05-1004190'
p2555
a(dp2556
Von
p2557
F2.0
sVset
p2558
F2.0
sg771
F1.0
sVpreviously
p2559
F1.0
sVis
p2560
F1.0
sg14
F1.0
sVsystem
p2561
F1.0
sVunused
p2562
F1.0
sVT-INT
p2563
F6.0
sVbest
p2564
F1.0
sVusing
p2565
F1.0
sVtest
p2566
F2.0
sVour
p2567
F1.0
sVthe
p2568
F3.0
sVT-FLOAT
p2569
F4.0
sVwordnet
p2570
F2.0
sVaccuracy
p2571
F1.0
saa(lp2572
S'P05-1004191'
p2573
a(dp2574
Von
p2575
F2.0
sVwe
p2576
F2.0
sVset
p2577
F2.0
sg771
F1.0
sVto
p2578
F1.0
sVparameters
p2579
F1.0
sVthat
p2580
F2.0
sVnot
p2581
F1.0
sVT-FLOAT
p2582
F4.0
sg14
F1.0
sVover-tuned
p2583
F1.0
sVincrease
p2584
F1.0
sVT-INT
p2585
F6.0
sVexcessively
p2586
F1.0
sVoptimising
p2587
F1.0
sVhave
p2588
F1.0
sVtest
p2589
F2.0
sVthe
p2590
F3.0
sVby
p2591
F1.0
sVindicating
p2592
F1.0
sVcan
p2593
F1.0
saa(lp2594
S'P05-1004213'
p2595
a(dp2596
Vlarge
p2597
F1.0
sVgiven
p2598
F1.0
sVvery
p2599
F1.0
sVthis
p2600
F1.0
sVof
p2601
F1.0
sVvectors
p2602
F1.0
sVhowever
p2603
F1.0
sg14
F1.0
sVleave
p2604
F1.0
sVmay
p2605
F1.0
sVsparseness
p2606
F1.0
sVcontext
p2607
F1.0
sVnot
p2608
F1.0
sVthe
p2609
F2.0
sVdata
p2610
F1.0
sVT-FLOAT
p2611
F1.0
saa(lp2612
S'P05-100414'
p2613
a(dp2614
Vand
p2615
F1.0
sVfrom
p2616
F1.0
sVjohnson
p2617
F1.0
sVthat
p2618
F1.0
sVbllip
p2619
F1.0
sVin
p2620
F1.0
sVmissing
p2621
F1.0
sVoccurred
p2622
F1.0
sVcorpus
p2623
F1.0
sVT-INT
p2624
F3.0
sVevery
p2625
F1.0
sVcommon
p2626
F1.0
sVnouns
p2627
F1.0
sVsentences
p2628
F1.0
sVfound
p2629
F1.0
sVT-FLOAT
p2630
F2.0
sVciaramita
p2631
F1.0
sVthe
p2632
F1.0
sVwordnet
p2633
F1.0
saa(lp2634
S'P05-100415'
p2635
a(dp2636
Vthe
p2637
F1.0
sVkeeping
p2638
F1.0
sVimproved
p2639
F1.0
sVevolution
p2640
F1.0
sVlanguage
p2641
F1.0
sVremains
p2642
F1.0
sVproblem
p2643
F1.0
sg14
F1.0
sVbut
p2644
F1.0
sVup
p2645
F1.0
sVT-INT
p2646
F2.0
sVcoverage
p2647
F1.0
sVof
p2648
F1.0
sVT-FLOAT
p2649
F2.0
sVhas
p2650
F1.0
sVwith
p2651
F1.0
sVby
p2652
F1.0
sVwordnet
p2653
F1.0
sVdifficult
p2654
F1.0
saa(lp2655
S'P05-100416'
p2656
a(dp2657
Vclassifying
p2658
F1.0
sVinto
p2659
F1.0
sVwhen
p2660
F1.0
sVwords
p2661
F1.0
sVconsistency
p2662
F1.0
sVT-FLOAT
p2663
F1.0
sVsimilar
p2664
F1.0
sVcategories
p2665
F1.0
saa(lp2666
S'P05-100410'
p2667
a(dp2668
Vand
p2669
F1.0
sVoften
p2670
F1.0
sVas
p2671
F1.0
sVeveryday
p2672
F1.0
sVspecial
p2673
F1.0
sVsince
p2674
F1.0
sVproportion
p2675
F1.0
sg14
F3.0
sVoverlap
p2676
F1.0
sVtheir
p2677
F1.0
sVdoes
p2678
F1.0
sVtake
p2679
F1.0
sVmedicine
p2680
F1.0
sVtreatment
p2681
F1.0
sVmeanings
p2682
F1.0
sVvocabulary
p2683
F2.0
sVseparate
p2684
F1.0
sVsignificant
p2685
F1.0
sVnot
p2686
F1.0
sVsuch
p2687
F1.0
sVwith
p2688
F1.0
sg28
F1.0
sVon
p2689
F1.0
sVtechnical
p2690
F1.0
sVof
p2691
F1.0
sVrequire
p2692
F1.0
sVcommon
p2693
F1.0
sVdomains
p2694
F1.0
sVT-FLOAT
p2695
F1.0
sVwords
p2696
F1.0
saa(lp2697
S'P05-100411'
p2698
a(dp2699
Vand
p2700
F2.0
sg28
F1.0
sVcompared
p2701
F1.0
sVresource
p2702
F1.0
sVdegree
p2703
F1.0
sVvery
p2704
F1.0
sVof
p2705
F2.0
sVmedical
p2706
F1.0
sVbodenreider
p2707
F1.0
sVoverlap
p2708
F1.0
sVan
p2709
F1.0
sVT-FLOAT
p2710
F1.0
sVonly
p2711
F1.0
sVwordnet
p2712
F1.0
sVfound
p2713
F1.0
sVsmall
p2714
F1.0
sVumls
p2715
F1.0
sVthe
p2716
F1.0
sVwith
p2717
F1.0
sVburgun
p2718
F1.0
sValignment
p2719
F1.0
saa(lp2720
S'P05-100412'
p2721
a(dp2722
Vand
p2723
F1.0
sVparticular
p2724
F1.0
sg18
F1.0
sVfrom
p2725
F2.0
sVsenses
p2726
F1.0
sVconcepts
p2727
F1.0
sg14
F1.0
sValso
p2728
F1.0
sVbias
p2729
F1.0
sVtowards
p2730
F1.0
sVlexicalsemantic
p2731
F1.0
sVT-FLOAT
p2732
F1.0
sVsuffer
p2733
F1.0
sVtopics
p2734
F1.0
sVresources
p2735
F1.0
saa(lp2736
S'P05-100413'
p2737
a(dp2738
Vand
p2739
F2.0
sVlimited
p2740
F1.0
sVcoverage
p2741
F1.0
sVtopics
p2742
F1.0
sVsome
p2743
F1.0
sVfiner-grained
p2744
F1.0
sVworm
p2745
F1.0
sVare
p2746
F1.0
sVin
p2747
F2.0
sVwordnet
p2748
F1.0
sVdistinctions
p2749
F2.0
sg14
F1.0
sVreality
p2750
F1.0
sVbetter
p2751
F1.0
sVdoes
p2752
F1.0
sVcovered
p2753
F1.0
sg17
F1.0
sVhas
p2754
F1.0
sVfiner
p2755
F1.0
sVspecialist
p2756
F1.0
sVsenses
p2757
F1.0
sVreflect
p2758
F1.0
sValthough
p2759
F1.0
sVothers
p2760
F1.0
sVnot
p2761
F1.0
sVthan
p2762
F2.0
sVinfrequent
p2763
F1.0
sg1581
F1.0
sg1582
F1.0
sVthis
p2764
F1.0
sVof
p2765
F1.0
sVdog
p2766
F1.0
sVcat
p2767
F1.0
sVT-FLOAT
p2768
F3.0
sVwords
p2769
F1.0
saa(lp2770
S'P05-100418'
p2771
a(dp2772
Vand
p2773
F1.0
sVmethods
p2774
F1.0
sVfor
p2775
F2.0
sVthese
p2776
F1.0
sVof
p2777
F1.0
sVcreation
p2778
F1.0
sVproblems
p2779
F1.0
sVsemiautomatic
p2780
F1.0
sVT-FLOAT
p2781
F1.0
sVmaintenance
p2782
F1.0
sVlexical-semantic
p2783
F1.0
sVneed
p2784
F1.0
sVdemonstrate
p2785
F1.0
sVthe
p2786
F2.0
sVautomatic
p2787
F1.0
sVor
p2788
F1.0
sVresources
p2789
F1.0
saa(lp2790
S'P05-100419'
p2791
a(dp2792
Vand
p2793
F1.0
sVsemantic
p2794
F1.0
sVdirectly
p2795
F1.0
sVclassification
p2796
F1.0
sVhierarchy
p2797
F1.0
sVis
p2798
F2.0
sVan
p2799
F1.0
sVinsertion
p2800
F1.0
sVT-FLOAT
p2801
F1.0
sVwordnet
p2802
F2.0
sVbroad
p2803
F1.0
sVcurrently
p2804
F1.0
sg14
F1.0
sVto
p2805
F2.0
sVinto
p2806
F2.0
sVinserting
p2807
F1.0
sVused
p2808
F1.0
sVwords
p2809
F2.0
sVby
p2810
F1.0
sVlexicographers
p2811
F1.0
sVof
p2812
F1.0
sVmanual
p2813
F1.0
sVprecursor
p2814
F1.0
sVorganise
p2815
F1.0
sVautomatically
p2816
F1.0
sVthe
p2817
F2.0
sVexperimental
p2818
F1.0
saa(lp2819
S'P05-1004208'
p2820
a(dp2821
Vsmaller
p2822
F1.0
sVproduces
p2823
F1.0
sVexperiments
p2824
F1.0
sVour
p2825
F1.0
sVsuggest
p2826
F1.0
sg14
F1.0
sVmuch
p2827
F1.0
sVwhich
p2828
F1.0
sVmatch
p2829
F1.0
sVdo
p2830
F1.0
sVthat
p2831
F1.0
sVhowever
p2832
F1.0
sVearly
p2833
F1.0
sVunseen
p2834
F1.0
sVnot
p2835
F1.0
sVextremely
p2836
F1.0
sVT-FLOAT
p2837
F1.0
sVword
p2838
F1.0
sVthis
p2839
F1.0
sVof
p2840
F1.0
sVvectors
p2841
F2.0
sVwell
p2842
F1.0
sVagainst
p2843
F1.0
sVlarge
p2844
F1.0
sVeach
p2845
F1.0
sVthe
p2846
F1.0
saa(lp2847
S'P05-1004209'
p2848
a(dp2849
Vvectors
p2850
F1.0
sVthese
p2851
F1.0
sVof
p2852
F1.0
sVin
p2853
F1.0
sg14
F1.0
sVsame
p2854
F1.0
sValso
p2855
F1.0
sVconstruction
p2856
F1.0
sVquestions
p2857
F1.0
sVarise
p2858
F1.0
sVthe
p2859
F2.0
sVT-FLOAT
p2860
F1.0
saa(lp2861
S'P05-100499'
p2862
a(dp2863
Vpractice
p2864
F1.0
sVproduces
p2865
F1.0
sVmorphological
p2866
F1.0
sVresults
p2867
F1.0
sVhowever
p2868
F1.0
sVsmoothing
p2869
F1.0
sVbetter
p2870
F1.0
sVin
p2871
F1.0
sVT-FLOAT
p2872
F1.0
sVstill
p2873
F1.0
sg14
F1.0
saa(lp2874
S'P05-1004206'
p2875
a(dp2876
Vhow
p2877
F1.0
sVbecomes
p2878
F1.0
sVvectors
p2879
F1.0
sVquestion
p2880
F1.0
sVconstruct
p2881
F1.0
sVsupersenses
p2882
F1.0
sVto
p2883
F1.0
sVof
p2884
F1.0
sVthe
p2885
F1.0
sVnow
p2886
F1.0
sVT-FLOAT
p2887
F1.0
saa(lp2888
S'P05-100494'
p2889
a(dp2890
Vbillion
p2891
F1.0
sVinformation
p2892
F1.0
sVraw
p2893
F1.0
sVsextant
p2894
F1.0
sVT-INT
p2895
F1.0
sVextraction
p2896
F1.0
sVmakes
p2897
F1.0
sVover
p2898
F1.0
sVfeasible
p2899
F1.0
sVefficiency
p2900
F1.0
sVtext
p2901
F1.0
sVwords
p2902
F1.0
sVof
p2903
F3.0
sVfrom
p2904
F1.0
sVthe
p2905
F3.0
sVapproach
p2906
F1.0
sVT-FLOAT
p2907
F1.0
sVcontextual
p2908
F1.0
saa(lp2909
S'P05-100495'
p2910
a(dp2911
Vpipeline
p2912
F1.0
sVdescribe
p2913
F1.0
sVshallow
p2914
F1.0
sVwe
p2915
F1.0
sVdetail
p2916
F1.0
sVbelow
p2917
F1.0
sVin
p2918
F1.0
sVthe
p2919
F1.0
sVT-FLOAT
p2920
F1.0
saa(lp2921
S'P05-100497'
p2922
a(dp2923
Vand
p2924
F1.0
sVoften
p2925
F1.0
sVdo
p2926
F1.0
sVis
p2927
F2.0
sVspectacle
p2928
F1.0
sVsense
p2929
F1.0
sVfails
p2930
F1.0
sVspectacles
p2931
F1.0
sVfor
p2932
F1.0
sVto
p2933
F3.0
sVdistinctions
p2934
F1.0
sg14
F1.0
sVinstance
p2935
F1.0
sVother
p2936
F1.0
sVbetween
p2937
F1.0
sg17
F1.0
sg18
F2.0
sVplural
p2938
F1.0
sVmorpha
p2939
F1.0
sVsingular
p2940
F1.0
sVmaintains
p2941
F1.0
sVbut
p2942
F1.0
sVglass
p2943
F1.0
sVnouns
p2944
F1.0
sVnot
p2945
F1.0
sVcases
p2946
F1.0
sVin
p2947
F1.0
sVconverted
p2948
F1.0
sVso
p2949
F1.0
sVT-FLOAT
p2950
F1.0
sVreduced
p2951
F1.0
sVglasses
p2952
F1.0
saa(lp2953
S'P05-100490'
p2954
a(dp2955
Vand
p2956
F1.0
sVcompare
p2957
F1.0
sVused
p2958
F1.0
sVkey
p2959
F1.0
sVparameters
p2960
F1.0
sVsimilarity
p2961
F1.0
sVT-FLOAT
p2962
F1.0
sVvectors
p2963
F1.0
sVextraction
p2964
F1.0
sVare
p2965
F1.0
sVcontext
p2966
F2.0
sVmeasure
p2967
F1.0
sVthe
p2968
F3.0
sVmethod
p2969
F1.0
sVto
p2970
F1.0
saa(lp2971
S'P05-100491'
p2972
a(dp2973
Von
p2974
F1.0
sVbased
p2975
F1.0
sVsimilarity
p2976
F1.0
sVis
p2977
F1.0
sVin
p2978
F1.0
sVvector-space
p2979
F1.0
sVsextant
p2980
F1.0
sVsystem
p2981
F1.0
sVgrefenstette
p2982
F1.0
sVto
p2983
F1.0
sVdescribed
p2984
F1.0
sVour
p2985
F1.0
sVthe
p2986
F1.0
sVapproach
p2987
F1.0
sVT-FLOAT
p2988
F1.0
saa(lp2989
S'P05-100492'
p2990
a(dp2991
Vand
p2992
F4.0
sVmethods
p2993
F1.0
sVcurran
p2994
F1.0
sVresults
p2995
F1.0
sVproduced
p2996
F1.0
sVrelation
p2997
F1.0
sVin
p2998
F1.0
sVmoens
p2999
F1.0
sVcompared
p3000
F1.0
sVextraction
p3001
F2.0
sVfast
p3002
F1.0
sVgrammatical
p3003
F1.0
sVseveral
p3004
F1.0
sVwas
p3005
F1.0
sVused
p3006
F1.0
sVthat
p3007
F1.0
sVshallow
p3008
F1.0
sVhigh-quality
p3009
F1.0
sVextremely
p3010
F1.0
sVT-FLOAT
p3011
F1.0
sVboth
p3012
F1.0
sVpipeline
p3013
F1.0
sVsextant
p3014
F1.0
sVcontext
p3015
F1.0
sVfound
p3016
F1.0
sVthe
p3017
F1.0
saa(lp3018
S'P05-100493'
p3019
a(dp3020
Vand
p3021
F1.0
sVis
p3022
F3.0
sVnoun
p3023
F1.0
sVrelation
p3024
F2.0
sVfor
p3025
F1.0
sg12
F1.0
sg13
F1.0
sg14
F4.0
sVtuples
p3026
F1.0
sVother
p3027
F1.0
sVtype
p3028
F1.0
sVwt
p3029
F2.0
sVword
p3030
F1.0
sVthe
p3031
F3.0
sVsextant
p3032
F1.0
sVextracts
p3033
F1.0
sVheadword
p3034
F1.0
sg1089
F2.0
sg1091
F2.0
sVeach
p3035
F1.0
sVT-FLOAT
p3036
F1.0
sVwhere
p3037
F1.0
saa(lp3038
S'P05-1004163'
p3039
a(dp3040
Vranking
p3041
F1.0
sVuse
p3042
F1.0
sValternatively
p3043
F1.0
sg14
F1.0
sVextracted
p3044
F1.0
sVsynonyms
p3045
F1.0
sVweights
p3046
F1.0
sVcan
p3047
F1.0
sVof
p3048
F1.0
sVthe
p3049
F3.0
sVT-FLOAT
p3050
F1.0
saa(lp3051
S'P05-1004162'
p3052
a(dp3053
Vuse
p3054
F1.0
sVreturned
p3055
F1.0
sVsimilarity
p3056
F1.0
sVT-FLOAT
p3057
F1.0
sVis
p3058
F1.0
sVsystem
p3059
F1.0
sVto
p3060
F1.0
sVanother
p3061
F1.0
sVscores
p3062
F1.0
sVthe
p3063
F2.0
sVapproach
p3064
F1.0
sVby
p3065
F1.0
saa(lp3066
S'P05-1004161'
p3067
a(dp3068
Vbe
p3069
F1.0
sVsynonym
p3070
F1.0
sVweight
p3071
F1.0
sVwould
p3072
F1.0
sVgive
p3073
F1.0
sVeach
p3074
F1.0
sVsame
p3075
F1.0
sVto
p3076
F1.0
sVsimplest
p3077
F1.0
sVthe
p3078
F2.0
sVapproach
p3079
F1.0
sVT-FLOAT
p3080
F1.0
saa(lp3081
S'P05-1004167'
p3082
a(dp3083
Vweight
p3084
F1.0
sVis
p3085
F1.0
sVit
p3086
F1.0
sVresnik
p3087
F1.0
sVthat
p3088
F1.0
sVdistributed
p3089
F1.0
sVsupersenses
p3090
F1.0
sVextracted
p3091
F1.0
sVdoes
p3092
F1.0
sVbetween
p3093
F1.0
sV?
p3094
F1.0
sVget
p3095
F1.0
sVevery
p3096
F1.0
sVsupersense
p3097
F1.0
sVsynonym
p3098
F2.0
sVlike
p3099
F1.0
sVof
p3100
F2.0
sVeach
p3101
F1.0
sVthe
p3102
F2.0
sVwhole
p3103
F1.0
sVor
p3104
F1.0
sVevenly
p3105
F1.0
saa(lp3106
S'P05-1004166'
p3107
a(dp3108
Vdeal
p3109
F1.0
sVto
p3110
F1.0
sVwith
p3111
F1.0
sVis
p3112
F1.0
sVpolysemy
p3113
F1.0
sVhow
p3114
F1.0
sVT-FLOAT
p3115
F1.0
sVthe
p3116
F1.0
sVissue
p3117
F1.0
sVfinal
p3118
F1.0
saa(lp3119
S'P05-1004165'
p3120
a(dp3121
Vand
p3122
F1.0
sVall
p3123
F1.0
sVis
p3124
F1.0
sVrelated
p3125
F1.0
sVsynonyms
p3126
F2.0
sVout
p3127
F1.0
sVinformation
p3128
F1.0
sVuse
p3129
F1.0
sVfor
p3130
F1.0
sVto
p3131
F1.0
sVperhaps
p3132
F1.0
sVquestion
p3133
F1.0
sg14
F2.0
sVbeen
p3134
F1.0
sVextracted
p3135
F2.0
sVwhich
p3136
F1.0
sVhas
p3137
F1.0
sVmight
p3138
F1.0
sVbe
p3139
F1.0
sVunreliable
p3140
F1.0
sVT-FLOAT
p3141
F1.0
sVcontextual
p3142
F1.0
sg28
F2.0
sVwhether
p3143
F1.0
sVof
p3144
F2.0
sVfilter
p3145
F1.0
sVamount
p3146
F1.0
sVso
p3147
F1.0
sVsmall
p3148
F1.0
sVthe
p3149
F1.0
sVor
p3150
F1.0
saa(lp3151
S'P05-1004164'
p3152
a(dp3153
Vagain
p3154
F1.0
sVthese
p3155
F1.0
sVbeen
p3156
F1.0
sVconsidered
p3157
F1.0
sVbelow
p3158
F1.0
sVhave
p3159
F1.0
sVT-FLOAT
p3160
F1.0
sVoptions
p3161
F1.0
saa(lp3162
S'P05-1004169'
p3163
a(dp3164
Vsimilarity
p3165
F2.0
sVne
p3166
F1.0
sVis
p3167
F1.0
sVsupersense
p3168
F1.0
sVit
p3169
F1.0
sVan
p3170
F2.0
sVult
p3171
F1.0
sVwant
p3172
F1.0
sVin
p3173
F1.0
sVtable
p3174
F1.0
sVsummary
p3175
F1.0
sVcalculate
p3176
F1.0
sVeli
p3177
F1.0
sg771
F6.0
sVmil
p3178
F1.0
sVT-INT
p3179
F18.0
sVunknown
p3180
F1.0
sVnso
p3181
F2.0
sVwhen
p3182
F1.0
sg14
F3.0
sVper
p3183
F1.0
sVsupersenses
p3184
F1.0
sVextraction
p3185
F1.0
sVcompares
p3186
F1.0
sVra
p3187
F2.0
sVwhich
p3188
F1.0
sVed
p3189
F1.0
sVsi
p3190
F1.0
sg18
F1.0
sVapproach
p3191
F1.0
sVmit
p3192
F2.0
sVarit
p3193
F1.0
sVwe
p3194
F1.0
sVfull
p3195
F1.0
sVto
p3196
F2.0
sVthat
p3197
F1.0
sVnumber
p3198
F2.0
sVsmall
p3199
F1.0
sVaccuracies
p3200
F1.0
sVwords
p3201
F1.0
sVcep
p3202
F1.0
sVjoh
p3203
F2.0
sVword
p3204
F1.0
sVT-FLOAT
p3205
F4.0
sVtagging
p3206
F1.0
sVdisadvantage
p3207
F1.0
sg28
F5.0
sVcia
p3208
F2.0
sVsynonym
p3209
F1.0
sg1933
F2.0
sVtro
p3210
F1.0
sVthis
p3211
F1.0
sVof
p3212
F4.0
sVm
p3213
F1.0
sVagainst
p3214
F1.0
sg1981
F5.0
sVlarge
p3215
F1.0
sg1960
F3.0
sg1941
F1.0
sg1091
F2.0
sVres
p3216
F1.0
sVy
p3217
F2.0
sVthe
p3218
F2.0
sVrequires
p3219
F1.0
sg1581
F1.0
sVfact
p3220
F1.0
sVbas
p3221
F2.0
saa(lp3222
S'P05-1004168'
p3223
a(dp3224
Vunambiguous
p3225
F1.0
sg28
F1.0
sVconsider
p3226
F1.0
sVis
p3227
F1.0
sVin
p3228
F1.0
sVsynonyms
p3229
F1.0
sVto
p3230
F1.0
sVonly
p3231
F1.0
sVwordnet
p3232
F1.0
sVanother
p3233
F1.0
sVsupersense
p3234
F1.0
sValternative
p3235
F1.0
sVwith
p3236
F1.0
sVT-FLOAT
p3237
F1.0
sVsingle
p3238
F1.0
saa(lp3239
S'P05-1004198'
p3240
a(dp3241
Vand
p3242
F1.0
sVthis
p3243
F1.0
sVis
p3244
F1.0
sVhigh
p3245
F1.0
sVfrequency
p3246
F1.0
sVhave
p3247
F1.0
sVconstrained
p3248
F1.0
sVrelatively
p3249
F1.0
sVthese
p3250
F1.0
sVsince
p3251
F1.0
sg14
F1.0
sVtend
p3252
F1.0
sVto
p3253
F1.0
sVother
p3254
F1.0
sVsenses
p3255
F1.0
sVvery
p3256
F1.0
sVwords
p3257
F1.0
sVnot
p3258
F1.0
sg28
F1.0
sVsurprising
p3259
F1.0
sVcontexts
p3260
F1.0
sVwell
p3261
F1.0
sVfewer
p3262
F1.0
sVconcrete
p3263
F1.0
sVT-FLOAT
p3264
F1.0
saa(lp3265
S'P05-1004207'
p3266
a(dp3267
Vwords
p3268
F1.0
sVto
p3269
F1.0
sVT-FLOAT
p3270
F1.0
sVis
p3271
F1.0
sVvectors
p3272
F1.0
sVsolution
p3273
F1.0
sVacross
p3274
F1.0
sVeach
p3275
F1.0
sVmost
p3276
F1.0
sVhave
p3277
F1.0
sVobvious
p3278
F1.0
sVcontext
p3279
F1.0
sVwhich
p3280
F1.0
sVsupersense
p3281
F1.0
sVthe
p3282
F3.0
sVsum
p3283
F1.0
saa(lp3284
S'P05-1004215'
p3285
a(dp3286
Vand
p3287
F1.0
sVused
p3288
F1.0
sVfor
p3289
F1.0
sVefficiency
p3290
F1.0
sVcontexts
p3291
F1.0
sVof
p3292
F1.0
sVT-FLOAT
p3293
F1.0
sVsimilarity
p3294
F1.0
sVcomparisons
p3295
F1.0
sVheadword
p3296
F1.0
sVto
p3297
F1.0
sVare
p3298
F1.0
sVkey
p3299
F1.0
sVeach
p3300
F1.0
sVattributes
p3301
F1.0
sVthe
p3302
F3.0
sVimprove
p3303
F1.0
sVsummarise
p3304
F1.0
sVcanonical
p3305
F1.0
saa(lp3306
S'P05-1004214'
p3307
a(dp3308
Vand
p3309
F1.0
sVrepresent
p3310
F1.0
sVset
p3311
F1.0
sVconsider
p3312
F1.0
sVcurran
p3313
F1.0
sVmoens
p3314
F1.0
sVcanonical
p3315
F1.0
sVwould
p3316
F1.0
sVto
p3317
F2.0
sg12
F1.0
sg13
F1.0
sg14
F1.0
sVT-INT
p3318
F1.0
sVfinal
p3319
F1.0
sVbe
p3320
F1.0
sVsupersense
p3321
F1.0
sVT-FLOAT
p3322
F1.0
sg28
F3.0
sVof
p3323
F1.0
sVsolution
p3324
F1.0
sVlarge
p3325
F1.0
sVeach
p3326
F1.0
sVattributes
p3327
F1.0
sVthe
p3328
F1.0
saa(lp3329
S'P05-100483'
p3330
a(dp3331
g28
F1.0
sVac
p3332
F1.0
sVqu
p3333
F1.0
sg2005
F1.0
sg3213
F2.0
sg1981
F1.0
sVT-INT
p3334
F11.0
sg1941
F1.0
sVT-FLOAT
p3335
F1.0
saa(lp3336
S'P05-100482'
p3337
a(dp3338
Vna
p3339
F1.0
sg3213
F2.0
sg1981
F1.0
sVT-INT
p3340
F12.0
sg1960
F1.0
sg1941
F1.0
sVT-FLOAT
p3341
F1.0
saa(lp3342
S'P05-100481'
p3343
a(dp3344
g1956
F6.0
sVb
p3345
F1.0
sg1581
F1.0
sg1933
F2.0
sVT-INT
p3346
F40.0
sVwo
p3347
F1.0
sV-i
p3348
F1.0
sg3213
F6.0
sg1959
F2.0
sg1981
F3.0
sg1939
F1.0
sg1960
F6.0
sg1089
F4.0
sVu
p3349
F1.0
sg1941
F2.0
sVv
p3350
F1.0
sVna
p3351
F1.0
sVT-FLOAT
p3352
F6.0
sg2005
F2.0
saa(lp3353
S'P05-100480'
p3354
a(dp3355
Vldc
p3356
F1.0
sVgigaword
p3357
F1.0
sVrecently
p3358
F1.0
sVabove
p3359
F1.0
sVmost
p3360
F1.0
sVof
p3361
F1.0
sVT-FLOAT
p3362
F1.0
sVcorpora
p3363
F1.0
sVincludes
p3364
F1.0
sVreleased
p3365
F1.0
sVlisted
p3366
F1.0
sVwhich
p3367
F1.0
sVenglish
p3368
F1.0
sVthe
p3369
F3.0
sVhas
p3370
F1.0
sVcorpus
p3371
F1.0
saa(lp3372
S'P05-100487'
p3373
a(dp3374
Von
p3375
F1.0
sVbased
p3376
F1.0
sVappear
p3377
F1.0
sVsimilarity
p3378
F2.0
sVmodels
p3379
F1.0
sVof
p3380
F1.0
sVdistributional
p3381
F1.0
sVvector-space
p3382
F1.0
sVcontexts
p3383
F1.0
sVthat
p3384
F1.0
sVhypothesis
p3385
F1.0
sVare
p3386
F1.0
sVwords
p3387
F1.0
sVin
p3388
F1.0
sVthe
p3389
F1.0
sVsimilar
p3390
F2.0
sVT-FLOAT
p3391
F1.0
saa(lp3392
S'P05-100486'
p3393
a(dp3394
Vpipeline
p3395
F1.0
sVdescribed
p3396
F1.0
sVof
p3397
F1.0
sVis
p3398
F1.0
sVrest
p3399
F1.0
sVnext
p3400
F1.0
sVT-FLOAT
p3401
F1.0
sVin
p3402
F1.0
sVthe
p3403
F3.0
sVsection
p3404
F1.0
saa(lp3405
S'P05-100485'
p3406
a(dp3407
Vcontaining
p3408
F1.0
sVor
p3409
F2.0
sVto
p3410
F1.0
sVbrackets
p3411
F1.0
sVless
p3412
F1.0
sVnumbers
p3413
F1.0
sVT-FLOAT
p3414
F1.0
sVwere
p3415
F1.0
sVreduce
p3416
F1.0
sg14
F2.0
sVlong
p3417
F1.0
sVthan
p3418
F4.0
sVT-INT
p3419
F4.0
sVnoise
p3420
F1.0
sVrejected
p3421
F1.0
sVwords
p3422
F2.0
sVsentences
p3423
F2.0
sValong
p3424
F1.0
sVwith
p3425
F1.0
sVany
p3426
F1.0
sVmore
p3427
F3.0
saa(lp3428
S'P05-100484'
p3429
a(dp3430
Vand
p3431
F2.0
sVtokenizer
p3432
F1.0
sVtext
p3433
F1.0
sg14
F2.0
sVtokenized
p3434
F1.0
sVhave
p3435
F1.0
sVsentences
p3436
F1.0
sVtable
p3437
F1.0
sVmorton
p3438
F1.0
sVstatistics
p3439
F1.0
sVratnaparkhi
p3440
F1.0
sg12
F2.0
sg13
F2.0
sVopennlp
p3441
F1.0
sVT-INT
p3442
F8.0
sVsplit
p3443
F1.0
sVcorpus
p3444
F1.0
sg18
F1.0
sVgrok
p3445
F1.0
sVwe
p3446
F1.0
sVreynar
p3447
F1.0
sVusing
p3448
F2.0
sVT-FLOAT
p3449
F1.0
sVbillion
p3450
F1.0
sVword
p3451
F1.0
sg3213
F2.0
sVmxterminator
p3452
F1.0
sVthe
p3453
F3.0
saa(lp3454
S'P05-1004211'
p3455
a(dp3456
Vunambiguous
p3457
F1.0
sVvectors
p3458
F1.0
sVfor
p3459
F1.0
sVthat
p3460
F1.0
sVproduces
p3461
F1.0
sVsuggest
p3462
F1.0
sVcombining
p3463
F1.0
sVresults
p3464
F1.0
sVonly
p3465
F1.0
sVexperiments
p3466
F1.0
sVwords
p3467
F1.0
sVpreliminary
p3468
F1.0
sVour
p3469
F1.0
sVthe
p3470
F2.0
sVT-FLOAT
p3471
F1.0
sVbest
p3472
F1.0
saa(lp3473
S'P05-100489'
p3474
a(dp3475
g28
F1.0
sVthe
p3476
F1.0
sVthat
p3477
F1.0
sVmodels
p3478
F1.0
sVof
p3479
F1.0
sVis
p3480
F1.0
sVin
p3481
F2.0
sVvector-space
p3482
F1.0
sVcounts
p3483
F1.0
sVit
p3484
F1.0
sVrecording
p3485
F1.0
sVcontexts
p3486
F1.0
sVappears
p3487
F1.0
sVvector
p3488
F1.0
sVfrequency
p3489
F1.0
sVT-FLOAT
p3490
F1.0
sVeach
p3491
F1.0
sVrepresented
p3492
F1.0
sVheadword
p3493
F1.0
sVby
p3494
F1.0
saa(lp3495
S'P05-100488'
p3496
a(dp3497
Vbe
p3498
F1.0
sVsemantic
p3499
F1.0
sVin
p3500
F1.0
sVsimilarity
p3501
F1.0
sVthis
p3502
F1.0
sVT-FLOAT
p3503
F1.0
sVthat
p3504
F1.0
sVcomparing
p3505
F1.0
sVappears
p3506
F1.0
sVsuggests
p3507
F1.0
sVcontexts
p3508
F1.0
sVhypothesis
p3509
F1.0
sVcan
p3510
F1.0
sVeach
p3511
F1.0
sVword
p3512
F1.0
sVthe
p3513
F1.0
sVmeasured
p3514
F1.0
sVby
p3515
F1.0
saa(lp3516
S'P05-1004210'
p3517
a(dp3518
Vmultiple
p3519
F1.0
sVhandled
p3520
F1.0
sVsupersenses
p3521
F1.0
sVhow
p3522
F1.0
sVare
p3523
F1.0
sVwords
p3524
F1.0
sVwith
p3525
F1.0
sg3094
F1.0
saa(lp3526
S'P05-1004170'
p3527
a(dp3528
Veven
p3529
F1.0
sVbe
p3530
F1.0
sVwe
p3531
F1.0
sVstill
p3532
F1.0
sVsignificantly
p3533
F1.0
sVthis
p3534
F2.0
sVcould
p3535
F1.0
sg14
F1.0
sVbut
p3536
F1.0
sVhigh
p3537
F1.0
sVvery
p3538
F1.0
sVonly
p3539
F1.0
sVfrequency
p3540
F1.0
sVexpensive
p3541
F1.0
sVwords
p3542
F1.0
sVT-FLOAT
p3543
F1.0
sVis
p3544
F1.0
sVconsider
p3545
F1.0
sVreduced
p3546
F1.0
sVinefficiency
p3547
F1.0
sVif
p3548
F1.0
saa(lp3549
S'P05-1004171'
p3550
a(dp3551
Vand
p3552
F2.0
sVset
p3553
F2.0
sVresults
p3554
F1.0
sVas
p3555
F1.0
sVhave
p3556
F2.0
sVwordnet
p3557
F2.0
sVdifferent
p3558
F1.0
sVT-INT
p3559
F5.0
sVto
p3560
F1.0
sVexperiment
p3561
F1.0
sVbest
p3562
F1.0
sVtest
p3563
F2.0
sVparameter
p3564
F1.0
sVfinal
p3565
F1.0
sVwe
p3566
F1.0
sVused
p3567
F1.0
sVwith
p3568
F2.0
sVT-FLOAT
p3569
F4.0
sg28
F1.0
sVcomparison
p3570
F1.0
sVkept
p3571
F1.0
sVjohnson
p3572
F1.0
sVsettings
p3573
F1.0
sVof
p3574
F1.0
sVthe
p3575
F2.0
sVciaramita
p3576
F1.0
saa(lp3577
S'P05-1004172'
p3578
a(dp3579
Vconsidering
p3580
F1.0
sVall
p3581
F1.0
sVdescribed
p3582
F1.0
sVparameters
p3583
F1.0
sVof
p3584
F1.0
sVpossible
p3585
F1.0
sVT-FLOAT
p3586
F1.0
sVexperiments
p3587
F1.0
sVperformed
p3588
F1.0
sVabove
p3589
F1.0
sVwere
p3590
F1.0
sVthe
p3591
F2.0
sVby
p3592
F1.0
sVconfigurations
p3593
F1.0
saa(lp3594
S'P05-1004173'
p3595
a(dp3596
Vconstant
p3597
F1.0
sVweight
p3598
F1.0
sVsimilarity
p3599
F1.0
sVfor
p3600
F2.0
sVinitial
p3601
F1.0
sVextracted
p3602
F1.0
sVscore
p3603
F1.0
sg18
F1.0
sVbe
p3604
F1.0
sVwere
p3605
F1.0
sVsupersense
p3606
F2.0
sVT-FLOAT
p3607
F1.0
sg28
F2.0
sVsynonym
p3608
F2.0
sVconsidered
p3609
F1.0
sVof
p3610
F2.0
sVcould
p3611
F1.0
sVoptions
p3612
F1.0
sVeither
p3613
F1.0
sVeach
p3614
F2.0
sVfollowing
p3615
F1.0
sVthe
p3616
F4.0
sVvoting
p3617
F2.0
sVor
p3618
F1.0
saa(lp3619
S'P05-1004174'
p3620
a(dp3621
Vthen
p3622
F1.0
sVweight
p3623
F2.0
sVbe
p3624
F1.0
sVof
p3625
F1.0
sVcould
p3626
F1.0
sVinitial
p3627
F1.0
sVshare
p3628
F1.0
sVnumber
p3629
F1.0
sVby
p3630
F1.0
sVto
p3631
F1.0
sVT-FLOAT
p3632
F1.0
sVthe
p3633
F3.0
sVsupersenses
p3634
F1.0
sVdivided
p3635
F1.0
sVout
p3636
F1.0
saa(lp3637
S'P05-1004175'
p3638
a(dp3639
Vbe
p3640
F1.0
sVweight
p3641
F1.0
sVto
p3642
F1.0
sVT-FLOAT
p3643
F1.0
sVdivided
p3644
F1.0
sVlist
p3645
F1.0
sVrank
p3646
F1.0
sVby
p3647
F1.0
sVdown
p3648
F1.0
sValso
p3649
F1.0
sVfurther
p3650
F1.0
sVthe
p3651
F3.0
sVsupersenses
p3652
F1.0
sVcould
p3653
F1.0
sVpenalise
p3654
F1.0
saa(lp3655
S'P05-1004176'
p3656
a(dp3657
Von
p3658
F1.0
sVset
p3659
F1.0
sVranking
p3660
F1.0
sVachieved
p3661
F1.0
sVwith
p3662
F1.0
sVsharing
p3663
F1.0
sVor
p3664
F1.0
sg14
F1.0
sVwithout
p3665
F1.0
sVT-INT
p3666
F2.0
sVscore
p3667
F1.0
sVpenalties
p3668
F1.0
sVtest
p3669
F1.0
sVperformance
p3670
F1.0
sVthe
p3671
F3.0
sVvoting
p3672
F1.0
sVwas
p3673
F1.0
sVT-FLOAT
p3674
F2.0
sVbest
p3675
F1.0
saa(lp3676
S'P05-1004177'
p3677
a(dp3678
Vto
p3679
F1.0
sVT-FLOAT
p3680
F1.0
sVcontributing
p3681
F1.0
sVextracted
p3682
F1.0
sVsynonyms
p3683
F1.0
sVare
p3684
F1.0
sVsupersense
p3685
F1.0
sVvote
p3686
F1.0
sVfiltered
p3687
F1.0
sVthe
p3688
F2.0
sVwith
p3689
F1.0
sVtheir
p3690
F1.0
sVbefore
p3691
F1.0
saa(lp3692
S'P05-1004199'
p3693
a(dp3694
Vfor
p3695
F1.0
sVfactors
p3696
F1.0
sVthese
p3697
F1.0
sVreliable
p3698
F1.0
sVsynonyms
p3699
F1.0
sVare
p3700
F1.0
sVT-FLOAT
p3701
F1.0
sVconducive
p3702
F1.0
sVextracting
p3703
F1.0
saa(lp3704
S'P05-1004229'
p3705
a(dp3706
Vand
p3707
F1.0
sVwe
p3708
F1.0
sVsignificantly
p3709
F1.0
sVjohnson
p3710
F1.0
sVthis
p3711
F1.0
sVperceptron
p3712
F1.0
sVoutperformed
p3713
F1.0
sVsupervised
p3714
F1.0
sVciaramita
p3715
F1.0
sVhave
p3716
F1.0
sVusing
p3717
F1.0
sVthe
p3718
F1.0
sVmulti-class
p3719
F1.0
sVapproach
p3720
F1.0
sVT-FLOAT
p3721
F1.0
saa(lp3722
S'P05-1004194'
p3723
a(dp3724
Vbreakdown
p3725
F1.0
sVfor
p3726
F1.0
sVperformance
p3727
F1.0
sVeach
p3728
F1.0
sVT-INT
p3729
F1.0
sVin
p3730
F1.0
sVsupersense
p3731
F1.0
sVtable
p3732
F1.0
sVthe
p3733
F1.0
sVT-FLOAT
p3734
F1.0
sVshows
p3735
F1.0
saa(lp3736
S'P05-1004195'
p3737
a(dp3738
Vand
p3739
F1.0
sVmeasures
p3740
F1.0
sVpercentages
p3741
F1.0
sVshow
p3742
F1.0
sVf-score
p3743
F1.0
sVof
p3744
F2.0
sVsupersense
p3745
F1.0
sVnumber
p3746
F1.0
sVprecision
p3747
F1.0
sVinstances
p3748
F1.0
sVas
p3749
F1.0
sVT-FLOAT
p3750
F1.0
sVeach
p3751
F1.0
sVthe
p3752
F3.0
sVwith
p3753
F1.0
sg14
F1.0
sVcolumns
p3754
F1.0
sVrecall
p3755
F1.0
saa(lp3756
S'P05-1004223'
p3757
a(dp3758
Vand
p3759
F1.0
sVcompare
p3760
F1.0
sVsemantic
p3761
F1.0
sVhierarchy
p3762
F1.0
sVinto
p3763
F1.0
sVmove
p3764
F1.0
sVwiddows
p3765
F1.0
sVitself
p3766
F1.0
sVanalysis
p3767
F1.0
sVinsertion
p3768
F1.0
sVT-FLOAT
p3769
F1.0
sVlatent
p3770
F1.0
sVwould
p3771
F1.0
sVinitial
p3772
F1.0
sVto
p3773
F1.0
sVdifficult
p3774
F1.0
sVwe
p3775
F1.0
sVusing
p3776
F1.0
sVby
p3777
F1.0
sVtask
p3778
F1.0
sVlike
p3779
F1.0
sVof
p3780
F1.0
sVwork
p3781
F1.0
sVagainst
p3782
F1.0
sVthe
p3783
F3.0
sVmore
p3784
F1.0
sVonto
p3785
F1.0
saa(lp3786
S'P05-1004219'
p3787
a(dp3788
Vwe
p3789
F1.0
sVlast
p3790
F1.0
sVthis
p3791
F1.0
sVof
p3792
F1.0
sVmulti-word
p3793
F1.0
sVT-FLOAT
p3794
F1.0
sVsynonyms
p3795
F1.0
sVterm
p3796
F1.0
sVword
p3797
F1.0
sVin
p3798
F1.0
sVusing
p3799
F1.0
sVthe
p3800
F3.0
sVby
p3801
F1.0
sVovercome
p3802
F1.0
saa(lp3803
S'P05-1004218'
p3804
a(dp3805
Vincorporate
p3806
F1.0
sVmulti-word
p3807
F1.0
sVterms
p3808
F1.0
sVsimilarity
p3809
F1.0
sVcurrently
p3810
F1.0
sVsystem
p3811
F1.0
sg14
F1.0
sVdoes
p3812
F1.0
sVour
p3813
F1.0
sVnot
p3814
F1.0
sVfurther
p3815
F1.0
sVT-FLOAT
p3816
F1.0
saa(lp3817
S'P05-1004145'
p3818
a(dp3819
Vand
p3820
F1.0
sg28
F1.0
sVsextant
p3821
F1.0
sVnn
p3822
F1.0
sVnoun-modifier
p3823
F1.0
sVbroad
p3824
F1.0
sVinto
p3825
F1.0
sg14
F2.0
sVrelations
p3826
F1.0
sVgrammatical
p3827
F1.0
sVfinally
p3828
F1.0
sVnnprep
p3829
F1.0
sVrelation
p3830
F1.0
sVtogether
p3831
F1.0
sVT-FLOAT
p3832
F1.0
sVthe
p3833
F1.0
sVadj
p3834
F1.0
sVcollapses
p3835
F1.0
sVsingle
p3836
F1.0
saa(lp3837
S'P05-1004144'
p3838
a(dp3839
g28
F1.0
sVand
p3840
F3.0
sVto
p3841
F1.0
sVobjects
p3842
F1.0
sVpasses
p3843
F1.0
sVT-FLOAT
p3844
F1.0
sVis
p3845
F1.0
sVit
p3846
F1.0
sg14
F1.0
sVT-INT
p3847
F2.0
sVrepeated
p3848
F1.0
sVverb
p3849
F1.0
sVare
p3850
F1.0
sVsubjects
p3851
F1.0
sVattach
p3852
F1.0
sVotherwise
p3853
F1.0
saa(lp3854
S'P05-1004147'
p3855
a(dp3856
g28
F1.0
sVunknown
p3857
F1.0
sVfor
p3858
F1.0
sVto
p3859
F1.0
sVof
p3860
F1.0
sVT-FLOAT
p3861
F1.0
sg14
F1.0
sVsupersenses
p3862
F1.0
sVextracted
p3863
F1.0
sVsynonyms
p3864
F1.0
sVuses
p3865
F1.0
sVselect
p3866
F1.0
sVnouns
p3867
F1.0
sVsupersense
p3868
F1.0
sVknown
p3869
F1.0
sVour
p3870
F1.0
sVthe
p3871
F2.0
sVvoting
p3872
F1.0
sVapproach
p3873
F1.0
sVacross
p3874
F1.0
sVautomatically
p3875
F1.0
saa(lp3876
S'P05-1004146'
p3877
a(dp3878
g28
F1.0
sVextractor
p3879
F1.0
sg771
F1.0
sVmanu
p3880
F1.0
sVT-INT
p3881
F2.0
sVthis
p3882
F1.0
sVof
p3883
F1.0
sVafter
p3884
F1.0
sVgrefenstette
p3885
F1.0
sVgrammatical
p3886
F1.0
sVchecking
p3887
F1.0
sVrelation
p3888
F1.0
sVsentences
p3889
F1.0
sVclaims
p3890
F1.0
sVT-FLOAT
p3891
F1.0
sVhas
p3892
F1.0
sVally
p3893
F1.0
sVaccuracy
p3894
F1.0
saa(lp3895
S'P05-1004141'
p3896
a(dp3897
Vand
p3898
F1.0
sValready
p3899
F1.0
sVobjects
p3900
F1.0
sVprocess
p3901
F1.0
sVis
p3902
F1.0
sVparticiples
p3903
F1.0
sVare
p3904
F1.0
sVpass
p3905
F1.0
sVT-FLOAT
p3906
F1.0
sVconcern
p3907
F1.0
sVverbs
p3908
F1.0
sVfor
p3909
F1.0
sVto
p3910
F2.0
sg12
F1.0
sg13
F1.0
sVattach
p3911
F1.0
sVsubjects
p3912
F1.0
sg18
F1.0
sVfinal
p3913
F1.0
sVstep
p3914
F1.0
sVverb
p3915
F1.0
sVthey
p3916
F1.0
sVT-INT
p3917
F1.0
sVprogressive
p3918
F2.0
sVwhether
p3919
F1.0
sVof
p3920
F1.0
sVattached
p3921
F1.0
sVwithout
p3922
F1.0
sVthe
p3923
F2.0
saa(lp3924
S'P05-1004140'
p3925
a(dp3926
Vpp
p3927
F1.0
sVsextant
p3928
F1.0
sValways
p3929
F1.0
sVhowever
p3930
F1.0
sg14
F1.0
sVto
p3931
F1.0
sVphrase
p3932
F1.0
sVthe
p3933
F2.0
sVattaches
p3934
F1.0
sVT-FLOAT
p3935
F1.0
sVprevious
p3936
F1.0
saa(lp3937
S'P05-1004143'
p3938
a(dp3939
g28
F2.0
sVor
p3940
F1.0
sVnoun
p3941
F1.0
sVdeterminer
p3942
F1.0
sVprogressive
p3943
F1.0
sVconsidered
p3944
F1.0
sVis
p3945
F1.0
sVafter
p3946
F1.0
sVany
p3947
F1.0
sVT-FLOAT
p3948
F1.0
sVverb
p3949
F1.0
sVwhich
p3950
F1.0
sVquantifier
p3951
F1.0
sVappears
p3952
F1.0
saa(lp3953
S'P05-1004149'
p3954
a(dp3955
Vsynonyms
p3956
F1.0
sVat
p3957
F1.0
sVin
p3958
F1.0
sVour
p3959
F1.0
sVextract
p3960
F1.0
sVinformation
p3961
F1.0
sVappear
p3962
F2.0
sVT-INT
p3963
F1.0
sVprovide
p3964
F1.0
sVunknown
p3965
F1.0
sg14
F2.0
sVleast
p3966
F1.0
sVto
p3967
F2.0
sVenough
p3968
F1.0
sVdoes
p3969
F2.0
sVcorpus
p3970
F1.0
sVword
p3971
F1.0
sVsufficient
p3972
F1.0
sVhowever
p3973
F1.0
sVnot
p3974
F2.0
sVfrequently
p3975
F1.0
sVT-FLOAT
p3976
F1.0
sVcontextual
p3977
F1.0
sVbillion
p3978
F1.0
sVnoun
p3979
F1.0
sVreliable
p3980
F1.0
sVsometimes
p3981
F1.0
sVthe
p3982
F1.0
sVor
p3983
F1.0
saa(lp3984
S'P05-1004220'
p3985
a(dp3986
Vset
p3987
F1.0
sVsynonyms
p3988
F1.0
sVtag
p3989
F1.0
sVare
p3990
F1.0
sVin
p3991
F1.0
sVwordnet
p3992
F1.0
sg771
F1.0
sVfor
p3993
F1.0
sg12
F1.0
sg13
F1.0
sVthere
p3994
F1.0
sg14
F1.0
sVT-INT
p3995
F5.0
sVwhich
p3996
F1.0
sVtest
p3997
F1.0
sVprobably
p3998
F1.0
sVmore
p3999
F1.0
sVwe
p4000
F1.0
sVterms
p4001
F1.0
sVhowever
p4002
F1.0
sVaccurately
p4003
F1.0
sVterm
p4004
F1.0
sVwith
p4005
F1.0
sVT-FLOAT
p4006
F3.0
sVmulti-word
p4007
F2.0
sVcould
p4008
F1.0
sVthe
p4009
F2.0
sVwhole
p4010
F1.0
saa(lp4011
S'P05-1004221'
p4012
a(dp4013
Vthe
p4014
F2.0
sVset
p4015
F1.0
sVan
p4016
F1.0
sVT-FLOAT
p4017
F3.0
sVwordnet
p4018
F1.0
sg771
F1.0
sVto
p4019
F2.0
sVcurrently
p4020
F1.0
sVlearner
p4021
F1.0
sg14
F2.0
sVmachine
p4022
F1.0
sVT-INT
p4023
F4.0
sVfinally
p4024
F1.0
sVwhich
p4025
F1.0
sVtest
p4026
F1.0
sVhas
p4027
F1.0
sVmethod
p4028
F1.0
sVaccuracy
p4029
F1.0
sVwe
p4030
F1.0
sVplan
p4031
F1.0
sVreplace
p4032
F1.0
sVimplement
p4033
F1.0
sg28
F1.0
sVon
p4034
F1.0
sVof
p4035
F1.0
sVsupervised
p4036
F1.0
sVfallback
p4037
F1.0
saa(lp4038
S'P05-1004158'
p4039
a(dp4040
Vexhaustively
p4041
F1.0
sVwe
p4042
F1.0
sVrun
p4043
F1.0
sVparameters
p4044
F1.0
sVcombinations
p4045
F1.0
sVthese
p4046
F2.0
sVtest
p4047
F1.0
sVof
p4048
F1.0
sVable
p4049
F1.0
sg14
F1.0
sVbeen
p4050
F1.0
sVto
p4051
F2.0
sVexperiments
p4052
F1.0
sVso
p4053
F1.0
sVare
p4054
F1.0
sVhave
p4055
F1.0
sVin
p4056
F1.0
sVquick
p4057
F1.0
sVT-FLOAT
p4058
F1.0
sVmany
p4059
F1.0
sVfact
p4060
F1.0
saa(lp4061
S'P05-1004159'
p4062
a(dp4063
Vextracted
p4064
F1.0
sVwe
p4065
F1.0
sVT-INT
p4066
F1.0
sVexperimented
p4067
F1.0
sVup
p4068
F1.0
sVto
p4069
F1.0
sVsynonyms
p4070
F1.0
sVhave
p4071
F1.0
sVT-FLOAT
p4072
F1.0
sVvoting
p4073
F1.0
sVwith
p4074
F1.0
saa(lp4075
S'P05-1004152'
p4076
a(dp4077
Vguessing
p4078
F1.0
sVgiven
p4079
F1.0
sVrules
p4080
F1.0
sVin
p4081
F1.0
sVT-INT
p4082
F1.0
sVare
p4083
F1.0
sVsupersense
p4084
F1.0
sVtable
p4085
F1.0
sVthe
p4086
F1.0
sVT-FLOAT
p4087
F1.0
saa(lp4088
S'P05-1004153'
p4089
a(dp4090
Vthen
p4091
F1.0
sVnone
p4092
F1.0
sVrules
p4093
F1.0
sVof
p4094
F1.0
sVis
p4095
F1.0
sg14
F1.0
sVartifact
p4096
F1.0
sVassigned
p4097
F1.0
sVdefault
p4098
F1.0
sVsupersense
p4099
F1.0
sVthe
p4100
F2.0
sVT-FLOAT
p4101
F1.0
sVmatch
p4102
F1.0
sVif
p4103
F1.0
saa(lp4104
S'P05-1004150'
p4105
a(dp4106
V-ee
p4107
F1.0
sVguessing
p4108
F1.0
sVexamines
p4109
F1.0
sVsuffix
p4110
F2.0
sV-ity
p4111
F1.0
sVsimple
p4112
F2.0
sVattribute
p4113
F2.0
sVis
p4114
F1.0
sV-er
p4115
F1.0
sV-ics
p4116
F1.0
sVfall-back
p4117
F1.0
sVin
p4118
F1.0
sVour
p4119
F1.0
sVbowling
p4120
F1.0
sVarsine
p4121
F1.0
sV-gy
p4122
F1.0
sV-ion
p4123
F1.0
sVunknown
p4124
F1.0
sVguess
p4125
F1.0
sVbased
p4126
F1.0
sVfor
p4127
F1.0
sg18
F1.0
sg14
F11.0
sVannulment
p4128
F1.0
sVT-INT
p4129
F1.0
sVmorphological
p4130
F1.0
sVof
p4131
F1.0
sV-ane
p4132
F1.0
sVsupersenseness
p4133
F1.0
sV-or
p4134
F1.0
sVelectronics
p4135
F1.0
sV-an
p4136
F1.0
sVmethod
p4137
F1.0
sV-ism
p4138
F1.0
sVentomology
p4139
F1.0
sVwhich
p4140
F1.0
sVrules
p4141
F1.0
sVviscosity
p4142
F1.0
sVact
p4143
F2.0
sV-ment
p4144
F1.0
sV-ine
p4145
F1.0
sV-ing
p4146
F1.0
sVsubstance
p4147
F1.0
sV-tion
p4148
F1.0
sVsupersense
p4149
F1.0
sVcases
p4150
F1.0
sV-ist
p4151
F1.0
sVtable
p4152
F1.0
sVT-FLOAT
p4153
F1.0
sVhand-coded
p4154
F2.0
sg28
F2.0
sVon
p4155
F1.0
sVand
p4156
F1.0
sVstatesman
p4157
F1.0
sVnoun
p4158
F1.0
sVthese
p4159
F1.0
sVcognition
p4160
F2.0
sV-ic
p4161
F1.0
sVanalysis
p4162
F1.0
sVclassifier
p4163
F1.0
sVperson
p4164
F2.0
sVremoteness
p4165
F1.0
sV-man
p4166
F1.0
sV-ene
p4167
F1.0
sVthe
p4168
F2.0
sVmariner
p4169
F1.0
sVmakes
p4170
F1.0
sVexample
p4171
F1.0
saa(lp4172
S'P05-1004151'
p4173
a(dp4174
Vrare
p4175
F1.0
sVnouns
p4176
F1.0
sVcreated
p4177
F1.0
sVthese
p4178
F1.0
sVof
p4179
F1.0
sVin
p4180
F1.0
sVT-INT
p4181
F2.0
sVrules
p4182
F1.0
sVT-FLOAT
p4183
F2.0
sVinspecting
p4184
F1.0
sVwere
p4185
F1.0
sVthe
p4186
F1.0
sVby
p4187
F1.0
sVwordnet
p4188
F1.0
sVsuffixes
p4189
F1.0
saa(lp4190
S'P05-1004157'
p4191
a(dp4192
g28
F1.0
sVdescribed
p4193
F1.0
sVconsider
p4194
F1.0
sVfor
p4195
F1.0
sVthese
p4196
F1.0
sVof
p4197
F1.0
sVrange
p4198
F1.0
sVT-FLOAT
p4199
F1.0
sVbelow
p4200
F1.0
sVexperiments
p4201
F1.0
sVthe
p4202
F1.0
sVparameters
p4203
F1.0
sVoptions
p4204
F1.0
saa(lp4205
S'P05-1004154'
p4206
a(dp4207
Vselection
p4208
F1.0
sVinto
p4209
F1.0
sVsynonyms
p4210
F1.0
sVfor
p4211
F1.0
sVhow
p4212
F1.0
sVunknown
p4213
F1.0
sVextracted
p4214
F1.0
sVto
p4215
F1.0
sVbecomes
p4216
F1.0
sVproblem
p4217
F1.0
sVranked
p4218
F1.0
sVsupersense
p4219
F1.0
sVnow
p4220
F1.0
sVthe
p4221
F2.0
sg28
F1.0
sVconvert
p4222
F1.0
sVnoun
p4223
F1.0
sVof
p4224
F1.0
sVlist
p4225
F1.0
sVsingle
p4226
F1.0
sVeach
p4227
F1.0
sVT-FLOAT
p4228
F1.0
saa(lp4229
S'P05-1004155'
p4230
a(dp4231
Vvotes
p4232
F1.0
sVor
p4233
F1.0
sVsynonym
p4234
F1.0
sVappear
p4235
F1.0
sVfor
p4236
F1.0
sVthat
p4237
F1.0
sVin
p4238
F1.0
sVT-INT
p4239
F2.0
sVone
p4240
F1.0
sVextracted
p4241
F1.0
sVeach
p4242
F1.0
sVT-FLOAT
p4243
F2.0
sVsupersenses
p4244
F1.0
sVits
p4245
F1.0
sVwordnet
p4246
F1.0
sVmore
p4247
F1.0
saa(lp4248
S'P05-1004204'
p4249
a(dp4250
g28
F1.0
sVcompare
p4251
F1.0
sVsmaller
p4252
F1.0
sVadvantage
p4253
F1.0
sVthis
p4254
F1.0
sVof
p4255
F2.0
sVvectors
p4256
F1.0
sVnumber
p4257
F1.0
sVagainst
p4258
F1.0
sVto
p4259
F1.0
sVmuch
p4260
F1.0
sVthe
p4261
F1.0
sVhas
p4262
F1.0
sVproducing
p4263
F1.0
sVT-FLOAT
p4264
F1.0
saa(lp4265
S'P05-1004228'
p4266
a(dp4267
Vthe
p4268
F1.0
sVvotes
p4269
F1.0
sVsynonym
p4270
F2.0
sVfor
p4271
F1.0
sVsimilarity
p4272
F1.0
sVour
p4273
F1.0
sVof
p4274
F1.0
sVusing
p4275
F1.0
sVsupersenses
p4276
F1.0
sVT-INT
p4277
F2.0
sVscore
p4278
F1.0
sVextractor
p4279
F1.0
sVeach
p4280
F2.0
sVfrom
p4281
F2.0
sVT-FLOAT
p4282
F2.0
sVits
p4283
F1.0
sVwordnet
p4284
F1.0
saa(lp4285
S'P05-100479'
p4286
a(dp4287
Vand
p4288
F1.0
sVgiven
p4289
F1.0
sVT-INT
p4290
F1.0
sVsizes
p4291
F1.0
sVpunctuation
p4292
F1.0
sVtheir
p4293
F1.0
sVincluding
p4294
F1.0
sVare
p4295
F1.0
sVcomponents
p4296
F1.0
sVin
p4297
F1.0
sVtable
p4298
F1.0
sVthe
p4299
F1.0
sVT-FLOAT
p4300
F1.0
saa(lp4301
S'P05-100476'
p4302
a(dp4303
Vgiven
p4304
F1.0
sVfrom
p4305
F1.0
sVtheir
p4306
F1.0
sVin
p4307
F1.0
sVsome
p4308
F1.0
sVsupersenses
p4309
F1.0
sVT-INT
p4310
F1.0
sVexamples
p4311
F1.0
sVsets
p4312
F1.0
sVtest
p4313
F1.0
sVtable
p4314
F1.0
sVthe
p4315
F1.0
sVwith
p4316
F1.0
sVT-FLOAT
p4317
F1.0
sVare
p4318
F1.0
saa(lp4319
S'P05-100477'
p4320
a(dp4321
Vand
p4322
F1.0
sVnlp
p4323
F2.0
sVhave
p4324
F1.0
sVdeveloped
p4325
F1.0
sVis
p4326
F1.0
sVstatistical
p4327
F1.0
sVin
p4328
F1.0
sVtable
p4329
F1.0
sVT-FLOAT
p4330
F1.0
sVdescribed
p4331
F1.0
sVtheir
p4332
F1.0
sg14
F2.0
sVsupersenses
p4333
F1.0
sVT-INT
p4334
F2.0
sVwhich
p4335
F1.0
sVlargest
p4336
F1.0
sVcorpus
p4337
F2.0
sg18
F1.0
sVbillion
p4338
F1.0
sVwe
p4339
F1.0
sVfar
p4340
F1.0
sVsearch
p4341
F1.0
sVshallowparsed
p4342
F1.0
sVnouns
p4343
F1.0
sVre
p4344
F1.0
sVwith
p4345
F1.0
sVby
p4346
F1.0
sg28
F2.0
sVpipeline
p4347
F1.0
sVword
p4348
F1.0
sVprocessed
p4349
F1.0
sVpublished
p4350
F1.0
sVthe
p4351
F1.0
sVexample
p4352
F1.0
saa(lp4353
S'P05-100474'
p4354
a(dp4355
Vand
p4356
F1.0
sVset
p4357
F2.0
sVrun
p4358
F1.0
sVthey
p4359
F1.0
sVof
p4360
F1.0
sVus
p4361
F1.0
sVone
p4362
F1.0
sVcross-validation
p4363
F1.0
sVT-INT
p4364
F5.0
sVsupplied
p4365
F1.0
sVhave
p4366
F1.0
sVtest
p4367
F2.0
sVthe
p4368
F2.0
sVwith
p4369
F1.0
sVT-FLOAT
p4370
F4.0
sVwordnet
p4371
F2.0
sVkindly
p4372
F1.0
saa(lp4373
S'P05-100475'
p4374
a(dp4375
Vdevelopment
p4376
F1.0
sVon
p4377
F2.0
sVset
p4378
F2.0
sVrun
p4379
F1.0
sVfinal
p4380
F1.0
sVone
p4381
F1.0
sVT-INT
p4382
F5.0
sVexperiments
p4383
F1.0
sVare
p4384
F1.0
sVtest
p4385
F2.0
sVour
p4386
F1.0
sVthe
p4387
F2.0
sVwith
p4388
F1.0
sVT-FLOAT
p4389
F4.0
sVwordnet
p4390
F2.0
sVperformed
p4391
F1.0
saa(lp4392
S'P05-100472'
p4393
a(dp4394
Vset
p4395
F1.0
sVnouns
p4396
F1.0
sVpreviously
p4397
F1.0
sVover
p4398
F1.0
sVone
p4399
F1.0
sVhave
p4400
F1.0
sVsense
p4401
F1.0
sVconsists
p4402
F1.0
sVwordnet
p4403
F1.0
sg771
F1.0
sVT-INT
p4404
F5.0
sg12
F1.0
sg13
F1.0
sg14
F1.0
sVmajority
p4405
F1.0
sVonly
p4406
F1.0
sVwhich
p4407
F1.0
sVtest
p4408
F1.0
sVunseen
p4409
F1.0
sVT-FLOAT
p4410
F3.0
sVof
p4411
F2.0
sVthe
p4412
F2.0
saa(lp4413
S'P05-100473'
p4414
a(dp4415
Vand
p4416
F1.0
sVset
p4417
F2.0
sVrandomly
p4418
F1.0
sVconsists
p4419
F1.0
sVT-FLOAT
p4420
F2.0
sVwordnet
p4421
F1.0
sVfrom
p4422
F1.0
sVselected
p4423
F1.0
sVT-INT
p4424
F3.0
sVtest
p4425
F1.0
sVseveral
p4426
F1.0
sVused
p4427
F1.0
sVbllip
p4428
F1.0
sVnouns
p4429
F1.0
sVby
p4430
F1.0
sVcross-validation
p4431
F1.0
sVtraining
p4432
F1.0
sVjohnson
p4433
F1.0
sVof
p4434
F2.0
sVsets
p4435
F1.0
sVthe
p4436
F2.0
sVciaramita
p4437
F1.0
saa(lp4438
S'P05-100470'
p4439
a(dp4440
Vand
p4441
F1.0
sVset
p4442
F1.0
sVsignificantly
p4443
F1.0
sVcommunication
p4444
F1.0
sVis
p4445
F1.0
sVresults
p4446
F1.0
sVbecause
p4447
F1.0
sVare
p4448
F1.0
sVin
p4449
F1.0
sVwordnet
p4450
F1.0
sVcategory
p4451
F1.0
sVappear
p4452
F1.0
sVtheir
p4453
F1.0
sVsuggest
p4454
F1.0
sg14
F3.0
sVT-INT
p4455
F6.0
sVwhich
p4456
F1.0
sVtest
p4457
F1.0
sVabstract
p4458
F1.0
sVclassify
p4459
F1.0
sVdifficult
p4460
F1.0
sVto
p4461
F1.0
sVthat
p4462
F2.0
sVnumber
p4463
F1.0
sVnouns
p4464
F1.0
sVdata
p4465
F1.0
sVT-FLOAT
p4466
F7.0
sg1581
F1.0
sg1582
F1.0
sVof
p4467
F2.0
sVharder
p4468
F1.0
sVlarge
p4469
F1.0
sVcognition
p4470
F1.0
sVthe
p4471
F3.0
saa(lp4472
S'P05-100471'
p4473
a(dp4474
Vand
p4475
F1.0
sVuse
p4476
F1.0
sVjohnson
p4477
F1.0
sVciaramita
p4478
F1.0
sVexactly
p4479
F1.0
sVsame
p4480
F1.0
sVwill
p4481
F1.0
sVas
p4482
F1.0
sVsets
p4483
F1.0
sVtest
p4484
F1.0
sVour
p4485
F1.0
sVthe
p4486
F1.0
sVevaluation
p4487
F1.0
sVT-FLOAT
p4488
F1.0
saa.