(lp0
(lp1
S'P06-2124210'
p2
a(dp3
Vand
p4
F1.0
sVheuristics
p5
F1.0
sVapplying
p6
F1.0
sVibm
p7
F1.0
sVmodels
p8
F1.0
sVof
p9
F1.0
sVover
p10
F1.0
sVafter
p11
F1.0
sVthree
p12
F1.0
sVhmm
p13
F1.0
sVimprovements
p14
F1.0
sVare
p15
F1.0
sVabove
p16
F1.0
sVin
p17
F1.0
sVkinds
p18
F1.0
sVthe
p19
F2.0
sVsimilar
p20
F1.0
sVT-FLOAT
p21
F1.0
sVpreserved
p22
F1.0
saa(lp23
S'P06-2124245'
p24
a(dp25
Vand
p26
F1.0
sVsignificantly
p27
F1.0
sVproposed
p28
F1.0
sVmodels
p29
F1.0
sVT-FLOAT
p30
F1.0
sVlead
p31
F1.0
sVbetter
p32
F1.0
sVto
p33
F1.0
sVqualities
p34
F1.0
sVthe
p35
F2.0
sVaccuracy
p36
F1.0
sVtranslation
p37
F1.0
sValignment
p38
F1.0
sVimprove
p39
F1.0
saa(lp40
S'P06-2124244'
p41
a(dp42
Vand
p43
F2.0
sVon
p44
F1.0
sVword
p45
F1.0
sVqualities
p46
F1.0
sVproposed
p47
F1.0
sVmodels
p48
F2.0
sVthree
p49
F1.0
sVevaluated
p50
F1.0
sVstate-ofthe-art
p51
F1.0
sVagainst
p52
F1.0
sVbitam
p53
F1.0
sVwere
p54
F1.0
sVtranslation
p55
F2.0
sVT-FLOAT
p56
F1.0
sValignment
p57
F1.0
saa(lp58
S'P06-2124243'
p59
a(dp60
Von
p61
F1.0
sVwe
p62
F1.0
sVnovel
p63
F1.0
sVword
p64
F1.0
sVfor
p65
F1.0
sVproposed
p66
F1.0
sVbilingual
p67
F1.0
sVthis
p68
F1.0
sV,
p69
F1.0
sVmodels
p70
F1.0
sVpaper
p71
F1.0
sVstatistical
p72
F1.0
sVin
p73
F1.0
sVadmixture
p74
F1.0
sVbased
p75
F1.0
sVT-FLOAT
p76
F1.0
sVformalism
p77
F1.0
sValignment
p78
F1.0
saa(lp79
S'P06-2124242'
p80
a(dp81
Va
p82
F1.0
sVleverage
p83
F1.0
sVstraightforward
p84
F1.0
sVto
p85
F2.0
sVthis
p86
F1.0
sVtranslations
p87
F1.0
sVstatistical
p88
F1.0
sVbitams
p89
F1.0
sVmachine
p90
F1.0
sVsuggests
p91
F1.0
sVresult
p92
F1.0
sVway
p93
F1.0
sVT-FLOAT
p94
F1.0
sVimprove
p95
F1.0
saa(lp96
S'P06-212459'
p97
a(dp98
Vand
p99
F1.0
sVe|z
p100
F1.0
sVutilizes
p101
F1.0
sVtopics
p102
F1.0
sVone
p103
F2.0
sVtopic
p104
F2.0
sVsentence-pair
p105
F1.0
sV|e
p106
F1.0
sVbitam
p107
F3.0
sVT-FLOAT
p108
F5.0
sVfor
p109
F1.0
sV)
p110
F5.0
sV(
p111
F5.0
sVmonolingual
p112
F1.0
sVsentence-level
p113
F1.0
sg69
F3.0
sVper
p114
F2.0
sVby
p115
F1.0
sVT-INT
p116
F3.0
sVsamples
p117
F2.0
sVdenoted
p118
F1.0
sV;
p119
F2.0
sVdistribution
p120
F1.0
sVword
p121
F1.0
sVtranslation
p122
F1.0
sVmodel
p123
F1.0
sVboth
p124
F1.0
sVe
p125
F2.0
sVf
p126
F1.0
sVi
p127
F2.0
sVp
p128
F2.0
sVword-pair
p129
F1.0
sVthe
p130
F3.0
sVz
p131
F2.0
saa(lp132
S'P06-212458'
p133
a(dp134
Vtopics
p135
F1.0
sVwithin
p136
F1.0
sVsentence-pair
p137
F1.0
sVin
p138
F1.0
sVT-FLOAT
p139
F1.0
sVfor
p140
F1.0
sg110
F1.0
sg111
F1.0
sg69
F1.0
sVinner
p141
F2.0
sVbilingual
p142
F1.0
sg119
F1.0
sVdocument
p143
F1.0
sVplate
p144
F1.0
sVoutmost
p145
F1.0
sVchoice
p146
F1.0
sVrepeated
p147
F1.0
sVword-pairs
p148
F1.0
sVdocument-pairs
p149
F1.0
sVrepresents
p150
F3.0
sVof
p151
F1.0
sVj
p152
F2.0
sVm
p153
F2.0
sV-plate
p154
F3.0
sVsentence-pairs
p155
F1.0
sVn
p156
F2.0
sVwhile
p157
F1.0
sVeach
p158
F2.0
sVthe
p159
F5.0
saa(lp160
S'P06-212457'
p161
a(dp162
Vrepresent
p163
F1.0
sVall
p164
F1.0
sVreplicates
p165
F1.0
sVplates
p166
F1.0
sVT-FLOAT
p167
F1.0
sVthe
p168
F1.0
saa(lp169
S'P06-212456'
p170
a(dp171
Vvariables
p172
F1.0
sVun-shaded
p173
F1.0
sVT-FLOAT
p174
F1.0
sVare
p175
F1.0
sVnodes
p176
F1.0
sVhidden
p177
F1.0
saa(lp178
S'P06-212455'
p179
a(dp180
g82
F4.0
sVnode
p181
F1.0
sVand
p182
F1.0
sVrepresents
p183
F1.0
sVgraph
p184
F1.0
sVrandom
p185
F1.0
sg69
F1.0
sVdenotes
p186
F1.0
sVin
p187
F1.0
sVvariable
p188
F1.0
sVthe
p189
F1.0
sVhexagon
p190
F1.0
sVparameter
p191
F1.0
sVT-FLOAT
p192
F1.0
saa(lp193
S'P06-212453'
p194
a(dp195
g82
F1.0
sVrandom
p196
F1.0
sVlatent
p197
F1.0
sVof
p198
F1.0
sVis
p199
F1.0
sVdocumentpair
p200
F1.0
sVas
p201
F1.0
sVmixture
p202
F1.0
sVeach
p203
F1.0
sVrepresented
p204
F1.0
sVT-FLOAT
p205
F1.0
sVtopics
p206
F1.0
saa(lp207
S'P06-212452'
p208
a(dp209
Vsampled
p210
F1.0
sVwe
p211
F1.0
sVthat
p212
F1.0
sVassume
p213
F1.0
sVtopics
p214
F1.0
sVsentence-level
p215
F1.0
sg69
F1.0
sVT-FLOAT
p216
F1.0
sVare
p217
F1.0
sVbitam
p218
F1.0
sVin
p219
F1.0
sVat
p220
F1.0
sVthe
p221
F2.0
sVmodel
p222
F1.0
sVfirst
p223
F1.0
saa(lp224
S'P06-212451'
p225
a(dp226
Vand
p227
F1.0
sVend-user
p228
F1.0
sVwe
p229
F1.0
sVminology
p230
F1.0
sVtarget
p231
F1.0
sVfor
p232
F1.0
sVT-FLOAT
p233
F1.0
sVuse
p234
F1.0
sVlanguages
p235
F1.0
sVsource
p236
F1.0
sVthe
p237
F1.0
sVter
p238
F1.0
saa(lp239
S'P06-2124213'
p240
a(dp241
g110
F1.0
sVT-INT
p242
F1.0
sVT-FLOAT
p243
F1.0
saa(lp244
S'P06-2124214'
p245
a(dp246
Vmodels
p247
F1.0
sVT-INT
p248
F2.0
sVT-FLOAT
p249
F2.0
sVbitam
p250
F1.0
sVboosting
p251
F1.0
saa(lp252
S'P06-2124215'
p253
a(dp254
Vbf
p255
F1.0
sg125
F1.0
sVour
p256
F1.0
sVof
p257
F1.0
sVk
p258
F1.0
sVin
p259
F1.0
sVuniformly
p260
F1.0
sg69
F2.0
sVT-FLOAT
p261
F1.0
sVexperiments
p262
F1.0
sVare
p263
F1.0
sVlexicons
p264
F1.0
sVinitialized
p265
F1.0
sVthe
p266
F1.0
sVtranslation
p267
F1.0
sVprevious
p268
F1.0
saa(lp269
S'P06-2124216'
p270
a(dp271
Voptima
p272
F1.0
sVem
p273
F1.0
sVbecause
p274
F1.0
sVhelp
p275
F1.0
sVlead
p276
F1.0
sVperformances
p277
F1.0
sVavoid
p278
F1.0
sVtializations
p279
F1.0
sVit
p280
F1.0
sVbetter
p281
F2.0
sVto
p282
F2.0
sVundesirable
p283
F1.0
sVpotentially
p284
F1.0
sVini
p285
F1.0
sViterations
p286
F1.0
sVin
p287
F1.0
sVthe
p288
F1.0
sVvariational
p289
F1.0
sVlocal
p290
F1.0
sVT-FLOAT
p291
F1.0
sVcan
p292
F2.0
saa(lp293
S'P06-2124217'
p294
a(dp295
Vwe
p296
F1.0
sVfrom
p297
F1.0
sVibm
p298
F1.0
sVmodels
p299
F1.0
sg258
F1.0
sVuse
p300
F1.0
sg69
F2.0
sVto
p301
F2.0
sVmodelT-INT
p302
F1.0
sVbitam
p303
F1.0
sVlexicons
p304
F1.0
sVinitialize
p305
F1.0
sg125
F1.0
sVthe
p306
F2.0
sVboost
p307
F1.0
sVT-FLOAT
p308
F1.0
sVbf
p309
F1.0
saa(lp310
S'P06-2124212'
p311
a(dp312
Vand
p313
F1.0
sVover
p314
F1.0
sVobserved
p315
F1.0
sVsee
p316
F1.0
sVimprovements
p317
F1.0
sVare
p318
F1.0
sVbitam
p319
F1.0
sVtable
p320
F1.0
sVbaseline
p321
F1.0
sValso
p322
F1.0
sg111
F1.0
sg69
F1.0
sVT-INT
p323
F1.0
sVtest
p324
F1.0
sVwe
p325
F1.0
sVmodels
p326
F1.0
sVdata
p327
F1.0
sVT-FLOAT
p328
F1.0
sVthose
p329
F1.0
sVon
p330
F1.0
sVtraining
p331
F1.0
sVof
p332
F1.0
sVlarge
p333
F1.0
sVthe
p334
F1.0
sVsimilar
p335
F1.0
saa(lp336
S'P06-212428'
p337
a(dp338
Vand
p339
F1.0
sg69
F1.0
sVinstances
p340
F1.0
sVengineering
p341
F1.0
sVpaper
p342
F1.0
sVare
p343
F1.0
sVbitam
p344
F1.0
sVin
p345
F1.0
sVneed
p346
F1.0
sVT-FLOAT
p347
F1.0
sVknowledge
p348
F1.0
sVthree
p349
F1.0
sVhandcrafted
p350
F1.0
sVdata-driven
p351
F1.0
sVdo
p352
F1.0
sVwe
p353
F1.0
sVthey
p354
F1.0
sVnot
p355
F1.0
sVmodel
p356
F1.0
sVthis
p357
F1.0
sVof
p358
F1.0
sVinvestigate
p359
F1.0
sVthe
p360
F1.0
saa(lp361
S'P06-212429'
p362
a(dp363
Vand
p364
F3.0
sVinference
p365
F1.0
sVshow
p366
F1.0
sVis
p367
F1.0
sVtopic
p368
F1.0
sVas
p369
F1.0
sVpaper
p370
F1.0
sVlearning
p371
F1.0
sVin
p372
F4.0
sVour
p373
F1.0
sVsection
p374
F4.0
sg69
F3.0
sVT-INT
p375
F4.0
sVadmixture
p376
F1.0
sg119
F3.0
sV:
p377
F1.0
sVbaselines
p378
F1.0
sVwe
p379
F4.0
sVmodels
p380
F2.0
sVpropose
p381
F1.0
sVintroduce
p382
F1.0
sVremainder
p383
F1.0
sVT-FLOAT
p384
F1.0
sVpresent
p385
F1.0
sVnotations
p386
F1.0
sVof
p387
F2.0
sVexperiments
p388
F1.0
sValgorithms
p389
F1.0
sVfollows
p390
F1.0
sVthe
p391
F4.0
saa(lp392
S'P06-2124246'
p393
a(dp394
Vand
p395
F2.0
sg82
F1.0
sVwithin-sentence
p396
F1.0
sVinvestigations
p397
F1.0
sValignment-jumps
p398
F1.0
sVof
p399
F2.0
sVmonolingual
p400
F1.0
sg69
F1.0
sVworth
p401
F1.0
sVbetter
p402
F1.0
sVsource
p403
F1.0
sVas
p404
F1.0
sVdependencies
p405
F1.0
sVincorporation
p406
F1.0
sVtreatment
p407
F1.0
sVT-FLOAT
p408
F1.0
sVdistortions
p409
F1.0
sVfurther
p410
F1.0
sVsuch
p411
F1.0
sVthe
p412
F2.0
sVmodel
p413
F1.0
saa(lp414
S'P06-212422'
p415
a(dp416
Vand
p417
F1.0
sg110
F2.0
sVgenetics
p418
F1.0
sVT-INT
p419
F2.0
sVmodels
p420
F1.0
sVof
p421
F1.0
sVmodeling
p422
F1.0
sVal
p423
F2.0
sVpritchard
p424
F1.0
sg69
F2.0
sVappeared
p425
F1.0
sVtext
p426
F1.0
sg111
F2.0
sVhave
p427
F1.0
sVin
p428
F1.0
sVadmixture
p429
F1.0
sVet
p430
F2.0
sVvariants
p431
F1.0
sVblei
p432
F1.0
sVT-FLOAT
p433
F3.0
sVpopulation
p434
F1.0
saa(lp435
S'P06-212423'
p436
a(dp437
Vcoupled
p438
F1.0
sVis
p439
F1.0
sVsome
p440
F1.0
sVit
p441
F1.0
sVan
p442
F2.0
sVmixture
p443
F1.0
sVin
p444
F1.0
sVconsists
p445
F1.0
sVif
p446
F1.0
sVsampled
p447
F1.0
sVsaid
p448
F1.0
sVfrom
p449
F2.0
sg69
F3.0
sVto
p450
F1.0
sVway
p451
F1.0
sVadmixture
p452
F1.0
sVbe
p453
F1.0
sVelements
p454
F1.0
sVstatistically
p455
F1.0
sVobject
p456
F1.0
sVderived
p457
F1.0
sVT-FLOAT
p458
F1.0
sg82
F2.0
sVindependently
p459
F1.0
sVof
p460
F2.0
sVbag
p461
F1.0
sVeach
p462
F1.0
sVmodel
p463
F1.0
sVor
p464
F1.0
saa(lp465
S'P06-212420'
p466
a(dp467
Vand
p468
F2.0
sVschemes
p469
F1.0
sVwang
p470
F1.0
sVal
p471
F2.0
sVusing
p472
F1.0
sVet
p473
F2.0
sVline
p474
F1.0
sVoch
p475
F1.0
sg110
F2.0
sg111
F2.0
sVtranslation
p476
F1.0
sg69
F5.0
sVT-INT
p477
F4.0
sVvarious
p478
F1.0
sVbilingual
p479
F1.0
sVdegrees
p480
F1.0
sg119
F2.0
sVwhich
p481
F1.0
sVinvestigations
p482
F1.0
sVmodels
p483
F1.0
sVincludes
p484
F1.0
sVwu
p485
F1.0
sVparticular
p486
F1.0
sVword-clusters
p487
F1.0
sValong
p488
F1.0
sVwith
p489
F1.0
sVT-FLOAT
p490
F3.0
sVrecent
p491
F1.0
sVsuccess
p492
F1.0
sVshowed
p493
F1.0
sVthis
p494
F1.0
sVof
p495
F1.0
sVnon-overlapping
p496
F1.0
sVzhao
p497
F1.0
sVcarpua
p498
F1.0
sVword-disambiguation
p499
F1.0
saa(lp500
S'P06-212421'
p501
a(dp502
Vbitam
p503
F1.0
sVtopic
p504
F1.0
sVstatistical
p505
F1.0
sVin
p506
F1.0
sVformalism
p507
F1.0
sValignment
p508
F1.0
sVsmt
p509
F1.0
sg69
F2.0
sVto
p510
F1.0
sVtopic-based
p511
F1.0
sVbilingual
p512
F1.0
sVadmixture
p513
F1.0
sVnew
p514
F1.0
sg377
F1.0
sVwe
p515
F1.0
sVpropose
p516
F1.0
sVmodel
p517
F1.0
sg82
F1.0
sVword
p518
F1.0
sVT-FLOAT
p519
F1.0
sVfacilitate
p520
F1.0
sVor
p521
F1.0
saa(lp522
S'P06-212427'
p523
a(dp524
Vlinguistics
p525
F1.0
sVcomputational
p526
F1.0
sVfor
p527
F1.0
sVdepending
p528
F1.0
sVmodels
p529
F1.0
sVmonolingual
p530
F1.0
sg69
F1.0
sVT-INT
p531
F1.0
sVqc
p532
F1.0
sVand/or
p533
F1.0
sVcontexts
p534
F1.0
sVT-FLOAT
p535
F1.0
sVon
p536
F1.0
sVtheir
p537
F1.0
sVassociation
p538
F1.0
saa(lp539
S'P06-212424'
p540
a(dp541
Vall
p542
F1.0
sVdocumentpair
p543
F1.0
sVcorresponds
p544
F1.0
sVan
p545
F1.0
sVin
p546
F2.0
sVcorrespond
p547
F1.0
sVdepending
p548
F1.0
sVchosen
p549
F1.0
sVsentence-pairs
p550
F1.0
sVsmt
p551
F1.0
sg69
F2.0
sVto
p552
F2.0
sVsetting
p553
F1.0
sg119
F1.0
sVelements
p554
F1.0
sVobject
p555
F2.0
sVword-pairs
p556
F1.0
sVgranularity
p557
F1.0
sVmodeling
p558
F1.0
sVT-FLOAT
p559
F1.0
sg82
F2.0
sVon
p560
F1.0
sVdocument-pair
p561
F1.0
sVconstituting
p562
F1.0
sVeach
p563
F1.0
sVthe
p564
F3.0
sVor
p565
F1.0
sVtypical
p566
F1.0
saa(lp567
S'P06-212425'
p568
a(dp569
Vand
p570
F2.0
sVis
p571
F1.0
sVtopic
p572
F2.0
sVare
p573
F1.0
sVT-FLOAT
p574
F1.0
sVsampled
p575
F1.0
sVlatent
p576
F1.0
sVfor
p577
F1.0
sVsentence-pairs
p578
F1.0
sg69
F1.0
sVto
p579
F1.0
sVtopic-specific
p580
F1.0
sg119
F1.0
sVmarginally
p581
F1.0
sVdependent
p582
F1.0
sVtranslations
p583
F1.0
sVinduce
p584
F1.0
sVcorrespondingly
p585
F1.0
sVwordpairs
p586
F1.0
sVpair
p587
F1.0
sVfrom
p588
F1.0
sVdistribution
p589
F1.0
sg82
F2.0
sVprior
p590
F1.0
sVresulting
p591
F1.0
sVeach
p592
F1.0
sVthe
p593
F1.0
saa(lp594
S'P06-2124128'
p595
a(dp596
Vand
p597
F1.0
sVon
p598
F1.0
sVwe
p599
F1.0
sVword
p600
F1.0
sVmodels
p601
F1.0
sVevaluate
p602
F1.0
sVT-FLOAT
p603
F1.0
sVbitam
p604
F1.0
sVthe
p605
F2.0
sVquality
p606
F1.0
sVtranslation
p607
F1.0
sValignment
p608
F1.0
sVaccuracy
p609
F1.0
saa(lp610
S'P06-2124129'
p611
a(dp612
Vand
p613
F2.0
sVbleu
p614
F1.0
sVset
p615
F1.0
sVreference
p616
F1.0
sVpapineni
p617
F1.0
sVis
p618
F1.0
sVharmonic
p619
F1.0
sVare
p620
F1.0
sVet
p621
F1.0
sVquality
p622
F1.0
sVits
p623
F1.0
sValignment
p624
F1.0
sVfor
p625
F2.0
sg110
F1.0
sg111
F1.0
sg69
F5.0
sVT-INT
p626
F1.0
sg119
F1.0
sVaccuracy
p627
F1.0
sVf-measure
p628
F1.0
sVprecision
p629
F1.0
sVvariation
p630
F1.0
sVal
p631
F1.0
sVgold-standard
p632
F1.0
sVscores
p633
F1.0
sg125
F1.0
sVtranslation
p634
F1.0
sVT-FLOAT
p635
F4.0
sg82
F1.0
sVword
p636
F1.0
sVreported
p637
F2.0
sg127
F1.0
sVof
p638
F2.0
sVagainst
p639
F1.0
sVrecall
p640
F1.0
sVthe
p641
F1.0
sVnist
p642
F1.0
sVmean
p643
F1.0
saa(lp644
S'P06-2124123'
p645
a(dp646
VT-INT
p647
F2.0
sVT-FLOAT
p648
F2.0
sValignments
p649
F1.0
sVword
p650
F1.0
sVretrieving
p651
F1.0
saa(lp652
S'P06-2124121'
p653
a(dp654
Vas
p655
F1.0
sVeqn
p656
F1.0
sVT-FLOAT
p657
F1.0
sVin
p658
F1.0
saa(lp659
S'P06-2124124'
p660
a(dp661
Vand
p662
F1.0
sVschemes
p663
F1.0
sVfor
p664
F1.0
sVuni-direction
p665
F1.0
sVbi-direction
p666
F1.0
sVbitams
p667
F1.0
sVtwo
p668
F1.0
sVT-FLOAT
p669
F1.0
sVare
p670
F1.0
sValignment
p671
F2.0
sVthe
p672
F2.0
sg377
F1.0
sVretrieval
p673
F1.0
sVword-alignment
p674
F1.0
sVdesigned
p675
F1.0
saa(lp676
S'P06-2124241'
p677
a(dp678
Vbleu
p679
F1.0
sVon
p680
F2.0
sVand
p681
F1.0
sVlexicon
p682
F1.0
sVfrom
p683
F2.0
sVibm
p684
F2.0
sVto
p685
F2.0
sVoutperform
p686
F1.0
sg69
F2.0
sVT-INT
p687
F10.0
sVas
p688
F1.0
sVseed
p689
F1.0
sVT-FLOAT
p690
F5.0
sg377
F1.0
sVscore
p691
F1.0
sVthe
p692
F2.0
sVing
p693
F1.0
sVrefined
p694
F1.0
sVnist
p695
F1.0
saa(lp696
S'P06-2124240'
p697
a(dp698
VT-INT
p699
F1.0
sVT-FLOAT
p700
F1.0
saa(lp701
S'P06-2124211'
p702
a(dp703
Vand
p704
F1.0
sVheuristics
p705
F1.0
sValready
p706
F1.0
sVis
p707
F2.0
sVsome
p708
F1.0
sVit
p709
F1.0
sVas
p710
F1.0
sVin
p711
F1.0
sVrefined
p712
F1.0
sValignment
p713
F1.0
sVheuristic
p714
F2.0
sVstyle
p715
F1.0
sVbda
p716
F1.0
sVunion
p717
F1.0
sVsince
p718
F1.0
sg69
F4.0
sVbetter
p719
F1.0
sVto
p720
F1.0
sVonly
p721
F1.0
sVexpected
p722
F1.0
sg119
F1.0
sVencodes
p723
F1.0
sVhmm
p724
F1.0
sVuda
p725
F1.0
sVwith
p726
F1.0
sVby
p727
F1.0
sVimproved
p728
F2.0
sVibm
p729
F1.0
sVsimilar
p730
F1.0
sVviterbi
p731
F1.0
sVT-FLOAT
p732
F1.0
sVthe
p733
F3.0
sVslightly
p734
F1.0
saa(lp735
S'P06-212439'
p736
a(dp737
Vproposed
p738
F1.0
sVwithin
p739
F1.0
sVhigher-order
p740
F1.0
sVour
p741
F1.0
sVT-FLOAT
p742
F1.0
sValignment
p743
F1.0
sVfrom
p744
F1.0
sVbaseline
p745
F1.0
sVsimilarly
p746
F1.0
sg69
F1.0
sVT-INT
p747
F1.0
sVstart
p748
F1.0
sVbe
p749
F1.0
sVwe
p750
F1.0
sVmodels
p751
F1.0
sVframework
p752
F1.0
sVmodel
p753
F1.0
sVibm
p754
F1.0
sVembedded
p755
F1.0
sVas
p756
F1.0
sVwhile
p757
F1.0
sVcan
p758
F1.0
sVthe
p759
F1.0
saa(lp760
S'P06-212438'
p761
a(dp762
Vand
p763
F1.0
sVis
p764
F3.0
sVglobal
p765
F1.0
sVit
p766
F2.0
sVan
p767
F1.0
sVre-ranking
p768
F1.0
sVefficient
p769
F2.0
sVet
p770
F1.0
sVoptimum
p771
F1.0
sVoch
p772
F1.0
sVfor
p773
F1.0
sVT-INT
p774
F3.0
sg110
F2.0
sg111
F2.0
sg69
F1.0
sVto
p775
F2.0
sVway
p776
F1.0
sg119
F2.0
sVhas
p777
F1.0
sVtranslations
p778
F1.0
sVscalable
p779
F1.0
sVal
p780
F1.0
sVmost
p781
F1.0
sVinformative
p782
F1.0
sVone
p783
F1.0
sVdata
p784
F1.0
sVT-FLOAT
p785
F2.0
sVeasily
p786
F1.0
sVtraining
p787
F1.0
sg377
F1.0
sVibm
p788
F2.0
sg126
F1.0
sVof
p789
F1.0
sVlarge
p790
F1.0
sg128
F1.0
sV|e
p791
F1.0
sVcomponents
p792
F1.0
sVlearn
p793
F1.0
sVthe
p794
F1.0
saa(lp795
S'P06-212430'
p796
a(dp797
g82
F1.0
sVwe
p798
F1.0
sVconclude
p799
F1.0
sVdiscussion
p800
F1.0
sVbrief
p801
F1.0
sVT-INT
p802
F1.0
sVin
p803
F1.0
sVT-FLOAT
p804
F1.0
sVwith
p805
F1.0
sVsection
p806
F1.0
saa(lp807
S'P06-212433'
p808
a(dp809
Vthe
p810
F1.0
sVen
p811
F2.0
sVntth
p812
F1.0
sVsequence
p813
F1.0
sVis
p814
F1.0
sVsentence-pair
p815
F1.0
sVare
p816
F1.0
sVsentences
p817
F1.0
sVT-FLOAT
p818
F1.0
sg110
F2.0
sVsentence-pairs
p819
F1.0
sg69
F4.0
sVassuming
p820
F1.0
sVhas
p821
F1.0
sVcorrespondent
p822
F1.0
sVparallel
p823
F2.0
sVfn
p824
F2.0
sg82
F2.0
sVone-to-one
p825
F1.0
sVof
p826
F1.0
sVdocument-pair
p827
F1.0
sg156
F1.0
sg111
F2.0
sV}
p828
F1.0
sV{
p829
F1.0
sVwhere
p830
F1.0
saa(lp831
S'P06-212435'
p832
a(dp833
Vbaseline
p834
F1.0
sVT-INT
p835
F2.0
sVmodelT-INT
p836
F1.0
sVT-FLOAT
p837
F2.0
sg377
F1.0
sVibm
p838
F1.0
saa(lp839
S'P06-2124164'
p840
a(dp841
Vand
p842
F3.0
sVcomparison
p843
F1.0
sVwe
p844
F1.0
sVfertility
p845
F1.0
sVword
p846
F1.0
sVibm
p847
F3.0
sVfor
p848
F4.0
sV&
p849
F1.0
sVmodels
p850
F1.0
sVof
p851
F2.0
sg69
F3.0
sVhmm
p852
F2.0
sVmaximum
p853
F1.0
sVT-INT
p854
F8.0
sVtrain
p855
F1.0
sg82
F1.0
sViterations
p856
F1.0
sVT-FLOAT
p857
F1.0
sVnull
p858
F1.0
sVwith
p859
F2.0
sVchineseenglish
p860
F1.0
saa(lp861
S'P06-212437'
p862
a(dp863
Vthis
p864
F1.0
sVprocess
p865
F1.0
sVlexicon
p866
F1.0
sg126
F1.0
sg110
F1.0
sg111
F1.0
sVis
p867
F1.0
sVcomponent
p868
F1.0
sg128
F1.0
sV|e
p869
F1.0
sVT-FLOAT
p870
F1.0
sVkey
p871
F1.0
sVin
p872
F1.0
sVgenerative
p873
F1.0
sVthe
p874
F2.0
sVtranslation
p875
F1.0
saa(lp876
S'P06-212436'
p877
a(dp878
Voperations
p879
F1.0
sVand
p880
F1.0
sVbrown
p881
F1.0
sVprocess
p882
F1.0
sVpermutations
p883
F1.0
sVal
p884
F1.0
sVsentence-pair
p885
F1.0
sVas
p886
F1.0
sVat
p887
F1.0
sVin
p888
F1.0
sVet
p889
F1.0
sVviewed
p890
F1.0
sg110
F1.0
sg111
F1.0
sg69
F3.0
sVsubstitutions
p891
F1.0
sVT-INT
p892
F1.0
sVscheme
p893
F1.0
sVbe
p894
F1.0
sVmodeling
p895
F1.0
sVtranslation
p896
F1.0
sVthe
p897
F1.0
sVnoisychannel
p898
F1.0
sVword
p899
F1.0
sVlevel
p900
F1.0
sVof
p901
F1.0
sVcan
p902
F1.0
sVinsertions/deletions
p903
F1.0
sVT-FLOAT
p904
F2.0
sVparallel
p905
F1.0
saa(lp906
S'P06-2124165'
p907
a(dp908
g82
F1.0
sVmodel
p909
F1.0
sVselection
p910
F1.0
sVof
p911
F1.0
sVis
p912
F1.0
sVnumber
p913
F1.0
sVT-FLOAT
p914
F1.0
sVchoosing
p915
F1.0
sVthe
p916
F1.0
sVtopics
p917
F1.0
sVproblem
p918
F1.0
saa(lp919
S'P06-2124158'
p920
a(dp921
Vtopic
p922
F1.0
sVmain
p923
F1.0
sVto
p924
F1.0
sVof
p925
F1.0
sVeach
p926
F1.0
sVfunctional
p927
F1.0
sVcontent
p928
F1.0
sVT-INT
p929
F1.0
sVwords
p930
F1.0
sVwere
p931
F1.0
sVhighlight
p932
F1.0
sVthe
p933
F1.0
sVremoved
p934
F1.0
sVT-FLOAT
p935
F1.0
saa(lp936
S'P06-2124156'
p937
a(dp938
g377
F1.0
sVente
p939
F1.0
sVelop
p940
F1.0
sVed
p941
F1.0
sVover
p942
F1.0
sVdisplayed
p943
F1.0
sVrank
p944
F1.0
sVl
p945
F2.0
sVna
p946
F2.0
sVlli
p947
F1.0
sVo
p948
F3.0
sVga
p949
F1.0
sVtable
p950
F1.0
sVgn
p951
F1.0
sVic
p952
F2.0
sVng
p953
F1.0
sVtopics
p954
F1.0
sVpani
p955
F1.0
sVes
p956
F3.0
sVtake
p957
F1.0
sVdica
p958
F1.0
sVses
p959
F1.0
sVers
p960
F1.0
sVthree
p961
F1.0
sVppe
p962
F1.0
sVhan
p963
F1.0
sVny
p964
F1.0
sVpa
p965
F1.0
sVabl
p966
F1.0
sVts
p967
F1.0
sVat
p968
F1.0
sVcho
p969
F1.0
sVT-INT
p970
F12.0
sVrei
p971
F1.0
sVntri
p972
F1.0
sVtech
p973
F1.0
sVmost
p974
F1.0
sVte
p975
F1.0
sVtio
p976
F1.0
sVgram
p977
F1.0
sVnom
p978
F2.0
sVbi
p979
F1.0
sVeco
p980
F2.0
sVmen
p981
F1.0
sVnolo
p982
F1.0
sVngqi
p983
F1.0
sVme
p984
F1.0
sVgy
p985
F1.0
sVtopi
p986
F3.0
sVare
p987
F1.0
sVcou
p988
F1.0
sVdistinctive
p989
F1.0
sVfo
p990
F1.0
sg82
F6.0
sVtrad
p991
F1.0
sVc
p992
F6.0
sVb
p993
F1.0
sg125
F8.0
sVd
p994
F2.0
sVco
p995
F1.0
sVmb
p996
F1.0
sg127
F1.0
sVh
p997
F2.0
sVsp
p998
F1.0
sg153
F4.0
sVrpri
p999
F1.0
sVdev
p1000
F1.0
sg156
F3.0
sVcaus
p1001
F1.0
sg128
F2.0
sVs
p1002
F2.0
sVr
p1003
F3.0
sVu
p1004
F2.0
sVt
p1005
F1.0
sVw
p1006
F1.0
sVcit
p1007
F1.0
sVy
p1008
F3.0
sVuni
p1009
F1.0
sVT-FLOAT
p1010
F6.0
sVcom
p1011
F1.0
sVor
p1012
F1.0
sVre
p1013
F1.0
sVdis
p1014
F1.0
saa(lp1015
S'P06-2124155'
p1016
a(dp1017
Vboth
p1018
F1.0
sVcandidate
p1019
F1.0
sVmay
p1020
F1.0
sVtranslation
p1021
F1.0
sVlexicons
p1022
F1.0
sVtranslations
p1023
F1.0
sVtwo
p1024
F1.0
sVT-FLOAT
p1025
F1.0
sVfade
p1026
F1.0
sVin
p1027
F1.0
sVthe
p1028
F2.0
sVlearned
p1029
F1.0
sVout
p1030
F1.0
saa(lp1031
S'P06-2124153'
p1032
a(dp1033
V!
p1034
F1.0
sVlexicon
p1035
F1.0
sVword
p1036
F1.0
sVtopicT-INT
p1037
F1.0
sVthird
p1038
F1.0
sg110
F2.0
sg111
F2.0
sVprefers
p1039
F1.0
sV$
p1040
F1.0
sVto
p1041
F1.0
sg377
F1.0
sVji
p1042
F1.0
sVT-FLOAT
p1043
F1.0
sVinto
p1044
F1.0
sVnorth
p1045
F1.0
sVthe
p1046
F2.0
sVtranslate
p1047
F1.0
sVkorean
p1048
F2.0
sVchaoxian
p1049
F1.0
saa(lp1050
S'P06-2124152'
p1051
a(dp1052
Vlearned
p1053
F1.0
sg82
F1.0
sVby
p1054
F1.0
sVT-INT
p1055
F19.0
sVtopic-specific
p1056
F1.0
sVare
p1057
F1.0
sVbitam
p1058
F1.0
sVlexicons
p1059
F1.0
sV-topic
p1060
F1.0
sVtable
p1061
F1.0
sVT-FLOAT
p1062
F4.0
sg377
F1.0
sVtranslation
p1063
F1.0
saa(lp1064
S'P06-2124151'
p1065
a(dp1066
VT-INT
p1067
F3.0
sVT-FLOAT
p1068
F1.0
saa(lp1069
S'P06-2124150'
p1070
a(dp1071
VT-INT
p1072
F3.0
sVT-FLOAT
p1073
F1.0
saa(lp1074
S'P06-212485'
p1075
a(dp1076
Vmarginal
p1077
F1.0
sVis
p1078
F1.0
sVconditional
p1079
F1.0
sVthus
p1080
F1.0
sVindividual
p1081
F1.0
sVin
p1082
F1.0
sVT-FLOAT
p1083
F1.0
sVgiven
p1084
F1.0
sVfor
p1085
F1.0
sVprobabilities
p1086
F1.0
sg69
F1.0
sVparallel
p1087
F1.0
sVeqn
p1088
F1.0
sVcorpus
p1089
F1.0
sVproduct
p1090
F1.0
sVlikelihood
p1091
F1.0
sVby
p1092
F1.0
sVentire
p1093
F1.0
sVof
p1094
F2.0
sVtaking
p1095
F1.0
sVdocument-pair
p1096
F1.0
sVeach
p1097
F1.0
sVthe
p1098
F4.0
saa(lp1099
S'P06-212486'
p1100
a(dp1101
VT-INT
p1102
F1.0
sVT-FLOAT
p1103
F1.0
saa(lp1104
S'P06-212487'
p1105
a(dp1106
Vmonolingual
p1107
F1.0
sVT-INT
p1108
F3.0
sVbitam
p1109
F1.0
sVadmixture
p1110
F1.0
sVT-FLOAT
p1111
F2.0
sg377
F1.0
saa(lp1112
S'P06-212480'
p1113
a(dp1114
g82
F1.0
sVmodel
p1115
F1.0
sVfigure
p1116
F1.0
sVT-INT
p1117
F1.0
sg110
F1.0
sg111
F1.0
sVis
p1118
F1.0
sVsentence-level
p1119
F1.0
sg69
F2.0
sg128
F1.0
sVtopic-specific
p1120
F1.0
sVT-FLOAT
p1121
F1.0
sVan|en
p1122
F1.0
sVbzn
p1123
F1.0
sVthe
p1124
F1.0
sVwhere
p1125
F1.0
sVtranslation
p1126
F1.0
sVfn
p1127
F1.0
sVshows
p1128
F1.0
saa(lp1129
S'P06-212483'
p1130
a(dp1131
Vj=
p1132
F1.0
sVsentence
p1133
F1.0
sVal
p1134
F1.0
sVcase
p1135
F1.0
sVas
p1136
F1.0
sVbitam
p1137
F1.0
sVin
p1138
F2.0
sVet
p1139
F1.0
sVblei
p1140
F1.0
sVspecial
p1141
F1.0
sVlatent
p1142
F1.0
sg110
F2.0
sg111
F2.0
sg69
F4.0
sVspecifically
p1143
F1.0
sVT-INT
p1144
F4.0
sVviewed
p1145
F1.0
sVwhich
p1146
F1.0
sVbe
p1147
F1.0
sVallocation
p1148
F1.0
sVT-FLOAT
p1149
F2.0
sg82
F1.0
sVdirichlet
p1150
F1.0
sVtarget
p1151
F1.0
sg126
F1.0
sVof
p1152
F1.0
sV|eanj
p1153
F1.0
sg156
F3.0
sg128
F1.0
sVcan
p1154
F1.0
sVbzn
p1155
F1.0
sVthe
p1156
F3.0
saa(lp1157
S'P06-212488'
p1158
a(dp1159
g82
F1.0
sVbe
p1160
F1.0
sVtopic-mixture
p1161
F1.0
sVfor
p1162
F1.0
sVT-FLOAT
p1163
F1.0
sVmonolingual
p1164
F1.0
sVenglish
p1165
F1.0
sg69
F1.0
sVgeneral
p1166
F1.0
sValso
p1167
F1.0
sVcan
p1168
F1.0
sVrich
p1169
F1.0
sVin
p1170
F1.0
sVmodel
p1171
F1.0
sVthe
p1172
F1.0
saa(lp1173
S'P06-2124233'
p1174
a(dp1175
g948
F1.0
sVbitam
p1176
F1.0
sVfi
p1177
F1.0
sVbda
p1178
F2.0
sg110
F5.0
sg111
F5.0
sg69
F1.0
sVnote
p1179
F1.0
sVT-INT
p1180
F90.0
sVbuda
p1181
F1.0
sVti
p1182
F1.0
sVthat
p1183
F1.0
sVboosted
p1184
F1.0
sV%
p1185
F5.0
sVT-FLOAT
p1186
F36.0
sg994
F2.0
sg82
F2.0
sg992
F2.0
sg993
F3.0
sg125
F6.0
sVibm
p1187
F2.0
sVg
p1188
F1.0
sg127
F4.0
sg997
F1.0
sg153
F3.0
sg945
F1.0
sVus
p1189
F1.0
sg156
F6.0
sg1002
F1.0
sg1003
F2.0
sg1004
F3.0
sg1005
F4.0
sVthe
p1190
F1.0
sVse
p1191
F1.0
saa(lp1192
S'P06-2124148'
p1193
a(dp1194
g1034
F1.0
sg128
F1.0
sg111
F2.0
sVng
p1195
F1.0
sVT-INT
p1196
F16.0
sVuo
p1197
F1.0
sVli
p1198
F1.0
sVT-FLOAT
p1199
F3.0
sVha
p1200
F1.0
saa(lp1201
S'P06-2124168'
p1202
a(dp1203
VT-INT
p1204
F2.0
sVT-FLOAT
p1205
F2.0
sVvariational
p1206
F1.0
sVinference
p1207
F1.0
saa(lp1208
S'P06-2124144'
p1209
a(dp1210
g1034
F1.0
sVch
p1211
F1.0
sVibm
p1212
F2.0
sg128
F1.0
sg111
F2.0
sg153
F2.0
sVao
p1213
F1.0
sVan
p1214
F1.0
sVT-INT
p1215
F2.0
sVxi
p1216
F1.0
sVji
p1217
F1.0
sg997
F1.0
saa(lp1218
S'P06-2124145'
p1219
a(dp1220
g1040
F1.0
sg110
F2.0
sVan
p1221
F1.0
sVT-INT
p1222
F1.0
sVT-FLOAT
p1223
F1.0
sVore
p1224
F1.0
sV|k
p1225
F1.0
saa(lp1226
S'P06-2124146'
p1227
a(dp1228
VT-INT
p1229
F3.0
sVT-FLOAT
p1230
F1.0
saa(lp1231
S'P06-2124147'
p1232
a(dp1233
VT-INT
p1234
F3.0
sVT-FLOAT
p1235
F1.0
saa(lp1236
S'P06-2124140'
p1237
a(dp1238
VT-INT
p1239
F2.0
sVT-FLOAT
p1240
F2.0
sVmodel
p1241
F1.0
sVsettings
p1242
F1.0
saa(lp1243
S'P06-2124141'
p1244
a(dp1245
Vand
p1246
F1.0
sVwe
p1247
F1.0
sVword
p1248
F1.0
sVof
p1249
F1.0
sg69
F1.0
sVsmoothing
p1250
F1.0
sVexplore
p1251
F1.0
sVeffects
p1252
F1.0
sVstrategies
p1253
F1.0
sVthe
p1254
F1.0
sVnull
p1255
F1.0
sVT-FLOAT
p1256
F1.0
sVfirst
p1257
F1.0
saa(lp1258
S'P06-2124143'
p1259
a(dp1260
Vle
p1261
F1.0
sVco
p1262
F1.0
sVT-INT
p1263
F3.0
sVpic
p1264
F3.0
sVoc
p1265
F1.0
sVpics
p1266
F1.0
sVto
p1267
F4.0
sVxic
p1268
F1.0
sVons
p1269
F1.0
sVT-FLOAT
p1270
F1.0
saa(lp1271
S'P06-212499'
p1272
a(dp1273
Vword-level
p1274
F1.0
sVT-INT
p1275
F3.0
sVbitam
p1276
F1.0
sVadmixture
p1277
F1.0
sVT-FLOAT
p1278
F2.0
sg377
F1.0
saa(lp1279
S'P06-212498'
p1280
a(dp1281
Vand
p1282
F1.0
sg82
F1.0
sVresult
p1283
F1.0
sVfrom
p1284
F1.0
sVbilingual
p1285
F1.0
sVtopics
p1286
F1.0
sVinferred
p1287
F1.0
sg69
F2.0
sVobserved
p1288
F1.0
sVas
p1289
F1.0
sVare
p1290
F1.0
sVdirectly
p1291
F1.0
sVthe
p1292
F2.0
sVimprove
p1293
F1.0
sVdata
p1294
F1.0
sVT-FLOAT
p1295
F1.0
sValignment
p1296
F1.0
sVmore
p1297
F1.0
saa(lp1298
S'P06-212493'
p1299
a(dp1300
Vand
p1301
F2.0
sVinference
p1302
F1.0
sVfor
p1303
F2.0
sVpresented
p1304
F1.0
sVomitted
p1305
F1.0
sVis
p1306
F1.0
sVT-INT
p1307
F3.0
sVT-FLOAT
p1308
F1.0
sValgorithms
p1309
F1.0
sVare
p1310
F2.0
sVbitam
p1311
F3.0
sVstraight
p1312
F1.0
sVforward
p1313
F1.0
sVextensions
p1314
F1.0
sVthe
p1315
F2.0
sVscheme
p1316
F1.0
sg119
F1.0
saa(lp1317
S'P06-212492'
p1318
a(dp1319
g82
F1.0
sVthese
p1320
F1.0
sVused
p1321
F1.0
sVinference
p1322
F1.0
sVposteriors
p1323
F1.0
sVof
p1324
F1.0
sVis
p1325
F1.0
sVapproximate
p1326
F1.0
sVto
p1327
F1.0
sVT-FLOAT
p1328
F1.0
sVvariables
p1329
F1.0
sVthe
p1330
F1.0
sVvariational
p1331
F1.0
sVtrue
p1332
F1.0
sVhidden
p1333
F1.0
saa(lp1334
S'P06-212490'
p1335
a(dp1336
Vis
p1337
F1.0
sVnow
p1338
F1.0
sg125
F1.0
sVgenerated
p1339
F1.0
saa(lp1340
S'P06-212497'
p1341
a(dp1342
Vand
p1343
F2.0
sVj=
p1344
F1.0
sVvia
p1345
F1.0
sVei
p1346
F2.0
sVdirectly
p1347
F1.0
sVis
p1348
F1.0
sVaj
p1349
F1.0
sVobserved
p1350
F2.0
sVare
p1351
F1.0
sVbitam
p1352
F2.0
sVin
p1353
F4.0
sVinformation
p1354
F2.0
sVaccurate
p1355
F1.0
sVto
p1356
F2.0
sVstrictly
p1357
F1.0
sg69
F4.0
sVT-INT
p1358
F4.0
sVpassed
p1359
F2.0
sVfinding
p1360
F1.0
sVhidden
p1361
F1.0
sVtopics
p1362
F2.0
sVhope
p1363
F1.0
sVcan
p1364
F1.0
sVnode
p1365
F1.0
sVbe
p1366
F1.0
sVcorresponding
p1367
F1.0
sVthat
p1368
F1.0
sVfrench
p1369
F1.0
sVsentences
p1370
F1.0
sVvariable
p1371
F1.0
sVfj
p1372
F1.0
sValigned
p1373
F1.0
sVT-FLOAT
p1374
F1.0
sValso
p1375
F1.0
sVunlike
p1376
F1.0
sVof
p1377
F3.0
sVmore
p1378
F1.0
sVso
p1379
F1.0
sVn=
p1380
F1.0
sVenglish
p1381
F1.0
sVthe
p1382
F6.0
sg131
F2.0
sVwhere
p1383
F1.0
sVindirectly
p1384
F1.0
saa(lp1385
S'P06-212494'
p1386
a(dp1387
Vapproximation
p1388
F1.0
sVT-INT
p1389
F2.0
sVT-FLOAT
p1390
F2.0
sVvariational
p1391
F1.0
saa(lp1392
S'P06-2124209'
p1393
a(dp1394
Vsimple
p1395
F1.0
sVbitam
p1396
F1.0
sVclose
p1397
F1.0
sVT-FLOAT
p1398
F1.0
sValignment
p1399
F1.0
sVstyle
p1400
F1.0
sVto
p1401
F1.0
sg69
F2.0
sVT-INT
p1402
F1.0
sVonly
p1403
F1.0
sVachieve
p1404
F1.0
sVhigher
p1405
F1.0
sVmodels
p1406
F1.0
sVoverall
p1407
F1.0
sVhmm
p1408
F1.0
sVusing
p1409
F1.0
sVthan
p1410
F1.0
sg82
F1.0
sVibm
p1411
F1.0
sVperformances
p1412
F1.0
sVvery
p1413
F1.0
sVmodel
p1414
F1.0
sVor
p1415
F1.0
saa(lp1416
S'P06-2124208'
p1417
a(dp1418
Vand
p1419
F3.0
sVheuristics
p1420
F1.0
sVachieved
p1421
F1.0
sVare
p1422
F1.0
sVapply
p1423
F1.0
sVbest
p1424
F1.0
sVbda
p1425
F1.0
sVfor
p1426
F1.0
sVT-INT
p1427
F8.0
sg69
F5.0
sValso
p1428
F1.0
sVwe
p1429
F1.0
sVrespectively
p1430
F1.0
sVhmm
p1431
F1.0
sg1185
F3.0
sVwith
p1432
F1.0
sVthe
p1433
F1.0
sVibm
p1434
F2.0
sVpractically
p1435
F1.0
sVperformances
p1436
F1.0
sVtogether
p1437
F1.0
sVT-FLOAT
p1438
F4.0
sVat
p1439
F1.0
saa(lp1440
S'P06-2124202'
p1441
a(dp1442
Vand
p1443
F2.0
sVtwo
p1444
F1.0
sVin
p1445
F1.0
sVseen
p1446
F1.0
sVrefined
p1447
F1.0
sVunion
p1448
F2.0
sg69
F1.0
sVneighboring
p1449
F1.0
sg119
F1.0
sVgrows
p1450
F1.0
sVgives
p1451
F1.0
sVwordpairs
p1452
F1.0
sVdirections
p1453
F1.0
sVintersection
p1454
F1.0
sVwith
p1455
F1.0
sVT-FLOAT
p1456
F1.0
sVhigh-recall
p1457
F2.0
sVhigh-precision
p1458
F1.0
sVyields
p1459
F1.0
sVof
p1460
F1.0
sVthe
p1461
F3.0
sValignments
p1462
F1.0
saa(lp1463
S'P06-2124201'
p1464
a(dp1465
Vis
p1466
F1.0
sVone
p1467
F1.0
sVpicked
p1468
F1.0
sVfurther
p1469
F1.0
sVT-FLOAT
p1470
F1.0
sVquality
p1471
F1.0
sVbest
p1472
F1.0
sVfor
p1473
F1.0
sg110
F1.0
sg111
F1.0
sg69
F1.0
sVhighlighted
p1474
F1.0
sVto
p1475
F1.0
sVsetting
p1476
F1.0
sValignment
p1477
F1.0
sVunder
p1478
F1.0
sVthat
p1479
F1.0
sVevaluate
p1480
F1.0
sVtranslation
p1481
F1.0
sVmodel
p1482
F1.0
sVcolumn
p1483
F1.0
sVup
p1484
F1.0
sVeach
p1485
F1.0
sVthe
p1486
F3.0
saa(lp1487
S'P06-2124200'
p1488
a(dp1489
Vand
p1490
F2.0
sVhmms
p1491
F1.0
sVtreebank
p1492
F1.0
sVbitam
p1493
F1.0
sVin
p1494
F1.0
sVtable
p1495
F2.0
sVquality
p1496
F1.0
sValignment
p1497
F1.0
sVfor
p1498
F1.0
sVT-INT
p1499
F13.0
sg110
F1.0
sg111
F1.0
sg69
F2.0
sVdata
p1500
F1.0
sVmachine
p1501
F1.0
sVcomparing
p1502
F1.0
sVlisted
p1503
F1.0
sg377
F1.0
sVaccuracy
p1504
F1.0
sVf-measure
p1505
F1.0
sVmodels
p1506
F2.0
sVtranslation
p1507
F1.0
sVwith
p1508
F2.0
sVthe
p1509
F1.0
sg82
F1.0
sVon
p1510
F1.0
sVtraining
p1511
F1.0
sVscheme
p1512
F1.0
sVword
p1513
F1.0
sVibm
p1514
F1.0
sVof
p1515
F1.0
sg997
F1.0
sVT-FLOAT
p1516
F4.0
saa(lp1517
S'P06-2124205'
p1518
a(dp1519
Vbecause
p1520
F1.0
sVsentence
p1521
F1.0
sVis
p1522
F2.0
sg69
F1.0
sVare
p1523
F1.0
sVbitam
p1524
F2.0
sVin
p1525
F1.0
sVT-FLOAT
p1526
F1.0
sVsampled
p1527
F1.0
sVtwo
p1528
F1.0
sVbetter
p1529
F1.0
sVT-INT
p1530
F2.0
sVother
p1531
F1.0
sg119
F1.0
sVtopics
p1532
F1.0
sVworse
p1533
F1.0
sVvery
p1534
F1.0
sVmost
p1535
F1.0
sVnot
p1536
F1.0
sVthan
p1537
F1.0
sVconcentrated
p1538
F1.0
sVsettings
p1539
F1.0
sVlevel
p1540
F1.0
sVthe
p1541
F3.0
sVslightly
p1542
F2.0
sVat
p1543
F1.0
saa(lp1544
S'P06-2124204'
p1545
a(dp1546
g82
F1.0
sVlook
p1547
F1.0
sVbitams
p1548
F1.0
sVthree
p1549
F1.0
sVyield
p1550
F1.0
sVdoes
p1551
F1.0
sVat
p1552
F1.0
sVsignificant
p1553
F1.0
sVnot
p1554
F1.0
sVclose
p1555
F1.0
sVthe
p1556
F1.0
sVdifference
p1557
F1.0
sVT-FLOAT
p1558
F1.0
saa(lp1559
S'P06-212412'
p1560
a(dp1561
Vinformation
p1562
F1.0
sVextended
p1563
F1.0
sVuseful
p1564
F1.0
sVespecially
p1565
F1.0
sVcooccurrence
p1566
F1.0
sVtheir
p1567
F1.0
sVmodels
p1568
F1.0
sVT-FLOAT
p1569
F1.0
sVis
p1570
F1.0
sVwhen
p1571
F1.0
sVdue
p1572
F1.0
sVreliance
p1573
F1.0
sVto
p1574
F1.0
sVstatistics
p1575
F1.0
sVword-pair
p1576
F1.0
sVare
p1577
F1.0
sVtranslation
p1578
F1.0
sVon
p1579
F1.0
sVsolely
p1580
F1.0
sVvague
p1581
F1.0
sVcontextual
p1582
F1.0
saa(lp1583
S'P06-212411'
p1584
a(dp1585
Vand
p1586
F1.0
sVinto
p1587
F1.0
sVcorrelations
p1588
F1.0
sVfunctional
p1589
F1.0
sVtopic
p1590
F1.0
sVlikely
p1591
F1.0
sVare
p1592
F2.0
sVfor
p1593
F1.0
sVto
p1594
F1.0
sg110
F1.0
sg111
F1.0
sVgenerally
p1595
F1.0
sg69
F2.0
sVsame
p1596
F1.0
sVsource
p1597
F1.0
sVwhich
p1598
F1.0
sg119
F1.0
sVbe
p1599
F1.0
sVon
p1600
F1.0
sVtranslations
p1601
F1.0
sVbear
p1602
F1.0
sVmost
p1603
F1.0
sVwords
p1604
F4.0
sVthe
p1605
F3.0
sValso
p1606
F1.0
sg125
F1.0
sVtarget
p1607
F1.0
sg1188
F1.0
sVof
p1608
F1.0
sVside
p1609
F1.0
sVtranslated
p1610
F1.0
sVT-FLOAT
p1611
F3.0
sVsimilar
p1612
F1.0
sVexample
p1613
F1.0
sVfrequent
p1614
F2.0
saa(lp1615
S'P06-212410'
p1616
a(dp1617
Vand
p1618
F2.0
sVinformation
p1619
F1.0
sVcorpuslevel
p1620
F1.0
sVword-correlation
p1621
F1.0
sVmay
p1622
F1.0
sVT-FLOAT
p1623
F1.0
sVdisambiguate
p1624
F1.0
sVsentence-level
p1625
F1.0
sg69
F1.0
sVchoices
p1626
F1.0
sVtopical
p1627
F1.0
sVcandidates
p1628
F1.0
sVword-alignment
p1629
F1.0
sVthe
p1630
F1.0
sVbeyond
p1631
F1.0
sVcontextual-level
p1632
F1.0
sVtranslation
p1633
F1.0
sVto
p1634
F1.0
sVhelp
p1635
F1.0
saa(lp1636
S'P06-212417'
p1637
a(dp1638
Von
p1639
F1.0
sVfor
p1640
F1.0
sVmodels
p1641
F1.0
sVmainly
p1642
F1.0
sVconcern
p1643
F1.0
sVlogical
p1644
F1.0
sVmachine
p1645
F1.0
sVtopical
p1646
F1.0
sVT-FLOAT
p1647
F1.0
sVof
p1648
F1.0
sVrepresentations
p1649
F1.0
sVtranslation
p1650
F2.0
sVworks
p1651
F1.0
sVexplicit
p1652
F1.0
sVsemantics
p1653
F1.0
sVprevious
p1654
F1.0
saa(lp1655
S'P06-212416'
p1656
a(dp1657
Vand
p1658
F1.0
sVinformation
p1659
F1.0
sVprocess
p1660
F1.0
sVsharper
p1661
F1.0
sVbe
p1662
F1.0
sVto
p1663
F1.0
sVmodels
p1664
F1.0
sVT-FLOAT
p1665
F1.0
sVless
p1666
F1.0
sg69
F1.0
sVtopical
p1667
F1.0
sVambiguous
p1668
F1.0
sVare
p1669
F1.0
sVexpected
p1670
F1.0
sVsuch
p1671
F1.0
sVthe
p1672
F2.0
sVwith
p1673
F1.0
sVtranslation
p1674
F1.0
sVword-alignment
p1675
F1.0
saa(lp1676
S'P06-212415'
p1677
a(dp1678
g82
F1.0
sVcapture
p1679
F1.0
sVwe
p1680
F1.0
sVdocumentpairs
p1681
F1.0
sVlatent
p1682
F1.0
sVthis
p1683
F1.0
sVpropose
p1684
F1.0
sVtopics
p1685
F1.0
sVof
p1686
F1.0
sg69
F1.0
sVunderlying
p1687
F1.0
sVto
p1688
F1.0
sVpaper
p1689
F1.0
sVT-FLOAT
p1690
F1.0
sVcontext
p1691
F1.0
sVin
p1692
F1.0
sVadmixture
p1693
F1.0
sVmodel
p1694
F1.0
sVprobabilistic
p1695
F1.0
sVthe
p1696
F1.0
saa(lp1697
S'P06-212414'
p1698
a(dp1699
Vlogic-flow
p1700
F1.0
sVstated
p1701
F1.0
sVbeing
p1702
F1.0
sVone
p1703
F1.0
sVinstances
p1704
F1.0
sVas
p1705
F1.0
sVare
p1706
F1.0
sVin
p1707
F2.0
sVT-FLOAT
p1708
F1.0
sVuncorrelated
p1709
F1.0
sVsentence-pairs
p1710
F1.0
sg69
F1.0
sVshould
p1711
F1.0
sVother
p1712
F1.0
sVinstead
p1713
F1.0
sg119
F1.0
sVbe
p1714
F1.0
sVnida
p1715
F1.0
sVword-aligned
p1716
F1.0
sVthat
p1717
F1.0
sVtied
p1718
F1.0
sVwords
p1719
F1.0
sVentity
p1720
F1.0
sVby
p1721
F1.0
sg82
F1.0
sVof
p1722
F1.0
sVdocument-pair
p1723
F2.0
sVthe
p1724
F2.0
saa(lp1725
S'P06-212419'
p1726
a(dp1727
Vand
p1728
F1.0
sVbe
p1729
F1.0
sVaspects
p1730
F1.0
sVdo
p1731
F1.0
sVthese
p1732
F1.0
sg69
F1.0
sVapproaches
p1733
F1.0
sVcan
p1734
F1.0
sVthey
p1735
F1.0
sVnot
p1736
F1.0
sVstochastic
p1737
F1.0
sVtranslation
p1738
F1.0
sVT-FLOAT
p1739
F1.0
sVexpensive
p1740
F1.0
sVemphasize
p1741
F1.0
saa(lp1742
S'P06-212418'
p1743
a(dp1744
Vand
p1745
F3.0
sg110
F2.0
sVdorr
p1746
F1.0
sVthis
p1747
F1.0
sg111
F2.0
sVnyberg
p1748
F1.0
sVknowledge-based
p1749
F1.0
sg69
F2.0
sVT-INT
p1750
F2.0
sVapproaches
p1751
F1.0
sVhabash
p1752
F1.0
sVmitamura
p1753
F1.0
sVinclude
p1754
F1.0
sVT-FLOAT
p1755
F1.0
sVinterlingua-based
p1756
F1.0
saa(lp1757
S'P06-2124173'
p1758
a(dp1759
Vrandom
p1760
F1.0
sVconvergent
p1761
F1.0
sVare
p1762
F1.0
sValignment
p1763
F1.0
sVfrom
p1764
F1.0
sVfor
p1765
F2.0
sVto
p1766
F1.0
sg69
F2.0
sVdocument-pairs
p1767
F1.0
sVrestarts
p1768
F1.0
sVT-INT
p1769
F1.0
sVvariational
p1770
F1.0
sVused
p1771
F1.0
sVcorresponding
p1772
F1.0
sVunseen
p1773
F1.0
sVhighest
p1774
F1.0
sVlikelihood
p1775
F1.0
sVthe
p1776
F3.0
sVword
p1777
F1.0
sVparameters
p1778
F1.0
sVretrieving
p1779
F1.0
sVT-FLOAT
p1780
F1.0
saa(lp1781
S'P06-2124176'
p1782
a(dp1783
Vand
p1784
F1.0
sVover
p1785
F1.0
sVsmoothing
p1786
F1.0
sVbitam
p1787
F1.0
sVvar
p1788
F1.0
sVT-FLOAT
p1789
F1.0
sVnull
p1790
F1.0
sVwith
p1791
F1.0
sVlaplace
p1792
F1.0
saa(lp1793
S'P06-2124179'
p1794
a(dp1795
VT-INT
p1796
F2.0
sVT-FLOAT
p1797
F2.0
sVtopic-specific
p1798
F1.0
sVtranslation
p1799
F1.0
saa(lp1800
S'P06-2124110'
p1801
a(dp1802
Vobtained
p1803
F1.0
sVlatent
p1804
F1.0
sVof
p1805
F1.0
sVvariables
p1806
F1.0
sVestimations
p1807
F1.0
sg69
F1.0
sVconstitute
p1808
F1.0
sVT-FLOAT
p1809
F1.0
sVposterior
p1810
F1.0
sVare
p1811
F1.0
sVabove
p1812
F1.0
sVthe
p1813
F3.0
sVwhere
p1814
F1.0
sVe-step
p1815
F1.0
saa(lp1816
S'P06-2124117'
p1817
a(dp1818
Vsmoothing
p1819
F1.0
sVT-FLOAT
p1820
F1.0
sg377
F1.0
sVlaplace
p1821
F1.0
sVfirst
p1822
F1.0
saa(lp1823
S'P06-2124116'
p1824
a(dp1825
Vremedies
p1826
F1.0
sVwe
p1827
F1.0
sVsparsity
p1828
F1.0
sVmodels
p1829
F1.0
sVT-FLOAT
p1830
F1.0
sVreduce
p1831
F1.0
sg69
F1.0
sVintroduce
p1832
F1.0
sVtwo
p1833
F1.0
sVto
p1834
F1.0
sVin
p1835
F1.0
sVour
p1836
F1.0
sVthe
p1837
F1.0
sVdata
p1838
F1.0
sVproblem
p1839
F1.0
saa(lp1840
S'P06-2124115'
p1841
a(dp1842
Vlack
p1843
F1.0
sVal
p1844
F1.0
sVare
p1845
F1.0
sVhave
p1846
F1.0
sVin
p1847
F2.0
sVet
p1848
F1.0
sVblei
p1849
F1.0
sVsize
p1850
F1.0
sVinstance
p1851
F1.0
sVfor
p1852
F2.0
sVestimating
p1853
F1.0
sg110
F2.0
sg111
F2.0
sVmonolingual
p1854
F1.0
sg69
F9.0
sVdocument-pairs
p1855
F1.0
sVlanguages
p1856
F1.0
sVT-INT
p1857
F2.0
sVpotential
p1858
F1.0
sVassuming
p1859
F1.0
sVmore
p1860
F1.0
sVcase
p1861
F1.0
sVbf
p1862
F2.0
sVvocabulary
p1863
F1.0
sVthan
p1864
F1.0
sVlexicons
p1865
F1.0
sVproblem
p1866
F1.0
sVvolume
p1867
F1.0
sVtranslation
p1868
F1.0
sVposes
p1869
F1.0
sVdata
p1870
F1.0
sVthe
p1871
F4.0
sg82
F2.0
sVboth
p1872
F1.0
sg125
F3.0
sVsizes
p1873
F1.0
sg127
F1.0
sVof
p1874
F3.0
sg258
F3.0
sVlarge
p1875
F1.0
sVsparsity
p1876
F1.0
sVv
p1877
F2.0
sVserious
p1878
F1.0
sVT-FLOAT
p1879
F5.0
saa(lp1880
S'P06-2124114'
p1881
a(dp1882
Vand
p1883
F1.0
sVsmoothing
p1884
F1.0
sVT-INT
p1885
F2.0
sVsparseness
p1886
F1.0
sVT-FLOAT
p1887
F2.0
sVdata
p1888
F1.0
saa(lp1889
S'P06-2124119'
p1890
a(dp1891
Vsmoothing
p1892
F1.0
sVsecond
p1893
F1.0
sg377
F1.0
sVT-FLOAT
p1894
F1.0
sVinterpolation
p1895
F1.0
saa(lp1896
S'P06-2124118'
p1897
a(dp1898
Vall
p1899
F1.0
sVset
p1900
F1.0
sVis
p1901
F1.0
sVconditional
p1902
F1.0
sVas
p1903
F1.0
sVin
p1904
F1.0
sVestimated
p1905
F1.0
sVdistributions
p1906
F1.0
sVwhose
p1907
F1.0
sVmatrix
p1908
F1.0
sVparameters
p1909
F1.0
sg69
F3.0
sVsymmetric
p1910
F1.0
sVto
p1911
F1.0
sVunder
p1912
F1.0
sg119
F1.0
sVapproach
p1913
F1.0
sVcolumns
p1914
F1.0
sVbe
p1915
F1.0
sVrandom
p1916
F1.0
sVtheory
p1917
F1.0
sVmultinomial
p1918
F2.0
sVexpectation
p1919
F1.0
sVcollection
p1920
F1.0
sVposterior
p1921
F1.0
sVdirichlet
p1922
F1.0
sVthese
p1923
F1.0
sVbayesian
p1924
F1.0
sVusing
p1925
F1.0
sVparameter
p1926
F1.0
sVT-FLOAT
p1927
F1.0
sg82
F2.0
sg993
F1.0
sVthis
p1928
F1.0
sVof
p1929
F3.0
sVvectors
p1930
F2.0
sVcorrespond
p1931
F1.0
sVprior
p1932
F1.0
sVcan
p1933
F1.0
sVthe
p1934
F2.0
sVtreated
p1935
F1.0
saa(lp1936
S'P06-2124218'
p1937
a(dp1938
Vapplying
p1939
F1.0
sVbitam
p1940
F1.0
sVproposed
p1941
F1.0
sVstate-of-the-art
p1942
F1.0
sVthis
p1943
F1.0
sVof
p1944
F1.0
sVis
p1945
F1.0
sVsmt
p1946
F1.0
sVfor
p1947
F1.0
sVone
p1948
F1.0
sVcurrent
p1949
F1.0
sVmodels
p1950
F1.0
sVT-FLOAT
p1951
F1.0
sVsystems
p1952
F1.0
sVway
p1953
F1.0
sVfurther
p1954
F1.0
sVthe
p1955
F1.0
sVimprovement
p1956
F1.0
sVinto
p1957
F1.0
saa(lp1958
S'P06-2124219'
p1959
a(dp1960
Vand
p1961
F1.0
sVboosted
p1962
F1.0
sVbuda
p1963
F1.0
sVT-FLOAT
p1964
F1.0
sVas
p1965
F1.0
sVare
p1966
F1.0
sVin
p1967
F1.0
sVdenoted
p1968
F1.0
sVtable
p1969
F1.0
sVthe
p1970
F1.0
sValignments
p1971
F1.0
sVbbda
p1972
F1.0
saa(lp1973
S'P06-2124199'
p1974
a(dp1975
VT-INT
p1976
F9.0
sVT-FLOAT
p1977
F4.0
saa(lp1978
S'P06-2124198'
p1979
a(dp1980
VT-INT
p1981
F9.0
sVT-FLOAT
p1982
F4.0
saa(lp1983
S'P06-2124193'
p1984
a(dp1985
Vapplied
p1986
F1.0
sVheuristics
p1987
F1.0
sVadditional
p1988
F1.0
sVaccuracies
p1989
F1.0
sVto
p1990
F1.0
sVare
p1991
F1.0
sVfurther
p1992
F1.0
sVthe
p1993
F1.0
sVT-FLOAT
p1994
F1.0
sVimprove
p1995
F1.0
saa(lp1996
S'P06-2124192'
p1997
a(dp1998
Vand
p1999
F1.0
sVchinese
p2000
F1.0
sVdirections
p2001
F1.0
sVallows
p2002
F1.0
sg69
F1.0
sVtwo
p2003
F1.0
sVnotably
p2004
F1.0
sVto
p2005
F1.0
sVenglish-to
p2006
F1.0
sVbitam
p2007
F1.0
sVin
p2008
F1.0
sVtest
p2009
F1.0
sVT-FLOAT
p2010
F1.0
sg377
F1.0
sValignments
p2011
F1.0
sVchinese-to-english
p2012
F1.0
saa(lp2013
S'P06-2124191'
p2014
a(dp2015
Vwe
p2016
F1.0
sVword
p2017
F1.0
sVsettings
p2018
F1.0
sVevaluate
p2019
F1.0
sVin
p2020
F1.0
sVvarious
p2021
F1.0
sVaccuracies
p2022
F1.0
sVT-FLOAT
p2023
F1.0
sValignments
p2024
F1.0
sValignment
p2025
F1.0
saa(lp2026
S'P06-2124190'
p2027
a(dp2028
VT-INT
p2029
F2.0
sVT-FLOAT
p2030
F2.0
sVword
p2031
F1.0
sVevaluating
p2032
F1.0
saa(lp2033
S'P06-2124197'
p2034
a(dp2035
VT-INT
p2036
F6.0
sVT-FLOAT
p2037
F2.0
saa(lp2038
S'P06-2124196'
p2039
a(dp2040
VT-INT
p2041
F6.0
sVT-FLOAT
p2042
F2.0
saa(lp2043
S'P06-2124195'
p2044
a(dp2045
VT-INT
p2046
F6.0
sVT-FLOAT
p2047
F2.0
saa(lp2048
S'P06-2124194'
p2049
a(dp2050
Vand
p2051
F1.0
sVin
p2052
F1.0
sVfi
p2053
F1.0
sVbda
p2054
F3.0
sVtakes
p2055
F1.0
sg110
F5.0
sg111
F5.0
sVtwo
p2056
F1.0
sVT-INT
p2057
F111.0
sVti
p2058
F1.0
sg119
F1.0
sVte
p2059
F1.0
sValignments
p2060
F1.0
sVgenerates
p2061
F1.0
sVdirections
p2062
F1.0
sg1185
F5.0
sVintersection
p2063
F1.0
sVT-FLOAT
p2064
F46.0
sg994
F4.0
sg82
F6.0
sg992
F2.0
sg993
F4.0
sg125
F5.0
sVibm
p2065
F2.0
sg1188
F1.0
sg127
F5.0
sVof
p2066
F1.0
sg153
F5.0
sg945
F1.0
sg948
F1.0
sg156
F5.0
sg1002
F1.0
sg1003
F2.0
sg1004
F5.0
sg1005
F5.0
sg997
F1.0
sVthe
p2067
F3.0
sVinter
p2068
F1.0
sVhigh-precision
p2069
F1.0
sVse
p2070
F1.0
saa(lp2071
S'P06-212466'
p2072
a(dp2073
VT-INT
p2074
F1.0
sVT-FLOAT
p2075
F1.0
saa(lp2076
S'P06-212467'
p2077
a(dp2078
Ven
p2079
F1.0
sVfor
p2080
F1.0
sg110
F1.0
sg111
F1.0
sVin
p2081
F1.0
sg69
F2.0
sVdoc-pair
p2082
F1.0
sVsentence-pair
p2083
F1.0
sVeach
p2084
F1.0
sVdtth
p2085
F1.0
sVthe
p2086
F1.0
sVT-FLOAT
p2087
F1.0
sVfn
p2088
F1.0
saa(lp2089
S'P06-212464'
p2090
a(dp2091
VT-INT
p2092
F1.0
sVT-FLOAT
p2093
F1.0
saa(lp2094
S'P06-212462'
p2095
a(dp2096
g82
F1.0
sg110
F1.0
sVfor
p2097
F1.0
sVT-INT
p2098
F1.0
sVthis
p2099
F1.0
sg111
F1.0
sVis
p2100
F1.0
sVsummarized
p2101
F1.0
sg69
F3.0
sVdocument-pair
p2102
F1.0
sVprocess
p2103
F1.0
sVas
p2104
F1.0
sVfd
p2105
F1.0
sVed
p2106
F1.0
sVgenerative
p2107
F1.0
sVT-FLOAT
p2108
F1.0
sg377
F1.0
sVbelow
p2109
F1.0
saa(lp2110
S'P06-212460'
p2111
a(dp2112
V|e=ei
p2113
F1.0
sVlexicon
p2114
F1.0
sV=p
p2115
F1.0
sVis
p2116
F1.0
sVan
p2117
F1.0
sVtopic
p2118
F1.0
sV=fj
p2119
F1.0
sVindicator
p2120
F1.0
sg110
F1.0
sg111
F1.0
sg69
F4.0
sVto
p2121
F1.0
sg377
F1.0
sVbi
p2122
F1.0
sVchoice
p2123
F1.0
sVz=k
p2124
F1.0
sVvariable
p2125
F1.0
sVtranslation
p2126
F1.0
sVdenote
p2127
F1.0
sVT-FLOAT
p2128
F1.0
sg82
F2.0
sg126
F1.0
sVof
p2129
F1.0
sg258
F1.0
sg152
F1.0
sVthe
p2130
F1.0
sg131
F1.0
sVwhere
p2131
F1.0
saa(lp2132
S'P06-2124166'
p2133
a(dp2134
g82
F2.0
sVand
p2135
F2.0
sVwe
p2136
F1.0
sVfor
p2137
F1.0
sVcrossvalidation
p2138
F1.0
sVboth
p2139
F1.0
sVchosen
p2140
F1.0
sVof
p2141
F1.0
sVis
p2142
F1.0
sg69
F1.0
sVthree-topic
p2143
F1.0
sVlarge
p2144
F1.0
sVT-FLOAT
p2145
F1.0
sVtenfold
p2146
F1.0
sVperformed
p2147
F1.0
sVsets
p2148
F1.0
sVsmall
p2149
F1.0
sVtraining
p2150
F1.0
sVthe
p2151
F2.0
sVdata
p2152
F1.0
sVsetting
p2153
F1.0
saa(lp2154
S'P06-2124167'
p2155
a(dp2156
Vbitam
p2157
F1.0
sVof
p2158
F2.0
sVis
p2159
F1.0
sVoverall
p2160
F1.0
sVnumber
p2161
F1.0
sVtopics
p2162
F1.0
sVto
p2163
F1.0
sVcomplexity
p2164
F1.0
sVT-FLOAT
p2165
F1.0
sVcomputation
p2166
F1.0
sVthe
p2167
F3.0
sVhidden
p2168
F1.0
sVlinear
p2169
F1.0
saa(lp2170
S'P06-21249'
p2171
a(dp2172
Vand
p2173
F2.0
sVyamada
p2174
F1.0
sVvogel
p2175
F1.0
sVal
p2176
F2.0
sVdistortion
p2177
F1.0
sVas
p2178
F1.0
sVin
p2179
F3.0
sVet
p2180
F2.0
sValignment
p2181
F1.0
sVmappings
p2182
F1.0
sVwithin-sentence
p2183
F1.0
sg110
F3.0
sg111
F3.0
sg69
F5.0
sVcurrent
p2184
F1.0
sVT-INT
p2185
F3.0
sVemphasize
p2186
F1.0
sVbrown
p2187
F1.0
sVmost
p2188
F1.0
sVapproaches
p2189
F1.0
sVdependencies
p2190
F1.0
sVsuch
p2191
F1.0
sVsyntax
p2192
F1.0
sVT-FLOAT
p2193
F3.0
sVhmm
p2194
F1.0
sVof
p2195
F1.0
sVdependency
p2196
F1.0
sVknight
p2197
F1.0
sVthe
p2198
F2.0
saa(lp2199
S'P06-21248'
p2200
a(dp2201
Vsentence-pairs
p2202
F1.0
sVin
p2203
F1.0
sVmodels
p2204
F1.0
sVdata
p2205
F1.0
sVof
p2206
F1.0
sVbeen
p2207
F1.0
sVmachine
p2208
F1.0
sVstate-of-the-art
p2209
F1.0
sVas
p2210
F1.0
sVunrelated
p2211
F1.0
sVT-FLOAT
p2212
F1.0
sVstatistical
p2213
F1.0
sVsets
p2214
F1.0
sVtranslation
p2215
F1.0
sVhas
p2216
F1.0
sVtreated
p2217
F1.0
sVparallel
p2218
F1.0
saa(lp2219
S'P06-2124162'
p2220
a(dp2221
Vvery
p2222
F1.0
sVover
p2223
F1.0
sg69
F1.0
sVtopics
p2224
F1.0
sVsmoothing
p2225
F1.0
sVquickly
p2226
F1.0
sVfmeasure
p2227
F1.0
sVwithout
p2228
F1.0
sVtwo
p2229
F1.0
sVT-FLOAT
p2230
F1.0
sVdrops
p2231
F1.0
sVany
p2232
F1.0
saa(lp2233
S'P06-2124163'
p2234
a(dp2235
Vand
p2236
F1.0
sVboth
p2237
F1.0
sVall
p2238
F1.0
sVword
p2239
F1.0
sVfor
p2240
F1.0
sVwe
p2241
F1.0
sVT-FLOAT
p2242
F1.0
sVuse
p2243
F1.0
sg69
F1.0
sVsmoothing
p2244
F1.0
sVmodels
p2245
F1.0
sVexperiments
p2246
F1.0
sVbitam
p2247
F1.0
sVin
p2248
F1.0
sVfollowing
p2249
F1.0
sVour
p2250
F1.0
sVthe
p2251
F1.0
sVnull
p2252
F1.0
sVlaplace
p2253
F1.0
saa(lp2254
S'P06-21243'
p2255
a(dp2256
Vproposed
p2257
F1.0
sVsentence
p2258
F1.0
sg69
F1.0
sVtopic
p2259
F1.0
sVare
p2260
F1.0
sVbitam
p2261
F1.0
sVcapture
p2262
F1.0
sVdifferent
p2263
F1.0
sg110
F1.0
sg111
F1.0
sVthree
p2264
F1.0
sVto
p2265
F1.0
sVlinguistic
p2266
F1.0
sVsharing
p2267
F1.0
sVmodels
p2268
F1.0
sVlevels
p2269
F2.0
sVgranularity
p2270
F1.0
sVword
p2271
F1.0
sVthe
p2272
F1.0
sg125
F1.0
sg127
F1.0
sVof
p2273
F1.0
sVT-FLOAT
p2274
F3.0
sVor
p2275
F1.0
sVat
p2276
F2.0
saa(lp2277
S'P06-21242'
p2278
a(dp2279
Vtopics
p2280
F1.0
sVwithin
p2281
F1.0
sVconstitute
p2282
F1.0
sVare
p2283
F1.0
sVT-FLOAT
p2284
F1.0
sVformalism
p2285
F1.0
sVassumed
p2286
F1.0
sg69
F1.0
sVparallel
p2287
F1.0
sVto
p2288
F1.0
sVof
p2289
F1.0
sVtopic-specific
p2290
F1.0
sVbilingual
p2291
F1.0
sVunder
p2292
F1.0
sg119
F1.0
sVmodel
p2293
F1.0
sVmixture
p2294
F1.0
sVeach
p2295
F1.0
sVtranslation
p2296
F1.0
sVhidden
p2297
F1.0
sg82
F3.0
sVthis
p2298
F1.0
sVfollows
p2299
F1.0
sVdocument-pair
p2300
F1.0
sVword-pair
p2301
F1.0
sVsentence-pairs
p2302
F1.0
sVthe
p2303
F1.0
saa(lp2304
S'P06-21241'
p2305
a(dp2306
g82
F1.0
sVwe
p2307
F1.0
sVnovel
p2308
F1.0
sVword
p2309
F1.0
sVstatistical
p2310
F1.0
sVfor
p2311
F1.0
sVpropose
p2312
F1.0
sVmachine
p2313
F1.0
sVtopical
p2314
F1.0
sVbilingual
p2315
F1.0
sVin
p2316
F1.0
sVadmixture
p2317
F1.0
sVtranslation
p2318
F1.0
sVformalism
p2319
F1.0
sVT-FLOAT
p2320
F1.0
sValignment
p2321
F1.0
saa(lp2322
S'P06-21247'
p2323
a(dp2324
Vand
p2325
F1.0
sVword
p2326
F1.0
sVlead
p2327
F1.0
sVproposed
p2328
F1.0
sVshow
p2329
F1.0
sVmodels
p2330
F1.0
sVT-FLOAT
p2331
F1.0
sVthat
p2332
F1.0
sg69
F1.0
sVbetter
p2333
F1.0
sVto
p2334
F1.0
sVexperiments
p2335
F1.0
sVpreliminary
p2336
F1.0
sVour
p2337
F1.0
sVthe
p2338
F1.0
sVaccuracy
p2339
F1.0
sVquality
p2340
F1.0
sVtranslation
p2341
F1.0
sValignment
p2342
F1.0
sVimprove
p2343
F1.0
saa(lp2344
S'P06-21246'
p2345
a(dp2346
Vlatent
p2347
F1.0
sVbilingual
p2348
F1.0
sVthat
p2349
F1.0
sVmodels
p2350
F1.0
sVfacilitate
p2351
F1.0
sVtopics
p2352
F1.0
sVpairing
p2353
F1.0
sVshare
p2354
F1.0
sVinferred
p2355
F1.0
sg69
F1.0
sVaspects
p2356
F1.0
sVentities
p2357
F1.0
sVcoherent
p2358
F1.0
sVcommon
p2359
F1.0
sVbitam
p2360
F1.0
sVof
p2361
F1.0
sVlinguistic
p2362
F1.0
sVthe
p2363
F1.0
sVtopical
p2364
F1.0
sVwith
p2365
F1.0
sVT-FLOAT
p2366
F1.0
saa(lp2367
S'P06-21245'
p2368
a(dp2369
Vand
p2370
F1.0
sVestimation
p2371
F1.0
sVinference
p2372
F1.0
sVfor
p2373
F1.0
sVefficient
p2374
F1.0
sVapproximation
p2375
F1.0
sValgorithms
p2376
F1.0
sVare
p2377
F1.0
sVT-FLOAT
p2378
F1.0
sVvariational
p2379
F1.0
sVparameter
p2380
F1.0
sVdesigned
p2381
F1.0
saa(lp2382
S'P06-21244'
p2383
a(dp2384
Vprocess
p2385
F1.0
sVenable
p2386
F1.0
sVleverage
p2387
F1.0
sVto
p2388
F1.0
sVthese
p2389
F1.0
sVof
p2390
F1.0
sVmodels
p2391
F1.0
sVtopical
p2392
F1.0
sVT-FLOAT
p2393
F1.0
sVwordalignment
p2394
F1.0
sVdocument-pairs
p2395
F1.0
sVcontents
p2396
F1.0
saa(lp2397
S'P06-2124107'
p2398
a(dp2399
Vand
p2400
F1.0
sVpredict
p2401
F1.0
sVit
p2402
F1.0
sVtopic
p2403
F2.0
sVsentence-pair
p2404
F2.0
sVunderlying
p2405
F1.0
sVin
p2406
F1.0
sVT-FLOAT
p2407
F1.0
sVindicator
p2408
F1.0
sVeter
p2409
F1.0
sg69
F1.0
sVto
p2410
F1.0
sVdocument
p2411
F1.0
sVbe
p2412
F1.0
sVused
p2413
F1.0
sVthat
p2414
F1.0
sVnth
p2415
F1.0
sVdistribution
p2416
F1.0
sg994
F1.0
sVof
p2417
F2.0
sVzdn
p2418
F1.0
sVcan
p2419
F1.0
sVthe
p2420
F3.0
saa(lp2421
S'P06-2124109'
p2422
a(dp2423
VT-FLOAT
p2424
F1.0
sVessentially
p2425
F1.0
sVeqs
p2426
F1.0
sg69
F1.0
saa(lp2427
S'P06-2124188'
p2428
a(dp2429
Vthe
p2430
F1.0
sVnumber
p2431
F1.0
sVespecially
p2432
F1.0
sVis
p2433
F1.0
sVwhen
p2434
F1.0
sVmonolingual
p2435
F1.0
sVbitams
p2436
F1.0
sg69
F2.0
sVtopics
p2437
F2.0
sVroughly
p2438
F1.0
sVT-FLOAT
p2439
F1.0
sVare
p2440
F1.0
sVof
p2441
F1.0
sVsmall
p2442
F1.0
sVfuzzy
p2443
F1.0
sVlearned
p2444
F1.0
sVby
p2445
F1.0
sVspeaking
p2446
F1.0
saa(lp2447
S'P06-2124189'
p2448
a(dp2449
Vdo
p2450
F1.0
sVwe
p2451
F1.0
sVfiltering
p2452
F1.0
sVT-INT
p2453
F1.0
sVthat
p2454
F1.0
sVsome
p2455
F1.0
sVtopics
p2456
F1.0
sVbitams
p2457
F1.0
sg69
F1.0
sVillustrated
p2458
F1.0
sVcapture
p2459
F1.0
sVas
p2460
F1.0
sVin
p2461
F1.0
sVproper
p2462
F1.0
sVtable
p2463
F1.0
sVT-FLOAT
p2464
F1.0
sVwith
p2465
F1.0
sVfind
p2466
F1.0
saa(lp2467
S'P06-2124229'
p2468
a(dp2469
Vbleu
p2470
F1.0
sVand
p2471
F2.0
sVbaseline
p2472
F1.0
sVfor
p2473
F2.0
sVhmm
p2474
F1.0
sVtrack
p2475
F1.0
sVrespectively
p2476
F1.0
sg69
F4.0
sVsmall-data
p2477
F1.0
sVT-INT
p2478
F8.0
sVare
p2479
F1.0
sVscores
p2480
F1.0
sVthe
p2481
F2.0
sVT-FLOAT
p2482
F4.0
sVibm
p2483
F2.0
saa(lp2484
S'P06-2124228'
p2485
a(dp2486
Vshown
p2487
F1.0
sVfor
p2488
F1.0
sVtrack
p2489
F2.0
sVT-FLOAT
p2490
F1.0
sVresults
p2491
F2.0
sVT-INT
p2492
F2.0
sVare
p2493
F2.0
sVin
p2494
F2.0
sVlarge-data
p2495
F1.0
sVtable
p2496
F2.0
sVthe
p2497
F2.0
sVsmalldata
p2498
F1.0
sg119
F1.0
saa(lp2499
S'P06-2124180'
p2500
a(dp2501
Vand
p2502
F1.0
sVsmaller
p2503
F1.0
sVibm
p2504
F1.0
sVT-FLOAT
p2505
F1.0
sVin
p2506
F1.0
sg69
F3.0
sVbk
p2507
F1.0
sVtopic
p2508
F1.0
sVT-INT
p2509
F1.0
sVtrends
p2510
F1.0
sVtopic-specific
p2511
F1.0
sVare
p2512
F1.0
sVthey
p2513
F1.0
sVlexicons
p2514
F2.0
sVthe
p2515
F1.0
sVcontain
p2516
F1.0
sVtypically
p2517
F1.0
sVthan
p2518
F1.0
sVsize
p2519
F1.0
saa(lp2520
S'P06-2124224'
p2521
a(dp2522
Vremove
p2523
F1.0
sVdirectly
p2524
F1.0
sVphrase-pairs
p2525
F1.0
sVextract
p2526
F1.0
sValignment
p2527
F1.0
sVfrom
p2528
F1.0
sVto
p2529
F2.0
sg110
F2.0
sg111
F2.0
sVfox
p2530
F1.0
sg69
F3.0
sVT-INT
p2531
F2.0
sVpharoah
p2532
F1.0
sVwe
p2533
F1.0
sVkoehn
p2534
F1.0
sVcoherence
p2535
F1.0
sVones
p2536
F1.0
sVwith
p2537
F1.0
sVT-FLOAT
p2538
F1.0
sVnoisy
p2539
F1.0
sVword
p2540
F1.0
sVpackage
p2541
F1.0
sVtogether
p2542
F1.0
sVthe
p2543
F1.0
sVsimilar
p2544
F1.0
sVconstraints
p2545
F1.0
saa(lp2546
S'P06-2124227'
p2547
a(dp2548
Vall
p2549
F1.0
sVis
p2550
F2.0
sVunderlying
p2551
F1.0
sVdirectly
p2552
F1.0
sVcomparative
p2553
F1.0
sValignment
p2554
F1.0
sVfrom
p2555
F1.0
sg69
F2.0
sVbilingual
p2556
F1.0
sVcollected
p2557
F1.0
sVacross
p2558
F1.0
sVwhich
p2559
F1.0
sVphrase-pair
p2560
F1.0
sVreported
p2561
F1.0
sVkey
p2562
F1.0
sVdifference
p2563
F1.0
sVthe
p2564
F5.0
sVword
p2565
F1.0
sVsettings
p2566
F1.0
sVof
p2567
F1.0
sVngram-identity
p2568
F1.0
sVT-FLOAT
p2569
F1.0
saa(lp2570
S'P06-2124226'
p2571
a(dp2572
g82
F1.0
sVbuilt
p2573
F1.0
sVlanguage
p2574
F1.0
sVT-INT
p2575
F1.0
sVis
p2576
F1.0
sVmillion
p2577
F1.0
sVtrigram
p2578
F1.0
sVwords
p2579
F1.0
sVenglish
p2580
F1.0
sVusing
p2581
F1.0
sVmodel
p2582
F1.0
sVT-FLOAT
p2583
F1.0
saa(lp2584
S'P06-2124184'
p2585
a(dp2586
Vconsidering
p2587
F1.0
sVdiscriminate
p2588
F1.0
sVof
p2589
F1.0
sVtopics
p2590
F1.0
sVbitams
p2591
F1.0
sVtwo
p2592
F1.0
sVT-FLOAT
p2593
F1.0
sVcontext
p2594
F1.0
sVthe
p2595
F3.0
sVby
p2596
F1.0
saa(lp2597
S'P06-2124220'
p2598
a(dp2599
Vand
p2600
F1.0
sVcorresponding
p2601
F1.0
sVto
p2602
F1.0
sVuni-direction
p2603
F1.0
sVrespectively
p2604
F1.0
sVbi-direction
p2605
F1.0
sg69
F2.0
sVT-INT
p2606
F1.0
sVthe
p2607
F1.0
sValignments
p2608
F1.0
sVT-FLOAT
p2609
F1.0
saa(lp2610
S'P06-2124186'
p2611
a(dp2612
Vand
p2613
F1.0
sVsharper
p2614
F1.0
sVfavors
p2615
F1.0
sVof
p2616
F1.0
sg69
F1.0
sVone
p2617
F1.0
sVT-FLOAT
p2618
F1.0
sVvalues
p2619
F1.0
sVare
p2620
F1.0
sVeach
p2621
F1.0
sVcandidates
p2622
F1.0
sVthe
p2623
F2.0
sVclearly
p2624
F1.0
sVrelatively
p2625
F1.0
saa(lp2626
S'P06-2124222'
p2627
a(dp2628
VT-INT
p2629
F2.0
sVT-FLOAT
p2630
F2.0
sVtranslations
p2631
F1.0
sVevaluating
p2632
F1.0
saa(lp2633
S'P06-212474'
p2634
a(dp2635
g82
F1.0
sVthat
p2636
F1.0
sVwe
p2637
F1.0
sVaj
p2638
F1.0
sVibm
p2639
F1.0
sVT-INT
p2640
F1.0
sVof
p2641
F1.0
sVis
p2642
F1.0
sVassuming
p2643
F1.0
sVuniformly
p2644
F1.0
sg69
F2.0
sVrandom
p2645
F1.0
sVsimplify
p2646
F1.0
sVas
p2647
F1.0
sVsampled
p2648
F1.0
sVT-FLOAT
p2649
F1.0
sVin
p2650
F1.0
sVmodel
p2651
F1.0
sVby
p2652
F1.0
sValignment
p2653
F1.0
sVat
p2654
F1.0
saa(lp2655
S'P06-212471'
p2656
a(dp2657
Vand
p2658
F1.0
sVthe
p2659
F2.0
sVzn
p2660
F1.0
sVlexicon
p2661
F1.0
sVproposed
p2662
F1.0
sVis
p2663
F1.0
sVaj
p2664
F2.0
sVtwo
p2665
F1.0
sV|e
p2666
F1.0
sVbitam
p2667
F1.0
sVin
p2668
F2.0
sVfj
p2669
F1.0
sValignment
p2670
F1.0
sg110
F2.0
sg111
F2.0
sg69
F4.0
sVT-INT
p2671
F2.0
sVwhich
p2672
F1.0
sVscheme
p2673
F1.0
sVdefine
p2674
F1.0
sVan
p2675
F1.0
sVlink
p2676
F1.0
sg125
F1.0
sVtranslation
p2677
F2.0
sVsampling
p2678
F1.0
sVT-FLOAT
p2679
F3.0
sg82
F1.0
sg993
F1.0
sVlast
p2680
F1.0
sg994
F1.0
sg128
F1.0
sVmodel
p2681
F1.0
sVsub-steps
p2682
F1.0
saa(lp2683
S'P06-212470'
p2684
a(dp2685
Vindependent
p2686
F1.0
sVgiven
p2687
F1.0
sVindex
p2688
F1.0
sVthis
p2689
F1.0
sVof
p2690
F2.0
sVwithin
p2691
F1.0
sVthus
p2692
F1.0
sg69
F1.0
sVword-pairs
p2693
F1.0
sVconditionally
p2694
F1.0
sVsentence-pair
p2695
F2.0
sVtopic
p2696
F1.0
sVother
p2697
F1.0
sVare
p2698
F1.0
sVT-FLOAT
p2699
F1.0
sVeach
p2700
F1.0
sVthe
p2701
F3.0
sg131
F1.0
sVhidden
p2702
F1.0
saa(lp2703
S'P06-212472'
p2704
a(dp2705
Vand
p2706
F1.0
sVis
p2707
F1.0
sVpos
p2708
F1.0
sVsible
p2709
F1.0
sVan
p2710
F1.0
sVare
p2711
F1.0
sVin
p2712
F1.0
sVour
p2713
F1.0
sVthere
p2714
F1.0
sg69
F2.0
sVtopics
p2715
F1.0
sVaccordingwe
p2716
F1.0
sVthat
p2717
F2.0
sVbear
p2718
F1.0
sVgenerated
p2719
F1.0
sVfj
p2720
F1.0
sVT-FLOAT
p2721
F1.0
sg82
F1.0
sVobservation
p2722
F1.0
sVassume
p2723
F1.0
sVof
p2724
F1.0
sg258
F1.0
sVdocument-pair
p2725
F1.0
sVcan
p2726
F1.0
sVmodel
p2727
F1.0
saa(lp2728
S'P06-2124221'
p2729
a(dp2730
Vwe
p2731
F1.0
sVimprovement
p2732
F1.0
sVsee
p2733
F1.0
sVin
p2734
F1.0
sVT-FLOAT
p2735
F1.0
sVan
p2736
F1.0
sVquality
p2737
F1.0
sValignment
p2738
F1.0
saa(lp2739
S'P06-212478'
p2740
a(dp2741
Vand
p2742
F1.0
sVthe
p2743
F2.0
sVlexicon
p2744
F1.0
sVities
p2745
F1.0
sVare
p2746
F2.0
sg829
F1.0
sVmatrix
p2747
F1.0
sg111
F1.0
sg69
F1.0
sVtopic-specific
p2748
F1.0
sV=
p2749
F1.0
sVprobabilr
p2750
F1.0
sVbk
p2751
F1.0
sVthey
p2752
F1.0
sVtranslation
p2753
F1.0
sVby
p2754
F1.0
sg993
F1.0
sVword
p2755
F1.0
sVlevel
p2756
F1.0
sVparameterized
p2757
F1.0
sVT-FLOAT
p2758
F1.0
sg828
F1.0
saa(lp2759
S'P06-2124223'
p2760
a(dp2761
g82
F1.0
sVused
p2762
F1.0
sVword
p2763
F1.0
sVevaluating
p2764
F1.0
sVfor
p2765
F1.0
sVmodels
p2766
F1.0
sVevaluate
p2767
F1.0
sVT-FLOAT
p2768
F1.0
sVin
p2769
F1.0
sg69
F1.0
sVto
p2770
F1.0
sVdecoder
p2771
F1.0
sVare
p2772
F1.0
sVbitam
p2773
F1.0
sVfurther
p2774
F1.0
sVour
p2775
F1.0
sVtranslation
p2776
F1.0
sValignments
p2777
F1.0
sVphrase-based
p2778
F1.0
sVqualities
p2779
F1.0
saa(lp2780
S'P06-2124134'
p2781
a(dp2782
Vand
p2783
F1.0
sVcontaining
p2784
F1.0
sVmillion
p2785
F1.0
sVchinese
p2786
F1.0
sVsentence-pairs
p2787
F1.0
sg258
F1.0
sVthere
p2788
F1.0
sg153
F1.0
sg69
F2.0
sVor
p2789
F1.0
sVtokens
p2790
F2.0
sVT-INT
p2791
F5.0
sVare
p2792
F1.0
sVenglish
p2793
F1.0
sVT-FLOAT
p2794
F1.0
sVdocument-pairs
p2795
F1.0
saa(lp2796
S'P06-2124136'
p2797
a(dp2798
Vcontains
p2799
F1.0
sVit
p2800
F1.0
sg69
F1.0
sVT-INT
p2801
F2.0
sValignment-links
p2802
F1.0
sVT-FLOAT
p2803
F1.0
saa(lp2804
S'P06-2124131'
p2805
a(dp2806
Ven
p2807
F2.0
sVee
p2808
F1.0
sVis
p2809
F1.0
sVsizes
p2810
F1.0
sg69
F5.0
sVsee
p2811
F1.0
sVch
p2812
F1.0
sVhave
p2813
F1.0
sVtable
p2814
F1.0
sVine
p2815
F1.0
sVtes
p2816
F1.0
sVnh
p2817
F1.0
sV#
p2818
F2.0
sg110
F1.0
sVwith
p2819
F1.0
sVtr
p2820
F1.0
sg1002
F2.0
sVT-INT
p2821
F51.0
sVent
p2822
F1.0
sVxi
p2823
F1.0
sVwe
p2824
F1.0
sVdifferent
p2825
F1.0
sVtwo
p2826
F1.0
sVdata
p2827
F1.0
sg82
F3.0
sVgli
p2828
F1.0
sVtraining
p2829
F1.0
sg993
F3.0
sVok
p2830
F1.0
sg126
F1.0
sg258
F6.0
sg152
F1.0
sg153
F7.0
sg156
F2.0
sVsi
p2831
F1.0
sVsh
p2832
F1.0
sg1005
F2.0
sg111
F1.0
sVT-FLOAT
p2833
F9.0
sVsettings
p2834
F1.0
sVua
p2835
F1.0
sVor
p2836
F1.0
sVse
p2837
F1.0
saa(lp2838
S'P06-2124130'
p2839
a(dp2840
Vand
p2841
F1.0
sVtraining
p2842
F1.0
sVstatistics
p2843
F1.0
sg994
F1.0
sVtra
p2844
F1.0
sVoc
p2845
F1.0
sg2818
F1.0
sVT-INT
p2846
F1.0
sVin
p2847
F1.0
sVtest
p2848
F1.0
sVtable
p2849
F1.0
sVT-FLOAT
p2850
F1.0
sg377
F1.0
sVdata
p2851
F1.0
saa(lp2852
S'P06-2124133'
p2853
a(dp2854
Vldc
p2855
F2.0
sVbeijing
p2856
F1.0
sVvogel
p2857
F1.0
sVsinorama
p2858
F1.0
sVare
p2859
F1.0
sVin
p2860
F1.0
sVour
p2861
F1.0
sVsentence-aligner
p2862
F1.0
sVfrom
p2863
F1.0
sVadditional
p2864
F1.0
sVfor
p2865
F1.0
sg110
F3.0
sg111
F3.0
sVdocumentpairs
p2866
F1.0
sg69
F6.0
sVboundaries
p2867
F1.0
sVT-INT
p2868
F5.0
sVsetting
p2869
F1.0
sVcollected
p2870
F1.0
sVdocument
p2871
F1.0
sVwe
p2872
F1.0
sVand
p2873
F2.0
sVpart
p2874
F1.0
sVnews
p2875
F1.0
sVxinhua
p2876
F1.0
sVdata
p2877
F1.0
sVT-FLOAT
p2878
F1.0
sVtraining
p2879
F1.0
sg125
F2.0
sVkept
p2880
F1.0
sVlarge
p2881
F1.0
sVzhao
p2882
F1.0
sVthe
p2883
F1.0
sVfbis
p2884
F1.0
saa(lp2885
S'P06-2124132'
p2886
a(dp2887
Vfrom
p2888
F1.0
sVT-INT
p2889
F1.0
sVof
p2890
F1.0
sVtreebank
p2891
F1.0
sVone
p2892
F1.0
sVconsists
p2893
F1.0
sVT-FLOAT
p2894
F1.0
sVsmall
p2895
F1.0
sVthe
p2896
F1.0
sVdocument-pairs
p2897
F1.0
saa(lp2898
S'P06-2124139'
p2899
a(dp2900
Vused
p2901
F1.0
sVis
p2902
F1.0
sVas
p2903
F1.0
sVunseen
p2904
F1.0
sVtest
p2905
F2.0
sVthe
p2906
F1.0
sVdata
p2907
F1.0
sVT-FLOAT
p2908
F1.0
saa(lp2909
S'P06-2124232'
p2910
a(dp2911
g110
F1.0
sVfor
p2912
F1.0
sVtrack
p2913
F1.0
sg111
F1.0
sVobserved
p2914
F1.0
sVT-INT
p2915
F1.0
sVsee
p2916
F1.0
sVimprovements
p2917
F1.0
sVare
p2918
F1.0
sVlarge-data
p2919
F1.0
sVtable
p2920
F1.0
sVthe
p2921
F1.0
sVsimilar
p2922
F1.0
sVT-FLOAT
p2923
F1.0
saa(lp2924
S'P06-212449'
p2925
a(dp2926
Vj=
p2927
F1.0
sVwe
p2928
F1.0
sg110
F1.0
sVi=
p2929
F1.0
sVfor
p2930
F1.0
sVbrown
p2931
F1.0
sVet
p2932
F1.0
sg111
F1.0
sVal
p2933
F1.0
sg69
F1.0
sVnotations
p2934
F1.0
sVT-INT
p2935
F4.0
sVin
p2936
F1.0
sVfollow
p2937
F1.0
sVthe
p2938
F1.0
sVT-FLOAT
p2939
F2.0
saa(lp2940
S'P06-2124231'
p2941
a(dp2942
Vand
p2943
F1.0
sVproposed
p2944
F1.0
sVT-FLOAT
p2945
F1.0
sVbetter
p2946
F1.0
sVT-INT
p2947
F3.0
sVare
p2948
F1.0
sVbitam
p2949
F3.0
sVthe
p2950
F1.0
sVslightly
p2951
F1.0
sVthan
p2952
F1.0
saa(lp2953
S'P06-2124236'
p2954
a(dp2955
VT-INT
p2956
F6.0
sVT-FLOAT
p2957
F2.0
saa(lp2958
S'P06-2124237'
p2959
a(dp2960
Vand
p2961
F2.0
sVhmms
p2962
F1.0
sVall
p2963
F1.0
sVaccuracies
p2964
F1.0
sVbitams
p2965
F1.0
sVbitam
p2966
F1.0
sVin
p2967
F1.0
sVtable
p2968
F2.0
sValignment
p2969
F1.0
sVfor
p2970
F1.0
sg69
F3.0
sVmachine
p2971
F1.0
sVT-INT
p2972
F16.0
sVlisted
p2973
F1.0
sg377
F1.0
sVevaluating
p2974
F1.0
sVmodels
p2975
F2.0
sVboosted
p2976
F1.0
sVusing
p2977
F1.0
sVtranslation
p2978
F1.0
sVdata
p2979
F1.0
sVthe
p2980
F1.0
sVtraining
p2981
F1.0
sVword
p2982
F1.0
sVibm
p2983
F1.0
sVqualities
p2984
F1.0
sVT-FLOAT
p2985
F8.0
saa(lp2986
S'P06-2124234'
p2987
a(dp2988
VT-INT
p2989
F6.0
sVT-FLOAT
p2990
F2.0
saa(lp2991
S'P06-2124235'
p2992
a(dp2993
VT-INT
p2994
F6.0
sVT-FLOAT
p2995
F2.0
saa(lp2996
S'P06-212441'
p2997
a(dp2998
Vis
p2999
F2.0
sVrandom
p3000
F1.0
sVan
p3001
F1.0
sVtopic
p3002
F1.0
sVsentence-pair
p3003
F1.0
sVas
p3004
F1.0
sVbitam
p3005
F1.0
sVin
p3006
F1.0
sVT-FLOAT
p3007
F1.0
sVdraws
p3008
F1.0
sVfor
p3009
F1.0
sg110
F1.0
sg111
F1.0
sg69
F5.0
sVwhich
p3010
F1.0
sVadmixture
p3011
F1.0
sVinduced
p3012
F1.0
sVtopics
p3013
F2.0
sVfrom
p3014
F1.0
sVby
p3015
F1.0
sVpool
p3016
F1.0
sg82
F4.0
sg125
F1.0
sg126
F1.0
sVof
p3017
F3.0
sVdocument-pair
p3018
F1.0
sVeach
p3019
F1.0
sVmodel
p3020
F1.0
sVtreated
p3021
F1.0
saa(lp3022
S'P06-2124238'
p3023
a(dp3024
VT-INT
p3025
F1.0
sVT-FLOAT
p3026
F1.0
saa(lp3027
S'P06-212443'
p3028
a(dp3029
g82
F2.0
sVthe
p3030
F1.0
sVword-aligned
p3031
F1.0
sVtopical
p3032
F1.0
sVT-FLOAT
p3033
F1.0
sVis
p3034
F1.0
sg69
F1.0
sVgoverned
p3035
F1.0
sVaccording
p3036
F1.0
sVhidden
p3037
F1.0
sVto
p3038
F1.0
sVassignments
p3039
F1.0
sVbilingual
p3040
F1.0
sVmodel
p3041
F1.0
sVunique
p3042
F1.0
sVby
p3043
F1.0
sVmarginally
p3044
F1.0
sVsentencepair
p3045
F1.0
saa(lp3046
S'P06-212444'
p3047
a(dp3048
Vand
p3049
F1.0
sVindependent
p3050
F1.0
sVibm
p3051
F1.0
sVcoupled
p3052
F1.0
sVrather
p3053
F1.0
sVsentence-level
p3054
F1.0
sVin
p3055
F1.0
sVtranslations
p3056
F1.0
sg69
F2.0
sVtheir
p3057
F1.0
sVbeing
p3058
F1.0
sVas
p3059
F1.0
sVmodels
p3060
F1.0
sVare
p3061
F1.0
sVT-FLOAT
p3062
F1.0
sVassumed
p3063
F1.0
sVextensions
p3064
F1.0
sVthe
p3065
F2.0
sVthan
p3066
F1.0
sVtherefore
p3067
F1.0
saa(lp3068
S'P06-212445'
p3069
a(dp3070
Vand
p3071
F1.0
sVbecause
p3072
F1.0
sVhave
p3073
F1.0
sVbe
p3074
F1.0
sVis
p3075
F1.0
sVentity
p3076
F1.0
sVtopic
p3077
F1.0
sVlikely
p3078
F1.0
sVvia
p3079
F1.0
sVbitam
p3080
F1.0
sVT-FLOAT
p3081
F1.0
sVuncorrelated
p3082
F1.0
sVassembled
p3083
F1.0
sVas
p3084
F1.0
sg110
F1.0
sVsentence-pairs
p3085
F2.0
sVsegments
p3086
F1.0
sg69
F2.0
sVto
p3087
F3.0
sVthen
p3088
F1.0
sVinstead
p3089
F1.0
sVdocument
p3090
F1.0
sVacross
p3091
F1.0
sVtreating
p3092
F1.0
sVsharing
p3093
F1.0
sVthat
p3094
F1.0
sVtranslations
p3095
F1.0
sVcoherency
p3096
F1.0
sValigned
p3097
F1.0
sVby
p3098
F1.0
sVimprove
p3099
F1.0
sg82
F2.0
sVindependently
p3100
F1.0
sVcoupling
p3101
F1.0
sVtopic-weight
p3102
F1.0
sVthis
p3103
F1.0
sVof
p3104
F4.0
sVaccording
p3105
F1.0
sVvector
p3106
F1.0
sVcommon
p3107
F1.0
sg111
F1.0
sVthe
p3108
F2.0
sVwhole
p3109
F1.0
saa(lp3110
S'P06-212446'
p3111
a(dp3112
Vand
p3113
F1.0
sVtopics
p3114
F1.0
sVtwo
p3115
F1.0
sVnamely
p3116
F1.0
sVare
p3117
F1.0
sVsentencepair
p3118
F1.0
sVsampled
p3119
F1.0
sVfor
p3120
F1.0
sVthere
p3121
F1.0
sg69
F1.0
sVleast
p3122
F1.0
sVwhich
p3123
F1.0
sVhidden
p3124
F1.0
sg377
F1.0
sVbe
p3125
F1.0
sVlevels
p3126
F2.0
sVT-FLOAT
p3127
F1.0
sg82
F1.0
sVdocument-pair
p3128
F1.0
sVword-pair
p3129
F1.0
sVcan
p3130
F1.0
sVthe
p3131
F3.0
sVat
p3132
F2.0
saa(lp3133
S'P06-212447'
p3134
a(dp3135
Vmodel
p3136
F1.0
sVwe
p3137
F1.0
sVdocuments
p3138
F1.0
sVlatent
p3139
F1.0
sVbilingual
p3140
F1.0
sVcapture
p3141
F1.0
sVpropose
p3142
F1.0
sVtopics
p3143
F1.0
sVthree
p3144
F1.0
sVdifferent
p3145
F1.0
sVto
p3146
F1.0
sVT-FLOAT
p3147
F1.0
sVlevels
p3148
F1.0
sVat
p3149
F1.0
sVbitam
p3150
F1.0
sVof
p3151
F2.0
sVthe
p3152
F2.0
sVvariants
p3153
F1.0
saa(lp3154
S'P06-2124239'
p3155
a(dp3156
Vconditions
p3157
F1.0
sVto
p3158
F1.0
sVother
p3159
F1.0
sVare
p3160
F1.0
sVtable
p3161
F1.0
sVT-FLOAT
p3162
F1.0
sVsimilar
p3163
F1.0
sVexperimental
p3164
F1.0
saa.