(dp0
Vrepresent
p1
F5.313205979041787
sVall
p2
F2.4849066497880004
sVskeleton
p3
F2.4849066497880004
sVconsum
p4
F5.313205979041787
sVfour
p5
F5.313205979041787
sVsignific
p6
F3.713572066704308
sVcorrel
p7
F5.313205979041787
sVhigher
p8
F3.044522437723423
sVfollow
p9
F3.1354942159291497
sVrow
p10
F4.624972813284271
sVhierarch
p11
F4.624972813284271
sVdepend
p12
F4.624972813284271
sVtu
p13
F4.624972813284271
sVto
p14
F1.0986122886681098
sVprogram
p15
F5.313205979041787
sVth
p16
F4.219507705176107
sVintroduc
p17
F5.313205979041787
sVsourc
p18
F4.219507705176107
sVrisk
p19
F4.624972813284271
sVend
p20
F5.313205979041787
sVveri
p21
F3.713572066704308
sVexact
p22
F5.313205979041787
sVcommon
p23
F4.624972813284271
sVsyntaxbas
p24
F4.624972813284271
sVdid
p25
F4.219507705176107
sVlist
p26
F2.833213344056216
sViter
p27
F3.9318256327243257
sVsmall
p28
F5.313205979041787
sVrefer
p29
F2.833213344056216
sVdimens
p30
F5.313205979041787
sVprevent
p31
F5.313205979041787
sVnatur
p32
F4.624972813284271
sVdirect
p33
F5.313205979041787
sVsecond
p34
F3.5263605246161616
sVhts
p35
F4.219507705176107
sVter
p36
F1.9459101490553132
sVtes
p37
F5.313205979041787
sVba
p38
F4.219507705176107
sVeven
p39
F5.313205979041787
sVtipl
p40
F5.313205979041787
sVcompar
p41
F3.367295829986474
sVsum
p42
F3.713572066704308
sVabl
p43
F5.313205979041787
sVuniform
p44
F4.624972813284271
sVcurrent
p45
F3.9318256327243257
sVgridbas
p46
F5.313205979041787
sVexperiment
p47
F4.624972813284271
sVnew
p48
F3.713572066704308
sV;
p49
F4.219507705176107
sVboost
p50
F5.313205979041787
sVmethod
p51
F2.70805020110221
sVfull
p52
F3.9318256327243257
sVderiv
p53
F5.313205979041787
sVsophist
p54
F5.313205979041787
sVmet
p55
F5.313205979041787
sVaddress
p56
F5.313205979041787
sVpath
p57
F3.9318256327243257
sValong
p58
F5.313205979041787
sVbecom
p59
F5.313205979041787
sVmodifi
p60
F4.219507705176107
sVsinc
p61
F3.9318256327243257
sVsearch
p62
F4.624972813284271
sVshift
p63
F4.219507705176107
sVprecis
p64
F3.367295829986474
sVprior
p65
F2.6390573296152584
sVamount
p66
F5.313205979041787
sVpick
p67
F5.313205979041787
sVextrem
p68
F5.313205979041787
sVchang
p69
F5.313205979041787
sVchanc
p70
F5.313205979041787
sVappli
p71
F5.313205979041787
sVmodul
p72
F5.313205979041787
sVheurist
p73
F5.313205979041787
sVtotal
p74
F3.9318256327243257
sVselect
p75
F3.367295829986474
sVuse
p76
F1.791759469228055
sVfrom
p77
F2.0794415416798357
sVdescrib
p78
F4.624972813284271
sVwould
p79
F3.713572066704308
sVunivers
p80
F5.313205979041787
sVtwo
p81
F3.9318256327243257
sVnext
p82
F5.313205979041787
sVfew
p83
F5.313205979041787
sVtaken
p84
F5.313205979041787
sVlogprob
p85
F3.9318256327243257
sVmetric
p86
F2.5649493574615367
sVreorder
p87
F5.313205979041787
sVmore
p88
F3.258096538021482
sVdarpa/ipto
p89
F5.313205979041787
sVminim
p90
F4.624972813284271
sVcomparison
p91
F5.313205979041787
sVprobabilist
p92
F5.313205979041787
sVhurt
p93
F5.313205979041787
sVtrain
p94
F4.219507705176107
sVmust
p95
F5.313205979041787
sVaccount
p96
F4.624972813284271
sVgraphic
p97
F5.313205979041787
sVword
p98
F1.9459101490553132
sVf
p99
F3.9318256327243257
sVthis
p100
F2.1972245773362196
sVwork
p101
F3.367295829986474
sVcat
p102
F5.313205979041787
sVmt
p103
F2.302585092994046
sVwors
p104
F4.624972813284271
sVcan
p105
F3.9318256327243257
sVlearn
p106
F5.313205979041787
sVcontrol
p107
F5.313205979041787
sVshare
p108
F5.313205979041787
sVgradientbas
p109
F5.313205979041787
sVhigh
p110
F3.367295829986474
sVminimum
p111
F3.5263605246161616
sVexplor
p112
F5.313205979041787
sVphrase
p113
F4.624972813284271
sVrescor
p114
F3.258096538021482
sVhuge
p115
F5.313205979041787
sVmultipl
p116
F3.713572066704308
sVdivid
p117
F5.313205979041787
sVanoth
p118
F5.313205979041787
sVsix
p119
F5.313205979041787
sVisi
p120
F5.313205979041787
sVclassifi
p121
F3.9318256327243257
sVsever
p122
F4.624972813284271
sVstemmer
p123
F5.313205979041787
sVinstead
p124
F4.219507705176107
sVsimpl
p125
F3.5263605246161616
sVconfid
p126
F2.772588722239781
sVedinburgh
p127
F5.313205979041787
sVmat
p128
F5.313205979041787
sVmay
p129
F1.791759469228055
sVchines
p130
F3.367295829986474
sVafter
p131
F4.624972813284271
sVbefor
p132
F5.313205979041787
sVgiza++
p133
F4.624972813284271
sVsuch
p134
F4.219507705176107
sVdata
p135
F5.313205979041787
sVgrow
p136
F5.313205979041787
sVaverag
p137
F3.1354942159291497
sVharmon
p138
F4.219507705176107
sVa
p139
F1.3862943611198906
sVthird
p140
F4.624972813284271
sVjoint
p141
F3.713572066704308
sVsit
p142
F5.313205979041787
sVcorrespond
p143
F3.367295829986474
sVproduc
p144
F3.9318256327243257
sVissu
p145
F5.313205979041787
sVinform
p146
F5.313205979041787
sVcombin
p147
F1.791759469228055
sVallow
p148
F3.367295829986474
sVensembl
p149
F5.313205979041787
sVphrasal
p150
F5.313205979041787
sVorder
p151
F3.1354942159291497
sVhelp
p152
F4.624972813284271
sVsynonymi
p153
F4.624972813284271
sVover
p154
F4.219507705176107
sVincreas
p155
F3.9318256327243257
sVpaper
p156
F4.219507705176107
sVthrough
p157
F4.219507705176107
sVperfect
p158
F5.313205979041787
sVdisconnect
p159
F5.313205979041787
sVthank
p160
F5.313205979041787
sVchosen
p161
F3.713572066704308
sVlm
p162
F3.713572066704308
sV,
p163
F1.0986122886681098
sVbetter
p164
F3.044522437723423
sVspeech
p165
F3.9318256327243257
sVtherefor
p166
F3.9318256327243257
sVmight
p167
F5.313205979041787
sVthen
p168
F4.624972813284271
sVgood
p169
F4.624972813284271
sVrecal
p170
F4.219507705176107
sVfragment
p171
F5.313205979041787
sVsentenc
p172
F3.5263605246161616
sViniti
p173
F4.624972813284271
sVbreak
p174
F5.313205979041787
sVthey
p175
F5.313205979041787
sVnot
p176
F2.772588722239781
sVunigram
p177
F5.313205979041787
sVdiscuss
p178
F4.219507705176107
sVchoic
p179
F5.313205979041787
sVgrammat
p180
F4.219507705176107
sVedit
p181
F3.367295829986474
sVl
p182
F4.219507705176107
sVtoken
p183
F5.313205979041787
sVeach
p184
F2.5649493574615367
sVfound
p185
F4.219507705176107
sVcomplet
p186
F5.313205979041787
sVmean
p187
F3.5263605246161616
sVweight
p188
F1.6094379124341003
sVmixedcas
p189
F3.9318256327243257
sVindividu
p190
F4.624972813284271
sVidea
p191
F5.313205979041787
sVheavi
p192
F5.313205979041787
sVvote
p193
F3.9318256327243257
sVexpect
p194
F5.313205979041787
sVdiffer
p195
F2.833213344056216
sVspecial
p196
F5.313205979041787
sVout
p197
F5.313205979041787
sVshown
p198
F3.258096538021482
sVnetwork
p199
F1.6094379124341003
sVinfluenc
p200
F4.624972813284271
sVdetoken
p201
F5.313205979041787
sVlattic
p202
F3.258096538021482
sVcorrect
p203
F5.313205979041787
sVintegr
p204
F5.313205979041787
sVearlier
p205
F4.624972813284271
sVargu
p206
F5.313205979041787
sVstandard
p207
F5.313205979041787
sVbase
p208
F3.1354942159291497
sVterm
p209
F3.367295829986474
sVperform
p210
F4.219507705176107
sVcould
p211
F5.313205979041787
sVscript
p212
F5.313205979041787
sVlength
p213
F3.9318256327243257
sVconfus
p214
F1.791759469228055
sVassign
p215
F3.9318256327243257
sVfirst
p216
F3.367295829986474
sVorigin
p217
F5.313205979041787
sVperturb
p218
F5.313205979041787
sVcarri
p219
F4.624972813284271
sVindepend
p220
F4.624972813284271
sVqualiti
p221
F4.219507705176107
sVnumber
p222
F3.258096538021482
sVrank
p223
F5.313205979041787
sVone
p224
F3.258096538021482
sVunlik
p225
F5.313205979041787
sValreadi
p226
F5.313205979041787
sVdone
p227
F5.313205979041787
sVloglinear
p228
F3.5263605246161616
sVsentencelevel
p229
F4.624972813284271
sVlogposterior
p230
F4.219507705176107
sVsize
p231
F4.624972813284271
sVgiven
p232
F3.713572066704308
sVbreviti
p233
F5.313205979041787
sVexponenti
p234
F5.313205979041787
sVassoci
p235
F5.313205979041787
sVtop
p236
F5.313205979041787
sVsystem
p237
F1.6094379124341003
sVoppos
p238
F4.624972813284271
sVparallel
p239
F4.219507705176107
sVtheir
p240
F5.313205979041787
sVtune
p241
F2.0794415416798357
sVcorpus
p242
F5.313205979041787
sVfinal
p243
F4.219507705176107
sVlow
p244
F3.713572066704308
sVthat
p245
F2.5649493574615367
sVtool
p246
F5.313205979041787
sVthan
p247
F3.1354942159291497
sVwide
p248
F4.624972813284271
sVb
p249
F3.9318256327243257
sVprune
p250
F5.313205979041787
sVprovid
p251
F4.219507705176107
sVzero
p252
F3.367295829986474
sVexampl
p253
F3.1354942159291497
sV+mt
p254
F3.9318256327243257
sVwere
p255
F2.772588722239781
sVposit
p256
F4.624972813284271
sVrate
p257
F3.5263605246161616
sVare
p258
F1.6094379124341003
sVand
p259
F1.3862943611198906
sVfunction
p260
F3.713572066704308
sVcomput
p261
F3.367295829986474
sVani
p262
F4.219507705176107
sVgale
p263
F5.313205979041787
sVcoher
p264
F5.313205979041787
sVtabl
p265
F3.367295829986474
sVseem
p266
F4.219507705176107
sVnull
p267
F3.5263605246161616
sVfeatur
p268
F2.6390573296152584
sVsat
p269
F5.313205979041787
sVengin
p270
F5.313205979041787
sVtechniqu
p271
F5.313205979041787
sVequival
p272
F4.624972813284271
sVation
p273
F5.313205979041787
sVnote
p274
F5.313205979041787
sValso
p275
F2.3978952727983707
sVwithout
p276
F5.313205979041787
sVtake
p277
F5.313205979041787
sVwhich
p278
F2.772588722239781
sVso
p279
F3.9318256327243257
sVsingl
p280
F3.5263605246161616
sVpothes
p281
F5.313205979041787
sVthough
p282
F5.313205979041787
sVmultipli
p283
F4.624972813284271
sVenglish
p284
F3.5263605246161616
sVmost
p285
F5.313205979041787
sVpair
p286
F4.624972813284271
sVthe
p287
F0.6931471805599453
sVsynonym
p288
F5.313205979041787
sVclear
p289
F5.313205979041787
sVlater
p290
F5.313205979041787
sVcover
p291
F5.313205979041787
sVphrasebas
p292
F5.313205979041787
sVface
p293
F5.313205979041787
sVdetermin
p294
F4.624972813284271
sVconstrain
p295
F5.313205979041787
sVpropos
p296
F3.5263605246161616
sVsection
p297
F3.258096538021482
sVtranslat
p298
F2.9444389791664403
sVshow
p299
F4.624972813284271
sVrandom
p300
F5.313205979041787
sVfont
p301
F5.313205979041787
sVfind
p302
F4.219507705176107
sVpenalti
p303
F4.219507705176107
sVonli
p304
F3.9318256327243257
sVwritten
p305
F5.313205979041787
sVshould
p306
F3.713572066704308
sVfactor
p307
F4.624972813284271
sVhope
p308
F5.313205979041787
sVdo
p309
F5.313205979041787
sVbeat
p310
F5.313205979041787
sVbeam
p311
F5.313205979041787
sVmul
p312
F5.313205979041787
sVreport
p313
F3.713572066704308
sVrequir
p314
F3.713572066704308
sVorgan
p315
F5.313205979041787
sVyield
p316
F3.9318256327243257
sVbay
p317
F4.624972813284271
sVqc
p318
F5.313205979041787
sVgram
p319
F3.044522437723423
sVmediat
p320
F5.313205979041787
sVcontain
p321
F5.313205979041787
sVlinguist
p322
F5.313205979041787
sVwhere
p323
F3.258096538021482
sVnist
p324
F2.833213344056216
sVview
p325
F3.9318256327243257
sVbleu
p326
F2.302585092994046
sVset
p327
F2.1972245773362196
sVarc
p328
F3.258096538021482
sVresult
p329
F2.1972245773362196
sVsel
p330
F4.219507705176107
sVoptimum
p331
F5.313205979041787
sVbest
p332
F2.0794415416798357
sVconcern
p333
F5.313205979041787
sVreview
p334
F5.313205979041787
sVlabel
p335
F4.624972813284271
sVfigur
p336
F4.219507705176107
sVscore
p337
F1.6094379124341003
sVvarious
p338
F4.219507705176107
sVbetween
p339
F2.833213344056216
sVimport
p340
F5.313205979041787
sVexperi
p341
F4.219507705176107
sVapproach
p342
F2.9444389791664403
sValtern
p343
F4.624972813284271
sVwe
p344
F4.219507705176107
sVextend
p345
F5.313205979041787
sVextens
p346
F5.313205979041787
sVlowercas
p347
F3.9318256327243257
sVcome
p348
F5.313205979041787
sVaddit
p349
F3.713572066704308
sVboth
p350
F5.313205979041787
sVc
p351
F4.219507705176107
sVlast
p352
F4.219507705176107
sVhowev
p353
F3.5263605246161616
sVagainst
p354
F3.713572066704308
sVs
p355
F4.219507705176107
sVequat
p356
F3.367295829986474
sVimprov
p357
F2.70805020110221
sVpenal
p358
F5.313205979041787
sVch
p359
F5.313205979041787
sVpoint
p360
F4.624972813284271
sVab
p361
F4.624972813284271
sVrespect
p362
F5.313205979041787
sVunion
p363
F5.313205979041787
sVthree
p364
F3.367295829986474
sVbeen
p365
F3.044522437723423
sVmark
p366
F5.313205979041787
sVaccumul
p367
F3.713572066704308
sVinterest
p368
F5.313205979041787
sVbasic
p369
F5.313205979041787
sVrepetit
p370
F5.313205979041787
sVrepres
p371
F3.713572066704308
sVpresent
p372
F3.9318256327243257
sVstatist
p373
F4.624972813284271
sVcase
p374
F4.624972813284271
sVnovel
p375
F5.313205979041787
sVthese
p376
F4.624972813284271
sValign
p377
F2.0794415416798357
sVn
p378
F4.219507705176107
sVwill
p379
F4.624972813284271
sVdefin
p380
F5.313205979041787
sVwhile
p381
F4.624972813284271
sVerror
p382
F3.713572066704308
sVhave
p383
F3.258096538021482
sVis
p384
F1.3862943611198906
sVthus
p385
F3.9318256327243257
sVit
p386
F3.367295829986474
sVcontract
p387
F5.313205979041787
sVin
p388
F1.0986122886681098
sVic
p389
F4.624972813284271
sVric
p390
F5.313205979041787
sVwordnet
p391
F5.313205979041787
sVif
p392
F4.219507705176107
sVdevelop
p393
F4.219507705176107
sVauthor
p394
F5.313205979041787
sVgeneric
p395
F5.313205979041787
sVsame
p396
F4.219507705176107
sVdecod
p397
F2.302585092994046
sVdifficult
p398
F5.313205979041787
sVclosest
p399
F4.624972813284271
sVagain
p400
F3.9318256327243257
sVoptim
p401
F2.1972245773362196
sVexpans
p402
F4.219507705176107
sVmani
p403
F5.313205979041787
sVjudgment
p404
F4.624972813284271
sVexpand
p405
F3.5263605246161616
sVrecent
p406
F4.624972813284271
sVtask
p407
F3.258096538021482
sVi
p408
F5.313205979041787
sVhypothes
p409
F2.4849066497880004
sVparenthes
p410
F5.313205979041787
sVobject
p411
F3.9318256327243257
sVungrammat
p412
F3.9318256327243257
sVchoos
p413
F5.313205979041787
sVy
p414
F4.219507705176107
sVmodel
p415
F2.5649493574615367
sVparadigm
p416
F5.313205979041787
sVusual
p417
F4.624972813284271
sVtunabl
p418
F5.313205979041787
sVdistanc
p419
F5.313205979041787
sVobtain
p420
F3.5263605246161616
sVhuman
p421
F4.219507705176107
sVspeed
p422
F5.313205979041787
sVlanguag
p423
F2.9444389791664403
sVprevious
p424
F5.313205979041787
sVexpon
p425
F5.313205979041787
sVlike
p426
F4.624972813284271
sVlittl
p427
F5.313205979041787
sVadd
p428
F5.313205979041787
sVhas
p429
F2.772588722239781
sVhat
p430
F5.313205979041787
sVmatch
p431
F4.219507705176107
sVfutur
p432
F4.624972813284271
sVaround
p433
F4.624972813284271
sVhypothesi
p434
F2.1972245773362196
sVinsert
p435
F3.9318256327243257
sVlognul
p436
F5.313205979041787
sVwordlevel
p437
F4.624972813284271
sVintuit
p438
F5.313205979041787
sVarab
p439
F3.258096538021482
sVtest
p440
F3.044522437723423
sVknow
p441
F5.313205979041787
sVburden
p442
F5.313205979041787
sVapart
p443
F5.313205979041787
sVloss
p444
F4.624972813284271
sVd
p445
F4.219507705176107
sVspecif
p446
F4.624972813284271
sVarbitrari
p447
F3.713572066704308
sVloglength
p448
F5.313205979041787
sVnegat
p449
F5.313205979041787
sVconsensus
p450
F4.624972813284271
sVcollect
p451
F5.313205979041787
sVbenefit
p452
F5.313205979041787
sVeither
p453
F5.313205979041787
sVoutput
p454
F2.302585092994046
sVmanual
p455
F5.313205979041787
sVsome
p456
F5.313205979041787
sVmaxim
p457
F5.313205979041787
sVpercentag
p458
F4.624972813284271
sVglobal
p459
F4.624972813284271
sVguarante
p460
F4.624972813284271
sVpostedit
p461
F5.313205979041787
sVscale
p462
F4.624972813284271
sVfor
p463
F1.791759469228055
sVper
p464
F5.313205979041787
sVrecognit
p465
F3.9318256327243257
sVestim
p466
F2.833213344056216
sVleav
p467
F5.313205979041787
sVig
p468
F4.219507705176107
sVcomplic
p469
F5.313205979041787
sVporter
p470
F5.313205979041787
sVt
p471
F4.219507705176107
sVmachin
p472
F4.219507705176107
sVbe
p473
F1.6094379124341003
sVinvestig
p474
F5.313205979041787
sVrun
p475
F5.313205979041787
sVbold
p476
F5.313205979041787
sVstem
p477
F5.313205979041787
sVbroken
p478
F5.313205979041787
sVfulli
p479
F4.624972813284271
sVr
p480
F4.219507705176107
sVby
p481
F1.9459101490553132
sVon
p482
F1.791759469228055
sVabout
p483
F5.313205979041787
sVof
p484
F1.3862943611198906
sVor
p485
F3.5263605246161616
sVeffici
p486
F4.624972813284271
sVcunder
p487
F5.313205979041787
sVinto
p488
F3.713572066704308
sVautomat
p489
F3.5263605246161616
sVdue
p490
F3.258096538021482
sVmbr
p491
F4.624972813284271
sVsupport
p492
F5.313205979041787
sVthere
p493
F3.713572066704308
sVtransform
p494
F5.313205979041787
sVavail
p495
F5.313205979041787
sVstart
p496
F4.624972813284271
sVinclud
p497
F3.713572066704308
sVway
p498
F5.313205979041787
sV:
p499
F3.258096538021482
sVwas
p500
F2.3978952727983707
sVlowest
p501
F4.624972813284271
sVform
p502
F4.624972813284271
sVhr
p503
F5.313205979041787
sVbut
p504
F4.624972813284271
sVposterior
p505
F3.258096538021482
sVlink
p506
F5.313205979041787
sVmeasur
p507
F5.313205979041787
sVline
p508
F5.313205979041787
sVhighest
p509
F4.624972813284271
sVwith
p510
F1.9459101490553132
sVconclus
p511
F5.313205979041787
sVcount
p512
F3.9318256327243257
sVconsist
p513
F5.313205979041787
sVpossibl
p514
F5.313205979041787
sVdefault
p515
F5.313205979041787
sVsmooth
p516
F4.219507705176107
sVup
p517
F4.219507705176107
sVinaccur
p518
F5.313205979041787
sVotherwis
p519
F5.313205979041787
sVproblem
p520
F5.313205979041787
sVsimilar
p521
F3.713572066704308
sVconnect
p522
F4.219507705176107
sVclassif
p523
F5.313205979041787
sVadopt
p524
F5.313205979041787
sVbigram
p525
F3.713572066704308
sVad
p526
F4.219507705176107
sVevalu
p527
F3.1354942159291497
sVm
p528
F4.219507705176107
sVlevenshtein
p529
F3.9318256327243257
sVan
p530
F3.258096538021482
sVas
p531
F1.791759469228055
sVar
p532
F4.624972813284271
sVat
p533
F4.624972813284271
sVgenerat
p534
F2.6390573296152584
sVprobabl
p535
F2.70805020110221
sVni
p536
F4.624972813284271
sVno
p537
F3.1354942159291497
sVna
p538
F5.313205979041787
sVwhen
p539
F3.5263605246161616
sVdetail
p540
F5.313205979041787
sVng
p541
F4.624972813284271
sVother
p542
F2.6390573296152584
sVes
p543
F5.313205979041787
sVmeteor
p544
F2.3978952727983707
sVthbest
p545
F5.313205979041787
sVgeometr
p546
F5.313205979041787
sVbaselin
p547
F3.5263605246161616
sVnode
p548
F3.258096538021482
sVsequenc
p549
F5.313205979041787
sVconsid
p550
F4.624972813284271
sVbillion
p551
F5.313205979041787
sVe
p552
F3.713572066704308
sValgorithm
p553
F3.5263605246161616
sVportion
p554
F5.313205979041787
sVu
p555
F4.219507705176107
sVtime
p556
F5.313205979041787
s.