(dp0
Vrepresent
p1
F4.343805421853684
sVall
p2
F4.343805421853684
sVheuristics
p3
F3.6635616461296463
sVlack
p4
F3.6635616461296463
sVresults
p5
F3.258096538021482
sVgo
p6
F4.343805421853684
sVinvolved
p7
F4.343805421853684
sVstallard
p8
F4.343805421853684
sVlanguages
p9
F3.6635616461296463
sVto
p10
F1.3862943611198906
sVsummarised
p11
F4.343805421853684
sVindicating
p12
F3.6635616461296463
sVbrown
p13
F4.343805421853684
sVreturned
p14
F4.343805421853684
sVvery
p15
F4.343805421853684
sVverb
p16
F4.343805421853684
sVstylewriter
p17
F4.343805421853684
sVceding
p18
F4.343805421853684
sVgeneralised
p19
F4.343805421853684
sVlevel
p20
F4.343805421853684
sVgender
p21
F3.6635616461296463
sVgivenness
p22
F4.343805421853684
sVdentification
p23
F4.343805421853684
sVcarter
p24
F4.343805421853684
sVsecond
p25
F4.343805421853684
sVfurther
p26
F3.6635616461296463
sVsituated
p27
F4.343805421853684
sVeven
p28
F3.6635616461296463
sVpreferences
p29
F2.995732273553991
sVrate
p30
F2.995732273553991
sVgiving
p31
F4.343805421853684
sVexperiment
p32
F4.343805421853684
sVabove
p33
F4.343805421853684
sVnew
p34
F4.343805421853684
sVunrestricted
p35
F4.343805421853684
sVmethod
p36
F4.343805421853684
sVexercise
p37
F4.343805421853684
sVdeemed
p38
F4.343805421853684
sVled
p39
F4.343805421853684
sVhere
p40
F3.6635616461296463
sVfocused
p41
F4.343805421853684
sV[
p42
F4.343805421853684
sVtechnical
p43
F2.3978952727983707
sVitems
p44
F4.343805421853684
sVapproaches
p45
F4.343805421853684
sVsuggests
p46
F3.6635616461296463
sVantecedents
p47
F3.6635616461296463
sVsuitable
p48
F4.343805421853684
sVmakes
p49
F4.343805421853684
sVfollowed
p50
F3.6635616461296463
sVtexts
p51
F3.6635616461296463
sVcounts
p52
F4.343805421853684
sVmanipulate
p53
F4.343805421853684
sVuse
p54
F2.995732273553991
sVfrom
p55
F2.3978952727983707
sVindicated
p56
F4.343805421853684
sVwould
p57
F2.995732273553991
sV&
p58
F2.995732273553991
sVcarbonell
p59
F4.343805421853684
sVfinally
p60
F3.6635616461296463
sVdefiniteness
p61
F4.343805421853684
sVust
p62
F4.343805421853684
sVtherefore
p63
F3.6635616461296463
sVminolta
p64
F4.343805421853684
sVpart-of-speech
p65
F4.343805421853684
sVlength
p66
F4.343805421853684
sVmore
p67
F2.302585092994046
sVflat
p68
F4.343805421853684
sV``
p69
F1.791759469228055
sVon
p70
F1.791759469228055
sVstys
p71
F3.6635616461296463
sVtested
p72
F4.343805421853684
sVparticular
p73
F4.343805421853684
sVcases
p74
F3.258096538021482
sVhold
p75
F2.995732273553991
sV-page
p76
F4.343805421853684
sVaccount
p77
F4.343805421853684
sVg
p78
F4.343805421853684
sVthis
p79
F2.302585092994046
sVrecall
p80
F3.6635616461296463
sVwork
p81
F4.343805421853684
sVmodified
p82
F4.343805421853684
sVparagraph
p83
F4.343805421853684
sVcan
p84
F2.302585092994046
sVfollowing
p85
F4.343805421853684
sVmaking
p86
F3.6635616461296463
sVT-FLOAT
p87
F0.6931471805599453
sVexample
p88
F2.5649493574615367
sVweaker
p89
F4.343805421853684
sVfigure
p90
F4.343805421853684
sVcogniac
p91
F4.343805421853684
sVshare
p92
F4.343805421853684
sVsample
p93
F3.6635616461296463
sVdraweq
p94
F4.343805421853684
sVnumbers
p95
F4.343805421853684
sVstyle-writer
p96
F4.343805421853684
sVphrase
p97
F2.772588722239781
sVabsolute
p98
F4.343805421853684
sVinformation
p99
F2.772588722239781
sVsyntactic
p100
F3.258096538021482
sVprovide
p101
F4.343805421853684
sVsidner
p102
F4.343805421853684
sVhow
p103
F4.343805421853684
sVknowledge-poor
p104
F4.343805421853684
sVpure
p105
F4.343805421853684
sVplus
p106
F4.343805421853684
sVdescription
p107
F4.343805421853684
sVmanuals
p108
F2.772588722239781
sVafter
p109
F4.343805421853684
sVproduce
p110
F4.343805421853684
sVlay
p111
F4.343805421853684
sVdate
p112
F4.343805421853684
sVdata
p113
F3.258096538021482
sVnps
p114
F4.343805421853684
sVa
p115
F1.3862943611198906
sVambiguous
p116
F4.343805421853684
sVnoun
p117
F1.9459101490553132
sVterminological
p118
F4.343805421853684
sVslightly
p119
F4.343805421853684
sVsu
p120
F4.343805421853684
sVdiscussing
p121
F4.343805421853684
sVheuristically
p122
F4.343805421853684
sVexophoric
p123
F4.343805421853684
sVorder
p124
F4.343805421853684
sVitj
p125
F3.6635616461296463
sVhelp
p126
F4.343805421853684
sViti
p127
F2.995732273553991
sVindeed
p128
F4.343805421853684
sVnon-prepositional
p129
F3.6635616461296463
sVfeature
p130
F4.343805421853684
sVpaper
p131
F3.258096538021482
sVthrough
p132
F4.343805421853684
sVfilters
p133
F4.343805421853684
sVstill
p134
F3.6635616461296463
sVactivating
p135
F4.343805421853684
sVits
p136
F4.343805421853684
sVgroup
p137
F4.343805421853684
sVfit
p138
F4.343805421853684
sVll
p139
F4.343805421853684
sV,
p140
F1.0986122886681098
sVhobbs
p141
F4.343805421853684
sVluperfoy
p142
F4.343805421853684
sVmight
p143
F3.6635616461296463
sVthen
p144
F3.6635616461296463
sVthem
p145
F4.343805421853684
sVgood
p146
F4.343805421853684
sVuniversality
p147
F4.343805421853684
sVthey
p148
F4.343805421853684
sVnot
p149
F1.791759469228055
sVterm
p150
F3.6635616461296463
sVhereafter
p151
F4.343805421853684
sVoccasions
p152
F4.343805421853684
sVidentified
p153
F3.258096538021482
sVingria
p154
F4.343805421853684
sVeach
p155
F4.343805421853684
sVtray
p156
F4.343805421853684
sVmccord
p157
F4.343805421853684
sVreferred
p158
F4.343805421853684
sVel
p159
F4.343805421853684
sVdomain
p160
F3.6635616461296463
sVdoing
p161
F4.343805421853684
sVhand-simulated
p162
F4.343805421853684
sVprinciples
p163
F4.343805421853684
sVec
p164
F4.343805421853684
sVwebber
p165
F4.343805421853684
sVindicators
p166
F2.1972245773362196
sVowing
p167
F4.343805421853684
sVmeasure
p168
F4.343805421853684
sVclauses
p169
F4.343805421853684
sVes
p170
F4.343805421853684
sVout
p171
F3.258096538021482
sVfactors
p172
F4.343805421853684
sVrestricted
p173
F4.343805421853684
sVre
p174
F4.343805421853684
sVvcr
p175
F3.6635616461296463
sVinternet
p176
F4.343805421853684
sVprint
p177
F4.343805421853684
sVevaluation
p178
F2.302585092994046
sVcorrect
p179
F4.343805421853684
sVshows
p180
F4.343805421853684
sVquite
p181
F4.343805421853684
sVreason
p182
F3.6635616461296463
sVchecked
p183
F4.343805421853684
sVtraining
p184
F3.6635616461296463
sVlanguage
p185
F4.343805421853684
sVphrases
p186
F2.302585092994046
sVcould
p187
F4.343805421853684
sVkeyi
p188
F4.343805421853684
sVturn
p189
F3.6635616461296463
sVisi
p190
F4.343805421853684
sVfirst
p191
F3.6635616461296463
sVfeed
p192
F4.343805421853684
sVfeatures
p193
F4.343805421853684
sVsentence
p194
F2.995732273553991
sVclause
p195
F4.343805421853684
sVnumber
p196
F3.6635616461296463
sVone
p197
F3.6635616461296463
sVanother
p198
F4.343805421853684
sVblank
p199
F4.343805421853684
sVportable
p200
F4.343805421853684
sVgiven
p201
F2.5649493574615367
sVsheet
p202
F4.343805421853684
sVpronoun
p203
F4.343805421853684
sVleass
p204
F4.343805421853684
sVpriority
p205
F4.343805421853684
sVtypes
p206
F4.343805421853684
sVthat
p207
F2.3978952727983707
sVimmediate
p208
F2.995732273553991
sVpart
p209
F3.258096538021482
sVsomewhat
p210
F4.343805421853684
sVcopy
p211
F4.343805421853684
sVrepresenting
p212
F3.6635616461296463
sVthan
p213
F2.5649493574615367
sVdistance
p214
F4.343805421853684
sVb
p215
F3.258096538021482
sVtree
p216
F4.343805421853684
sVlikely
p217
F2.995732273553991
sVrecording
p218
F4.343805421853684
sVi
p219
F2.5649493574615367
sVr
p220
F4.343805421853684
sVwere
p221
F4.343805421853684
sVare
p222
F1.9459101490553132
sVand
p223
F1.0986122886681098
sVrat
p224
F4.343805421853684
sVhave
p225
F2.995732273553991
sVsentences
p226
F2.772588722239781
sVany
p227
F2.995732273553991
sVviewed
p228
F4.343805421853684
sVport
p229
F4.343805421853684
sVlit
p230
F4.343805421853684
sValso
p231
F2.995732273553991
sVpotential
p232
F4.343805421853684
sVwhich
p233
F2.302585092994046
sVperformance
p234
F4.343805421853684
sVfigureto
p235
F4.343805421853684
sV=
p236
F4.343805421853684
sVplay
p237
F4.343805421853684
sVsure
p238
F4.343805421853684
sVshall
p239
F4.343805421853684
sVobject
p240
F4.343805421853684
sVmost
p241
F2.3978952727983707
sVcassettei
p242
F4.343805421853684
sVreiterated
p243
F4.343805421853684
sV]
p244
F4.343805421853684
sVthe
p245
F0.6931471805599453
sVfair
p246
F3.6635616461296463
sVlappin
p247
F4.343805421853684
sVm
p248
F4.343805421853684
sVneutral
p249
F4.343805421853684
sVtraditional
p250
F3.6635616461296463
sVpattern
p251
F2.995732273553991
sVnlp
p252
F4.343805421853684
sVshow
p253
F4.343805421853684
sVtext
p254
F4.343805421853684
sVrandom
p255
F4.343805421853684
sVindicator
p256
F3.6635616461296463
sVbased
p257
F3.6635616461296463
sVknowledge
p258
F2.995732273553991
sV(
p259
F1.0986122886681098
sVbuttoni
p260
F4.343805421853684
sVheavily
p261
F4.343805421853684
sVprepositional
p262
F3.6635616461296463
sVprinteri
p263
F4.343805421853684
sVshould
p264
F3.6635616461296463
sVT-INT
p265
F1.0986122886681098
sVtheme
p266
F3.6635616461296463
sVscore
p267
F2.1972245773362196
sVcandidates
p268
F2.3978952727983707
sVrich
p269
F4.343805421853684
sVconstituents
p270
F4.343805421853684
sVdo
p271
F3.6635616461296463
sVmeans
p272
F4.343805421853684
sVpreferred
p273
F4.343805421853684
sVones
p274
F4.343805421853684
sV;
p275
F3.258096538021482
sVtwice
p276
F4.343805421853684
sVcommon
p277
F4.343805421853684
sVtagger
p278
F3.6635616461296463
sVwhere
p279
F4.343805421853684
sVview
p280
F4.343805421853684
sVset
p281
F2.995732273553991
sVreference
p282
F2.995732273553991
sVcomparable
p283
F4.343805421853684
sVoperates
p284
F4.343805421853684
sVsee
p285
F3.258096538021482
sVresult
p286
F4.343805421853684
sVpolish
p287
F2.772588722239781
sVbest
p288
F3.6635616461296463
sVfeared
p289
F4.343805421853684
sVfails
p290
F4.343805421853684
sVdagan
p291
F4.343805421853684
sVsubsequent
p292
F4.343805421853684
sVlexical
p293
F3.6635616461296463
sVdefinite
p294
F4.343805421853684
sVverbs
p295
F3.6635616461296463
sVvarious
p296
F4.343805421853684
sVcollocational
p297
F3.258096538021482
sVanaphor
p298
F3.258096538021482
sVapproach
p299
F2.3978952727983707
sVavailable
p300
F3.258096538021482
sVwe
p301
F2.5649493574615367
sVterms
p302
F4.343805421853684
sVconfusion
p303
F4.343805421853684
sVsubject
p304
F2.995732273553991
sVhowever
p305
F3.258096538021482
sVkey
p306
F4.343805421853684
sVgenre
p307
F2.995732273553991
sVje
p308
F4.343805421853684
sVboth
p309
F4.343805421853684
sVequal
p310
F4.343805421853684
sVagainst
p311
F4.343805421853684
sVs
p312
F4.343805421853684
sVfigures
p313
F4.343805421853684
sVexpense
p314
F4.343805421853684
sVadapted
p315
F4.343805421853684
sVnon-imperative
p316
F4.343805421853684
sVch
p317
F4.343805421853684
sVtough
p318
F4.343805421853684
sVpoint
p319
F3.258096538021482
sVcc
p320
F4.343805421853684
sVca
p321
F4.343805421853684
sVcorresponds
p322
F4.343805421853684
sVce
p323
F4.343805421853684
sVpronominal
p324
F3.6635616461296463
sVindefinite
p325
F4.343805421853684
sVct
p326
F4.343805421853684
sVpr
p327
F4.343805421853684
sVdescribed
p328
F3.6635616461296463
sVbasis
p329
F4.343805421853684
sVcopier
p330
F4.343805421853684
sVbeen
p331
F4.343805421853684
sVmuch
p332
F4.343805421853684
sVbasic
p333
F4.343805421853684
sVcollocation
p334
F2.772588722239781
sVlinguistic
p335
F2.995732273553991
sVprecision
p336
F3.6635616461296463
sVc-cornmand
p337
F4.343805421853684
sVrepresentative
p338
F4.343805421853684
sVthose
p339
F3.6635616461296463
sVcase
p340
F4.343805421853684
sVaq
p341
F4.343805421853684
sVlook
p342
F4.343805421853684
sVsay
p343
F4.343805421853684
sVevaluated
p344
F4.343805421853684
sVn
p345
F4.343805421853684
sVwhile
p346
F4.343805421853684
sVapplies
p347
F4.343805421853684
sVguide
p348
F4.343805421853684
sVidentical
p349
F4.343805421853684
sVis
p350
F1.3862943611198906
sVreiteration
p351
F3.6635616461296463
sVit
p352
F2.5649493574615367
sVparse
p353
F4.343805421853684
sVin
p354
F1.3862943611198906
sVarabic
p355
F3.6635616461296463
sVif
p356
F2.1972245773362196
sVdifferent
p357
F4.343805421853684
sVbaseline
p358
F3.258096538021482
sV)
p359
F1.0986122886681098
sVsame
p360
F2.995732273553991
sVlexically
p361
F4.343805421853684
sVcomplex
p362
F3.6635616461296463
sVpropose
p363
F4.343805421853684
sVmodification
p364
F4.343805421853684
sVhigher
p365
F2.5649493574615367
sVused
p366
F2.995732273553991
sVhand
p367
F4.343805421853684
sVmoment
p368
F4.343805421853684
sVuser
p369
F4.343805421853684
sVbreck
p370
F3.6635616461296463
sVfrequently
p371
F4.343805421853684
sVrecent
p372
F3.258096538021482
sVlower
p373
F4.343805421853684
sVtracking
p374
F3.258096538021482
sVcenter
p375
F4.343805421853684
sVpenalised
p376
F3.6635616461296463
sVwell
p377
F4.343805421853684
sVpatterns
p378
F4.343805421853684
sVwithout
p379
F3.6635616461296463
sVbottle
p380
F4.343805421853684
sVenglish
p381
F3.6635616461296463
sVmodel
p382
F4.343805421853684
sVleft
p383
F4.343805421853684
sVproposed
p384
F4.343805421853684
sVless
p385
F4.343805421853684
sVbeing
p386
F3.258096538021482
sVaccurate
p387
F4.343805421853684
sVassigned
p388
F4.343805421853684
sVidentify
p389
F4.343805421853684
sVhuman
p390
F4.343805421853684
sVuseful
p391
F4.343805421853684
sVbaldwin
p392
F2.995732273553991
sVprevious
p393
F3.258096538021482
sVeli
p394
F4.343805421853684
sVcandidate
p395
F2.302585092994046
sVinstance
p396
F4.343805421853684
sVinformal
p397
F4.343805421853684
sVhad
p398
F3.6635616461296463
sVsimple
p399
F3.6635616461296463
sVadd
p400
F4.343805421853684
sVattractive
p401
F4.343805421853684
sVinput
p402
F3.258096538021482
sVextensive
p403
F4.343805421853684
sVhas
p404
F3.6635616461296463
sVresolved
p405
F3.6635616461296463
sVtests
p406
F4.343805421853684
sVrules
p407
F4.343805421853684
sVpossible
p408
F4.343805421853684
sVpos
p409
F4.343805421853684
sVpronouns
p410
F3.6635616461296463
sVindicative
p411
F4.343805421853684
sVpreference
p412
F2.302585092994046
sVpress
p413
F3.258096538021482
sVusing
p414
F4.343805421853684
sVinsert
p415
F4.343805421853684
sVnecessary
p416
F4.343805421853684
sVsuccess
p417
F2.772588722239781
sVlost
p418
F4.343805421853684
sVidentifying
p419
F4.343805421853684
sVmanual
p420
F3.258096538021482
sVspecific
p421
F3.6635616461296463
sVsuperiority
p422
F4.343805421853684
sVt
p423
F4.343805421853684
sVpage
p424
F4.343805421853684
sVcandi
p425
F4.343805421853684
sVright
p426
F4.343805421853684
sVmethods
p427
F4.343805421853684
sVsequence
p428
F4.343805421853684
sVsuccessfully
p429
F3.6635616461296463
sVsome
p430
F3.6635616461296463
sVback
p431
F4.343805421853684
sVprinter
p432
F4.343805421853684
sVsurpris
p433
F4.343805421853684
sVtracked
p434
F4.343805421853684
sVfor
p435
F1.3862943611198906
sVavoid
p436
F4.343805421853684
sVthough
p437
F4.343805421853684
sV/
p438
F4.343805421853684
sVreferential
p439
F4.343805421853684
sVdoes
p440
F2.772588722239781
sVselect
p441
F3.6635616461296463
sVprovides
p442
F4.343805421853684
sVbe
p443
F1.6094379124341003
sVpower
p444
F4.343805421853684
sVagreement
p445
F4.343805421853684
sVjava
p446
F4.343805421853684
sVby
p447
F2.3978952727983707
sVcomparison
p448
F3.6635616461296463
sVabout
p449
F4.343805421853684
sVcarried
p450
F4.343805421853684
sVof
p451
F1.0986122886681098
sVob
p452
F4.343805421853684
sVoa
p453
F4.343805421853684
sVensure
p454
F4.343805421853684
sVstand
p455
F4.343805421853684
sVconstraints
p456
F4.343805421853684
sVos
p457
F4.343805421853684
sVor
p458
F2.302585092994046
sVautomatically
p459
F4.343805421853684
sVtwo
p460
F4.343805421853684
sVcomputational
p461
F4.343805421853684
sVinto
p462
F2.995732273553991
sVwithin
p463
F4.343805421853684
sVanaphors
p464
F3.258096538021482
sVparsing
p465
F4.343805421853684
sVdown
p466
F2.995732273553991
sVappropriate
p467
F4.343805421853684
sVanaphora
p468
F3.6635616461296463
sVoften
p469
F4.343805421853684
sVrely
p470
F3.6635616461296463
sVthere
p471
F3.6635616461296463
sVdecisive
p472
F4.343805421853684
sV:
p473
F2.772588722239781
sVwas
p474
F2.995732273553991
sVhead
p475
F4.343805421853684
sVonly
p476
F2.772588722239781
sVbut
p477
F4.343805421853684
sVsophisticated
p478
F4.343805421853684
sVvolume
p479
F4.343805421853684
sVtaken
p480
F4.343805421853684
sVrepeated
p481
F4.343805421853684
sVe
p482
F2.995732273553991
sVhighest
p483
F4.343805421853684
sVwith
p484
F1.9459101490553132
sVconsiderable
p485
F4.343805421853684
sVj
p486
F4.343805421853684
sVup
p487
F3.258096538021482
sVus
p488
F4.343805421853684
sVtoner
p489
F4.343805421853684
sVagree
p490
F4.343805421853684
sVltai
p491
F4.343805421853684
sVantecedent-tracking
p492
F4.343805421853684
sVan
p493
F2.772588722239781
sV''
p494
F1.791759469228055
sVas
p495
F2.302585092994046
sVat
p496
F4.343805421853684
sVnon-anaphoric
p497
F4.343805421853684
sVour
p498
F2.772588722239781
sVing
p499
F4.343805421853684
sVagain
p500
F3.6635616461296463
sVgenres
p501
F4.343805421853684
sV%
p502
F2.302585092994046
sVwhereas
p503
F3.6635616461296463
sVwhen
p504
F4.343805421853684
sVne
p505
F4.343805421853684
sVfield
p506
F4.343805421853684
sVother
p507
F3.258096538021482
sVrole
p508
F4.343805421853684
sVnp
p509
F3.258096538021482
sVtie
p510
F4.343805421853684
sVyou
p511
F4.343805421853684
sVnt
p512
F4.343805421853684
sVexpected
p513
F4.343805421853684
sVscored
p514
F4.343805421853684
sVpicture
p515
F4.343805421853684
sV's
p516
F3.258096538021482
sVnouns
p517
F4.343805421853684
sVscores
p518
F3.258096538021482
sVclue
p519
F4.343805421853684
sVantecedent
p520
F1.6094379124341003
sVmitkov
p521
F2.772588722239781
sValgorithm
p522
F4.343805421853684
sVresolution
p523
F3.6635616461296463
sVrule
p524
F4.343805421853684
sVrheme
p525
F4.343805421853684
sVu
p526
F4.343805421853684
sVtime
p527
F4.343805421853684
sVoverturned
p528
F4.343805421853684
sVrequires
p529
F4.343805421853684
sVonce
p530
F4.343805421853684
s.