(lp0
(lp1
S'P98-214348'
p2
a(dp3
Vweaker
p4
F1.0
sVis
p5
F1.0
sVlack
p6
F1.0
sVowing
p7
F1.0
sVin
p8
F1.0
sVT-FLOAT
p9
F1.0
sVinformation
p10
F1.0
sVdescribed
p11
F1.0
sV&
p12
F1.0
sV)
p13
F1.0
sV(
p14
F1.0
sV,
p15
F1.0
sVT-INT
p16
F1.0
sVcollocation
p17
F1.0
sVto
p18
F1.0
sVdagan
p19
F1.0
sVpreference
p20
F2.0
sVsomewhat
p21
F1.0
sVthan
p22
F1.0
sVthis
p23
F1.0
sVof
p24
F1.0
sVsyntactic
p25
F1.0
sVthe
p26
F1.0
sVltai
p27
F1.0
saa(lp28
S'P98-214349'
p29
a(dp30
Vand
p31
F1.0
sVvolume
p32
F1.0
sVT-FLOAT
p33
F1.0
sVup
p34
F1.0
sVdown
p35
F1.0
sVturn
p36
F1.0
sVkeyi
p37
F1.0
sVpress
p38
F1.0
sVthe
p39
F2.0
sV:
p40
F1.0
sVexample
p41
F1.0
saa(lp42
S'P98-214368'
p43
a(dp44
Vheuristics
p45
F2.0
sVall
p46
F1.0
sVright
p47
F1.0
sVinto
p48
F1.0
sVnon-prepositional
p49
F1.0
sVdown
p50
F1.0
sVlikely
p51
F1.0
sVare
p52
F1.0
sVin
p53
F1.0
sVT-FLOAT
p54
F1.0
sVstill
p55
F1.0
sV''
p56
F2.0
sVpreferences
p57
F1.0
sVwould
p58
F1.0
sg13
F1.0
sg14
F1.0
sVwhen
p59
F1.0
sg15
F3.0
sVby
p60
F1.0
sVto
p61
F1.0
sVabove
p62
F1.0
sVtaken
p63
F1.0
sVis
p64
F1.0
sVbe
p65
F2.0
sV``
p66
F2.0
sVvery
p67
F1.0
sVcollocational
p68
F1.0
sVhowever
p69
F1.0
sVindicators
p70
F1.0
sVpreference
p71
F1.0
sVoverturned
p72
F1.0
sVtracked
p73
F1.0
sVantecedent
p74
F2.0
sVaccount
p75
F1.0
sVnoun
p76
F1.0
sVphrases
p77
F1.0
sVthe
p78
F4.0
sVexample
p79
F1.0
saa(lp80
S'P98-214369'
p81
a(dp82
Vdescription
p83
F1.0
sValgorithm
p84
F1.0
sVinformal
p85
F1.0
sVof
p86
F1.0
sVT-INT
p87
F2.0
sVT-FLOAT
p88
F2.0
sVthe
p89
F1.0
saa(lp90
S'P98-214358'
p91
a(dp92
Vand
p93
F1.0
sVfollowed
p94
F1.0
sVsentence
p95
F1.0
sVclause
p96
F2.0
sVsentences
p97
F3.0
sVback
p98
F2.0
sVan
p99
F1.0
sVare
p100
F1.0
sVin
p101
F4.0
sVfurther
p102
F2.0
sVT-FLOAT
p103
F1.0
sVsituated
p104
F1.0
sVbest
p105
F1.0
sVprevious
p106
F2.0
sVfinally
p107
F1.0
sVfor
p108
F1.0
sg13
F1.0
sVsubsequent
p109
F1.0
sg15
F6.0
sVT-INT
p110
F7.0
sVreferential
p111
F1.0
sVcomplex
p112
F1.0
sg14
F1.0
sVanaphor
p113
F1.0
sVthen
p114
F1.0
sVantecedent
p115
F1.0
sVnouns
p116
F2.0
sVby
p117
F2.0
sVdistance
p118
F1.0
sVnoun
p119
F2.0
sVcandidate
p120
F1.0
sVphrases
p121
F2.0
sVof
p122
F1.0
sVthe
p123
F5.0
saa(lp124
S'P98-214342'
p125
a(dp126
Vinsert
p127
F1.0
sVsure
p128
F1.0
sVfor
p129
F1.0
sViti
p130
F1.0
sVof
p131
F1.0
sVinto
p132
F1.0
sVlength
p133
F1.0
sVrecording
p134
F1.0
sVT-FLOAT
p135
F1.0
sVvcr
p136
F1.0
sVcassettei
p137
F1.0
sVsuitable
p138
F1.0
sVmaking
p139
F1.0
sVthe
p140
F3.0
sg40
F1.0
sVexample
p141
F1.0
sVis
p142
F1.0
saa(lp143
S'P98-214343'
p144
a(dp145
V``
p146
F2.0
sg13
F1.0
sVfor
p147
F1.0
sVpenalised
p148
F1.0
sg14
F1.0
sVis
p149
F1.0
sVprepositional
p150
F1.0
sVhere
p151
F1.0
sV''
p152
F2.0
sVT-INT
p153
F1.0
sVvcr
p154
F2.0
sVpart
p155
F1.0
sVT-FLOAT
p156
F1.0
sVof
p157
F1.0
sVphrase
p158
F1.0
sVthe
p159
F3.0
sVbeing
p160
F1.0
sVinto
p161
F1.0
saa(lp162
S'P98-214366'
p163
a(dp164
Vpoint
p165
F1.0
sVbe
p166
F1.0
sV``
p167
F1.0
sVto
p168
F1.0
sVdo
p169
F1.0
sVantecedent
p170
F2.0
sVwhere
p171
F1.0
sVthe
p172
F2.0
sVthere
p173
F1.0
sVcorrect
p174
F1.0
sVone
p175
F1.0
sV''
p176
F1.0
sVnot
p177
F1.0
sVT-FLOAT
p178
F1.0
sVof
p179
F1.0
sVindicators
p180
F1.0
sVcases
p181
F1.0
sVmight
p182
F1.0
sVor
p183
F1.0
sVmore
p184
F1.0
saa(lp185
S'P98-214341'
p186
a(dp187
Vis
p188
F2.0
sVnon-prepositional
p189
F2.0
sV''
p190
F3.0
sVphrase
p191
F3.0
sVgiven
p192
F1.0
sg13
F1.0
sg14
F1.0
sVprepositional
p193
F1.0
sg15
F2.0
sVT-INT
p194
F2.0
sVwhich
p195
F1.0
sVhigher
p196
F1.0
sV``
p197
F3.0
sVpure
p198
F1.0
sVpart
p199
F1.0
sVpreference
p200
F1.0
sVthan
p201
F1.0
sVa
p202
F4.0
sVnoun
p203
F3.0
sVphrases
p204
F1.0
sVof
p205
F1.0
sVT-FLOAT
p206
F1.0
saa(lp207
S'P98-214346'
p208
a(dp209
Videntical
p210
F1.0
sg202
F1.0
sVgiven
p211
F1.0
sg13
F1.0
sVhave
p212
F1.0
sVpronoun
p213
F1.0
sVT-INT
p214
F2.0
sVthis
p215
F1.0
sVpattern
p216
F2.0
sVis
p217
F1.0
sg15
F1.0
sVan
p218
F1.0
sVto
p219
F1.0
sVcandidates
p220
F1.0
sVpreference
p221
F2.0
sVwhich
p222
F1.0
sg14
F1.0
sVcollocation
p223
F2.0
sVT-FLOAT
p224
F1.0
sVwith
p225
F1.0
saa(lp226
S'P98-214347'
p227
a(dp228
Vand
p229
F1.0
sV``
p230
F3.0
sVnoun
p231
F2.0
sVpatterns
p232
F1.0
sVrestricted
p233
F1.0
sVis
p234
F1.0
sg15
F2.0
sVhere
p235
F1.0
sV''
p236
F1.0
sVto
p237
F1.0
sVverb
p238
F2.0
sVpreference
p239
F1.0
sVcollocation
p240
F1.0
sVphrase
p241
F2.0
sVthe
p242
F2.0
sVT-FLOAT
p243
F1.0
saa(lp244
S'P98-214361'
p245
a(dp246
Vdo
p247
F1.0
sVe
p248
F1.0
sVof
p249
F1.0
sVis
p250
F1.0
sVsentences
p251
F1.0
sVT-INT
p252
F1.0
sVcomplex
p253
F1.0
sVin
p254
F1.0
sVdentification
p255
F1.0
sVclauses
p256
F1.0
sVT-FLOAT
p257
F1.0
sVheuristically
p258
F1.0
saa(lp259
S'P98-2143124'
p260
a(dp261
Vand
p262
F1.0
sVbe
p263
F1.0
sVfrom
p264
F1.0
sVrepresentative
p265
F1.0
sVresults
p266
F1.0
sVT-INT
p267
F2.0
sVsummarised
p268
F1.0
sVexperiment
p269
F2.0
sVfigures
p270
F1.0
sVcan
p271
F1.0
sVin
p272
F1.0
sVfollowing
p273
F1.0
sVthe
p274
F2.0
sVslightly
p275
F1.0
sVT-FLOAT
p276
F1.0
sVmore
p277
F1.0
saa(lp278
S'P98-21439'
p279
a(dp280
Vand
p281
F3.0
sVrepresent
p282
F1.0
sVdomain
p283
F1.0
sVcomputational
p284
F1.0
sVknowledge
p285
F1.0
sVof
p286
F1.0
sVT-FLOAT
p287
F1.0
sVhowever
p288
F1.0
sg15
F1.0
sVto
p289
F1.0
sVvarious
p290
F1.0
sVtypes
p291
F1.0
sVhuman
p292
F1.0
sVinvolved
p293
F1.0
sVlinguistic
p294
F1.0
sVthe
p295
F1.0
sVexpense
p296
F1.0
sVrequires
p297
F1.0
sVconsiderable
p298
F1.0
sVmanipulate
p299
F1.0
sVinput
p300
F1.0
saa(lp301
S'P98-21438'
p302
a(dp303
Vmethods
p304
F1.0
sVsidner
p305
F1.0
sVstallard
p306
F1.0
sVanaphora
p307
F1.0
sVcarter
p308
F1.0
sVfor
p309
F1.0
sg12
F5.0
sg13
F1.0
sg14
F1.0
sg15
F1.0
sVT-INT
p310
F10.0
sVhobbs
p311
F1.0
sVrich
p312
F1.0
sVluperfoy
p313
F1.0
sVlinguistic
p314
F1.0
sV;
p315
F9.0
sVhas
p316
F1.0
sVbrown
p317
F1.0
sVmost
p318
F1.0
sVpart
p319
F1.0
sVfocused
p320
F1.0
sVwebber
p321
F1.0
sVT-FLOAT
p322
F1.0
sVon
p323
F1.0
sVlappin
p324
F2.0
sVmitkov
p325
F1.0
sVleass
p326
F1.0
sVtraditional
p327
F1.0
sVingria
p328
F1.0
sVcarbonell
p329
F1.0
sVthe
p330
F1.0
sVresolution
p331
F1.0
sVmccord
p332
F1.0
saa(lp333
S'P98-2143125'
p334
a(dp335
Vel
p336
F1.0
sVch
p337
F1.0
sVcc
p338
F1.0
sVca
p339
F1.0
sVce
p340
F1.0
sVaq
p341
F1.0
sVas
p342
F1.0
sVsu
p343
F1.0
sVes
p344
F1.0
sVct
p345
F1.0
sVpr
p346
F2.0
sVeli
p347
F1.0
sVT-INT
p348
F2.0
sg13
F1.0
sg14
F1.0
sVll
p349
F1.0
sVne
p350
F1.0
sV/
p351
F1.0
sVre
p352
F2.0
sVust
p353
F1.0
sVnt
p354
F1.0
sVrat
p355
F1.0
sVec
p356
F1.0
sVje
p357
F1.0
sg202
F1.0
sVon
p358
F1.0
sVb
p359
F3.0
sg248
F2.0
sVi
p360
F1.0
sV=
p361
F1.0
sVm
p362
F1.0
sVob
p363
F1.0
sVoa
p364
F1.0
sVn
p365
F1.0
sVs
p366
F3.0
sVr
p367
F1.0
sVu
p368
F1.0
sVt
p369
F1.0
sVisi
p370
F1.0
sVT-FLOAT
p371
F1.0
sVos
p372
F1.0
saa(lp373
S'P98-21435'
p374
a(dp375
Vand
p376
F1.0
sVantecedent
p377
F1.0
sVindicator
p378
F1.0
sVreturned
p379
F1.0
sVcandidate
p380
F1.0
sVis
p381
F1.0
sVscores
p382
F1.0
sVassigned
p383
F1.0
sVT-FLOAT
p384
F1.0
sVas
p385
F1.0
sVscore
p386
F1.0
sVcandidates
p387
F1.0
sVare
p388
F1.0
sVeach
p389
F1.0
sVthe
p390
F3.0
sVhighest
p391
F1.0
sVwith
p392
F1.0
sVby
p393
F1.0
saa(lp394
S'P98-21434'
p395
a(dp396
Vand
p397
F1.0
sg202
F1.0
sVchecked
p398
F1.0
sVfor
p399
F1.0
sVantecedent
p400
F1.0
sVof
p401
F1.0
sVis
p402
F1.0
sVagreement
p403
F1.0
sVagainst
p404
F1.0
sVnumber
p405
F1.0
sVindicators
p406
F1.0
sVinput
p407
F1.0
sVT-FLOAT
p408
F1.0
saa(lp409
S'P98-2143126'
p410
a(dp411
VT-INT
p412
F2.0
sVT-FLOAT
p413
F1.0
sV%
p414
F1.0
saa(lp415
S'P98-2143127'
p416
a(dp417
Vand
p418
F1.0
sVlower
p419
F1.0
sVfigureto
p420
F1.0
sg414
F3.0
sVbaseline
p421
F1.0
sVfigure
p422
F1.0
sVto
p423
F1.0
sg360
F1.0
sVrecall
p424
F1.0
sV``
p425
F3.0
sVcorresponds
p426
F1.0
sV''
p427
F3.0
sVT-INT
p428
F8.0
sVprecision
p429
F1.0
sVin
p430
F1.0
sVT-FLOAT
p431
F3.0
sVhigher
p432
F1.0
sVthe
p433
F2.0
sVsubject
p434
F1.0
saa(lp435
S'P98-21431'
p436
a(dp437
Vand
p438
F1.0
sVon
p439
F1.0
sVrely
p440
F1.0
sVknowledge
p441
F1.0
sVto
p442
F1.0
sVheavily
p443
F1.0
sVdomain
p444
F1.0
sVtraditional
p445
F1.0
sVmost
p446
F1.0
sVapproaches
p447
F1.0
sVlinguistic
p448
F1.0
sVT-FLOAT
p449
F1.0
sVresolution
p450
F1.0
sVanaphora
p451
F1.0
saa(lp452
S'P98-2143140'
p453
a(dp454
Vnlp
p455
F1.0
sV``
p456
F1.0
sVlanguage
p457
F1.0
sVwould
p458
F1.0
sVbe
p459
F1.0
sVof
p460
F1.0
sV''
p461
F1.0
sVfeature
p462
F1.0
sVan
p463
F1.0
sVlanguages
p464
F1.0
sVits
p465
F1.0
sVattractive
p466
F1.0
sVuniversality
p467
F1.0
sVT-FLOAT
p468
F1.0
sVapproach
p469
F1.0
sVany
p470
F1.0
saa(lp471
S'P98-2143108'
p472
a(dp473
Vand
p474
F1.0
sVit
p475
F1.0
sVparse
p476
F1.0
sVin
p477
F1.0
sVing
p478
F1.0
sVany
p479
F2.0
sVgiven
p480
F1.0
sVsurpris
p481
F1.0
sVknowledge
p482
F1.0
sVsyntactic
p483
F1.0
sg15
F2.0
sVshould
p484
F1.0
sVdoes
p485
F2.0
sVapproach
p486
F1.0
sVbe
p487
F1.0
sVthat
p488
F1.0
sVrely
p489
F1.0
sVproduce
p490
F1.0
sVparticular
p491
F1.0
sVnot
p492
F3.0
sVT-FLOAT
p493
F1.0
sVon
p494
F1.0
sVthis
p495
F1.0
sVtree
p496
F1.0
sVthe
p497
F1.0
saa(lp498
S'P98-2143109'
p499
a(dp500
Vfeed
p501
F1.0
sVitj
p502
F1.0
sVsentence
p503
F1.0
sVindeed
p504
F1.0
sVinto
p505
F1.0
sVpaper
p506
F2.0
sVthrough
p507
F2.0
sVblank
p508
F1.0
sVout
p509
F1.0
sVfails
p510
F1.0
sVsheet
p511
F1.0
sVcopier
p512
F1.0
sg15
F1.0
sVto
p513
F1.0
sg40
F1.0
sVapproach
p514
F1.0
sVbe
p515
F1.0
sVused
p516
F1.0
sVkey
p517
F1.0
sV[
p518
F1.0
sVcopy
p519
F2.0
sV]
p520
F1.0
sVT-FLOAT
p521
F1.0
sg202
F2.0
sVon
p522
F2.0
sVof
p523
F1.0
sVj
p524
F1.0
sVwithout
p525
F1.0
sVcan
p526
F1.0
sVmaking
p527
F1.0
sVthe
p528
F5.0
sVtray
p529
F1.0
saa(lp530
S'P98-214399'
p531
a(dp532
V``
p533
F2.0
sg414
F2.0
sVbaseline
p534
F2.0
sVsuccess
p535
F2.0
sVmost
p536
F1.0
sVof
p537
F2.0
sVwhereas
p538
F1.0
sg15
F1.0
sV''
p539
F2.0
sVT-INT
p540
F4.0
sVrate
p541
F2.0
sVnp
p542
F1.0
sVthe
p543
F3.0
sVrecent
p544
F1.0
sVwas
p545
F2.0
sVT-FLOAT
p546
F3.0
sVsubject
p547
F1.0
saa(lp548
S'P98-214375'
p549
a(dp550
Vand
p551
F2.0
sg202
F1.0
sVanaphor
p552
F1.0
sVset
p553
F1.0
sVgroup
p554
F1.0
sVgender
p555
F1.0
sVof
p556
F1.0
sVthem
p557
F1.0
sVpronominal
p558
F1.0
sVas
p559
F1.0
sVpotential
p560
F1.0
sVcandidates
p561
F1.0
sVnumbers
p562
F1.0
sVwhich
p563
F1.0
sVin
p564
F1.0
sVthe
p565
F1.0
sVwith
p566
F1.0
sVagree
p567
F1.0
sVthose
p568
F1.0
saa(lp569
S'P98-214394'
p570
a(dp571
Vand
p572
F1.0
sg315
F1.0
sVtechnical
p573
F1.0
sVof
p574
F1.0
sVthere
p575
F1.0
sVmanual
p576
F1.0
sVT-INT
p577
F4.0
sVwere
p578
F2.0
sVT-FLOAT
p579
F1.0
sVnon-anaphoric
p580
F1.0
sVin
p581
F1.0
sVpronouns
p582
F2.0
sVthe
p583
F2.0
sVexophoric
p584
F1.0
sVpage
p585
F1.0
saa(lp586
S'P98-214397'
p587
a(dp588
V``
p589
F1.0
sV''
p590
F1.0
sVrate
p591
F1.0
sVany
p592
F1.0
sVuse
p593
F1.0
sVavoid
p594
F1.0
sg15
F1.0
sVto
p595
F1.0
sVtherefore
p596
F1.0
sVevaluation
p597
F1.0
sVmore
p598
F1.0
sVwe
p599
F1.0
sVshall
p600
F1.0
sVconfusion
p601
F1.0
sVneutral
p602
F1.0
sVthe
p603
F2.0
sVterm
p604
F1.0
sVsuccess
p605
F1.0
sVterminological
p606
F1.0
sVwhile
p607
F1.0
sVT-FLOAT
p608
F1.0
sVdiscussing
p609
F1.0
saa(lp610
S'P98-214393'
p611
a(dp612
Vtext
p613
F1.0
sVrandom
p614
F1.0
sVstys
p615
F1.0
sVsample
p616
F1.0
sVin
p617
F1.0
sVour
p618
F1.0
sVfrom
p619
F1.0
sg12
F1.0
sg13
F2.0
sg14
F2.0
sVT-INT
p620
F4.0
sVminolta
p621
F1.0
sVwas
p622
F1.0
sVexercise
p623
F1.0
sVbased
p624
F1.0
sg202
F3.0
sVon
p625
F1.0
sVmitkov
p626
F1.0
sVtechnical
p627
F1.0
sVevaluation
p628
F2.0
sVmanual
p629
F1.0
sVenglish
p630
F1.0
sVT-FLOAT
p631
F3.0
sVfirst
p632
F1.0
saa(lp633
S'P98-2143144'
p634
a(dp635
Vwe
p636
F1.0
sVpolish
p637
F1.0
sVfor
p638
F2.0
sVbeing
p639
F1.0
sVscores
p640
F1.0
sg15
F1.0
sVsame
p641
F1.0
sVare
p642
F1.0
sVtime
p643
F1.0
sVusing
p644
F1.0
sVthe
p645
F2.0
sVT-FLOAT
p646
F1.0
saa(lp647
S'P98-214339'
p648
a(dp649
Vsequence
p650
F1.0
sVreiteration
p651
F1.0
sV``
p652
F3.0
sV''
p653
F3.0
sVas
p654
F1.0
sVphrases
p655
F1.0
sVcounts
p656
F1.0
sg13
F1.0
sg14
F1.0
sVlexical
p657
F1.0
sg15
F3.0
sVsame
p658
F1.0
sValso
p659
F1.0
sVhead
p660
F1.0
sg248
F1.0
sVwith
p661
F1.0
sVthe
p662
F2.0
sg202
F1.0
sVnoun
p663
F1.0
sVg
p664
F1.0
sVof
p665
F2.0
sVbottle
p666
F3.0
sVtoner
p667
F2.0
sVT-FLOAT
p668
F3.0
saa(lp669
S'P98-214365'
p670
a(dp671
Vand
p672
F1.0
sVantecedent
p673
F1.0
sVwe
p674
F1.0
sVpreferences
p675
F1.0
sVpoint
p676
F1.0
sVthat
p677
F1.0
sVfactors
p678
F1.0
sVshould
p679
F1.0
sVnot
p680
F1.0
sVare
p681
F1.0
sVindicators
p682
F1.0
sVthe
p683
F1.0
sVabsolute
p684
F1.0
sVT-FLOAT
p685
F1.0
sVout
p686
F1.0
saa(lp687
S'P98-214337'
p688
a(dp689
Vand
p690
F1.0
sVis
p691
F1.0
sVreiteration
p692
F1.0
sVlikely
p693
F1.0
sVare
p694
F1.0
sVif
p695
F3.0
sVfor
p696
F1.0
sg13
F1.0
sg14
F1.0
sVlexical
p697
F1.0
sg15
F1.0
sVsame
p698
F1.0
sVT-INT
p699
F3.0
sVcandidates
p700
F1.0
sVnp
p701
F1.0
sVmore
p702
F1.0
sVwithin
p703
F1.0
sVlexically
p704
F1.0
sVreiterated
p705
F1.0
sVrepeated
p706
F2.0
sVscores
p707
F1.0
sVnot
p708
F1.0
sVT-FLOAT
p709
F1.0
sg202
F1.0
sVantecedent
p710
F1.0
sVitems
p711
F1.0
sVtwice
p712
F1.0
sVparagraph
p713
F1.0
sVthe
p714
F1.0
sVor
p715
F1.0
sVonce
p716
F1.0
saa(lp717
S'P98-214372'
p718
a(dp719
Vavailable
p720
F1.0
sg13
F1.0
sg14
F1.0
sVsentences
p721
F1.0
sVT-FLOAT
p722
F1.0
sVceding
p723
F1.0
sVif
p724
F1.0
saa(lp725
S'P98-214334'
p726
a(dp727
g202
F1.0
sVheuristics
p728
F1.0
sVwe
p729
F1.0
sVnoun
p730
F1.0
sVthat
p731
F1.0
sVsimple
p732
F1.0
sVT-FLOAT
p733
F1.0
sVis
p734
F1.0
sVin
p735
F1.0
sVuse
p736
F1.0
sVT-INT
p737
F1.0
sVinformation
p738
F1.0
sVphrase
p739
F1.0
sVthe
p740
F3.0
sVgiven
p741
F1.0
sVnon-imperative
p742
F1.0
sVsentence
p743
F1.0
sVfirst
p744
F1.0
saa(lp745
S'P98-214333'
p746
a(dp747
Vinformation
p748
F2.0
sVabout
p749
F1.0
sVsome
p750
F1.0
sg15
F2.0
sVrheme
p751
F1.0
sVT-FLOAT
p752
F1.0
sVtheme
p753
F1.0
sVprovides
p754
F1.0
sVnew
p755
F1.0
sVthe
p756
F2.0
sVor
p757
F1.0
saa(lp758
S'P98-214379'
p759
a(dp760
Vantecedent
p761
F1.0
sVfor
p762
F1.0
sVcandidate
p763
F1.0
sVis
p764
F1.0
sVproposed
p765
F1.0
sVequal
p766
F1.0
sVimmediate
p767
F1.0
sVan
p768
F1.0
sVT-FLOAT
p769
F1.0
sVas
p770
F1.0
sVscore
p771
F2.0
sVcandidates
p772
F1.0
sVtwo
p773
F1.0
sVhave
p774
F1.0
sVthe
p775
F2.0
sVhigher
p776
F1.0
sVwith
p777
F1.0
sg15
F1.0
sVreference
p778
F1.0
sVif
p779
F1.0
saa(lp780
S'P98-214331'
p781
a(dp782
Vand
p783
F1.0
sVin
p784
F1.0
sVdeemed
p785
F1.0
sV''
p786
F1.0
sVare
p787
F1.0
sVsentences
p788
F1.0
sVprevious
p789
F1.0
sVinformation
p790
F1.0
sVgiven
p791
F1.0
sVfor
p792
F1.0
sg13
F1.0
sg14
F1.0
sVT-INT
p793
F2.0
sVtheme
p794
F1.0
sVscore
p795
F2.0
sVcandidates
p796
F2.0
sV``
p797
F1.0
sVgood
p798
F1.0
sVnot
p799
F1.0
sVrepresenting
p800
F2.0
sVT-FLOAT
p801
F1.0
sVnoun
p802
F1.0
sg360
F1.0
sVphrases
p803
F1.0
sVgivenness
p804
F1.0
sVantecedents
p805
F1.0
sVthe
p806
F2.0
saa(lp807
S'P98-214373'
p808
a(dp809
Vnoun
p810
F1.0
sVlook
p811
F1.0
sVfor
p812
F1.0
sVto
p813
F1.0
sVphrases
p814
F1.0
sVT-INT
p815
F3.0
sVonly
p816
F1.0
sVT-FLOAT
p817
F1.0
sVof
p818
F1.0
sVthe
p819
F2.0
sVanaphor
p820
F1.0
sVleft
p821
F1.0
saa(lp822
S'P98-214314'
p823
a(dp824
Vand
p825
F1.0
sVset
p826
F1.0
sVin
p827
F1.0
sVour
p828
F2.0
sVarabic
p829
F1.0
sVfor
p830
F2.0
sg13
F1.0
sg14
F1.0
sg15
F2.0
sVlanguages
p831
F1.0
sValso
p832
F1.0
sVfinally
p833
F1.0
sVother
p834
F1.0
sVbasic
p835
F1.0
sVindicators
p836
F1.0
sVevaluation
p837
F1.0
sVshows
p838
F1.0
sVonly
p839
F1.0
sVthat
p840
F1.0
sVbut
p841
F1.0
sVnot
p842
F1.0
sVT-FLOAT
p843
F1.0
sVcase
p844
F1.0
sVantecedent
p845
F1.0
sVtracking
p846
F1.0
sVpolish
p847
F1.0
sVof
p848
F1.0
sVwork
p849
F1.0
sVwell
p850
F1.0
sVcan
p851
F1.0
sVenglish
p852
F1.0
sVthe
p853
F1.0
saa(lp854
S'P98-214316'
p855
a(dp856
Vand
p857
F1.0
sVsentence
p858
F1.0
sVsimple
p859
F1.0
sVconstituents
p860
F1.0
sVit
p861
F1.0
sVoperates
p862
F1.0
sV''
p863
F1.0
sVas
p864
F1.0
sVtagger
p865
F1.0
sVat
p866
F2.0
sVphrase
p867
F2.0
sVuse
p868
F1.0
sVpreferences
p869
F1.0
sVbasis
p870
F1.0
sg13
F2.0
sg14
F2.0
sg15
F1.0
sVto
p871
F1.0
sVonly
p872
F1.0
sVindicators
p873
F1.0
sVpart-of-speech
p874
F1.0
sV``
p875
F1.0
sVantecedent
p876
F1.0
sVrules
p877
F1.0
sVmost
p878
F1.0
sVantecedent-tracking
p879
F1.0
sVT-FLOAT
p880
F1.0
sg202
F1.0
sVon
p881
F1.0
sVnoun
p882
F2.0
sVhereafter
p883
F1.0
sVlevel
p884
F1.0
sVof
p885
F3.0
sVidentified
p886
F1.0
sVplus
p887
F1.0
sVthe
p888
F2.0
sVreferred
p889
F1.0
sVmakes
p890
F1.0
sVare
p891
F1.0
saa(lp892
S'P98-214313'
p893
a(dp894
Vparsing
p895
F1.0
sVis
p896
F1.0
sVsuccessfully
p897
F1.0
sVanaphors
p898
F1.0
sVit
p899
F1.0
sVan
p900
F1.0
sVin
p901
F1.0
sVany
p902
F1.0
sVeven
p903
F1.0
sVknowledge
p904
F1.0
sValso
p905
F1.0
sVhow
p906
F1.0
sVlinguistic
p907
F1.0
sVresolved
p908
F1.0
sVbe
p909
F1.0
sVsophisticated
p910
F1.0
sVgenre
p911
F1.0
sVquite
p912
F1.0
sg202
F1.0
sVof
p913
F1.0
sVor
p914
F1.0
sVspecific
p915
F1.0
sVwithout
p916
F2.0
sVcan
p917
F1.0
sVT-FLOAT
p918
F1.0
sVexample
p919
F1.0
saa(lp920
S'P98-214374'
p921
a(dp922
Vnoun
p923
F1.0
sVphrases
p924
F1.0
sVidentified
p925
F1.0
sVonly
p926
F1.0
sVfrom
p927
F1.0
sVthe
p928
F1.0
sVT-FLOAT
p929
F1.0
sVselect
p930
F1.0
saa(lp931
S'P98-214351'
p932
a(dp933
Vbe
p934
F1.0
sV``
p935
F1.0
sVantecedent
p936
F1.0
sVuseful
p937
F1.0
sVoften
p938
F1.0
sVreference
p939
F2.0
sVidentifying
p940
F1.0
sVtechnical
p941
F1.0
sVmanuals
p942
F1.0
sVimmediate
p943
F2.0
sVclue
p944
F1.0
sV''
p945
F1.0
sVcan
p946
F1.0
sVin
p947
F2.0
sVthe
p948
F2.0
sVT-FLOAT
p949
F1.0
saa(lp950
S'P98-214350'
p951
a(dp952
Vpress
p953
F1.0
sVagain
p954
F1.0
sVT-FLOAT
p955
F1.0
sViti
p956
F1.0
saa(lp957
S'P98-214353'
p958
a(dp959
g202
F1.0
sVbe
p960
F1.0
sVthis
p961
F1.0
sVof
p962
F1.0
sVcollocation
p963
F1.0
sVas
p964
F1.0
sVpreference
p965
F2.0
sVmodification
p966
F1.0
sVthe
p967
F1.0
sVT-FLOAT
p968
F1.0
sVviewed
p969
F1.0
sVcan
p970
F1.0
saa(lp971
S'P98-214378'
p972
a(dp973
Vantecedent
p974
F1.0
sVT-FLOAT
p975
F1.0
saa(lp976
S'P98-214319'
p977
a(dp978
Vreference
p979
F1.0
sVis
p980
F1.0
sVnot
p981
F1.0
sVbest
p982
F1.0
sVif
p983
F1.0
sVgiven
p984
F1.0
sVpattern
p985
F1.0
sg15
F1.0
sVbeen
p986
F1.0
sVpriority
p987
F1.0
sVto
p988
F1.0
sVscore
p989
F1.0
sVcollocation
p990
F1.0
sVhas
p991
F1.0
sVthen
p992
F1.0
sVimmediate
p993
F1.0
sVdate
p994
F1.0
sVwith
p995
F1.0
sVT-FLOAT
p996
F1.0
sVidentified
p997
F1.0
sVthe
p998
F2.0
sVcandi
p999
F1.0
saa(lp1000
S'P98-2143145'
p1001
a(dp1002
Vavailable
p1003
F1.0
sVon
p1004
F1.0
sg13
F1.0
sVbased
p1005
F1.0
sVfor
p1006
F1.0
sVjava
p1007
F1.0
sVtechnical
p1008
F1.0
sVwas
p1009
F1.0
sVmanuals
p1010
F1.0
sVmanual
p1011
F2.0
sg15
F1.0
sVT-INT
p1012
F2.0
sg14
F1.0
sVT-FLOAT
p1013
F1.0
sVinternet
p1014
F2.0
sVpolish
p1015
F1.0
sVthe
p1016
F2.0
sVevaluation
p1017
F1.0
sg315
F1.0
saa(lp1018
S'P98-214356'
p1019
a(dp1020
Vand
p1021
F1.0
sVon
p1022
F1.0
sVprinter
p1023
F1.0
sVfor
p1024
F1.0
sVpower
p1025
F1.0
sVturn
p1026
F1.0
sVbuttoni
p1027
F1.0
sViti
p1028
F1.0
sg15
F1.0
sVdown
p1029
F1.0
sVto
p1030
F1.0
sVmoment
p1031
F1.0
sg202
F1.0
sVpress
p1032
F1.0
sVthe
p1033
F2.0
sVhold
p1034
F1.0
sVT-FLOAT
p1035
F1.0
saa(lp1036
S'P98-2143111'
p1037
a(dp1038
Vset
p1039
F1.0
sVportable
p1040
F1.0
sVsample
p1041
F1.0
sVtexts
p1042
F1.0
sVsecond
p1043
F1.0
sVstyle-writer
p1044
F1.0
sVout
p1045
F1.0
sVdifferent
p1046
F1.0
sVevaluation
p1047
F2.0
sVfrom
p1048
F1.0
sg13
F1.0
sg14
F2.0
sVT-INT
p1049
F4.0
sVapproach
p1050
F1.0
sVwe
p1051
F1.0
sV's
p1052
F1.0
sV-page
p1053
F1.0
sVmanuals
p1054
F1.0
sVuser
p1055
F1.0
sVgenre
p1056
F1.0
sVthe
p1057
F2.0
sg202
F2.0
sVon
p1058
F1.0
sg359
F1.0
sVcarried
p1059
F1.0
sVtechnical
p1060
F1.0
sVof
p1061
F3.0
sVT-FLOAT
p1062
F3.0
sVguide
p1063
F1.0
sVstylewriter
p1064
F1.0
saa(lp1065
S'P98-2143115'
p1066
a(dp1067
g414
F1.0
sVsuccess
p1068
F1.0
sVindicated
p1069
F1.0
sVT-INT
p1070
F2.0
sVrate
p1071
F1.0
sVthe
p1072
F1.0
sVevaluation
p1073
F1.0
sVT-FLOAT
p1074
F2.0
saa(lp1075
S'P98-2143114'
p1076
a(dp1077
Vfair
p1078
F1.0
sVdoing
p1079
F1.0
sVis
p1080
F1.0
sVhand-simulated
p1081
F1.0
sVit
p1082
F1.0
sVsee
p1083
F1.0
sVanother
p1084
F1.0
sVbaldwin
p1085
F1.0
sVfor
p1086
F1.0
sVT-INT
p1087
F2.0
sg13
F1.0
sg14
F1.0
sVhad
p1088
F1.0
sg15
F2.0
sVto
p1089
F3.0
sVwhich
p1090
F1.0
sVmethod
p1091
F1.0
sVavailable
p1092
F1.0
sVbe
p1093
F1.0
sV's
p1094
F1.0
sVhand
p1095
F1.0
sVreason
p1096
F1.0
sVbreck
p1097
F1.0
sVnot
p1098
F1.0
sVwith
p1099
F1.0
sVby
p1100
F1.0
sg202
F1.0
sVcomparison
p1101
F1.0
sVbeing
p1102
F1.0
sVus
p1103
F1.0
sVensure
p1104
F1.0
sVT-FLOAT
p1105
F2.0
saa(lp1106
S'P98-2143139'
p1107
a(dp1108
Vand
p1109
F1.0
sVpicture
p1110
F1.0
sVfair
p1111
F1.0
sVshow
p1112
F1.0
sVaccurate
p1113
F1.0
sVit
p1114
F1.0
sVnot
p1115
F1.0
sVsay
p1116
F1.0
sVare
p1117
F1.0
sVfurther
p1118
F1.0
sVour
p1119
F1.0
sVT-FLOAT
p1120
F1.0
sVeven
p1121
F1.0
sVgenres
p1122
F1.0
sVwould
p1123
F1.0
sg13
F1.0
sg14
F1.0
sVthough
p1124
F1.0
sg15
F2.0
sVto
p1125
F1.0
sVother
p1126
F1.0
sVunrestricted
p1127
F1.0
sVapproach
p1128
F1.0
sVmore
p1129
F1.0
sVbe
p1130
F2.0
sVtests
p1131
F1.0
sVused
p1132
F1.0
sVthat
p1133
F1.0
sVmanuals
p1134
F1.0
sVresults
p1135
F1.0
sg202
F1.0
sVthey
p1136
F1.0
sVgenre
p1137
F1.0
sVdata
p1138
F1.0
sVextensive
p1139
F1.0
sVgeneralised
p1140
F1.0
sVon
p1141
F1.0
sVtraining
p1142
F1.0
sVnecessary
p1143
F1.0
sVfor
p1144
F2.0
sVtexts
p1145
F1.0
sVtechnical
p1146
F1.0
sVof
p1147
F2.0
sVsuperiority
p1148
F1.0
sVcan
p1149
F1.0
sVthe
p1150
F3.0
sVor
p1151
F1.0
sVautomatically
p1152
F1.0
saa(lp1153
S'P98-2143116'
p1154
a(dp1155
Vscored
p1156
F2.0
sVon
p1157
F1.0
sV``
p1158
F2.0
sg414
F3.0
sVbaseline
p1159
F2.0
sVT-INT
p1160
F6.0
sVT-FLOAT
p1161
F4.0
sVwhereas
p1162
F1.0
sVprecision
p1163
F1.0
sVsame
p1164
F1.0
sVand
p1165
F1.0
sV''
p1166
F2.0
sVtested
p1167
F1.0
sg15
F1.0
sVrecall
p1168
F1.0
sVmost
p1169
F1.0
sVmodel
p1170
F1.0
sVrecent
p1171
F1.0
sVdata
p1172
F1.0
sVthe
p1173
F2.0
sVsubject
p1174
F1.0
saa(lp1175
S'P98-2143119'
p1176
a(dp1177
Vand
p1178
F3.0
sVtough
p1179
F1.0
sVhave
p1180
F1.0
sVpoint
p1181
F1.0
sVis
p1182
F1.0
sVmeasure
p1183
F1.0
sVanaphors
p1184
F2.0
sVnumber
p1185
F2.0
sVone
p1186
F1.0
sV''
p1187
F2.0
sVfilters
p1188
F1.0
sVgender
p1189
F2.0
sVstill
p1190
F1.0
sVactivating
p1191
F1.0
sVfrom
p1192
F1.0
sVcandidate
p1193
F1.0
sVT-INT
p1194
F1.0
sg13
F2.0
sg14
F2.0
sg15
F2.0
sVthan
p1195
F1.0
sVto
p1196
F2.0
sVonly
p1197
F1.0
sVwhich
p1198
F1.0
sVindicators
p1199
F1.0
sVperformance
p1200
F1.0
sVmore
p1201
F1.0
sV``
p1202
F2.0
sVantecedent
p1203
F2.0
sVafter
p1204
F1.0
sVindicative
p1205
F1.0
sg248
F1.0
sVT-FLOAT
p1206
F3.0
sVthose
p1207
F1.0
sVambiguous
p1208
F1.0
sg359
F1.0
sVmitkov
p1209
F1.0
sVfor
p1210
F1.0
sVthis
p1211
F1.0
sVof
p1212
F4.0
sg360
F1.0
sVapplies
p1213
F1.0
sVthe
p1214
F4.0
sVview
p1215
F1.0
saa(lp1216
S'P98-2143136'
p1217
a(dp1218
Vresolved
p1219
F1.0
sg414
F1.0
sVcogniac
p1220
F1.0
sVsuccessfully
p1221
F1.0
sVT-INT
p1222
F1.0
sVof
p1223
F1.0
sVT-FLOAT
p1224
F1.0
sVin
p1225
F1.0
sVpronouns
p1226
F1.0
sVthe
p1227
F2.0
sVcases
p1228
F1.0
saa(lp1229
S'P98-2143134'
p1230
a(dp1231
Vand
p1232
F3.0
sVis
p1233
F1.0
sVshare
p1234
F1.0
sVprinciples
p1235
F1.0
sVappropriate
p1236
F1.0
sVtagger
p1237
F1.0
sVare
p1238
F1.0
sVour
p1239
F1.0
sVbaldwin
p1240
F1.0
sVuse
p1241
F1.0
sVwould
p1242
F1.0
sVprovide
p1243
F1.0
sg14
F1.0
sVto
p1244
F1.0
sVknowledge-poor
p1245
F1.0
sVtherefore
p1246
F1.0
sVinput
p1247
F1.0
sVapproach
p1248
F2.0
sVbe
p1249
F1.0
sV's
p1250
F1.0
sVthat
p1251
F1.0
sVpos
p1252
F1.0
sVreason
p1253
F1.0
sVbreck
p1254
F1.0
sVcomparison
p1255
F1.0
sVT-FLOAT
p1256
F1.0
sg202
F2.0
sVboth
p1257
F2.0
sg13
F1.0
sVcommon
p1258
F1.0
sVthe
p1259
F2.0
saa(lp1260
S'P98-2143137'
p1261
a(dp1262
Vcomparable
p1263
F1.0
sg13
F1.0
sVdescribed
p1264
F1.0
sVthis
p1265
F1.0
sg14
F1.0
sVis
p1266
F1.0
sVresults
p1267
F1.0
sVT-INT
p1268
F1.0
sVresult
p1269
F1.0
sVin
p1270
F1.0
sVthe
p1271
F1.0
sVwith
p1272
F1.0
sVT-FLOAT
p1273
F1.0
sVbaldwin
p1274
F1.0
saa(lp1275
S'P98-214355'
p1276
a(dp1277
Vflat
p1278
F1.0
sVor
p1279
F1.0
sVup
p1280
F1.0
sVprinteri
p1281
F1.0
sVlay
p1282
F1.0
sViti
p1283
F1.0
sg15
F1.0
sVyou
p1284
F1.0
sVto
p1285
F1.0
sVpaper
p1286
F1.0
sVcan
p1287
F1.0
sVT-FLOAT
p1288
F1.0
sVprint
p1289
F1.0
sVthe
p1290
F2.0
sg40
F1.0
sVexample
p1291
F1.0
sVstand
p1292
F1.0
saa(lp1293
S'P98-2143156'
p1294
a(dp1295
Vand
p1296
F2.0
sVwe
p1297
F1.0
sg414
F2.0
sVsuccess
p1298
F2.0
sVfor
p1299
F2.0
sVT-INT
p1300
F4.0
sg13
F2.0
sVapproach
p1301
F1.0
sVevaluated
p1302
F1.0
sValso
p1303
F1.0
sVrate
p1304
F2.0
sVhave
p1305
F1.0
sg14
F2.0
sVpolish
p1306
F1.0
sVthe
p1307
F1.0
sVadapted
p1308
F1.0
sVT-FLOAT
p1309
F3.0
sVarabic
p1310
F1.0
saa(lp1311
S'P98-2143143'
p1312
a(dp1313
Vfeatures
p1314
F1.0
sVsome
p1315
F1.0
sVstys
p1316
F1.0
sVas
p1317
F1.0
sVin
p1318
F1.0
sVpolish
p1319
F1.0
sVT-FLOAT
p1320
F1.0
sVpreferences
p1321
F1.0
sVfit
p1322
F1.0
sg12
F1.0
sg13
F1.0
sg14
F1.0
sVhad
p1323
F1.0
sg15
F1.0
sVto
p1324
F2.0
sVexpected
p1325
F1.0
sVbe
p1326
F1.0
sVwith
p1327
F1.0
sVT-INT
p1328
F1.0
sVmitkov
p1329
F1.0
sVof
p1330
F2.0
sVmodified
p1331
F1.0
sVspecific
p1332
F1.0
sVthe
p1333
F1.0
sVorder
p1334
F1.0
saa(lp1335
S'P98-214389'
p1336
a(dp1337
Vbe
p1338
F1.0
sVlost
p1339
F1.0
sVthat
p1340
F1.0
sVmight
p1341
F1.0
sVis
p1342
F1.0
sVless
p1343
F1.0
sg15
F2.0
sVhowever
p1344
F1.0
sVsuggests
p1345
F1.0
sVmuch
p1346
F1.0
sVour
p1347
F1.0
sVT-FLOAT
p1348
F1.0
sVevaluation
p1349
F1.0
sVthan
p1350
F1.0
sVfeared
p1351
F1.0
saa(lp1352
S'P98-214386'
p1353
a(dp1354
Vand
p1355
F1.0
sVlack
p1356
F1.0
sVsee
p1357
F1.0
sVin
p1358
F1.0
sVsubject
p1359
F1.0
sVinformation
p1360
F1.0
sVT-INT
p1361
F1.0
sVfor
p1362
F1.0
sVsyntactic
p1363
F1.0
sVgiving
p1364
F1.0
sg14
F1.0
sg15
F3.0
sVinstance
p1365
F1.0
sVother
p1366
F1.0
sVwhich
p1367
F1.0
sVbe
p1368
F1.0
sVused
p1369
F1.0
sVmeans
p1370
F1.0
sVobject
p1371
F1.0
sVc-cornmand
p1372
F1.0
sVpreference
p1373
F2.0
sVT-FLOAT
p1374
F1.0
sVon
p1375
F1.0
sVtracking
p1376
F1.0
sVmitkov
p1377
F1.0
sVcenter
p1378
F1.0
sg360
F1.0
sVof
p1379
F1.0
sVcould
p1380
F1.0
sVup
p1381
F1.0
sg13
F1.0
sVoccasions
p1382
F1.0
sVthe
p1383
F1.0
sVor
p1384
F1.0
sVconstraints
p1385
F1.0
saa(lp1386
S'P98-214384'
p1387
a(dp1388
VT-FLOAT
p1389
F1.0
sVevaluation
p1390
F1.0
saa(lp1391
S'P98-214382'
p1392
a(dp1393
Vagain
p1394
F1.0
sVindicator
p1395
F1.0
sVcandidate
p1396
F1.0
sVfor
p1397
F1.0
sVmost
p1398
F1.0
sVthis
p1399
F1.0
sg15
F1.0
sVgo
p1400
F1.0
sVdoes
p1401
F1.0
sVrecent
p1402
F1.0
sVnot
p1403
F1.0
sVthe
p1404
F1.0
sVhold
p1405
F1.0
sVT-FLOAT
p1406
F1.0
sVif
p1407
F1.0
saa(lp1408
S'P98-214383'
p1409
a(dp1410
VT-INT
p1411
F1.0
sVT-FLOAT
p1412
F1.0
saa(lp1413
S'P98-214380'
p1414
a(dp1415
Vcandidate
p1416
F1.0
sVreference
p1417
F1.0
sVpropose
p1418
F1.0
sg15
F1.0
sVimmediate
p1419
F1.0
sVfor
p1420
F1.0
sVdoes
p1421
F1.0
sVpattern
p1422
F1.0
sVhigher
p1423
F1.0
sVcollocational
p1424
F1.0
sVnot
p1425
F1.0
sVscore
p1426
F1.0
sVthe
p1427
F1.0
sVhold
p1428
F1.0
sVwith
p1429
F1.0
sVT-FLOAT
p1430
F1.0
sVif
p1431
F1.0
saa(lp1432
S'P98-214381'
p1433
a(dp1434
g202
F1.0
sVscore
p1435
F1.0
sVcandidate
p1436
F1.0
sVverbs
p1437
F1.0
sVcollocational
p1438
F1.0
sVindicating
p1439
F1.0
sg15
F1.0
sVfor
p1440
F1.0
sVsuggests
p1441
F1.0
sVdoes
p1442
F1.0
sVhigher
p1443
F1.0
sVT-FLOAT
p1444
F1.0
sVpattern
p1445
F1.0
sVnot
p1446
F1.0
sVtie
p1447
F1.0
sVthe
p1448
F1.0
sVhold
p1449
F1.0
sVwith
p1450
F1.0
sVor
p1451
F1.0
sVselect
p1452
F1.0
sVif
p1453
F1.0
saa(lp1454
S'P98-214328'
p1455
a(dp1456
Vand
p1457
F1.0
sVin
p1458
F1.0
sVanaphors
p1459
F1.0
sVpronominal
p1460
F1.0
sVlikely
p1461
F1.0
sVare
p1462
F2.0
sVsentences
p1463
F1.0
sVindefinite
p1464
F2.0
sVprevious
p1465
F1.0
sVdefiniteness
p1466
F1.0
sg13
F1.0
sg14
F1.0
sVdefinite
p1467
F2.0
sVby
p1468
F1.0
sVT-INT
p1469
F2.0
sVscore
p1470
F1.0
sVmore
p1471
F1.0
sVones
p1472
F2.0
sVthan
p1473
F1.0
sVnoun
p1474
F2.0
sVpenalised
p1475
F1.0
sVphrases
p1476
F2.0
sVof
p1477
F1.0
sVantecedents
p1478
F1.0
sVT-FLOAT
p1479
F1.0
saa(lp1480
S'P98-214360'
p1481
a(dp1482
Vand
p1483
F1.0
sVis
p1484
F1.0
sVlikely
p1485
F1.0
sVare
p1486
F2.0
sVin
p1487
F1.0
sVT-FLOAT
p1488
F1.0
sVif
p1489
F2.0
sVto
p1490
F1.0
sg13
F1.0
sg14
F1.0
sVT-INT
p1491
F2.0
sVscore
p1492
F1.0
sVwhich
p1493
F1.0
sVnp
p1494
F1.0
sVmore
p1495
F1.0
sVbe
p1496
F1.0
sVterms
p1497
F2.0
sVpreference
p1498
F1.0
sVnot
p1499
F2.0
sVrepresenting
p1500
F1.0
sVthan
p1501
F1.0
sVnps
p1502
F2.0
sg202
F1.0
sVantecedent
p1503
F1.0
sVterm
p1504
F2.0
sVfield
p1505
F1.0
sVthe
p1506
F3.0
saa(lp1507
S'P98-214320'
p1508
a(dp1509
Vhelp
p1510
F1.0
sVcandidate
p1511
F1.0
sVverbs
p1512
F1.0
sVthis
p1513
F1.0
sVis
p1514
F1.0
sg15
F1.0
sVpreferred
p1515
F1.0
sVfor
p1516
F1.0
sVdoes
p1517
F1.0
sVnot
p1518
F1.0
sVscore
p1519
F1.0
sVthe
p1520
F2.0
sVhigher
p1521
F1.0
sVwith
p1522
F1.0
sVT-FLOAT
p1523
F1.0
sVindicating
p1524
F1.0
sVif
p1525
F1.0
saa(lp1526
S'P98-2143102'
p1527
a(dp1528
Vand
p1529
F1.0
sVled
p1530
F1.0
sVT-FLOAT
p1531
F1.0
sVport
p1532
F1.0
sVadd
p1533
F1.0
sVby
p1534
F1.0
sVlit
p1535
F1.0
sVto
p1536
F1.0
sVdraweq
p1537
F1.0
sVpaper
p1538
F2.0
sVidentify
p1539
F1.0
sVitj
p1540
F1.0
sVthe
p1541
F2.0
sg40
F1.0
sVexample
p1542
F1.0
saa(lp1543
S'P98-214322'
p1544
a(dp1545
Vindicators
p1546
F1.0
sVT-INT
p1547
F2.0
sVT-FLOAT
p1548
F2.0
sVantecedent
p1549
F1.0
saa(lp1550
S'P98-214323'
p1551
a(dp1552
g202
F2.0
sVantecedent
p1553
F2.0
sVplay
p1554
F1.0
sVtracking
p1555
F1.0
sVfrom
p1556
F1.0
sVof
p1557
F1.0
sVpossible
p1558
F1.0
sVdown
p1559
F1.0
sVT-FLOAT
p1560
F1.0
sVset
p1561
F1.0
sVrole
p1562
F1.0
sVin
p1563
F1.0
sVindicators
p1564
F1.0
sVcandidates
p1565
F1.0
sVdecisive
p1566
F1.0
sVthe
p1567
F1.0
saa(lp1568
S'P98-2143138'
p1569
a(dp1570
Vand
p1571
F1.0
sVfollowed
p1572
F1.0
sVit
p1573
F1.0
sVsee
p1574
F1.0
sVT-FLOAT
p1575
F2.0
sVbaldwin
p1576
F1.0
sVfrom
p1577
F1.0
sVfor
p1578
F1.0
sg13
F6.0
sg14
F6.0
sg15
F9.0
sVT-INT
p1579
F16.0
sVwhich
p1580
F1.0
sVwas
p1581
F2.0
sVused
p1582
F1.0
sVmanuals
p1583
F1.0
sVmost
p1584
F1.0
sVgenre
p1585
F1.0
sVfrequently
p1586
F1.0
sVcases
p1587
F2.0
sVdata
p1588
F1.0
sVby
p1589
F1.0
sVtraining
p1590
F1.0
sVsuccess
p1591
F2.0
sVtechnical
p1592
F1.0
sVof
p1593
F3.0
sVrule
p1594
F5.0
sg360
F1.0
sVthe
p1595
F4.0
sg414
F10.0
saa.