(lp0
(lp1
S'P98-104693'
p2
a(dp3
Vsemantic
p4
F1.0
sVis
p5
F1.0
sVit
p6
F1.0
sVas
p7
F1.0
sVare
p8
F1.0
sVhave
p9
F1.0
sVin
p10
F1.0
sVforce
p11
F1.0
sVT-FLOAT
p12
F1.0
sVconative
p13
F1.0
sV)
p14
F1.0
sV(
p15
F1.0
sVverbs
p16
F1.0
sVtake
p17
F1.0
sVwhich
p18
F1.0
sVintersective
p19
F1.0
sVexertion
p20
F1.0
sVthat
p21
F2.0
sVexactly
p22
F1.0
sVcomponent
p23
F1.0
sVtriple-listed
p24
F1.0
sVclass
p25
F1.0
sVthose
p26
F1.0
sVa
p27
F1.0
sVcan
p28
F1.0
sVthe
p29
F2.0
sVsplit/push/carry
p30
F1.0
saa(lp31
S'P98-104616'
p32
a(dp33
Vand
p34
F1.0
sVportuguese
p35
F1.0
sVsemantic
p36
F1.0
sVpredictive
p37
F1.0
sVexamine
p38
F1.0
sVin
p39
F2.0
sVrespect
p40
F1.0
sValso
p41
F1.0
sV,
p42
F1.0
sVsame
p43
F1.0
sVto
p44
F1.0
sValternations
p45
F1.0
sVwe
p46
F1.0
sVsimilar
p47
F1.0
sVwith
p48
F1.0
sVT-FLOAT
p49
F1.0
sVlanguage
p50
F1.0
sVthis
p51
F1.0
sVof
p52
F1.0
sVclasses
p53
F1.0
sVcomponents
p54
F1.0
sVthe
p55
F2.0
sVpowers
p56
F1.0
saa(lp57
S'P98-104694'
p58
a(dp59
Vand
p60
F1.0
sVcausation
p61
F1.0
sVtow
p62
F1.0
sV''
p63
F1.0
sVimply
p64
F1.0
sVare
p65
F2.0
sVin
p66
F1.0
sVcarry
p67
F3.0
sVT-FLOAT
p68
F1.0
sVheft
p69
F1.0
sVtote
p70
F1.0
sg14
F1.0
sg15
F1.0
sg42
F7.0
sVverbs
p71
F1.0
sVpure
p72
F1.0
sVlug
p73
F1.0
sVmore
p74
F1.0
sV``
p75
F1.0
sVthat
p76
F1.0
sVintersective
p77
F1.0
sVdrag
p78
F1.0
sVhoist
p79
F1.0
sVnot
p80
F1.0
sVclass
p81
F2.0
sVachievement
p82
F1.0
sVof
p83
F3.0
sVhaul
p84
F1.0
sVmotion
p85
F1.0
sValways
p86
F1.0
sVthe
p87
F4.0
sVexamples
p88
F1.0
saa(lp89
S'P98-1046145'
p90
a(dp91
Vand
p92
F1.0
sVwe
p93
F1.0
sVroll/run
p94
F1.0
sVintersective
p95
F1.0
sVselected
p96
F1.0
sg42
F1.0
sVT-FLOAT
p97
F1.0
sVclasses
p98
F1.0
sVslide/roll/run
p99
F1.0
sVmeander/roll
p100
F1.0
sVthe
p101
F1.0
saa(lp102
S'P98-1046162'
p103
a(dp104
Vand
p105
F1.0
sVsense
p106
F1.0
sVregular
p107
F1.0
sVthese
p108
F2.0
sVof
p109
F2.0
sVenglish
p110
F1.0
sg42
F2.0
sVsame
p111
F2.0
sVmost
p112
F1.0
sVas
p113
F1.0
sVverbs
p114
F1.0
sVextensions
p115
F1.0
sVtake
p116
F1.0
sVT-FLOAT
p117
F1.0
sVin
p118
F1.0
sVthe
p119
F2.0
sValternations
p120
F2.0
sVby
p121
F1.0
sVachieve
p122
F1.0
sVvirtue
p123
F1.0
saa(lp124
S'P98-104648'
p125
a(dp126
g27
F1.0
sVall
p127
F1.0
sVmembers
p128
F1.0
sVsubsets
p129
F1.0
sVof
p130
F1.0
sVthree
p131
F1.0
sVminimum
p132
F1.0
sVwhich
p133
F1.0
sVwere
p134
F1.0
sVincluded
p135
F1.0
sVshared
p136
F1.0
sVT-FLOAT
p137
F1.0
saa(lp138
S'P98-104629'
p139
a(dp140
Vassociated
p141
F1.0
sVsyntactic
p142
F1.0
sVprovide
p143
F1.0
sVlevin
p144
F1.0
sVindividual
p145
F1.0
sVof
p146
F1.0
sVspecific
p147
F1.0
sVto
p148
F1.0
sVthat
p149
F1.0
sVclasses
p150
F2.0
sVare
p151
F2.0
sVsets
p152
F1.0
sVframes
p153
F1.0
sVthe
p154
F1.0
sVwith
p155
F1.0
sVT-FLOAT
p156
F1.0
sVsupposed
p157
F1.0
saa(lp158
S'P98-1046114'
p159
a(dp160
Vbe
p161
F1.0
sVused
p162
F1.0
sVverbs
p163
F2.0
sVof
p164
F2.0
sVhowever
p165
F1.0
sg42
F2.0
sVmotion
p166
F1.0
sValso
p167
F1.0
sVother
p168
F1.0
sVincluding
p169
F1.0
sVcan
p170
F1.0
sVmany
p171
F1.0
sVT-FLOAT
p172
F1.0
sVclasses
p173
F1.0
sVwith
p174
F1.0
sVapart
p175
F1.0
saa(lp176
S'P98-104624'
p177
a(dp178
Ventire
p179
F1.0
sVsemantic
p180
F1.0
sVwords
p181
F1.0
sVlinks
p182
F2.0
sg42
F1.0
sVsynsets
p183
F1.0
sVsuper-/subordinate
p184
F1.0
sVT-FLOAT
p185
F1.0
sVwhile
p186
F1.0
sVindividual
p187
F1.0
sVrelation
p188
F1.0
sVopposition
p189
F1.0
sVthe
p190
F1.0
sVor
p191
F1.0
sVantonymy
p192
F1.0
saa(lp193
S'P98-104642'
p194
a(dp195
Vverbs
p196
F1.0
sVstraightforward
p197
F1.0
sVsyntactic
p198
F1.0
sVof
p199
F2.0
sVis
p200
F1.0
sVin
p201
F1.0
sVone
p202
F1.0
sVeach
p203
F1.0
sVnot
p204
F1.0
sVas
p205
F2.0
sVindividual
p206
F1.0
sVsuppose
p207
F1.0
sVT-FLOAT
p208
F1.0
sVsets
p209
F1.0
sVframes
p210
F1.0
sVthe
p211
F1.0
sVwith
p212
F1.0
sVclass
p213
F1.0
sVassociation
p214
F1.0
sVmight
p215
F1.0
saa(lp216
S'P98-1046172'
p217
a(dp218
Vportuguese
p219
F1.0
sVis
p220
F1.0
sVrelated
p221
F1.0
sVhave
p222
F1.0
sVin
p223
F2.0
sVT-FLOAT
p224
F1.0
sVdescription
p225
F1.0
sg42
F1.0
sVto
p226
F2.0
sVexperiment
p227
F1.0
sVchoose
p228
F1.0
sVwe
p229
F1.0
sVtried
p230
F1.0
sVthat
p231
F1.0
sVlevin
p232
F1.0
sVmost
p233
F1.0
sVverb
p234
F2.0
sVclosely
p235
F1.0
sVclass
p236
F1.0
sVthis
p237
F1.0
sVof
p238
F1.0
sVenglish
p239
F1.0
sVthe
p240
F4.0
saa(lp241
S'P98-104646'
p242
a(dp243
Vdeciding
p244
F1.0
sVbecause
p245
F1.0
sVit
p246
F1.0
sVat
p247
F1.0
sVin
p248
F1.0
sVT-FLOAT
p249
F1.0
sVbest
p250
F1.0
sVfor
p251
F1.0
sVbelongs
p252
F1.0
sVtake
p253
F1.0
sValternations
p254
F1.0
sVthat
p255
F2.0
sVverb
p256
F1.0
sVparticular
p257
F1.0
sVnot
p258
F1.0
sVclass
p259
F1.0
sg27
F2.0
sVelusive
p260
F1.0
sVof
p261
F1.0
sVdoes
p262
F1.0
sVthe
p263
F2.0
sVgrounds
p264
F1.0
sVare
p265
F1.0
saa(lp266
S'P98-104645'
p267
a(dp268
Vand
p269
F1.0
sVprecedence
p270
F1.0
sVis
p271
F3.0
sVin
p272
F1.0
sVprimary
p273
F1.0
sVone
p274
F2.0
sVsense
p275
F2.0
sVfor
p276
F2.0
sg42
F2.0
sVshould
p277
F1.0
sVindicate
p278
F1.0
sVdoes
p279
F1.0
sVtake
p280
F1.0
sVwhich
p281
F1.0
sValternations
p282
F2.0
sVover
p283
F1.0
sV?
p284
F1.0
sVmore
p285
F1.0
sVthan
p286
F1.0
sVthat
p287
F2.0
sVit
p288
F1.0
sVverb
p289
F2.0
sVlisted
p290
F1.0
sVclass
p291
F1.0
sVof
p292
F1.0
sVclasses
p293
F1.0
sVinvolved
p294
F1.0
sVthe
p295
F5.0
sVother
p296
F1.0
sVor
p297
F1.0
saa(lp298
S'P98-104644'
p299
a(dp300
Vinterpretation
p301
F1.0
sVis
p302
F1.0
sVone
p303
F1.0
sVfour
p304
F1.0
sVare
p305
F1.0
sVin
p306
F3.0
sVopen
p307
F1.0
sVeven
p308
F1.0
sg14
F1.0
sg15
F1.0
sVthree
p309
F1.0
sVthan
p310
F1.0
sVto
p311
F1.0
sVverbs
p312
F1.0
sVlisting
p313
F1.0
sVmore
p314
F1.0
sVlevin
p315
F1.0
sVverb
p316
F1.0
sVclass
p317
F1.0
sg27
F1.0
sVthis
p318
F1.0
sVof
p319
F1.0
sVclasses
p320
F1.0
sVmany
p321
F1.0
sVT-FLOAT
p322
F1.0
sVor
p323
F1.0
sVleft
p324
F1.0
saa(lp325
S'P98-104661'
p326
a(dp327
Vsemantic-class
p328
F1.0
sVwe
p329
F1.0
sVrelevant
p330
F1.0
sVfigure
p331
F1.0
sValgorithm
p332
F1.0
sVidentifying
p333
F1.0
sVintersections
p334
F1.0
sVdatabase
p335
F1.0
sVfor
p336
F1.0
sVT-INT
p337
F1.0
sVas
p338
F1.0
sVverbs
p339
F1.0
sVT-FLOAT
p340
F1.0
sVthen
p341
F1.0
sVin
p342
F1.0
sVfollows
p343
F1.0
sVreclassified
p344
F1.0
sV:
p345
F1.0
sVthe
p346
F2.0
saa(lp347
S'P98-104663'
p348
a(dp349
Vclasses
p350
F1.0
sVsimultaneously
p351
F1.0
sVof
p352
F1.0
sg42
F1.0
sVlists
p353
F1.0
sVexisting
p354
F1.0
sVmembership
p355
F1.0
sVverb
p356
F1.0
sVfrom
p357
F1.0
sVthe
p358
F2.0
sVremoved
p359
F1.0
sVwas
p360
F1.0
sVT-FLOAT
p361
F1.0
sVthose
p362
F1.0
saa(lp363
S'P98-104662'
p364
a(dp365
Vit
p366
F1.0
sVexisting
p367
F1.0
sVassigned
p368
F1.0
sVin
p369
F2.0
sVT-FLOAT
p370
F1.0
sVif
p371
F1.0
sVto
p372
F1.0
sVcombined
p373
F1.0
sVintersective
p374
F2.0
sVnew
p375
F1.0
sVwas
p376
F2.0
sVlisted
p377
F1.0
sVform
p378
F1.0
sVthat
p379
F1.0
sVeach
p380
F1.0
sVmembership
p381
F1.0
sVverb
p382
F1.0
sVan
p383
F1.0
sVclass
p384
F2.0
sg27
F1.0
sVof
p385
F1.0
sVclasses
p386
F1.0
sVwere
p387
F1.0
sVthe
p388
F2.0
saa(lp389
S'P98-104665'
p390
a(dp391
Vexhibit
p392
F1.0
sVand
p393
F1.0
sVsmaller
p394
F1.0
sVsemantic
p395
F2.0
sVinto
p396
F1.0
sVsome
p397
F1.0
sVdivided
p398
F1.0
sVisolate
p399
F1.0
sg42
F1.0
sVverbs
p400
F1.0
sVbe
p401
F1.0
sVthat
p402
F1.0
sVpossible
p403
F1.0
sVT-FLOAT
p404
F1.0
sg27
F1.0
sVwide
p405
F1.0
sVlevin
p406
F1.0
sVcould
p407
F1.0
sVlarge
p408
F1.0
sVrange
p409
F1.0
sVclasses
p410
F1.0
sVcomponents
p411
F2.0
sVof
p412
F2.0
sVthe
p413
F1.0
sVsubclasses
p414
F1.0
sVcomprise
p415
F1.0
saa(lp416
S'P98-104664'
p417
a(dp418
Vto
p419
F1.0
sVlevin
p420
F1.0
sVT-INT
p421
F2.0
sVclasses
p422
F1.0
sVintersective
p423
F1.0
sVusing
p424
F1.0
sVT-FLOAT
p425
F2.0
saa(lp426
S'P98-104667'
p427
a(dp428
Vv-ing
p429
F1.0
sVis
p430
F1.0
sVin
p431
F1.0
sVmanifests
p432
F1.0
sV''
p433
F2.0
sVas
p434
F2.0
sVsense
p435
F1.0
sVT-FLOAT
p436
F1.0
sVuse
p437
F1.0
sVT-INT
p438
F1.0
sg14
F1.0
sg15
F1.0
sVseparate
p439
F1.0
sg42
F4.0
sVtheir
p440
F1.0
sVverbs
p441
F1.0
sVsplit
p442
F1.0
sVbasic
p443
F1.0
sVinstead
p444
F1.0
sVparaphrased
p445
F1.0
sVbe
p446
F1.0
sV``
p447
F2.0
sVextended
p448
F1.0
sVthat
p449
F2.0
sVv
p450
F1.0
sVlevin
p451
F1.0
sVmeaning
p452
F1.0
sVverb
p453
F2.0
sVan
p454
F1.0
sVby
p455
F1.0
sVof
p456
F1.0
sVcan
p457
F1.0
sVeach
p458
F1.0
sVthe
p459
F1.0
sVwhere
p460
F1.0
saa(lp461
S'P98-104688'
p462
a(dp463
Vpackage
p464
F1.0
sV*nora
p465
F1.0
sVpushed
p466
F1.0
sVto
p467
F1.0
sVpamela
p468
F1.0
sVat
p469
F1.0
sVthe
p470
F1.0
sVT-FLOAT
p471
F1.0
saa(lp472
S'P98-1046128'
p473
a(dp474
Vmeander
p475
F1.0
sVthese
p476
F1.0
sVof
p477
F1.0
sVintersective
p478
F1.0
sVverbs
p479
F2.0
sVare
p480
F1.0
sVin
p481
F1.0
sVexistence
p482
F1.0
sVthe
p483
F1.0
sVclasses
p484
F1.0
sVwith
p485
F1.0
sVT-FLOAT
p486
F1.0
sVlisted
p487
F1.0
saa(lp488
S'P98-104668'
p489
a(dp490
Vbecause
p491
F1.0
sVsemantic
p492
F1.0
sV``
p493
F1.0
sVan
p494
F1.0
sV''
p495
F1.0
sVhave
p496
F1.0
sVin
p497
F1.0
sVseparating
p498
F1.0
sVforce
p499
F1.0
sVtheir
p500
F1.0
sg14
F1.0
sg15
F1.0
sVbelong
p501
F1.0
sg42
F6.0
sVclass
p502
F1.0
sVto
p503
F1.0
sVverbs
p504
F1.0
sVdo
p505
F1.0
sVdraw
p506
F1.0
sVthat
p507
F1.0
sVcomponent
p508
F2.0
sVmeaning
p509
F1.0
sVnot
p510
F1.0
sVT-FLOAT
p511
F3.0
sVtug
p512
F1.0
sVpull
p513
F1.0
sVe
p514
F1.0
sVg
p515
F1.0
sVshove
p516
F1.0
sVthis
p517
F1.0
sVmany
p518
F1.0
sVof
p519
F4.0
sVpush
p520
F1.0
sVinherent
p521
F1.0
sVthe
p522
F2.0
sVyank
p523
F1.0
saa(lp524
S'P98-104685'
p525
a(dp526
Vbranches
p527
F1.0
sVpushed
p528
F1.0
sVnora
p529
F1.0
sVthe
p530
F1.0
sVT-FLOAT
p531
F1.0
sVapart
p532
F1.0
saa(lp533
S'P98-104684'
p534
a(dp535
Vforce
p536
F1.0
sVexerting
p537
F1.0
sVno
p538
F1.0
sg14
F1.0
sg15
F1.0
sVcausation
p539
F1.0
sg42
F1.0
sVmotion
p540
F1.0
sVT-INT
p541
F1.0
sVverb
p542
F1.0
sVseparation
p543
F1.0
sVof
p544
F2.0
sVaccompanied
p545
F1.0
sVT-FLOAT
p546
F1.0
sVor
p547
F1.0
sVimplied
p548
F1.0
saa(lp549
S'P98-1046163'
p550
a(dp551
Vthat
p552
F1.0
sVmany
p553
F1.0
sVrequire
p554
F1.0
sVthere
p555
F1.0
sVinvestigation
p556
F1.0
sVare
p557
F1.0
sVquestions
p558
F1.0
sVfurther
p559
F1.0
sVT-FLOAT
p560
F1.0
sVstill
p561
F1.0
saa(lp562
S'P98-1046147'
p563
a(dp564
Vrolq
p565
F1.0
sVand
p566
F1.0
sVelements
p567
F1.0
sVflutuar
p568
F1.0
sVof
p569
F1.0
sVrolar
p570
F1.0
sg42
F2.0
sVrebater
p571
F1.0
sVdeslizar
p572
F1.0
sVT-FLOAT
p573
F1.0
sVare
p574
F1.0
sVslide/roll/run
p575
F1.0
sg15
F1.0
sVthe
p576
F2.0
sVclass
p577
F1.0
saa(lp578
S'P98-1046168'
p579
a(dp580
Vulta
p581
F1.0
sg514
F12.0
sVmc
p582
F1.0
sVf
p583
F1.0
sVh
p584
F1.0
sVcau
p585
F1.0
sVn
p586
F3.0
sVs
p587
F13.0
sVect
p588
F1.0
sVo
p589
F3.0
sVres
p590
F1.0
sVy
p591
F12.0
sVT-FLOAT
p592
F2.0
sg345
F1.0
sVadj
p593
F1.0
sVtive
p594
F1.0
saa(lp595
S'P98-1046105'
p596
a(dp597
Vthat
p598
F1.0
sVof
p599
F1.0
sVseparate
p600
F1.0
sVn't
p601
F1.0
sVdoes
p602
F1.0
sVcutting
p603
F1.0
sVmanner
p604
F1.0
sVT-FLOAT
p605
F1.0
saa(lp606
S'P98-1046104'
p607
a(dp608
VT-INT
p609
F1.0
sVT-FLOAT
p610
F1.0
saa(lp611
S'P98-1046101'
p612
a(dp613
Vdifferentiated
p614
F1.0
sVcut
p615
F1.0
sVof
p616
F2.0
sVdistinguishes
p617
F1.0
sVtwo
p618
F1.0
sg42
F1.0
sVT-INT
p619
F1.0
sVresult
p620
F1.0
sVT-FLOAT
p621
F1.0
sVtype
p622
F1.0
sVthe
p623
F1.0
sg345
F1.0
sVsubclasses
p624
F1.0
sVby
p625
F1.0
sVwordnet
p626
F1.0
saa(lp627
S'P98-1046100'
p628
a(dp629
Vand
p630
F1.0
sVclip
p631
F1.0
sVchip
p632
F1.0
sVsnip
p633
F1.0
sVbeen
p634
F1.0
sVhack
p635
F1.0
sVT-FLOAT
p636
F1.0
sVsaw
p637
F1.0
sVcut
p638
F2.0
sVsyntactic
p639
F1.0
sg14
F1.0
sg15
F1.0
sVsince
p640
F1.0
sg42
F7.0
sVexhibits
p641
F1.0
sVproperties
p642
F1.0
sValso
p643
F1.0
sVverbs
p644
F2.0
sVsplit
p645
F1.0
sVslash
p646
F1.0
sVintersective
p647
F1.0
sVhas
p648
F1.0
sValternations
p649
F1.0
sVparent
p650
F1.0
sVhew
p651
F1.0
sVwith
p652
F1.0
sVclass
p653
F1.0
sVboth
p654
F1.0
sVthese
p655
F1.0
sVof
p656
F2.0
sVdisplay
p657
F1.0
sVclasses
p658
F1.0
sVthe
p659
F2.0
sVoriginal
p660
F1.0
sVaugmented
p661
F1.0
saa(lp662
S'P98-1046103'
p663
a(dp664
Vhypernym
p665
F1.0
sVclip
p666
F1.0
sVinto
p667
F1.0
sVpieces
p668
F1.0
sVsnip
p669
F1.0
sVas
p670
F1.0
sVhack
p671
F1.0
sVsaw
p672
F1.0
sVcut
p673
F2.0
sg14
F1.0
sg15
F1.0
sg42
F9.0
sVinstrument
p674
F1.0
sVslash
p675
F1.0
sVchip
p676
F1.0
sVseparate
p677
F1.0
sVimmediate
p678
F1.0
sVhew
p679
F1.0
sVan
p680
F2.0
sVwith
p681
F1.0
sVT-FLOAT
p682
F1.0
sVtion
p683
F1.0
sVhaving
p684
F1.0
saa(lp685
S'P98-1046154'
p686
a(dp687
Vexception
p688
F1.0
sVflutuar
p689
F1.0
sVjust
p690
F1.0
sVthis
p691
F1.0
sVT-FLOAT
p692
F1.0
sVis
p693
F1.0
sg42
F2.0
sVto
p694
F1.0
sVas
p695
F1.0
sVthe
p696
F1.0
sVnoted
p697
F1.0
saa(lp698
S'P98-1046129'
p699
a(dp700
Vand
p701
F2.0
sVmotion
p702
F1.0
sV``
p703
F1.0
sg345
F1.0
sVrun
p704
F1.0
sVintersections
p705
F1.0
sVfigure
p706
F1.0
sVof
p707
F2.0
sVclasses
p708
F1.0
sVverb
p709
F1.0
sV''
p710
F1.0
sVT-INT
p711
F2.0
sVverbs
p712
F3.0
sVT-FLOAT
p713
F1.0
sVbetween
p714
F1.0
sVexistence
p715
F1.0
sVcross-linguistic
p716
F1.0
sVmeander
p717
F2.0
sVroll
p718
F1.0
saa(lp719
S'P98-104622'
p720
a(dp721
Vand
p722
F1.0
sVall
p723
F1.0
sVset
p724
F1.0
sVsentence
p725
F1.0
sVan
p726
F1.0
sVconcept
p727
F1.0
sVin
p728
F1.0
sVcontains
p729
F1.0
sVgiven
p730
F1.0
sg14
F1.0
sg15
F1.0
sVgloss
p731
F1.0
sg42
F2.0
sVforms
p732
F1.0
sVto
p733
F1.0
sVsynset
p734
F1.0
sVrefer
p735
F1.0
sVdefinitional
p736
F1.0
sVthat
p737
F1.0
sVsyn
p738
F1.0
sVmost
p739
F1.0
sVbesides
p740
F1.0
sVonym
p741
F1.0
sVcases
p742
F1.0
sVT-FLOAT
p743
F1.0
sg27
F3.0
sVword
p744
F1.0
sVcan
p745
F1.0
sVthe
p746
F1.0
sVexample
p747
F1.0
saa(lp748
S'P98-1046143'
p749
a(dp750
Vmembership
p751
F1.0
sVT-INT
p752
F2.0
sVT-FLOAT
p753
F2.0
sVclass
p754
F1.0
sVchanging
p755
F1.0
saa(lp756
S'P98-1046169'
p757
a(dp758
Von
p759
F1.0
sVpar
p760
F1.0
sg514
F12.0
sVacti
p761
F1.0
sVye
p762
F3.0
sVind
p763
F1.0
sg587
F15.0
sVt
p764
F1.0
sg591
F12.0
sVT-FLOAT
p765
F3.0
sVloc
p766
F1.0
sVat
p767
F1.0
saa(lp768
S'P98-104672'
p769
a(dp770
Vand
p771
F1.0
sVintersection
p772
F1.0
sVfigure
p773
F1.0
sVof
p774
F1.0
sg42
F1.0
sVpush/pull
p775
F1.0
sVT-INT
p776
F1.0
sVsplit
p777
F1.0
sVcarry
p778
F1.0
sVthe
p779
F1.0
sVdepicts
p780
F1.0
sVT-FLOAT
p781
F1.0
saa(lp782
S'P98-1046113'
p783
a(dp784
Vand
p785
F1.0
sVis
p786
F3.0
sVsense
p787
F2.0
sVit
p788
F1.0
sVan
p789
F2.0
sVappropriate
p790
F1.0
sVin
p791
F1.0
sVwordnet
p792
F1.0
sVverbs
p793
F2.0
sVappear
p794
F1.0
sVfor
p795
F1.0
sVsince
p796
F1.0
sVwhen
p797
F1.0
sg42
F2.0
sVadjunct
p798
F1.0
sVonly
p799
F2.0
sVexplicitly
p800
F1.0
sVsplit
p801
F1.0
sVas
p802
F1.0
sVoccurs
p803
F1.0
sVextended
p804
F1.0
sVthat
p805
F1.0
sVverb
p806
F1.0
sVseparation
p807
F1.0
sVnot
p808
F2.0
sVsuch
p809
F1.0
sVwith
p810
F1.0
sVT-FLOAT
p811
F1.0
sVapart
p812
F1.0
sVsurprising
p813
F1.0
sVthese
p814
F1.0
sVof
p815
F1.0
sVinferred
p816
F1.0
sVdoes
p817
F1.0
sVthe
p818
F4.0
sVfact
p819
F1.0
saa(lp820
S'P98-1046125'
p821
a(dp822
Vand
p823
F3.0
sVdescribe
p824
F1.0
sVthus
p825
F1.0
sVin
p826
F1.0
sVanimate
p827
F1.0
sVclasses
p828
F1.0
sVinanimate
p829
F1.0
sVappear
p830
F1.0
sg42
F1.0
sVto
p831
F1.0
sVverbs
p832
F1.0
sVroll
p833
F1.0
sVbe
p834
F1.0
sVused
p835
F1.0
sVrun
p836
F1.0
sVsome
p837
F1.0
sVobjects
p838
F1.0
sVboth
p839
F2.0
sVof
p840
F1.0
sVmotion
p841
F1.0
sVverb
p842
F1.0
sVcan
p843
F1.0
sVT-FLOAT
p844
F1.0
saa(lp845
S'P98-10461'
p846
a(dp847
Vand
p848
F1.0
sVachieved
p849
F1.0
sVparticular
p850
F1.0
sVpaper
p851
F1.0
sVthrough
p852
F1.0
sVquestions
p853
F1.0
sVin
p854
F1.0
sVrespect
p855
F1.0
sVto
p856
F1.0
sg42
F1.0
sVspecifically
p857
F1.0
sVhow
p858
F1.0
sVverbs
p859
F1.0
sVbe
p860
F1.0
sVwe
p861
F1.0
sVadjunction
p862
F1.0
sVpolysemy
p863
F1.0
sVmeaning
p864
F1.0
sVregular
p865
F1.0
sVaddress
p866
F1.0
sVwith
p867
F1.0
sVT-FLOAT
p868
F1.0
sVthis
p869
F1.0
sVof
p870
F3.0
sVsyntactic
p871
F1.0
sVextensions
p872
F1.0
sVcan
p873
F1.0
sVphrases
p874
F1.0
sVthe
p875
F1.0
saa(lp876
S'P98-1046137'
p877
a(dp878
Vintersective
p879
F1.0
sVto
p880
F1.0
sVthese
p881
F1.0
sVT-FLOAT
p882
F1.0
sVcreated
p883
F1.0
sVwell
p884
F1.0
sVcorrespond
p885
F1.0
sVclass
p886
F1.0
sVvery
p887
F1.0
sVenglish
p888
F1.0
sVthe
p889
F2.0
sVsubclasses
p890
F2.0
sVby
p891
F1.0
saa(lp892
S'P98-1046118'
p893
a(dp894
Vextension
p895
F1.0
sVfor
p896
F1.0
sVof
p897
F1.0
sVT-INT
p898
F2.0
sVmanner
p899
F1.0
sVsense
p900
F1.0
sVT-FLOAT
p901
F2.0
saa(lp902
S'P98-104611'
p903
a(dp904
Vdo
p905
F1.0
sVto
p906
F1.0
sVof
p907
F1.0
sVone
p908
F1.0
sVpolysemy
p909
F1.0
sVmost
p910
F1.0
sVcontroversial
p911
F1.0
sVthe
p912
F1.0
sVhas
p913
F1.0
sVwith
p914
F1.0
sVT-FLOAT
p915
F1.0
sVareas
p916
F1.0
saa(lp917
S'P98-1046146'
p918
a(dp919
Vportuguese
p920
F1.0
sVinto
p921
F1.0
sVone
p922
F1.0
sVas
p923
F1.0
sVhave
p924
F1.0
sVin
p925
F1.0
sVT-FLOAT
p926
F1.0
sVbest
p927
F1.0
sVdescribed
p928
F2.0
sVhad
p929
F1.0
sg42
F1.0
sVsame
p930
F1.0
sVverbs
p931
F1.0
sVarguments
p932
F1.0
sVtype
p933
F1.0
sVmore
p934
F1.0
sVwe
p935
F1.0
sV's
p936
F1.0
sVchose
p937
F1.0
sVthat
p938
F2.0
sVmost
p939
F1.0
sVmeaning
p940
F1.0
sVverb
p941
F1.0
sVtranslation
p942
F2.0
sVthan
p943
F1.0
sVof
p944
F1.0
sVclasses
p945
F1.0
sVso
p946
F1.0
sVlevin
p947
F1.0
sVthe
p948
F3.0
sVor
p949
F1.0
saa(lp950
S'P98-104614'
p951
a(dp952
Vand
p953
F1.0
sVachieved
p954
F1.0
sVparticular
p955
F1.0
sVpaper
p956
F1.0
sVthrough
p957
F1.0
sVquestions
p958
F1.0
sVin
p959
F1.0
sVrespect
p960
F1.0
sVto
p961
F1.0
sg42
F1.0
sVspecifically
p962
F1.0
sVhow
p963
F1.0
sVverbs
p964
F1.0
sVbe
p965
F1.0
sVwe
p966
F1.0
sVadjunction
p967
F1.0
sVpolysemy
p968
F1.0
sVmeaning
p969
F1.0
sVregular
p970
F1.0
sVaddress
p971
F1.0
sVwith
p972
F1.0
sVT-FLOAT
p973
F1.0
sVthis
p974
F1.0
sVof
p975
F3.0
sVsyntactic
p976
F1.0
sVextensions
p977
F1.0
sVcan
p978
F1.0
sVphrases
p979
F1.0
sVthe
p980
F1.0
saa(lp981
S'P98-104638'
p982
a(dp983
Vambiguities
p984
F1.0
sVlevin
p985
F1.0
sVT-INT
p986
F2.0
sVclasses
p987
F1.0
sVin
p988
F1.0
sVT-FLOAT
p989
F2.0
saa(lp990
S'P98-104639'
p991
a(dp992
Vand
p993
F3.0
sVindications
p994
F1.0
sVonyshkevych
p995
F1.0
sVjones
p996
F2.0
sVis
p997
F2.0
sVit
p998
F1.0
sVdiscrepancy
p999
F1.0
sVare
p1000
F1.0
sVwordnet
p1001
F1.0
sVT-INT
p1002
F3.0
sVhow
p1003
F1.0
sg14
F3.0
sg15
F3.0
sVthere
p1004
F1.0
sg42
F6.0
sVoverlap
p1005
F1.0
sVshould
p1006
F1.0
sVto
p1007
F1.0
sVmuch
p1008
F1.0
sVexpected
p1009
F1.0
sVbe
p1010
F1.0
sVthat
p1011
F1.0
sVsynsets
p1012
F1.0
sVpreliminary
p1013
F1.0
sVnot
p1014
F1.0
sVwith
p1015
F1.0
sVdorr
p1016
F2.0
sg27
F1.0
sVwide
p1017
F1.0
sVlevin
p1018
F1.0
sVclear
p1019
F1.0
sVclasses
p1020
F1.0
sVT-FLOAT
p1021
F1.0
saa(lp1022
S'P98-104618'
p1023
a(dp1024
Vindicated
p1025
F1.0
sVinto
p1026
F1.0
sVsaint-dizier
p1027
F1.0
sVal
p1028
F2.0
sVhave
p1029
F1.0
sVet
p1030
F2.0
sVnomura
p1031
F1.0
sg14
F3.0
sg15
F3.0
sVinvestigations
p1032
F1.0
sg42
F5.0
sVlanguages
p1033
F1.0
sVT-INT
p1034
F3.0
sVother
p1035
F1.0
sVis
p1036
F1.0
sVjones
p1037
F1.0
sVstraightforward
p1038
F1.0
sVthat
p1039
F1.0
sVpreliminary
p1040
F1.0
sVnot
p1041
F1.0
sVtranslation
p1042
F1.0
sg27
F1.0
sVof
p1043
F1.0
sVfeasible
p1044
F1.0
sVclasses
p1045
F1.0
sVlevin
p1046
F1.0
sVT-FLOAT
p1047
F3.0
saa(lp1048
S'P98-104637'
p1049
a(dp1050
Vare
p1051
F1.0
sVbe
p1052
F1.0
sVno
p1053
F1.0
sVrecognized
p1054
F1.0
sVachieved
p1055
F1.0
sVattempted
p1056
F1.0
sVis
p1057
F1.0
sVthere
p1058
F1.0
sg42
F1.0
sVactions
p1059
F1.0
sVcan
p1060
F1.0
sVthat
p1061
F1.0
sVresult
p1062
F1.0
sVT-FLOAT
p1063
F1.0
sVnot
p1064
F1.0
sVthe
p1065
F1.0
sVstill
p1066
F1.0
sVbreaking
p1067
F1.0
sVif
p1068
F1.0
saa(lp1069
S'P98-104632'
p1070
a(dp1071
Vintransitive
p1072
F1.0
sV*the
p1073
F1.0
sVsimple
p1074
F1.0
sVT-FLOAT
p1075
F1.0
sVwindow
p1076
F1.0
sVcut
p1077
F1.0
sVhowever
p1078
F1.0
sg42
F3.0
sVbreak
p1079
F1.0
sValso
p1080
F1.0
sVonly
p1081
F1.0
sVverbs
p1082
F1.0
sVcan
p1083
F1.0
sVbroke
p1084
F1.0
sVin
p1085
F1.0
sVthe
p1086
F2.0
sVoccur
p1087
F1.0
sVbread
p1088
F1.0
saa(lp1089
S'P98-1046144'
p1090
a(dp1091
Vportuguese
p1092
F1.0
sVwe
p1093
F1.0
sVinvestigated
p1094
F1.0
sVverbs
p1095
F1.0
sVof
p1096
F2.0
sVsome
p1097
F1.0
sVmotion
p1098
F1.0
sValso
p1099
F1.0
sVclasses
p1100
F1.0
sVT-FLOAT
p1101
F1.0
sVintersective
p1102
F1.0
sVtranslation
p1103
F1.0
sVthe
p1104
F1.0
saa(lp1105
S'P98-104654'
p1106
a(dp1107
Vall
p1108
F1.0
sVenumerate
p1109
F1.0
sVc
p1110
F1.0
sg42
F1.0
sVT-INT
p1111
F2.0
sg587
F1.0
sVsets
p1112
F1.0
sVT-FLOAT
p1113
F2.0
sV=
p1114
F1.0
sV{
p1115
F1.0
saa(lp1116
S'P98-104655'
p1117
a(dp1118
VseT-FLOAT
p1119
F1.0
sVof
p1120
F1.0
sV}
p1121
F1.0
sg42
F1.0
sVcn
p1122
F1.0
saa(lp1123
S'P98-104656'
p1124
a(dp1125
g27
F1.0
sVcutoff
p1126
F1.0
sg514
F2.0
sVthat
p1127
F1.0
sVeni
p1128
F1.0
sVis
p1129
F1.0
sg42
F1.0
sg586
F2.0
sVclasses
p1130
F1.0
sVlet
p1131
F1.0
sVrelevance
p1132
F1.0
sVsuch
p1133
F1.0
sVT-FLOAT
p1134
F2.0
sVwhere
p1135
F1.0
sVmantic
p1136
F1.0
saa(lp1137
S'P98-104657'
p1138
a(dp1139
VT-INT
p1140
F1.0
sVT-FLOAT
p1141
F1.0
saa(lp1142
S'P98-104676'
p1143
a(dp1144
Vto
p1145
F1.0
sVpackage
p1146
F1.0
sVpushed
p1147
F1.0
sVnora
p1148
F1.0
sVpamela
p1149
F1.0
sVthe
p1150
F1.0
sVT-FLOAT
p1151
F1.0
saa(lp1152
S'P98-104651'
p1153
a(dp1154
Vdraw
p1155
F1.0
sVthis
p1156
F1.0
sVof
p1157
F1.0
sVis
p1158
F1.0
sVsole
p1159
F1.0
sVmember
p1160
F1.0
sVverb
p1161
F1.0
sVthe
p1162
F2.0
sVintersection
p1163
F1.0
sVT-FLOAT
p1164
F1.0
saa(lp1165
S'P98-1046150'
p1166
a(dp1167
Valways
p1168
F1.0
sVis
p1169
F1.0
sVtranslations
p1170
F1.0
sValso
p1171
F1.0
sVpreserved
p1172
F1.0
sVin
p1173
F1.0
sVnot
p1174
F1.0
sVthe
p1175
F1.0
sVtransitivity
p1176
F1.0
sVT-FLOAT
p1177
F1.0
saa(lp1178
S'P98-104653'
p1179
a(dp1180
Vgiven
p1181
F1.0
sVused
p1182
F1.0
sVfigure
p1183
F1.0
sValgorithm
p1184
F1.0
sVis
p1185
F1.0
sVwe
p1186
F1.0
sVT-INT
p1187
F1.0
sVin
p1188
F1.0
sVthe
p1189
F1.0
sVT-FLOAT
p1190
F1.0
saa(lp1191
S'P98-104691'
p1192
a(dp1193
Vexclusive
p1194
F1.0
sVpoint
p1195
F1.0
sVis
p1196
F1.0
sVtwo
p1197
F1.0
sV''
p1198
F1.0
sVare
p1199
F1.0
sVco-occur
p1200
F1.0
sg42
F2.0
sVto
p1201
F1.0
sVcritical
p1202
F1.0
sVeither
p1203
F1.0
sVbe
p1204
F1.0
sV``
p1205
F1.0
sVextended
p1206
F1.0
sV's
p1207
F1.0
sVthat
p1208
F1.0
sVattempted
p1209
F1.0
sVmeaning
p1210
F1.0
sVverb
p1211
F1.0
sVthey
p1212
F1.0
sVnot
p1213
F1.0
sVT-FLOAT
p1214
F1.0
sVdirected
p1215
F1.0
sVthese
p1216
F1.0
sVmotion
p1217
F1.0
sVmutually
p1218
F1.0
sVwhile
p1219
F1.0
sVextensions
p1220
F1.0
sVcan
p1221
F2.0
sVaction
p1222
F1.0
sVthe
p1223
F2.0
sVor
p1224
F1.0
saa(lp1225
S'P98-104678'
p1226
a(dp1227
Vat/against
p1228
F1.0
sVpackage
p1229
F1.0
sVpushed
p1230
F1.0
sVnora
p1231
F1.0
sVthe
p1232
F1.0
sVT-FLOAT
p1233
F1.0
saa(lp1234
S'P98-104675'
p1235
a(dp1236
VT-INT
p1237
F1.0
sVT-FLOAT
p1238
F1.0
saa(lp1239
S'P98-104658'
p1240
a(dp1241
Vfor
p1242
F1.0
sg42
F1.0
sg587
F1.0
sVeach
p1243
F1.0
sVsuch
p1244
F1.0
sg1115
F1.0
sg1114
F1.0
sVT-FLOAT
p1245
F1.0
sVct
p1246
F1.0
saa(lp1247
S'P98-104659'
p1248
a(dp1249
Ven
p1250
F1.0
sg42
F2.0
sVan
p1251
F1.0
sVT-FLOAT
p1252
F1.0
sg1121
F1.0
sVdefine
p1253
F1.0
saa(lp1254
S'P98-104696'
p1255
a(dp1256
VT-INT
p1257
F2.0
sVT-FLOAT
p1258
F2.0
sVto
p1259
F1.0
sVwordnet
p1260
F1.0
sVcomparisons
p1261
F1.0
saa(lp1262
S'P98-1046156'
p1263
a(dp1264
g27
F1.0
sVand
p1265
F1.0
sVwe
p1266
F1.0
sVsenses
p1267
F1.0
sVto
p1268
F1.0
sVfor
p1269
F1.0
sVpresented
p1270
F1.0
sVof
p1271
F1.0
sVintersective
p1272
F1.0
sVdiscussed
p1273
F1.0
sg42
F2.0
sVmapping
p1274
F1.0
sVrefinement
p1275
F1.0
sVclasses
p1276
F2.0
sVthem
p1277
F1.0
sVT-FLOAT
p1278
F1.0
sVhave
p1279
F1.0
sVlevin
p1280
F1.0
sVthe
p1281
F1.0
sVpotential
p1282
F1.0
sVwordnet
p1283
F1.0
saa(lp1284
S'P98-1046149'
p1285
a(dp1286
g27
F3.0
sVabrindose
p1287
F1.0
sVdoor
p1288
F1.0
sVreflexive
p1289
F1.0
sVgerund
p1290
F1.0
sg14
F1.0
sg15
F1.0
sVopening
p1291
F1.0
sVit
p1292
F1.0
sVslid
p1293
F1.0
sg42
F1.0
sVT-FLOAT
p1294
F1.0
sVas
p1295
F1.0
sVitself
p1296
F1.0
sVplus
p1297
F1.0
sVin
p1298
F1.0
sVthe
p1299
F1.0
sVporta
p1300
F1.0
sVdeslizou
p1301
F1.0
sVtakes
p1302
F1.0
saa(lp1303
S'P98-1046132'
p1304
a(dp1305
Vdifferences
p1306
F1.0
sVsense
p1307
F1.0
sVinteresting
p1308
F1.0
sVthere
p1309
F1.0
sVsome
p1310
F1.0
sVhowever
p1311
F1.0
sg42
F1.0
sVextensions
p1312
F1.0
sVare
p1313
F2.0
sVwhich
p1314
F1.0
sVin
p1315
F1.0
sVT-FLOAT
p1316
F1.0
sVallowed
p1317
F1.0
saa(lp1318
S'P98-1046133'
p1319
a(dp1320
VT-INT
p1321
F2.0
sVT-FLOAT
p1322
F2.0
sVsimilar
p1323
F1.0
sVextensions
p1324
F1.0
sVsense
p1325
F1.0
saa(lp1326
S'P98-104686'
p1327
a(dp1328
Vimplies
p1329
F1.0
sVno
p1330
F1.0
sg14
F1.0
sg15
F1.0
sVcausation
p1331
F1.0
sg42
F1.0
sVmotion
p1332
F1.0
sVverb
p1333
F1.0
sVsplit
p1334
F1.0
sVseparation
p1335
F1.0
sVof
p1336
F1.0
sVaccompanied
p1337
F1.0
saa(lp1338
S'P98-1046170'
p1339
a(dp1340
Vinv
p1341
F1.0
sVT-FLOAT
p1342
F1.0
sVers
p1343
F1.0
saa(lp1344
S'P98-104699'
p1345
a(dp1346
Vand
p1347
F2.0
sVcut
p1348
F2.0
sVexemplified
p1349
F1.0
sVthis
p1350
F1.0
sVlevin
p1351
F1.0
sVis
p1352
F1.0
sVformed
p1353
F1.0
sVclass
p1354
F1.0
sVT-FLOAT
p1355
F1.0
sVverbs
p1356
F3.0
sVsplit
p1357
F1.0
sVintersective
p1358
F1.0
sVthe
p1359
F3.0
sVby
p1360
F2.0
saa(lp1361
S'P98-104692'
p1362
a(dp1363
g27
F1.0
sVexclusive
p1364
F1.0
sVof
p1365
F1.0
sVis
p1366
F1.0
sVhowever
p1367
F1.0
sVmutually
p1368
F1.0
sVsimultaneous
p1369
F1.0
sVextensions
p1370
F1.0
sVT-FLOAT
p1371
F1.0
sVnot
p1372
F1.0
sVthe
p1373
F1.0
sVpotential
p1374
F1.0
sVproblem
p1375
F1.0
saa(lp1376
S'P98-1046111'
p1377
a(dp1378
Vhypernym
p1379
F2.0
sVis
p1380
F2.0
sVmove
p1381
F1.0
sVall
p1382
F1.0
sVin
p1383
F2.0
sVcarry
p1384
F1.0
sVT-FLOAT
p1385
F1.0
sVfor
p1386
F1.0
sVto
p1387
F1.0
sg42
F2.0
sValso
p1388
F1.0
sVverbs
p1389
F2.0
sVwhich
p1390
F1.0
sVintersective
p1391
F1.0
sVdisplace
p1392
F1.0
sVmost
p1393
F1.0
sVnot
p1394
F1.0
sVintersection
p1395
F1.0
sVclass
p1396
F1.0
sg27
F1.0
sVthis
p1397
F1.0
sVspecific
p1398
F1.0
sVcommon
p1399
F1.0
sVthe
p1400
F3.0
sVother
p1401
F1.0
saa.