(dp0
Vall
p1
F2.995732273553991
sVconcept
p2
F4.343805421853684
sVsemantic
p3
F2.772588722239781
sVsaint-dizier
p4
F4.343805421853684
sVexisting
p5
F3.6635616461296463
sVfour
p6
F4.343805421853684
sVcontroversial
p7
F4.343805421853684
sV*nora
p8
F4.343805421853684
sVlanguages
p9
F4.343805421853684
sVto
p10
F1.3862943611198906
sVnora
p11
F3.258096538021482
sVdoes
p12
F2.995732273553991
sVpreserved
p13
F4.343805421853684
sValternations
p14
F2.772588722239781
sVabrindose
p15
F4.343805421853684
sVstraightforward
p16
F3.6635616461296463
sVvery
p17
F4.343805421853684
sVtranslations
p18
F4.343805421853684
sVverb
p19
F1.791759469228055
sVmeander/roll
p20
F4.343805421853684
sVsemantic-class
p21
F4.343805421853684
sVdifferentiated
p22
F4.343805421853684
sVpresented
p23
F4.343805421853684
sVf
p24
F4.343805421853684
sVlarge
p25
F4.343805421853684
sVrefer
p26
F4.343805421853684
sVnoted
p27
F4.343805421853684
sVantonymy
p28
F4.343805421853684
sVsmaller
p29
F4.343805421853684
sVforce
p30
F3.258096538021482
sVimply
p31
F4.343805421853684
sVfurther
p32
F4.343805421853684
sVinanimate
p33
F4.343805421853684
sVeven
p34
F4.343805421853684
sVappear
p35
F3.6635616461296463
sVselected
p36
F4.343805421853684
sVexperiment
p37
F4.343805421853684
sVshared
p38
F4.343805421853684
sVsimultaneously
p39
F4.343805421853684
sVchose
p40
F4.343805421853684
sVdorr
p41
F4.343805421853684
sVcomponent
p42
F3.6635616461296463
sVrefinement
p43
F4.343805421853684
sVobjects
p44
F4.343805421853684
sVlet
p45
F4.343805421853684
sVseparation
p46
F3.258096538021482
sVaddress
p47
F3.6635616461296463
sVexemplified
p48
F4.343805421853684
sVshove
p49
F4.343805421853684
sVinvolved
p50
F4.343805421853684
sVsimultaneous
p51
F4.343805421853684
sVaction
p52
F4.343805421853684
sV{
p53
F3.6635616461296463
sVmantic
p54
F4.343805421853684
sVmembers
p55
F4.343805421853684
sVuse
p56
F4.343805421853684
sVfrom
p57
F4.343805421853684
sVlinks
p58
F4.343805421853684
sVsnip
p59
F3.6635616461296463
sVcontains
p60
F4.343805421853684
sVtwo
p61
F3.6635616461296463
sVby
p62
F2.772588722239781
sVparaphrased
p63
F4.343805421853684
sVmore
p64
F2.995732273553991
sV``
p65
F2.772588722239781
sVdoor
p66
F4.343805421853684
sVroll/run
p67
F4.343805421853684
sVpolysemy
p68
F3.258096538021482
sVvirtue
p69
F4.343805421853684
sVbroke
p70
F4.343805421853684
sVparticular
p71
F3.258096538021482
sVcases
p72
F4.343805421853684
sVword
p73
F4.343805421853684
sVlanguage
p74
F4.343805421853684
sVmc
p75
F4.343805421853684
sVers
p76
F4.343805421853684
sVthis
p77
F2.0794415416798357
sVcau
p78
F4.343805421853684
sVcan
p79
F2.0794415416798357
sVv
p80
F4.343805421853684
sVT-FLOAT
p81
F0.6931471805599453
sVexample
p82
F4.343805421853684
sVslid
p83
F4.343805421853684
sVfigure
p84
F2.995732273553991
sVchip
p85
F3.6635616461296463
sVallowed
p86
F4.343805421853684
sVpieces
p87
F4.343805421853684
sVpushed
p88
F2.995732273553991
sVminimum
p89
F4.343805421853684
sVo
p90
F4.343805421853684
sVsense
p91
F2.3978952727983707
sVoccur
p92
F4.343805421853684
sVmotion
p93
F2.302585092994046
sVsyntactic
p94
F2.772588722239781
sVprovide
p95
F4.343805421853684
sVeni
p96
F4.343805421853684
sVdivided
p97
F4.343805421853684
sVbreaking
p98
F4.343805421853684
sVpush/pull
p99
F4.343805421853684
sVacti
p100
F4.343805421853684
sVpure
p101
F4.343805421853684
sVintersective
p102
F1.9459101490553132
sVinstead
p103
F4.343805421853684
sVtried
p104
F4.343805421853684
sVmapping
p105
F4.343805421853684
sVmembership
p106
F3.258096538021482
sVtriple-listed
p107
F4.343805421853684
sVsuch
p108
F3.258096538021482
sVa
p109
F1.791759469228055
sVulta
p110
F4.343805421853684
sVelusive
p111
F4.343805421853684
sVcorrespond
p112
F4.343805421853684
sVso
p113
F4.343805421853684
sVtransitivity
p114
F4.343805421853684
sVexclusive
p115
F3.6635616461296463
sVinterpretation
p116
F4.343805421853684
sVclosely
p117
F4.343805421853684
sVover
p118
F4.343805421853684
sVmove
p119
F4.343805421853684
sVpaper
p120
F3.6635616461296463
sVincluding
p121
F4.343805421853684
sVexistence
p122
F3.6635616461296463
sVstill
p123
F3.6635616461296463
sVdepicts
p124
F4.343805421853684
sVhow
p125
F3.258096538021482
sVinteresting
p126
F4.343805421853684
sV,
p127
F0.6931471805599453
sVexhibits
p128
F4.343805421853684
sVforms
p129
F4.343805421853684
sVwindow
p130
F4.343805421853684
sVchoose
p131
F4.343805421853684
sVlisting
p132
F4.343805421853684
sVmight
p133
F4.343805421853684
sVinto
p134
F2.995732273553991
sVarguments
p135
F4.343805421853684
sVthen
p136
F4.343805421853684
sVthem
p137
F4.343805421853684
sVentire
p138
F4.343805421853684
sVsimilar
p139
F3.6635616461296463
sVye
p140
F4.343805421853684
sVinvestigated
p141
F4.343805421853684
sVbreak
p142
F4.343805421853684
sVcutting
p143
F4.343805421853684
sVthey
p144
F4.343805421853684
sVnot
p145
F1.9459101490553132
sVassociation
p146
F4.343805421853684
sVbread
p147
F4.343805421853684
sValways
p148
F3.6635616461296463
sVporta
p149
F4.343805421853684
sVeach
p150
F2.995732273553991
sVaccompanied
p151
F3.6635616461296463
sVexertion
p152
F4.343805421853684
sVhypernym
p153
F3.6635616461296463
sVen
p154
F4.343805421853684
sVrelated
p155
F4.343805421853684
sVmanifests
p156
F4.343805421853684
sVused
p157
F3.258096538021482
sVseparating
p158
F4.343805421853684
sVet
p159
F4.343805421853684
sVdeslizou
p160
F4.343805421853684
sVdescription
p161
F4.343805421853684
sVres
p162
F4.343805421853684
sVsince
p163
F3.6635616461296463
sVinvestigation
p164
F4.343805421853684
sVpamela
p165
F3.6635616461296463
sVoccurs
p166
F4.343805421853684
sVect
p167
F4.343805421853684
sVbesides
p168
F4.343805421853684
sVg
p169
F4.343805421853684
sVcreated
p170
F4.343805421853684
sVphrases
p171
F3.6635616461296463
sVcould
p172
F4.343805421853684
sVfeasible
p173
F4.343805421853684
sVdeslizar
p174
F4.343805421853684
sVreflexive
p175
F4.343805421853684
sVprimary
p176
F4.343805421853684
sVone
p177
F2.772588722239781
sVenumerate
p178
F4.343805421853684
sVcarry
p179
F3.258096538021482
sVopen
p180
F4.343805421853684
sVgiven
p181
F3.6635616461296463
sVtheir
p182
F3.6635616461296463
sVtow
p183
F4.343805421853684
sVindicate
p184
F4.343805421853684
sVlisted
p185
F3.258096538021482
sVflutuar
p186
F3.6635616461296463
sVthat
p187
F1.3862943611198906
sVexactly
p188
F4.343805421853684
sVlists
p189
F4.343805421853684
sVextensions
p190
F2.3978952727983707
sVbranches
p191
F4.343805421853684
sVtive
p192
F4.343805421853684
sVthan
p193
F3.258096538021482
sVwide
p194
F3.6635616461296463
sVrequire
p195
F4.343805421853684
sVclasses
p196
F1.3862943611198906
sVsupposed
p197
F4.343805421853684
sVwere
p198
F3.6635616461296463
sVtion
p199
F4.343805421853684
sVpowers
p200
F4.343805421853684
sVare
p201
F1.9459101490553132
sVand
p202
F1.6094379124341003
sVdeciding
p203
F4.343805421853684
sVonyshkevych
p204
F4.343805421853684
sVclip
p205
F3.6635616461296463
sVmanner
p206
F3.6635616461296463
sVhave
p207
F2.5649493574615367
sVsaw
p208
F3.6635616461296463
sVheft
p209
F4.343805421853684
sVisolate
p210
F4.343805421853684
sVadjunct
p211
F4.343805421853684
sValso
p212
F2.3978952727983707
sVpotential
p213
F3.6635616461296463
sVtake
p214
F2.995732273553991
sVwhich
p215
F2.772588722239781
sV=
p216
F3.6635616461296463
sVinvestigations
p217
F4.343805421853684
sVenglish
p218
F3.258096538021482
sVmost
p219
F2.5649493574615367
sVregular
p220
F3.258096538021482
sVimmediate
p221
F4.343805421853684
sVpreliminary
p222
F3.6635616461296463
sVclass
p223
F1.791759469228055
sVachievement
p224
F4.343805421853684
sVsurprising
p225
F4.343805421853684
sVclear
p226
F4.343805421853684
sVinferred
p227
F4.343805421853684
sVcross-linguistic
p228
F4.343805421853684
sV}
p229
F3.6635616461296463
sVfact
p230
F4.343805421853684
sVyank
p231
F4.343805421853684
sVambiguities
p232
F4.343805421853684
sVv-ing
p233
F4.343805421853684
sVrelation
p234
F4.343805421853684
sVhack
p235
F3.6635616461296463
sVco-occur
p236
F4.343805421853684
sVtranslation
p237
F3.258096538021482
sVprecedence
p238
F4.343805421853684
sV(
p239
F1.791759469228055
sVsentence
p240
F4.343805421853684
sVshould
p241
F3.6635616461296463
sVT-INT
p242
F1.6094379124341003
sVonly
p243
F3.6635616461296463
sVexplicitly
p244
F4.343805421853684
sVslide/roll/run
p245
F3.6635616461296463
sVachieve
p246
F4.343805421853684
sVdo
p247
F3.6635616461296463
sVlug
p248
F4.343805421853684
sVwords
p249
F4.343805421853684
sVnew
p250
F4.343805421853684
sVareas
p251
F4.343805421853684
sVh
p252
F4.343805421853684
sVrolar
p253
F4.343805421853684
sVsuper-/subordinate
p254
F4.343805421853684
sVcommon
p255
F4.343805421853684
sVthrough
p256
F3.6635616461296463
sVwhere
p257
F3.6635616461296463
sVdistinguishes
p258
F4.343805421853684
sVpredictive
p259
F4.343805421853684
sVset
p260
F4.343805421853684
sVachieved
p261
F3.258096538021482
sVindividual
p262
F3.258096538021482
sVresult
p263
F3.6635616461296463
sVbest
p264
F3.6635616461296463
sVverbs
p265
F1.3862943611198906
sVbetween
p266
F4.343805421853684
sVwe
p267
F2.0794415416798357
sVparent
p268
F4.343805421853684
sVopening
p269
F4.343805421853684
sVsole
p270
F4.343805421853684
sVhowever
p271
F2.995732273553991
sVopposition
p272
F4.343805421853684
sVtug
p273
F4.343805421853684
sVboth
p274
F3.6635616461296463
sVc
p275
F4.343805421853684
sVmany
p276
F2.995732273553991
sVs
p277
F2.995732273553991
sVgrounds
p278
F4.343805421853684
sVexhibit
p279
F4.343805421853684
sVrelevant
p280
F4.343805421853684
sVcn
p281
F4.343805421853684
sVpoint
p282
F4.343805421853684
sVsimple
p283
F4.343805421853684
sVrespect
p284
F3.258096538021482
sVct
p285
F4.343805421853684
sVdescribed
p286
F4.343805421853684
sVnomura
p287
F4.343805421853684
sVthree
p288
F3.6635616461296463
sVbeen
p289
F4.343805421853684
sVmuch
p290
F4.343805421853684
sVcombined
p291
F4.343805421853684
sVbasic
p292
F4.343805421853684
sVexpected
p293
F4.343805421853684
sVdefine
p294
F4.343805421853684
sVsenses
p295
F4.343805421853684
sVadjunction
p296
F3.6635616461296463
sVformed
p297
F4.343805421853684
sVhoist
p298
F4.343805421853684
sVonym
p299
F4.343805421853684
sVreclassified
p300
F4.343805421853684
sVthose
p301
F3.6635616461296463
sVexception
p302
F4.343805421853684
sVsubsets
p303
F4.343805421853684
sVthese
p304
F2.5649493574615367
sVexamine
p305
F4.343805421853684
sVn
p306
F3.6635616461296463
sVn't
p307
F4.343805421853684
sVwhile
p308
F3.6635616461296463
sVsuppose
p309
F4.343805421853684
sV*the
p310
F4.343805421853684
sVis
p311
F1.6094379124341003
sVthus
p312
F4.343805421853684
sVit
p313
F2.3978952727983707
sVdiscrepancy
p314
F4.343805421853684
sVitself
p315
F4.343805421853684
sVin
p316
F1.0986122886681098
sVwordnet
p317
F2.772588722239781
sVif
p318
F3.6635616461296463
sVpar
p319
F4.343805421853684
sVconative
p320
F4.343805421853684
sV)
p321
F1.791759469228055
sVbelong
p322
F4.343805421853684
sVsame
p323
F3.258096538021482
sVmember
p324
F4.343805421853684
sVsplit
p325
F2.5649493574615367
sVdefinitional
p326
F4.343805421853684
sVat/against
p327
F4.343805421853684
sVextended
p328
F3.258096538021482
sVsyn
p329
F4.343805421853684
sVpossible
p330
F4.343805421853684
sVchanging
p331
F4.343805421853684
sVdatabase
p332
F4.343805421853684
sVwell
p333
F4.343805421853684
sVcomponents
p334
F3.6635616461296463
sVsets
p335
F3.258096538021482
sVy
p336
F3.6635616461296463
sVcomparisons
p337
F4.343805421853684
sVthe
p338
F0.6931471805599453
sVcomprise
p339
F4.343805421853684
sVleft
p340
F4.343805421853684
sVjust
p341
F4.343805421853684
sVgerund
p342
F4.343805421853684
sVactions
p343
F4.343805421853684
sVassigned
p344
F4.343805421853684
sVquestions
p345
F3.258096538021482
sVcut
p346
F2.772588722239781
sVhad
p347
F4.343805421853684
sVinstrument
p348
F4.343805421853684
sVbelongs
p349
F4.343805421853684
sVrelevance
p350
F4.343805421853684
sVhas
p351
F3.6635616461296463
sVadj
p352
F4.343805421853684
sVdisplace
p353
F4.343805421853684
sVhaul
p354
F4.343805421853684
sVusing
p355
F4.343805421853684
sVintersection
p356
F3.258096538021482
sVapart
p357
F3.258096538021482
sVidentifying
p358
F4.343805421853684
sVfollows
p359
F4.343805421853684
sVspecific
p360
F3.6635616461296463
sVeither
p361
F4.343805421853684
sVportuguese
p362
F2.995732273553991
sVindications
p363
F4.343805421853684
sVbecause
p364
F3.6635616461296463
sVsome
p365
F2.995732273553991
sVexamples
p366
F4.343805421853684
sVanimate
p367
F4.343805421853684
sVtote
p368
F4.343805421853684
sVoverlap
p369
F4.343805421853684
sVcritical
p370
F4.343805421853684
sVslash
p371
F3.6635616461296463
sVsynset
p372
F4.343805421853684
sVintersections
p373
F3.6635616461296463
sV?
p374
F4.343805421853684
sVt
p375
F4.343805421853684
sVbe
p376
F2.1972245773362196
sVrun
p377
F3.6635616461296463
sVindicated
p378
F4.343805421853684
sVrebater
p379
F4.343805421853684
sVinherent
p380
F4.343805421853684
sVproperties
p381
F4.343805421853684
sVtakes
p382
F4.343805421853684
sVon
p383
F4.343805421853684
sVextension
p384
F4.343805421853684
sVpackage
p385
F3.258096538021482
sVof
p386
F1.0986122886681098
sVdiscussed
p387
F4.343805421853684
sVmeaning
p388
F2.5649493574615367
sVrecognized
p389
F4.343805421853684
sVmutually
p390
F3.6635616461296463
sVrange
p391
F4.343805421853684
sVplus
p392
F4.343805421853684
sVor
p393
F2.5649493574615367
sVcutoff
p394
F4.343805421853684
sVgloss
p395
F4.343805421853684
sVcausation
p396
F3.258096538021482
sVappropriate
p397
F4.343805421853684
sVframes
p398
F3.6635616461296463
sVloc
p399
F4.343805421853684
sVhew
p400
F3.6635616461296463
sVtype
p401
F3.6635616461296463
sVthere
p402
F2.995732273553991
sVspecifically
p403
F3.6635616461296463
sV:
p404
F2.995732273553991
sVwas
p405
F3.6635616461296463
sVform
p406
F4.343805421853684
sVattempted
p407
F3.6635616461296463
sVdifferences
p408
F4.343805421853684
sVe
p409
F2.995732273553991
sVremoved
p410
F4.343805421853684
sVwith
p411
F1.9459101490553132
sVdirected
p412
F4.343805421853684
sVpull
p413
F4.343805421853684
sVlevin
p414
F1.9459101490553132
sVproblem
p415
F4.343805421853684
sVsubclasses
p416
F3.258096538021482
sVdisplay
p417
F4.343805421853684
sVsplit/push/carry
p418
F4.343805421853684
sVassociated
p419
F4.343805421853684
sVexerting
p420
F4.343805421853684
sVinv
p421
F4.343805421853684
sVdescribe
p422
F4.343805421853684
sVal
p423
F4.343805421853684
sVan
p424
F2.3978952727983707
sV''
p425
F2.772588722239781
sVas
p426
F2.0794415416798357
sVat
p427
F3.258096538021482
sVind
p428
F4.343805421853684
sVrolq
p429
F4.343805421853684
sVno
p430
F3.258096538021482
sVwhen
p431
F4.343805421853684
sVother
p432
F2.995732273553991
sVroll
p433
F3.6635616461296463
sVdraw
p434
F3.6635616461296463
sVelements
p435
F4.343805421853684
sV's
p436
F3.6635616461296463
sVseparate
p437
F3.258096538021482
sVseT-FLOAT
p438
F4.343805421853684
sVsynsets
p439
F3.6635616461296463
sVintransitive
p440
F4.343805421853684
sVdrag
p441
F4.343805421853684
sVincluded
p442
F4.343805421853684
sVjones
p443
F3.6635616461296463
sVimplies
p444
F4.343805421853684
sVfor
p445
F2.302585092994046
sValgorithm
p446
F3.6635616461296463
sVhaving
p447
F4.343805421853684
sVimplied
p448
F4.343805421853684
sVpush
p449
F4.343805421853684
sVmeander
p450
F3.6635616461296463
sVoriginal
p451
F4.343805421853684
sVaugmented
p452
F4.343805421853684
s.