(lp0
(lp1
S'W03-041059'
p2
a(dp3
Va
p4
F2.0
sVjoan/joan
p5
F1.0
sVto
p6
F1.0
sVcake
p7
F2.0
sVT-FLOAT
p8
F2.0
sVmary
p9
F1.0
sVgave
p10
F1.0
saa(lp11
S'W03-041058'
p12
a(dp13
g4
F2.0
sVjoan/joan
p14
F1.0
sVfor
p15
F1.0
sVcake
p16
F2.0
sVT-FLOAT
p17
F2.0
sVbaked
p18
F1.0
sVmary
p19
F1.0
saa(lp20
S'W03-041053'
p21
a(dp22
Vclasses
p23
F1.0
sVT-INT
p24
F2.0
sVT-FLOAT
p25
F2.0
sVverb
p26
F1.0
sVthe
p27
F1.0
saa(lp28
S'W03-041052'
p29
a(dp30
Vand
p31
F2.0
sVwe
p32
F1.0
sVselection
p33
F1.0
sVverbs
p34
F1.0
sVof
p35
F2.0
sVdescribe
p36
F1.0
sV,
p37
F1.0
sVhere
p38
F1.0
sVfeature
p39
F1.0
sVclasses
p40
F1.0
sVvalues
p41
F1.0
sVthe
p42
F4.0
sVestimation
p43
F1.0
sVT-FLOAT
p44
F1.0
sVexperimental
p45
F1.0
saa(lp46
S'W03-041051'
p47
a(dp48
Vand
p49
F3.0
sVmethods
p50
F1.0
sVas
p51
F1.0
sVexperiments
p52
F1.0
sVin
p53
F1.0
sVuse
p54
F1.0
sVsame
p55
F1.0
sVto
p56
F1.0
sVverbs
p57
F1.0
sVbetween
p58
F1.0
sVperformance
p59
F1.0
sVwe
p60
F1.0
sVenable
p61
F1.0
sVjoanis
p62
F1.0
sVT-FLOAT
p63
F1.0
sg4
F1.0
sVcomparison
p64
F1.0
sVunsupervised
p65
F1.0
sVof
p66
F2.0
sVstevenson
p67
F1.0
sVclasses
p68
F1.0
sVsupervised
p69
F2.0
sVthe
p70
F4.0
sVexample
p71
F1.0
saa(lp72
S'W03-041057'
p73
a(dp74
Vversus
p75
F1.0
sVT-FLOAT
p76
F1.0
sVverbs
p77
F1.0
sVrecipient
p78
F1.0
sVbenefactive
p79
F1.0
saa(lp80
S'W03-041056'
p81
a(dp82
Vand
p83
F1.0
sVsemantic
p84
F1.0
sVsome
p85
F1.0
sVargument
p86
F1.0
sVnumbers
p87
F1.0
sVhave
p88
F1.0
sVin
p89
F3.0
sVframes
p90
F3.0
sVtable
p91
F1.0
sVdiffer
p92
F1.0
sVfor
p93
F1.0
sVtheir
p94
F2.0
sVdistinctions
p95
F1.0
sg37
F3.0
sVsame
p96
F2.0
sVclass
p97
F1.0
sVT-INT
p98
F2.0
sVbetween
p99
F1.0
sV;
p100
F1.0
sVwe
p101
F1.0
sVdifferent
p102
F2.0
sVhere
p103
F1.0
sVlists
p104
F1.0
sVothers
p105
F1.0
sVsummarize
p106
F1.0
sVwith
p107
F1.0
sVthe
p108
F5.0
sVstructure
p109
F1.0
sVboth
p110
F1.0
sVroles
p111
F3.0
sVlevin
p112
F1.0
sVexample
p113
F1.0
sVwhile
p114
F1.0
sVclasses
p115
F3.0
sVbelow
p116
F1.0
sVT-FLOAT
p117
F2.0
sVor
p118
F1.0
saa(lp119
S'W03-041055'
p120
a(dp121
Vexhibit
p122
F1.0
sVsemantic
p123
F1.0
sVargument
p124
F1.0
sVin
p125
F1.0
sVour
p126
F1.0
sVdifferent
p127
F1.0
sVtheir
p128
F1.0
sg37
F1.0
sVto
p129
F1.0
sVconditions
p130
F1.0
sVbetween
p131
F1.0
sVapproach
p132
F1.0
sVterms
p133
F1.0
sVevaluate
p134
F1.0
sVunder
p135
F1.0
sVverb
p136
F1.0
sVallowing
p137
F1.0
sVcontrasts
p138
F1.0
sg4
F1.0
sVthese
p139
F1.0
sVof
p140
F2.0
sVus
p141
F1.0
sVassignments
p142
F1.0
sVrange
p143
F1.0
sVclasses
p144
F1.0
sVsets
p145
F1.0
sVT-FLOAT
p146
F1.0
saa(lp147
S'W03-041054'
p148
a(dp149
Vtasks
p150
F1.0
sVclassification
p151
F1.0
sVnumber
p152
F1.0
sVfrom
p153
F1.0
sVfor
p154
F1.0
sVselected
p155
F1.0
sVto
p156
F1.0
sVtest
p157
F1.0
sVtriples
p158
F1.0
sVform
p159
F1.0
sVseparate
p160
F1.0
sVeach
p161
F1.0
sVlevin
p162
F1.0
sVverb
p163
F1.0
sVpairs/triples
p164
F1.0
sVT-FLOAT
p165
F1.0
sg4
F1.0
sVpairs
p166
F1.0
sVof
p167
F3.0
sVclasses
p168
F1.0
sVwere
p169
F1.0
sVthe
p170
F1.0
sVor
p171
F1.0
saa(lp172
S'W03-0410119'
p173
a(dp174
Vprocess
p175
F1.0
sVend
p176
F1.0
sVthis
p177
F1.0
sVof
p178
F2.0
sVT-FLOAT
p179
F1.0
sVeach
p180
F1.0
sVnumber
p181
F1.0
sVT-INT
p182
F1.0
sVverbs
p183
F1.0
sVat
p184
F1.0
sVabove
p185
F1.0
sVin
p186
F1.0
sVtable
p187
F1.0
sVthe
p188
F2.0
sVclass
p189
F1.0
sVshows
p190
F1.0
saa(lp191
S'W03-0410118'
p192
a(dp193
Vbecause
p194
F1.0
sVclassification
p195
F1.0
sVbelonged
p196
F1.0
sVsense
p197
F1.0
sVdeemed
p198
F1.0
sVsingle
p199
F1.0
sVexcessively
p200
F1.0
sVanother
p201
F1.0
sVin
p202
F1.0
sVour
p203
F1.0
sVT-FLOAT
p204
F1.0
sVany
p205
F1.0
sVfor
p206
F2.0
sVto
p207
F2.0
sVmake
p208
F1.0
sg37
F1.0
sValso
p209
F1.0
sVassumption
p210
F1.0
sVwhich
p211
F1.0
sVunder
p212
F1.0
sg100
F2.0
sV:
p213
F1.0
sVwas
p214
F1.0
sVcorrect
p215
F1.0
sVwe
p216
F2.0
sVthat
p217
F2.0
sVverb
p218
F2.0
sVnot
p219
F1.0
sVconsideration
p220
F1.0
sVremoved
p221
F1.0
sVclass
p222
F2.0
sg4
F1.0
sVmain
p223
F1.0
sVpolysemous
p224
F1.0
sVdid
p225
F1.0
sVof
p226
F1.0
sVstudy
p227
F1.0
sVcorrespond
p228
F1.0
sVsimplifying
p229
F1.0
sVeach
p230
F1.0
sVthe
p231
F3.0
sVor
p232
F1.0
saa(lp233
S'W03-0410117'
p234
a(dp235
Vall
p236
F1.0
sVat
p237
F1.0
sVin
p238
F2.0
sVour
p239
F1.0
sVoccur
p240
F1.0
sVgiven
p241
F1.0
sVfrom
p242
F1.0
sV)
p243
F1.0
sVremoving
p244
F1.0
sg37
F2.0
sVleast
p245
F1.0
sVany
p246
F1.0
sVT-INT
p247
F1.0
sVverbs
p248
F1.0
sV(
p249
F1.0
sVbnc
p250
F1.0
sVcorpus
p251
F1.0
sVwe
p252
F1.0
sVthat
p253
F1.0
sVstarted
p254
F1.0
sVverb
p255
F1.0
sVnot
p256
F1.0
sVdescribed
p257
F1.0
sVwith
p258
F1.0
sVT-FLOAT
p259
F1.0
sg4
F1.0
sVdid
p260
F1.0
sVof
p261
F1.0
sVlist
p262
F1.0
sVtimes
p263
F1.0
sVbelow
p264
F1.0
sVclasses
p265
F1.0
sVlevin
p266
F1.0
sVthe
p267
F3.0
saa(lp268
S'W03-0410116'
p269
a(dp270
Vfollows
p271
F1.0
sVselected
p272
F1.0
sVas
p273
F1.0
sVverbs
p274
F1.0
sVwere
p275
F1.0
sVour
p276
F1.0
sVT-FLOAT
p277
F1.0
sVexperimental
p278
F1.0
saa(lp279
S'W03-0410115'
p280
a(dp281
Vselection
p282
F1.0
sVT-INT
p283
F2.0
sVT-FLOAT
p284
F2.0
sVverb
p285
F1.0
saa(lp286
S'W03-0410114'
p287
a(dp288
Vand
p289
F1.0
sVnumber
p290
F1.0
sVsee
p291
F2.0
sVnumbers
p292
F1.0
sVin
p293
F1.0
sVtable
p294
F1.0
sVT-INT
p295
F8.0
sg243
F2.0
sg249
F2.0
sVsection
p296
F2.0
sg37
F2.0
sVclass
p297
F1.0
sVtheir
p298
F1.0
sVverbs
p299
F1.0
sg213
F1.0
sVeach
p300
F1.0
sVverb
p301
F1.0
sVT-FLOAT
p302
F3.0
sVof
p303
F1.0
sVclasses
p304
F1.0
sVlevin
p305
F1.0
sVthe
p306
F1.0
sVexperimental
p307
F1.0
saa(lp308
S'W03-0410113'
p309
a(dp310
VT-INT
p311
F2.0
sVT-FLOAT
p312
F1.0
sg37
F1.0
saa(lp313
S'W03-0410112'
p314
a(dp315
VT-INT
p316
F2.0
sVT-FLOAT
p317
F1.0
sg37
F1.0
saa(lp318
S'W03-0410197'
p319
a(dp320
Vsubset
p321
F1.0
sVseed-verb-selected
p322
F1.0
sVfull
p323
F2.0
sVmanually
p324
F1.0
sVis
p325
F3.0
sVselected
p326
F1.0
sVfeature
p327
F1.0
sVset
p328
F2.0
sVling
p329
F1.0
sg100
F2.0
sVseed
p330
F1.0
sVT-FLOAT
p331
F1.0
saa(lp332
S'W03-0410196'
p333
a(dp334
Von
p335
F1.0
sVc
p336
F1.0
sVis
p337
F2.0
sVrandom
p338
F1.0
sVT-INT
p339
F2.0
sVbase
p340
F1.0
sVsupervised
p341
F1.0
sVclusters
p342
F1.0
sVT-FLOAT
p343
F2.0
sg100
F1.0
sVaccuracy
p344
F1.0
saa(lp345
S'W03-0410195'
p346
a(dp347
Vall
p348
F1.0
sVmultiway
p349
F1.0
sVof
p350
F1.0
sVresults
p351
F1.0
sVT-INT
p352
F24.0
sVclasses
p353
F1.0
sVtable
p354
F1.0
sVT-FLOAT
p355
F23.0
sg213
F1.0
sVexperimental
p356
F1.0
sVmean
p357
F1.0
saa(lp358
S'W03-0410194'
p359
a(dp360
Vof
p361
F1.0
sV-way
p362
F1.0
sVT-INT
p363
F35.0
sVclasses
p364
F1.0
sVlocative
p365
F1.0
sVT-FLOAT
p366
F34.0
sVmean
p367
F1.0
saa(lp368
S'W03-0410210'
p369
a(dp370
Vdimensionality
p371
F1.0
sVexcessive
p372
F1.0
sVdeal
p373
F1.0
sg37
F1.0
sVal
p374
F1.0
sVdash
p375
F1.0
sVto
p376
F1.0
sVin
p377
F1.0
sVet
p378
F1.0
sVT-FLOAT
p379
F1.0
sVwith
p380
F1.0
sVorder
p381
F1.0
saa(lp382
S'W03-0410192'
p383
a(dp384
Vand
p385
F2.0
sVsubset
p386
F1.0
sVbecause
p387
F1.0
sVfeatures
p388
F1.0
sVresults
p389
F1.0
sVchanges
p390
F1.0
sVin
p391
F3.0
sVour
p392
F1.0
sVT-FLOAT
p393
F2.0
sVdiffer
p394
F1.0
sVfrom
p395
F1.0
sVfor
p396
F1.0
sVsection
p397
F1.0
sg37
F4.0
sVT-INT
p398
F3.0
sVwe
p399
F1.0
sVslight
p400
F1.0
sVsets
p401
F1.0
sVreported
p402
F1.0
sVverb
p403
F1.0
sVjoanis
p404
F2.0
sVclass
p405
F1.0
sVthose
p406
F1.0
sVsystematically
p407
F1.0
sVof
p408
F2.0
sVstevenson
p409
F2.0
sVdiscussed
p410
F1.0
sVidentified
p411
F1.0
sVthese
p412
F1.0
sVeach
p413
F1.0
sVfollowing
p414
F1.0
sVthe
p415
F1.0
sVslightly
p416
F1.0
saa(lp417
S'W03-0410191'
p418
a(dp419
g4
F1.0
sVbe
p420
F1.0
sVgiven
p421
F1.0
sVdimensionality
p422
F1.0
sVfeatures
p423
F1.0
sVthat
p424
F1.0
sVis
p425
F1.0
sVone
p426
F2.0
sVto
p427
F4.0
sVreduction
p428
F1.0
sVrelevant
p429
F1.0
sVhandselect
p430
F1.0
sVT-FLOAT
p431
F1.0
sVbelieves
p432
F1.0
sVapproach
p433
F1.0
sVtask
p434
F1.0
saa(lp435
S'W03-0410190'
p436
a(dp437
VT-INT
p438
F2.0
sVT-FLOAT
p439
F2.0
sVselection
p440
F1.0
sVmanual
p441
F1.0
sVfeature
p442
F1.0
saa(lp443
S'W03-0410219'
p444
a(dp445
Vcomputational
p446
F1.0
sVit
p447
F1.0
sVin
p448
F1.0
sVgo
p449
F1.0
sVbeyond
p450
F1.0
sVlinguistics
p451
F1.0
sVcontains
p452
F1.0
sg37
F2.0
sVbeen
p453
F1.0
sVto
p454
F2.0
sVhas
p455
F1.0
sVaspects
p456
F1.0
sVthat
p457
F1.0
sVsufficient
p458
F1.0
sVhowever
p459
F1.0
sVcompletely
p460
F1.0
sVlabelled
p461
F1.0
sVdata
p462
F1.0
sVT-FLOAT
p463
F1.0
sg4
F1.0
sVlimits
p464
F1.0
sVunsupervised
p465
F1.0
sVmany
p466
F1.0
sVapproaches
p467
F1.0
sVus
p468
F1.0
sVinformation
p469
F1.0
sVamount
p470
F1.0
sVallow
p471
F1.0
sVof
p472
F3.0
sVsmall
p473
F1.0
sVfound
p474
F1.0
sVthe
p475
F1.0
saa(lp476
S'W03-0410199'
p477
a(dp478
Vgiven
p479
F1.0
sVdescription
p480
F1.0
sVindicated
p481
F1.0
sVlevin
p482
F1.0
sVclass
p483
F1.0
sVT-FLOAT
p484
F1.0
sVin
p485
F1.0
sVthe
p486
F1.0
sVby
p487
F1.0
saa(lp488
S'W03-0410198'
p489
a(dp490
Vdescription
p491
F1.0
sVfor
p492
F1.0
sVtext
p493
F1.0
sVsee
p494
F1.0
sVfurther
p495
F1.0
sVT-FLOAT
p496
F1.0
saa(lp497
S'W03-041028'
p498
a(dp499
Vmotivation
p500
F1.0
sVclassification
p501
F1.0
sVis
p502
F1.0
sVan
p503
F1.0
sVas
p504
F1.0
sVexperiments
p505
F1.0
sVhave
p506
F1.0
sVour
p507
F2.0
sVgold
p508
F1.0
sVfor
p509
F1.0
sVT-INT
p510
F1.0
sVperform
p511
F1.0
sg249
F1.0
sg37
F3.0
sVto
p512
F1.0
sVwhich
p513
F1.0
sVdiscovery
p514
F1.0
sVwe
p515
F2.0
sVserve
p516
F1.0
sVstandard
p517
F1.0
sVverb
p518
F1.0
sValthough
p519
F1.0
sVaccepted
p520
F1.0
sVclass
p521
F1.0
sg4
F1.0
sVon
p522
F1.0
sVlevin
p523
F1.0
sg243
F1.0
sVenglish
p524
F1.0
sVT-FLOAT
p525
F1.0
saa(lp526
S'W03-041029'
p527
a(dp528
Vsubset
p529
F1.0
sVfeatures
p530
F1.0
sVmanually
p531
F1.0
sVresults
p532
F1.0
sg37
F4.0
sVoutperforms
p533
F1.0
sVour
p534
F1.0
sVsemi-supervised
p535
F1.0
sVfind
p536
F1.0
sVspace
p537
F1.0
sVselected
p538
F1.0
sVfeature
p539
F1.0
sValso
p540
F1.0
sVonly
p541
F1.0
sVpreview
p542
F1.0
sVmethod
p543
F1.0
sVwe
p544
F1.0
sVto
p545
F1.0
sVthat
p546
F1.0
sVoverall
p547
F1.0
sVbut
p548
F1.0
sVnot
p549
F1.0
sVT-FLOAT
p550
F1.0
sVentire
p551
F1.0
sVof
p552
F1.0
sVthe
p553
F3.0
saa(lp554
S'W03-041026'
p555
a(dp556
g4
F1.0
sVbe
p557
F1.0
sVdimensionality
p558
F1.0
sVof
p559
F1.0
sVis
p560
F1.0
sVthus
p561
F1.0
sg37
F1.0
sVclass
p562
F1.0
sVto
p563
F1.0
sVreduction
p564
F1.0
sVverb
p565
F1.0
sVT-FLOAT
p566
F1.0
sVkey
p567
F1.0
sVin
p568
F1.0
sVproblem
p569
F1.0
sVissue
p570
F1.0
sVthe
p571
F1.0
sVaddressed
p572
F1.0
sVdiscovery
p573
F1.0
saa(lp574
S'W03-041027'
p575
a(dp576
Vand
p577
F1.0
sVamong
p578
F1.0
sVselection
p579
F3.0
sVuseful
p580
F1.0
sVfeatures
p581
F2.0
sVsemisupervised
p582
F1.0
sVmeasure
p583
F1.0
sVresults
p584
F1.0
sVfeature
p585
F1.0
sVdash
p586
F1.0
sVpaper
p587
F1.0
sVentropy
p588
F1.0
sVare
p589
F1.0
sVin
p590
F2.0
sVet
p591
F1.0
sVT-FLOAT
p592
F2.0
sVextract
p593
F1.0
sVbased
p594
F2.0
sVknowledge
p595
F1.0
sVT-INT
p596
F1.0
sg243
F3.0
sg249
F3.0
sVlearner
p597
F1.0
sg37
F6.0
sVto
p598
F2.0
sVverbs
p599
F1.0
sVwhich
p600
F2.0
sVlinguistic
p601
F1.0
sg213
F1.0
sVapproach
p602
F1.0
sVwe
p603
F2.0
sVused
p604
F1.0
sVal
p605
F1.0
sVapproaches
p606
F1.0
sVtrain
p607
F1.0
sVreport
p608
F1.0
sVfrom
p609
F1.0
sVan
p610
F1.0
sVproblem
p611
F1.0
sg4
F2.0
sVon
p612
F3.0
sVseveral
p613
F1.0
sVunsupervised
p614
F1.0
sVthis
p615
F1.0
sVmanual
p616
F1.0
sVseed
p617
F1.0
sVsupervised
p618
F1.0
sVthe
p619
F3.0
saa(lp620
S'W03-041024'
p621
a(dp622
Vrelevant
p623
F1.0
sVfeatures
p624
F1.0
sVlabels
p625
F1.0
sVexperiments
p626
F1.0
sVare
p627
F1.0
sVdetermine
p628
F1.0
sVin
p629
F1.0
sVlearner
p630
F1.0
sg37
F1.0
sVclass
p631
F1.0
sVto
p632
F2.0
sVwhich
p633
F1.0
sVhand
p634
F1.0
sVuses
p635
F1.0
sVduring
p636
F1.0
sVthe
p637
F3.0
sVstage
p638
F1.0
sVtraining
p639
F1.0
sVtask
p640
F1.0
sVsupervised
p641
F1.0
sVT-FLOAT
p642
F1.0
sVat
p643
F1.0
saa(lp644
S'W03-041025'
p645
a(dp646
g4
F1.0
sVmislead
p647
F1.0
sVfeatures
p648
F2.0
sVunsupervised
p649
F1.0
sVmay
p650
F1.0
sVof
p651
F1.0
sVsince
p652
F1.0
sVlearner
p653
F1.0
sg37
F2.0
sVnumber
p654
F1.0
sVlarge
p655
F1.0
sVT-FLOAT
p656
F1.0
sVsetting
p657
F1.0
sVpotentially
p658
F1.0
sVthose
p659
F1.0
sVin
p660
F1.0
sVserious
p661
F1.0
sVthe
p662
F3.0
sVirrelevant
p663
F1.0
sVproblem
p664
F1.0
sVbecomes
p665
F1.0
saa(lp666
S'W03-041022'
p667
a(dp668
g4
F1.0
sVbe
p669
F1.0
sVgiven
p670
F1.0
sVtask
p671
F1.0
sVthat
p672
F1.0
sVspace
p673
F1.0
sVany
p674
F1.0
sVdiscrimination
p675
F1.0
sVmeans
p676
F1.0
sVfeature
p677
F1.0
sVgeneral
p678
F1.0
sVwill
p679
F1.0
sVmost
p680
F1.0
sVhowever
p681
F1.0
sVverb
p682
F1.0
sVT-FLOAT
p683
F1.0
sVirrelevant
p684
F1.0
sg37
F1.0
sVto
p685
F1.0
sVfeatures
p686
F1.0
saa(lp687
S'W03-041020'
p688
a(dp689
Vand
p690
F2.0
sVaccurate
p691
F1.0
sVsee
p692
F1.0
sVim
p693
F1.0
sVare
p694
F1.0
sVin
p695
F1.0
sVsarkar
p696
F1.0
sVstatistics
p697
F1.0
sVT-INT
p698
F1.0
sValso
p699
F1.0
sg243
F1.0
sg249
F1.0
sg37
F3.0
sVto
p700
F1.0
sVother
p701
F1.0
sVdemonstrated
p702
F1.0
sVwe
p703
F1.0
sVtripasai
p704
F1.0
sVthat
p705
F1.0
sVhand
p706
F1.0
sVT-FLOAT
p707
F1.0
sVsubcategorization
p708
F1.0
sVschulte
p709
F1.0
sVon
p710
F1.0
sVwalde
p711
F1.0
sVunnecessary
p712
F1.0
sVcontrast
p713
F1.0
sVbrew
p714
F1.0
sVthe
p715
F1.0
saa(lp716
S'W03-041021'
p717
a(dp718
Vprecise
p719
F1.0
sVon
p720
F1.0
sg37
F1.0
sVportable
p721
F1.0
sVbe
p722
F1.0
sVavoiding
p723
F1.0
sVdependence
p724
F1.0
sVfeature
p725
F1.0
sVlanguages
p726
F1.0
sVextraction
p727
F1.0
sVT-FLOAT
p728
F1.0
sVnew
p729
F1.0
sVour
p730
F1.0
sVthe
p731
F1.0
sVshould
p732
F1.0
sVapproach
p733
F1.0
sVby
p734
F1.0
sVto
p735
F1.0
sVmore
p736
F1.0
saa(lp737
S'W03-0410108'
p738
a(dp739
VT-INT
p740
F4.0
sVT-FLOAT
p741
F1.0
sVwi
p742
F1.0
sVpe
p743
F1.0
saa(lp744
S'W03-0410109'
p745
a(dp746
VT-INT
p747
F3.0
sVT-FLOAT
p748
F2.0
sg37
F1.0
saa(lp749
S'W03-0410104'
p750
a(dp751
Von
p752
F1.0
sVe
p753
F1.0
sVd
p754
F1.0
sVmi
p755
F1.0
sVT-INT
p756
F5.0
sVun
p757
F1.0
sVso
p758
F1.0
sVssi
p759
F1.0
sVT-FLOAT
p760
F2.0
saa(lp761
S'W03-0410105'
p762
a(dp763
VT-INT
p764
F4.0
sg336
F1.0
sVat
p765
F1.0
sVT-FLOAT
p766
F1.0
sVhe
p767
F1.0
saa(lp768
S'W03-0410106'
p769
a(dp770
g753
F1.0
sg754
F1.0
sVre
p771
F1.0
sVm
p772
F1.0
sVea
p773
F1.0
sVl
p774
F1.0
sVan
p775
F1.0
sVT-INT
p776
F4.0
sVov
p777
F1.0
sVT-FLOAT
p778
F1.0
sVst
p779
F1.0
saa(lp780
S'W03-0410107'
p781
a(dp782
VT-INT
p783
F2.0
sVT-FLOAT
p784
F1.0
sg37
F1.0
saa(lp785
S'W03-0410100'
p786
a(dp787
VT-INT
p788
F2.0
sVT-FLOAT
p789
F1.0
sg37
F1.0
saa(lp790
S'W03-0410101'
p791
a(dp792
VT-INT
p793
F4.0
sVT-FLOAT
p794
F1.0
sVmi
p795
F1.0
sVad
p796
F1.0
sVre
p797
F1.0
saa(lp798
S'W03-0410102'
p799
a(dp800
g4
F1.0
sg753
F1.0
sg772
F1.0
sVus
p801
F1.0
sVT-INT
p802
F4.0
sVT-FLOAT
p803
F1.0
saa(lp804
S'W03-0410103'
p805
a(dp806
VT-INT
p807
F5.0
sVT-FLOAT
p808
F1.0
sVn
p809
F1.0
sVru
p810
F1.0
saa(lp811
S'W03-0410229'
p812
a(dp813
Vand
p814
F2.0
sVselection
p815
F1.0
sVis
p816
F1.0
sVfeature
p817
F2.0
sVset
p818
F1.0
sVclose
p819
F1.0
sVoutperforming
p820
F1.0
sVtasks
p821
F1.0
sg37
F2.0
sVsame
p822
F1.0
sVvery
p823
F1.0
sVmethod
p824
F1.0
sVfull
p825
F1.0
sVsuccessful
p826
F1.0
sVmost
p827
F1.0
sVhighly
p828
F1.0
sVremainder
p829
F1.0
sVT-FLOAT
p830
F1.0
sVon
p831
F3.0
sVthis
p832
F1.0
sVperforming
p833
F1.0
sVthe
p834
F3.0
sVor
p835
F1.0
saa(lp836
S'W03-0410228'
p837
a(dp838
Vset
p839
F1.0
sVproposed
p840
F1.0
sVguided
p841
F1.0
sVresults
p842
F1.0
sVfeature
p843
F1.0
sVused
p844
F1.0
sVare
p845
F1.0
sVin
p846
F2.0
sVour
p847
F2.0
sVclustering
p848
F1.0
sVshown
p849
F1.0
sg37
F2.0
sVper
p850
F1.0
sVclass
p851
F2.0
sVT-INT
p852
F3.0
sVverbs
p853
F2.0
sVunder
p854
F1.0
sg100
F1.0
sVevaluation
p855
F1.0
sVdiscovery
p856
F1.0
sVmodel
p857
F1.0
sVfull
p858
F1.0
sVexperiment
p859
F1.0
sVsubcolumn
p860
F1.0
sVeach
p861
F1.0
sVverb
p862
F1.0
sVincluded
p863
F1.0
sVusing
p864
F1.0
sVtable
p865
F1.0
sVthe
p866
F3.0
sg753
F1.0
sVthird
p867
F1.0
sVsets
p868
F1.0
sVi
p869
F1.0
sVof
p870
F2.0
sVmeasures
p871
F1.0
sVthese
p872
F1.0
sVseed
p873
F1.0
sVthree
p874
F1.0
sVwere
p875
F1.0
sVfollowing
p876
F1.0
sVT-FLOAT
p877
F4.0
saa(lp878
S'W03-0410221'
p879
a(dp880
Vand
p881
F1.0
sVwant
p882
F1.0
sVis
p883
F1.0
sVplausible
p884
F1.0
sVexamples
p885
F1.0
sVhave
p886
F1.0
sVdifferent
p887
F1.0
sVwould
p888
F1.0
sVseparate
p889
F1.0
sg37
F1.0
sVsame
p890
F1.0
sVto
p891
F1.0
sVverbs
p892
F2.0
sVinterest
p893
F1.0
sVinto
p894
F1.0
sVwhich
p895
F1.0
sVthat
p896
F1.0
sVthey
p897
F2.0
sVfall
p898
F1.0
sValong
p899
F1.0
sVbelieve
p900
F1.0
sVT-FLOAT
p901
F1.0
sg4
F1.0
sVscenario
p902
F1.0
sVof
p903
F2.0
sVlines
p904
F1.0
sVclasses
p905
F1.0
sVthe
p906
F1.0
sVother
p907
F1.0
sVresearchers
p908
F1.0
saa(lp909
S'W03-0410222'
p910
a(dp911
g4
F1.0
sVkind
p912
F1.0
sVfrom
p913
F1.0
sVverbs
p914
F1.0
sVthis
p915
F1.0
sVof
p916
F2.0
sVselected
p917
F1.0
sg37
F1.0
sVsample
p918
F1.0
sVto
p919
F1.0
sVwe
p920
F1.0
sVseed
p921
F1.0
sVfive
p922
F1.0
sVT-FLOAT
p923
F1.0
sVeach
p924
F1.0
sVmodel
p925
F1.0
sVapproach
p926
F1.0
sVclass
p927
F1.0
saa(lp928
S'W03-0410225'
p929
a(dp930
Vand
p931
F1.0
sVwe
p932
F1.0
sVtask
p933
F1.0
sVfor
p934
F2.0
sVran
p935
F1.0
sVsets
p936
F1.0
sg37
F1.0
sVfeature
p937
F2.0
sVT-INT
p938
F1.0
sVseed
p939
F1.0
sVsupervised
p940
F1.0
sVeach
p941
F1.0
sVling
p942
F1.0
sVour
p943
F1.0
sVcounts
p944
F1.0
sg213
F1.0
sVtable
p945
F1.0
sVT-FLOAT
p946
F1.0
sVexperimental
p947
F1.0
saa(lp948
S'W03-0410224'
p949
a(dp950
Vcarry
p951
F1.0
sVcheck
p952
F1.0
sVout
p953
F1.0
sVfrom
p954
F1.0
sVlog
p955
F1.0
sVto
p956
F1.0
sg243
F1.0
sg249
F1.0
sg37
F1.0
sVany
p957
F1.0
sVT-INT
p958
F4.0
sVlinguistic
p959
F1.0
sVwas
p960
F1.0
sVranging
p961
F1.0
sVpurposely
p962
F1.0
sVwe
p963
F2.0
sVthat
p964
F1.0
sVfrequencies
p965
F1.0
sVverb
p966
F1.0
sValthough
p967
F1.0
sVnot
p968
F1.0
sVwith
p969
F1.0
sVdid
p970
F2.0
sVreasonably
p971
F1.0
sVanalysis
p972
F1.0
sVeach
p973
F1.0
sVT-FLOAT
p974
F3.0
sVfrequent
p975
F1.0
saa(lp976
S'W03-0410227'
p977
a(dp978
Vall
p979
F1.0
sVset
p980
F1.0
sVfeatures
p981
F1.0
sVfeature
p982
F1.0
sVfrom
p983
F1.0
sVfor
p984
F1.0
sVunion
p985
F1.0
sVdecision
p986
F1.0
sg37
F1.0
sVextracted
p987
F1.0
sVwhich
p988
F1.0
sVwe
p989
F1.0
sVused
p990
F1.0
sVthat
p991
F1.0
sVformed
p992
F1.0
sVtrees
p993
F1.0
sVthe
p994
F3.0
sVtask
p995
F1.0
sVof
p996
F1.0
sVresulting
p997
F1.0
sVT-FLOAT
p998
F1.0
sVreduced
p999
F1.0
saa(lp1000
S'W03-0410226'
p1001
a(dp1002
g4
F1.0
sVon
p1003
F1.0
sg336
F1.0
sVverbs
p1004
F1.0
sVfor
p1005
F1.0
sg243
F2.0
sg249
F2.0
sVboosting
p1006
F1.0
sVlearner
p1007
F1.0
sg37
F1.0
sVwithout
p1008
F1.0
sVcross-validation
p1009
F1.0
sVT-INT
p1010
F3.0
sVseed
p1011
F1.0
sVin
p1012
F1.0
sV-fold
p1013
F1.0
sVT-FLOAT
p1014
F2.0
sVclasses
p1015
F1.0
sVthe
p1016
F1.0
sVthose
p1017
F1.0
saa(lp1018
S'W03-04107'
p1019
a(dp1020
Vcomputational
p1021
F1.0
sVas
p1022
F1.0
sVindividual
p1023
F1.0
sVare
p1024
F1.0
sVknowledge
p1025
F1.0
sVfor
p1026
F1.0
sVamounts
p1027
F1.0
sVlexical
p1028
F1.0
sg37
F1.0
sVwords
p1029
F1.0
sVtechnologies
p1030
F1.0
sVbottleneck
p1031
F1.0
sVvast
p1032
F1.0
sg4
F1.0
sVabout
p1033
F1.0
sVlinguists
p1034
F1.0
sVlanguage
p1035
F1.0
sVof
p1036
F1.0
sVrequired
p1037
F1.0
sVface
p1038
F1.0
sVT-FLOAT
p1039
F1.0
sVacquisition
p1040
F1.0
saa(lp1041
S'W03-04106'
p1042
a(dp1043
Vset
p1044
F2.0
sVfeatures
p1045
F2.0
sVsemisupervised
p1046
F1.0
sVsample
p1047
F1.0
sVoutperforms
p1048
F1.0
sVas
p1049
F1.0
sVseed
p1050
F1.0
sg243
F1.0
sg249
F1.0
sg37
F2.0
sVonly
p1051
F1.0
sVverbs
p1052
F1.0
sVapproach
p1053
F1.0
sVfull
p1054
F1.0
sVoverall
p1055
F1.0
sVhowever
p1056
F1.0
sVbut
p1057
F1.0
sVnot
p1058
F1.0
sVusing
p1059
F1.0
sVT-FLOAT
p1060
F1.0
sg4
F1.0
sVhand-selected
p1061
F1.0
sVof
p1062
F2.0
sVwell
p1063
F1.0
sVthe
p1064
F3.0
saa(lp1065
S'W03-04105'
p1066
a(dp1067
Vapplied
p1068
F1.0
sVbe
p1069
F1.0
sVwe
p1070
F2.0
sVtried
p1071
F1.0
sVunsupervised
p1072
F1.0
sVT-FLOAT
p1073
F1.0
sVthat
p1074
F1.0
sVmethod
p1075
F1.0
sVconsistently
p1076
F1.0
sVcan
p1077
F1.0
sVnot
p1078
F1.0
sVour
p1079
F1.0
sVthe
p1080
F1.0
sVdata
p1081
F1.0
sVfind
p1082
F1.0
sVto
p1083
F1.0
saa(lp1084
S'W03-04104'
p1085
a(dp1086
Vand
p1087
F1.0
sVselection
p1088
F1.0
sVmethods
p1089
F1.0
sVmanually
p1090
F1.0
sVresults
p1091
F1.0
sg37
F2.0
sVsemi-supervised
p1092
F1.0
sVfeatures
p1093
F1.0
sVcomparing
p1094
F1.0
sVchosen
p1095
F1.0
sVfeature
p1096
F1.0
sVto
p1097
F3.0
sVvarious
p1098
F1.0
sVlinguistic
p1099
F1.0
sVwe
p1100
F1.0
sVapproaches
p1101
F1.0
sVusing
p1102
F1.0
sVproperties
p1103
F1.0
sVboth
p1104
F1.0
sVsubsets
p1105
F1.0
sVunsupervised
p1106
F1.0
sVof
p1107
F1.0
sVaccording
p1108
F1.0
sVT-FLOAT
p1109
F1.0
sVinvestigate
p1110
F1.0
sVthe
p1111
F1.0
saa(lp1112
S'W03-04103'
p1113
a(dp1114
Vfeatures
p1115
F1.0
sVnumber
p1116
F1.0
sVin
p1117
F1.0
sVT-FLOAT
p1118
F1.0
sVclustering
p1119
F2.0
sVfor
p1120
F1.0
sg37
F2.0
sVto
p1121
F1.0
sVdiscovery
p1122
F1.0
sVwe
p1123
F1.0
sVproblem
p1124
F1.0
sVverb
p1125
F1.0
sVmoving
p1126
F1.0
sVparticular
p1127
F1.0
sVusing
p1128
F1.0
sVirrelevant
p1129
F1.0
sVclass
p1130
F1.0
sg4
F3.0
sVtask
p1131
F1.0
sVscenario
p1132
F1.0
sVof
p1133
F3.0
sVface
p1134
F1.0
sVlarge
p1135
F1.0
sVthe
p1136
F1.0
sVhaving
p1137
F1.0
saa(lp1138
S'W03-04102'
p1139
a(dp1140
g4
F1.0
sVshown
p1141
F1.0
sVset
p1142
F1.0
sVenglish
p1143
F1.0
sVpreviously
p1144
F1.0
sVwork
p1145
F1.0
sVwell
p1146
F1.0
sVfeature
p1147
F1.0
sg37
F1.0
sVto
p1148
F1.0
sVverb
p1149
F1.0
sVsetting
p1150
F1.0
sVsupervised
p1151
F1.0
sVlearning
p1152
F1.0
sVin
p1153
F1.0
sVknown
p1154
F1.0
sVusing
p1155
F1.0
sVthe
p1156
F1.0
sVclasses
p1157
F1.0
sVwas
p1158
F1.0
sVT-FLOAT
p1159
F1.0
saa(lp1160
S'W03-04101'
p1161
a(dp1162
Vand
p1163
F1.0
sVset
p1164
F1.0
sVsemantic
p1165
F2.0
sVfeatures
p1166
F1.0
sVinto
p1167
F1.0
sVgeneral
p1168
F1.0
sVcluster
p1169
F1.0
sVcapture
p1170
F1.0
sVsyntactic
p1171
F1.0
sVlexical
p1172
F1.0
sg37
F1.0
sVproperties
p1173
F1.0
sVverbs
p1174
F2.0
sVwe
p1175
F1.0
sVthat
p1176
F1.0
sVusing
p1177
F1.0
sVthe
p1178
F1.0
sVnoisy
p1179
F1.0
sg4
F1.0
sVof
p1180
F2.0
sVclasses
p1181
F1.0
sVT-FLOAT
p1182
F1.0
saa(lp1183
S'W03-0410183'
p1184
a(dp1185
Vand
p1186
F3.0
sVupper
p1187
F1.0
sVaveraged
p1188
F1.0
sVmultiway
p1189
F1.0
sVachieved
p1190
F1.0
sVresults
p1191
F1.0
sVan
p1192
F1.0
sVcross-validation
p1193
F1.0
sVas
p1194
F1.0
sVtasks
p1195
F1.0
sVare
p1196
F1.0
sVin
p1197
F1.0
sVour
p1198
F1.0
sVshould
p1199
F1.0
sVwhat
p1200
F1.0
sg243
F1.0
sg249
F1.0
sVthat
p1201
F1.0
sg37
F7.0
sVthan
p1202
F1.0
sVT-INT
p1203
F8.0
sVtest
p1204
F1.0
sVperformance
p1205
F2.0
sVhigher
p1206
F1.0
sVbe
p1207
F2.0
sVwe
p1208
F1.0
sVfound
p1209
F1.0
sVrespectively
p1210
F1.0
sVearlier
p1211
F1.0
sVbound
p1212
F1.0
sVtaken
p1213
F1.0
sVrepeated
p1214
F1.0
sVboosting
p1215
F1.0
sVwith
p1216
F1.0
sVT-FLOAT
p1217
F5.0
sg4
F1.0
sVon
p1218
F2.0
sVabout
p1219
F1.0
sVcrossvalidation
p1220
F1.0
sVthese
p1221
F1.0
sVof
p1222
F1.0
sVwork
p1223
F1.0
sV-way
p1224
F2.0
sVtimes
p1225
F1.0
sVso
p1226
F1.0
sVcan
p1227
F1.0
sV-fold
p1228
F1.0
sVthe
p1229
F2.0
saa(lp1230
S'W03-0410188'
p1231
a(dp1232
Vset
p1233
F1.0
sVfeatures
p1234
F1.0
sVresults
p1235
F1.0
sg37
F1.0
sVselection
p1236
F1.0
sVin
p1237
F1.0
sVtable
p1238
F1.0
sVclustering
p1239
F1.0
sVno
p1240
F1.0
sg243
F1.0
sg249
F1.0
sVthree
p1241
F1.0
sVT-INT
p1242
F1.0
sVunder
p1243
F1.0
sVevaluation
p1244
F1.0
sVshows
p1245
F1.0
sVfull
p1246
F1.0
sVsubcolumn
p1247
F1.0
sVmeasures
p1248
F1.0
sVusing
p1249
F1.0
sVT-FLOAT
p1250
F3.0
sg753
F1.0
sg869
F1.0
sVof
p1251
F2.0
sVeach
p1252
F1.0
sVthe
p1253
F4.0
sVfeature
p1254
F1.0
sVfirst
p1255
F1.0
saa(lp1256
S'W03-0410189'
p1257
a(dp1258
Vand
p1259
F2.0
sVbaseline
p1260
F1.0
sVthat
p1261
F1.0
sVlow
p1262
F1.0
sVwell
p1263
F1.0
sVis
p1264
F1.0
sVgenerally
p1265
F2.0
sg37
F2.0
sVT-FLOAT
p1266
F1.0
sVbelow
p1267
F1.0
sVlearner
p1268
F1.0
sVsupervised
p1269
F1.0
sVare
p1270
F1.0
sValthough
p1271
F1.0
sVof
p1272
F1.0
sVthe
p1273
F2.0
sVthan
p1274
F1.0
sVhigher
p1275
F1.0
saa(lp1276
S'W03-04109'
p1277
a(dp1278
Vand
p1279
F6.0
sVsemantic
p1280
F1.0
sVlearning
p1281
F1.0
sVclassification
p1282
F1.0
sVargument
p1283
F2.0
sVincluding
p1284
F1.0
sVhave
p1285
F1.0
sVmerlo
p1286
F1.0
sVinformation
p1287
F1.0
sVfrom
p1288
F1.0
sVT-INT
p1289
F6.0
sVresnik
p1290
F1.0
sVextracted
p1291
F1.0
sg243
F4.0
sg249
F4.0
sVlexical
p1292
F1.0
sg37
F10.0
sVtheir
p1293
F2.0
sVverbs
p1294
F2.0
sg100
F3.0
sVjones
p1295
F1.0
sVto
p1296
F1.0
sVdorr
p1297
F1.0
sVnumber
p1298
F1.0
sVapproaches
p1299
F1.0
sVjoanis
p1300
F1.0
sVsuch
p1301
F1.0
sVselectional
p1302
F1.0
sVlapata
p1303
F1.0
sVproperties
p1304
F1.0
sVstructure
p1305
F1.0
sVgildea
p1306
F1.0
sg4
F1.0
sVpreferences
p1307
F1.0
sVabout
p1308
F1.0
sg753
F1.0
sVroles
p1309
F1.0
sg869
F1.0
sVof
p1310
F1.0
sVstevenson
p1311
F2.0
sVcorpora
p1312
F1.0
sVaccording
p1313
F1.0
sVjurafsky
p1314
F1.0
sVsupervised
p1315
F1.0
sVbrew
p1316
F1.0
sVT-FLOAT
p1317
F3.0
sVgrouping
p1318
F1.0
saa(lp1319
S'W03-041039'
p1320
a(dp1321
Vand
p1322
F2.0
sVfeatures
p1323
F1.0
sVdescribe
p1324
F1.0
sVbriefly
p1325
F1.0
sg37
F1.0
sVour
p1326
F1.0
sVfor
p1327
F1.0
sVspace
p1328
F1.0
sVfeature
p1329
F1.0
sVto
p1330
F1.0
sVinterested
p1331
F1.0
sVdetails
p1332
F1.0
sVreader
p1333
F1.0
sVrefer
p1334
F1.0
sVwe
p1335
F1.0
sVthat
p1336
F1.0
sVhere
p1337
F1.0
sVjoanis
p1338
F1.0
sVthe
p1339
F2.0
sVstevenson
p1340
F1.0
sVT-FLOAT
p1341
F1.0
sVcomprise
p1342
F1.0
saa(lp1343
S'W03-041038'
p1344
a(dp1345
Vamong
p1346
F1.0
sVfeatures
p1347
F1.0
sVthus
p1348
F1.0
sVapproximations
p1349
F1.0
sVserve
p1350
F1.0
sg37
F1.0
sVto
p1351
F1.0
sVas
p1352
F1.0
sVunderlying
p1353
F1.0
sVdistinctions
p1354
F1.0
sVthe
p1355
F2.0
sVclasses
p1356
F1.0
sVT-FLOAT
p1357
F1.0
saa(lp1358
S'W03-041034'
p1359
a(dp1360
Vand
p1361
F3.0
sVcomputational
p1362
F1.0
sVsemantic
p1363
F1.0
sVgold
p1364
F1.0
sVdefined
p1365
F1.0
sVal
p1366
F1.0
sVas
p1367
F2.0
sVim
p1368
F1.0
sVhave
p1369
F2.0
sVin
p1370
F2.0
sVet
p1371
F1.0
sVlinguistics
p1372
F1.0
sg243
F2.0
sVassumed
p1373
F1.0
sVlexical
p1374
F1.0
sg37
F6.0
sVresearch
p1375
F1.0
sVT-INT
p1376
F4.0
sVverbs
p1377
F1.0
sVwhich
p1378
F1.0
sg100
F3.0
sVschulte
p1379
F1.0
sVjones
p1380
F1.0
sVwe
p1381
F1.0
sVdorr
p1382
F1.0
sVof
p1383
F1.0
sVstandard
p1384
F1.0
sVothers
p1385
F1.0
sVmerlo
p1386
F1.0
sVhereafter
p1387
F1.0
sg4
F1.0
sVkipper
p1388
F1.0
sVlike
p1389
F1.0
sVlevin
p1390
F2.0
sVstevenson
p1391
F1.0
sVwalde
p1392
F1.0
sVclasses
p1393
F1.0
sg249
F2.0
sVbrew
p1394
F1.0
sVserved
p1395
F1.0
sVT-FLOAT
p1396
F2.0
saa(lp1397
S'W03-041037'
p1398
a(dp1399
Vand
p1400
F1.0
sVtagged
p1401
F1.0
sVsemantic
p1402
F1.0
sVfeatures
p1403
F1.0
sVtext
p1404
F1.0
sVis
p1405
F1.0
sVit
p1406
F1.0
sVare
p1407
F2.0
sVour
p1408
F1.0
sVany
p1409
F1.0
sVfrom
p1410
F1.0
sVto
p1411
F1.0
sVthere
p1412
F1.0
sg37
F2.0
sVextracted
p1413
F1.0
sVonly
p1414
F1.0
sVemphasize
p1415
F1.0
sVpart-of-speech
p1416
F1.0
sg213
F1.0
sVthat
p1417
F1.0
sVhowever
p1418
F1.0
sVimportant
p1419
F1.0
sVtags
p1420
F1.0
sVkind
p1421
F1.0
sVof
p1422
F1.0
sVno
p1423
F1.0
sVT-FLOAT
p1424
F1.0
sVchunked
p1425
F1.0
saa(lp1426
S'W03-041036'
p1427
a(dp1428
Vand
p1429
F1.0
sVsemantic
p1430
F1.0
sVour
p1431
F1.0
sVT-FLOAT
p1432
F1.0
sVspace
p1433
F1.0
sVfeature
p1434
F1.0
sVby
p1435
F1.0
sVtheir
p1436
F1.0
sVverbs
p1437
F1.0
sVarguments
p1438
F1.0
sVwas
p1439
F1.0
sVto
p1440
F2.0
sVmapping
p1441
F1.0
sVreflect
p1442
F1.0
sVdesigned
p1443
F1.0
sVproperties
p1444
F1.0
sVcapturing
p1445
F1.0
sVthese
p1446
F1.0
sVof
p1447
F2.0
sVsyntactic
p1448
F1.0
sVclasses
p1449
F1.0
sVpositions
p1450
F1.0
sVthe
p1451
F1.0
saa(lp1452
S'W03-041031'
p1453
a(dp1454
Vbriefly
p1455
F1.0
sVand
p1456
F2.0
sVwe
p1457
F1.0
sVverbs
p1458
F1.0
sVspace
p1459
F1.0
sVof
p1460
F1.0
sVreview
p1461
F1.0
sg37
F1.0
sVfeature
p1462
F1.0
sVpaper
p1463
F1.0
sVexperimental
p1464
F1.0
sVin
p1465
F1.0
sVour
p1466
F2.0
sVthe
p1467
F2.0
sVclasses
p1468
F1.0
sVremainder
p1469
F1.0
sVT-FLOAT
p1470
F1.0
sVpresent
p1471
F1.0
sVfirst
p1472
F1.0
saa(lp1473
S'W03-041030'
p1474
a(dp1475
Von
p1476
F1.0
sVusable
p1477
F1.0
sVselection
p1478
F1.0
sVfor
p1479
F1.0
sVunsupervised
p1480
F1.0
sVdata
p1481
F1.0
sVfeature
p1482
F1.0
sg37
F2.0
sVT-FLOAT
p1483
F1.0
sVother
p1484
F1.0
sVnot
p1485
F1.0
sVour
p1486
F1.0
sVthe
p1487
F2.0
sVhand
p1488
F1.0
sVwas
p1489
F1.0
sVmethod
p1490
F1.0
saa(lp1491
S'W03-041033'
p1492
a(dp1493
g4
F1.0
sVand
p1494
F1.0
sVwe
p1495
F1.0
sVcontributions
p1496
F1.0
sVconclude
p1497
F1.0
sVof
p1498
F1.0
sVdiscussion
p1499
F1.0
sVwork
p1500
F1.0
sg37
F2.0
sVrelated
p1501
F1.0
sVfuture
p1502
F1.0
sVdirections
p1503
F1.0
sVour
p1504
F1.0
sVT-FLOAT
p1505
F1.0
sVwith
p1506
F1.0
saa(lp1507
S'W03-041032'
p1508
a(dp1509
Vclustering
p1510
F2.0
sVthen
p1511
F1.0
sVwe
p1512
F2.0
sVmeasures
p1513
F1.0
sVand
p1514
F1.0
sVevaluate
p1515
F1.0
sVdescribe
p1516
F1.0
sg37
F2.0
sVresults
p1517
F1.0
sVto
p1518
F1.0
sVmethodology
p1519
F1.0
sg4
F1.0
sVuse
p1520
F1.0
sVour
p1521
F2.0
sVthe
p1522
F1.0
sVT-FLOAT
p1523
F1.0
sVexperimental
p1524
F1.0
saa(lp1525
S'W03-0410131'
p1526
a(dp1527
Vclustering
p1528
F2.0
sVimplements
p1529
F1.0
sVwe
p1530
F1.0
sVused
p1531
F1.0
sVbottom-up
p1532
F1.0
sVfor
p1533
F1.0
sVall
p1534
F1.0
sVunsupervised
p1535
F1.0
sg37
F2.0
sVexperiments
p1536
F1.0
sVhierarchical
p1537
F1.0
sVcommand
p1538
F1.0
sVmatlab
p1539
F1.0
sVwhich
p1540
F1.0
sVin
p1541
F1.0
sVour
p1542
F1.0
sVthe
p1543
F1.0
sVT-FLOAT
p1544
F1.0
sVagglomerative
p1545
F1.0
saa(lp1546
S'W03-0410130'
p1547
a(dp1548
Vclustering
p1549
F1.0
sVT-INT
p1550
F2.0
sVT-FLOAT
p1551
F2.0
sVparameters
p1552
F1.0
saa(lp1553
S'W03-0410133'
p1554
a(dp1555
Vand
p1556
F1.0
sVdistance
p1557
F1.0
sVwe
p1558
F1.0
sVused
p1559
F1.0
sVfor
p1560
F2.0
sVsimple
p1561
F1.0
sVT-FLOAT
p1562
F1.0
sVlatter
p1563
F1.0
sg37
F1.0
sVeuclidean
p1564
F1.0
sVthe
p1565
F3.0
sVward
p1566
F1.0
sVformer
p1567
F1.0
sVlinkage
p1568
F1.0
saa(lp1569
S'W03-0410135'
p1570
a(dp1571
Vbecause
p1572
F1.0
sVis
p1573
F1.0
sVsubclusters
p1574
F1.0
sVit
p1575
F1.0
sVare
p1576
F1.0
sVfind
p1577
F1.0
sVclustering
p1578
F1.0
sVthere
p1579
F1.0
sVwhen
p1580
F1.0
sg37
F1.0
sVto
p1581
F1.0
sVverbs
p1582
F1.0
sVclusters
p1583
F1.0
sVbe
p1584
F1.0
sVwe
p1585
F1.0
sVgood
p1586
F1.0
sVchose
p1587
F1.0
sVmay
p1588
F1.0
sVexactly
p1589
F1.0
sVpossible
p1590
F1.0
sVnumber
p1591
F1.0
sVcoherent
p1592
F1.0
sVhierarchical
p1593
F1.0
sVnot
p1594
F1.0
sVT-FLOAT
p1595
F1.0
sVeven
p1596
F1.0
sVof
p1597
F2.0
sVclasses
p1598
F1.0
sVthe
p1599
F1.0
sVwhere
p1600
F1.0
saa(lp1601
S'W03-0410134'
p1602
a(dp1603
Vand
p1604
F1.0
sVdistances
p1605
F1.0
sVall
p1606
F1.0
sVmethods
p1607
F1.0
sVless
p1608
F1.0
sVis
p1609
F1.0
sVthus
p1610
F1.0
sVcluster
p1611
F1.0
sVT-FLOAT
p1612
F1.0
sVward
p1613
F1.0
sg37
F1.0
sVto
p1614
F2.0
sVother
p1615
F1.0
sVcentroid
p1616
F1.0
sVoutliers
p1617
F1.0
sVsome
p1618
F1.0
sVminimizes
p1619
F1.0
sVthan
p1620
F1.0
sVlinkage
p1621
F1.0
sVessentially
p1622
F1.0
sVof
p1623
F1.0
sVsensitive
p1624
F1.0
sVpoints
p1625
F1.0
sVthe
p1626
F2.0
saa(lp1627
S'W03-0410137'
p1628
a(dp1629
Vcutoff
p1630
F1.0
sVresults
p1631
F1.0
sVexperiments
p1632
F1.0
sVin
p1633
F1.0
sVprincipled
p1634
F1.0
sVfor
p1635
F1.0
sVno
p1636
F1.0
sVsince
p1637
F1.0
sg37
F3.0
sVonly
p1638
F1.0
sVway
p1639
F1.0
sVwe
p1640
F2.0
sVgood
p1641
F1.0
sVhowever
p1642
F1.0
sVhere
p1643
F1.0
sVreport
p1644
F1.0
sVT-FLOAT
p1645
F1.0
sg4
F1.0
sVof
p1646
F1.0
sVdetermining
p1647
F1.0
sVfound
p1648
F1.0
sVthe
p1649
F1.0
sVautomatically
p1650
F1.0
saa(lp1651
S'W03-0410136'
p1652
a(dp1653
Vhierarchy
p1654
F1.0
sVnumber
p1655
F1.0
sVat
p1656
F1.0
sVin
p1657
F1.0
sVT-FLOAT
p1658
F1.0
sVany
p1659
F1.0
sVclustering
p1660
F1.0
sVcut
p1661
F1.0
sg37
F1.0
sVto
p1662
F1.0
sVclusters
p1663
F1.0
sVwe
p1664
F1.0
sVinduce
p1665
F1.0
sVexplore
p1666
F1.0
sVparticular
p1667
F1.0
sVby
p1668
F1.0
sg4
F2.0
sVlevel
p1669
F1.0
sVthis
p1670
F1.0
sVof
p1671
F1.0
sVcan
p1672
F1.0
sVmaking
p1673
F1.0
sVthe
p1674
F1.0
saa(lp1675
S'W03-0410139'
p1676
a(dp1677
Vintuition
p1678
F1.0
sVconsistent
p1679
F1.0
sVat
p1680
F1.0
sVour
p1681
F1.0
sVfind
p1682
F1.0
sg37
F1.0
sVto
p1683
F1.0
sVmuch
p1684
F1.0
sVtoo
p1685
F1.0
sVclusters
p1686
F1.0
sVapproach
p1687
F1.0
sVfiner
p1688
F1.0
sVenable
p1689
F1.0
sVthat
p1690
F1.0
sVmay
p1691
F1.0
sVT-FLOAT
p1692
F1.0
sg4
F1.0
sVfragmentation
p1693
F1.0
sVthis
p1694
F1.0
sVsupports
p1695
F1.0
sVus
p1696
F1.0
sVwithout
p1697
F1.0
sVgrain
p1698
F1.0
sVthe
p1699
F1.0
sVmore
p1700
F1.0
saa(lp1701
S'W03-0410138'
p1702
a(dp1703
Vand
p1704
F1.0
sVmeasure
p1705
F1.0
sVal
p1706
F1.0
sVas
p1707
F1.0
sVin
p1708
F1.0
sVet
p1709
F1.0
sVeven
p1710
F1.0
sVdescribed
p1711
F1.0
sVdiscounts
p1712
F1.0
sg243
F2.0
sg249
F2.0
sVgenerally
p1713
F1.0
sg37
F5.0
sVbetter
p1714
F1.0
sVT-INT
p1715
F1.0
sVexperiment
p1716
F1.0
sVperformance
p1717
F1.0
sVwas
p1718
F1.0
sVwe
p1719
F1.0
sVthat
p1720
F2.0
sVour
p1721
F1.0
sVhowever
p1722
F1.0
sVoversplitting
p1723
F1.0
sVwith
p1724
F1.0
sVon
p1725
F1.0
sVdid
p1726
F1.0
sVbelow
p1727
F1.0
sVstrehl
p1728
F1.0
sVfound
p1729
F1.0
sVT-FLOAT
p1730
F2.0
saa(lp1731
S'W03-0410184'
p1732
a(dp1733
Vwe
p1734
F1.0
sVfrom
p1735
F1.0
sVbaseline
p1736
F1.0
sVthird
p1737
F1.0
sVcolumn
p1738
F1.0
sVof
p1739
F1.0
sVcalculated
p1740
F1.0
sVrandom
p1741
F1.0
sVT-INT
p1742
F1.0
sVclusterings
p1743
F1.0
sVtable
p1744
F1.0
sVthe
p1745
F2.0
sVT-FLOAT
p1746
F1.0
sVgives
p1747
F1.0
saa(lp1748
S'W03-0410238'
p1749
a(dp1750
Vset
p1751
F1.0
sVfeatures
p1752
F1.0
sVjust
p1753
F1.0
sVof
p1754
F1.0
sVis
p1755
F1.0
sVhowever
p1756
F1.0
sg37
F1.0
sVsmall
p1757
F1.0
sVT-FLOAT
p1758
F1.0
sVnot
p1759
F1.0
sVadequate
p1760
F1.0
sVany
p1761
F1.0
saa(lp1762
S'W03-0410185'
p1763
a(dp1764
Vupper
p1765
F1.0
sVthat
p1766
F1.0
sVthis
p1767
F1.0
sVrecall
p1768
F1.0
sVis
p1769
F1.0
sVrandom
p1770
F1.0
sVbound
p1771
F1.0
sVan
p1772
F1.0
sVperformance
p1773
F1.0
sVT-FLOAT
p1774
F1.0
sVon
p1775
F1.0
saa(lp1776
S'W03-0410236'
p1777
a(dp1778
Vclustering
p1779
F1.0
sVwe
p1780
F1.0
sVsmaller
p1781
F1.0
sVset
p1782
F1.0
sVfeatures
p1783
F2.0
sVsubsets
p1784
F1.0
sVthat
p1785
F1.0
sVperform
p1786
F1.0
sVof
p1787
F2.0
sVgenerally
p1788
F1.0
sg37
F1.0
sVthan
p1789
F1.0
sVbetter
p1790
F1.0
sVT-FLOAT
p1791
F1.0
sVexperiments
p1792
F1.0
sVfull
p1793
F1.0
sVin
p1794
F1.0
sVour
p1795
F1.0
sVthe
p1796
F1.0
sVfind
p1797
F1.0
saa(lp1798
S'W03-0410237'
p1799
a(dp1800
Vand
p1801
F1.0
sVfeatures
p1802
F1.0
sVfor
p1803
F1.0
sVsets
p1804
F1.0
sg243
F1.0
sg249
F1.0
sVin
p1805
F1.0
sVnumber
p1806
F1.0
sVT-INT
p1807
F1.0
sVsee
p1808
F1.0
sVseed
p1809
F1.0
sVof
p1810
F1.0
sVling
p1811
F1.0
sVtable
p1812
F1.0
sVthe
p1813
F2.0
sVT-FLOAT
p1814
F1.0
saa(lp1815
S'W03-0410234'
p1816
a(dp1817
Vand
p1818
F1.0
sVsizeable
p1819
F1.0
sVproposed
p1820
F1.0
sVthus
p1821
F1.0
sVobtain
p1822
F1.0
sVfeature
p1823
F1.0
sVsee
p1824
F1.0
sVselection
p1825
F1.0
sVin
p1826
F1.0
sVour
p1827
F1.0
sVincrease
p1828
F1.0
sg37
F2.0
sVbetter
p1829
F1.0
sValso
p1830
F1.0
sVonly
p1831
F1.0
sVclusters
p1832
F1.0
sVapproach
p1833
F1.0
sVseparated
p1834
F1.0
sVdo
p1835
F1.0
sVwe
p1836
F2.0
sVperformance
p1837
F1.0
sVnot
p1838
F1.0
sVwith
p1839
F1.0
sVtighter
p1840
F1.0
sg4
F1.0
sVT-FLOAT
p1841
F1.0
saa(lp1842
S'W03-0410235'
p1843
a(dp1844
VT-INT
p1845
F2.0
sVT-FLOAT
p1846
F2.0
sVdiscussion
p1847
F1.0
sVfurther
p1848
F1.0
saa(lp1849
S'W03-0410232'
p1850
a(dp1851
Vtasks
p1852
F1.0
sVparticularly
p1853
F1.0
sVstriking
p1854
F1.0
sVis
p1855
F1.0
sVrate
p1856
F1.0
sVseed
p1857
F1.0
sVin
p1858
F1.0
sVcompared
p1859
F1.0
sV%
p1860
F2.0
sVfor
p1861
F3.0
sVto
p1862
F1.0
sg37
F1.0
sVT-INT
p1863
F3.0
sVreduction
p1864
F1.0
sVset
p1865
F2.0
sVincreased
p1866
F1.0
sVling
p1867
F1.0
sVthe
p1868
F4.0
sVof
p1869
F1.0
sV-way
p1870
F1.0
sVerror
p1871
F1.0
sVT-FLOAT
p1872
F1.0
saa(lp1873
S'W03-0410186'
p1874
a(dp1875
Vand
p1876
F1.0
sVgive
p1877
F1.0
sVreductions
p1878
F1.0
sVeach
p1879
F1.0
sVfeature
p1880
F1.0
sVas
p1881
F1.0
sVin
p1882
F5.0
sVtable
p1883
F1.0
sVclustering
p1884
F1.0
sVuse
p1885
F1.0
sVdescribed
p1886
F1.0
sVbaseline
p1887
F1.0
sVfor
p1888
F1.0
sVsection
p1889
F1.0
sg37
F4.0
sVdiscuss
p1890
F1.0
sVT-INT
p1891
F2.0
sVwhich
p1892
F1.0
sVremaining
p1893
F1.0
sVcolumns
p1894
F1.0
sVwe
p1895
F3.0
sVcalculating
p1896
F1.0
sVmeasures
p1897
F1.0
sVexplored
p1898
F1.0
sVthe
p1899
F4.0
sVsets
p1900
F1.0
sVthis
p1901
F1.0
sVof
p1902
F3.0
sVrate
p1903
F1.0
sVturn
p1904
F1.0
sVbelow
p1905
F1.0
sVerror
p1906
F1.0
sVT-FLOAT
p1907
F3.0
saa(lp1908
S'W03-0410230'
p1909
a(dp1910
Von
p1911
F1.0
sVset
p1912
F2.0
sVfeatures
p1913
F1.0
sVmanually
p1914
F1.0
sVtasks
p1915
F1.0
sVof
p1916
F1.0
sVover
p1917
F1.0
sVselected
p1918
F1.0
sg37
F1.0
sVoutperforms
p1919
F1.0
sVseed
p1920
F1.0
sVhalf
p1921
F1.0
sVmoreover
p1922
F1.0
sVthe
p1923
F3.0
sVT-FLOAT
p1924
F1.0
saa(lp1925
S'W03-0410231'
p1926
a(dp1927
Vset
p1928
F2.0
sVover
p1929
F1.0
sVrate
p1930
F1.0
sVseed
p1931
F1.0
sVin
p1932
F1.0
sVcompared
p1933
F1.0
sg1860
F2.0
sVfor
p1934
F1.0
sVto
p1935
F1.0
sg243
F1.0
sg249
F1.0
sg37
F2.0
sVT-INT
p1936
F2.0
sVreduction
p1937
F1.0
sVshows
p1938
F1.0
sVoverall
p1939
F1.0
sVbase
p1940
F1.0
sVimportantly
p1941
F1.0
sVling
p1942
F1.0
sVT-FLOAT
p1943
F1.0
sg4
F1.0
sVof
p1944
F1.0
sVerror
p1945
F1.0
sVthe
p1946
F2.0
sVmore
p1947
F1.0
sVmean
p1948
F1.0
saa(lp1949
S'W03-0410187'
p1950
a(dp1951
VT-INT
p1952
F2.0
sVT-FLOAT
p1953
F2.0
sVfull
p1954
F1.0
sVset
p1955
F1.0
sVfeature
p1956
F1.0
saa(lp1957
S'W03-0410253'
p1958
a(dp1959
g4
F2.0
sVused
p1960
F1.0
sVfeatures
p1961
F1.0
sVfor
p1962
F1.0
sVmanually
p1963
F1.0
sVof
p1964
F2.0
sVstudy
p1965
F1.0
sVparticular
p1966
F1.0
sVhowever
p1967
F1.0
sg37
F1.0
sVtheir
p1968
F1.0
sVset
p1969
F2.0
sVfive
p1970
F1.0
sVthree
p1971
F1.0
sVdevised
p1972
F1.0
sVsmall
p1973
F1.0
sVT-FLOAT
p1974
F1.0
sVclasses
p1975
F1.0
saa(lp1976
S'W03-0410180'
p1977
a(dp1978
Vand
p1979
F1.0
sVsound
p1980
F1.0
sVtask
p1981
F1.0
sVadds
p1982
F1.0
sVT-INT
p1983
F2.0
sVthese
p1984
F1.0
sValso
p1985
F1.0
sg37
F2.0
sV-way
p1986
F1.0
sVemission
p1987
F1.0
sVto
p1988
F1.0
sVverbs
p1989
F1.0
sVlocative
p1990
F1.0
sVwhich
p1991
F1.0
sVrun
p1992
F1.0
sVthe
p1993
F2.0
sVundergo
p1994
F1.0
sValternations
p1995
F1.0
sVT-FLOAT
p1996
F1.0
saa(lp1997
S'W03-0410181'
p1998
a(dp1999
Vall
p2000
F1.0
sVtask
p2001
F1.0
sVof
p2002
F1.0
sV-way
p2003
F1.0
sVincludes
p2004
F1.0
sVT-INT
p2005
F1.0
sVclasses
p2006
F1.0
sVour
p2007
F1.0
sVthe
p2008
F1.0
sVT-FLOAT
p2009
F1.0
saa(lp2010
S'W03-0410182'
p2011
a(dp2012
Vin
p2013
F1.0
sg37
F2.0
sVsecond
p2014
F1.0
sVexperiments
p2015
F1.0
sVtable
p2016
F1.0
sVour
p2017
F2.0
sVclustering
p2018
F1.0
sg243
F1.0
sg249
F1.0
sVdecision
p2019
F1.0
sVlearner
p2020
F1.0
sVsystem
p2021
F1.0
sVsame
p2022
F1.0
sVT-INT
p2023
F3.0
sVinduction
p2024
F1.0
sVaccuracy
p2025
F1.0
sVincludes
p2026
F1.0
sVverb
p2027
F1.0
sVthe
p2028
F4.0
sVon
p2029
F1.0
sg336
F1.0
sVcolumn
p2030
F1.0
sVof
p2031
F2.0
sVtree
p2032
F1.0
sVas
p2033
F1.0
sVsupervised
p2034
F1.0
sVsets
p2035
F1.0
sVT-FLOAT
p2036
F2.0
saa(lp2037
S'W03-0410233'
p2038
a(dp2039
Vstriking
p2040
F1.0
sVis
p2041
F1.0
sVresult
p2042
F1.0
sVanother
p2043
F1.0
sVin
p2044
F2.0
sVT-FLOAT
p2045
F1.0
sVfor
p2046
F2.0
sg243
F1.0
sg249
F1.0
sg37
F1.0
sVmuch
p2047
F2.0
sVwhich
p2048
F2.0
sVhigher
p2049
F2.0
sVfull
p2050
F1.0
sVvery
p2051
F1.0
sVling
p2052
F1.0
sVdifference
p2053
F1.0
sVthan
p2054
F2.0
sVthose
p2055
F1.0
sVturn
p2056
F1.0
sVvalues
p2057
F1.0
sVthe
p2058
F1.0
sVare
p2059
F2.0
saa(lp2060
S'W03-041088'
p2061
a(dp2062
Vbutter
p2063
F2.0
sV/the
p2064
F1.0
sVmelted
p2065
F2.0
sVcook
p2066
F1.0
sVthe
p2067
F2.0
sVT-FLOAT
p2068
F2.0
saa(lp2069
S'W03-041089'
p2070
a(dp2071
Vand
p2072
F1.0
sVall
p2073
F1.0
sVsemantic
p2074
F1.0
sVplayed
p2075
F2.0
sVsign
p2076
F1.0
sVas
p2077
F1.0
sVare
p2078
F1.0
sVdifferent
p2079
F1.0
sVT-INT
p2080
F1.0
sVtheir
p2081
F1.0
sV/the
p2082
F1.0
sg249
F1.0
sVthree
p2083
F1.0
sVto
p2084
F1.0
sVarguments
p2085
F1.0
sVsoccer
p2086
F1.0
sg37
F1.0
sVoptionally
p2087
F1.0
sVbut
p2088
F1.0
sVintransitive
p2089
F1.0
sVmerlo
p2090
F1.0
sVT-FLOAT
p2091
F3.0
sVboy
p2092
F2.0
sVroles
p2093
F1.0
sVthese
p2094
F1.0
sVstevenson
p2095
F1.0
sg243
F1.0
sVclasses
p2096
F1.0
sVthe
p2097
F1.0
saa(lp2098
S'W03-0410124'
p2099
a(dp2100
VT-INT
p2101
F2.0
sVT-FLOAT
p2102
F2.0
sVfeature
p2103
F1.0
sVextraction
p2104
F1.0
saa(lp2105
S'W03-0410125'
p2106
a(dp2107
Vall
p2108
F1.0
sVfeatures
p2109
F1.0
sVtext
p2110
F1.0
sVover
p2111
F2.0
sVspectrum
p2112
F1.0
sVnational
p2113
F1.0
sVcounts
p2114
F1.0
sVestimated
p2115
F1.0
sVfrom
p2116
F1.0
sg37
F1.0
sVT-INT
p2117
F1.0
sVsamples
p2118
F1.0
sVcorpus
p2119
F2.0
sVranging
p2120
F1.0
sVwere
p2121
F1.0
sVT-FLOAT
p2122
F1.0
sVrecent
p2123
F1.0
sg4
F2.0
sVwide
p2124
F1.0
sVword
p2125
F1.0
sVof
p2126
F3.0
sg772
F1.0
sVbritish
p2127
F2.0
sVenglish
p2128
F1.0
sVdomains
p2129
F1.0
sVthe
p2130
F1.0
saa(lp2131
S'W03-0410122'
p2132
a(dp2133
Vand
p2134
F1.0
sVcertain
p2135
F1.0
sVexperiments
p2136
F1.0
sVas
p2137
F1.0
sVseed
p2138
F2.0
sVhave
p2139
F1.0
sVin
p2140
F1.0
sVour
p2141
F1.0
sVsemi-supervised
p2142
F1.0
sVfill
p2143
F2.0
sg1860
F1.0
sVfor
p2144
F3.0
sVT-INT
p2145
F3.0
sg243
F2.0
sg249
F2.0
sg37
F2.0
sVwipe
p2146
F2.0
sVto
p2147
F2.0
sVverbs
p2148
F4.0
sVso
p2149
F1.0
sVinclude
p2150
F1.0
sVthen
p2151
F1.0
sVwe
p2152
F2.0
sVenable
p2153
F1.0
sVthat
p2154
F1.0
sVverb
p2155
F1.0
sVrepresentative
p2156
F1.0
sVT-FLOAT
p2157
F3.0
sg4
F1.0
sg753
F1.0
sVg
p2158
F1.0
sVof
p2159
F1.0
sVcould
p2160
F1.0
sVus
p2161
F1.0
sVclasses
p2162
F1.0
sVreplaced
p2163
F1.0
sVthe
p2164
F3.0
saa(lp2165
S'W03-0410123'
p2166
a(dp2167
Vall
p2168
F1.0
sVset
p2169
F1.0
sVexperiments
p2170
F2.0
sVincluding
p2171
F1.0
sVper
p2172
F1.0
sVour
p2173
F1.0
sg243
F1.0
sg249
F1.0
sVsame
p2174
F1.0
sVT-INT
p2175
F1.0
sVverbs
p2176
F1.0
sVfinal
p2177
F1.0
sVrun
p2178
F1.0
sVearlier
p2179
F1.0
sVhere
p2180
F1.0
sVreplication
p2181
F1.0
sVclass
p2182
F1.0
sg4
F1.0
sVon
p2183
F1.0
sVreported
p2184
F1.0
sVthis
p2185
F1.0
sVof
p2186
F2.0
sVsupervised
p2187
F1.0
sVwere
p2188
F1.0
sVT-FLOAT
p2189
F1.0
saa(lp2190
S'W03-0410120'
p2191
a(dp2192
Vand
p2193
F1.0
sVrandomly
p2194
F1.0
sVas
p2195
F1.0
sVexperiments
p2196
F1.0
sVin
p2197
F1.0
sVour
p2198
F1.0
sVuse
p2199
F1.0
sVfrom
p2200
F1.0
sVfor
p2201
F1.0
sVT-INT
p2202
F1.0
sVselected
p2203
F1.0
sg37
F1.0
sVto
p2204
F1.0
sVverbs
p2205
F1.0
sVeach
p2206
F1.0
sVjoanis
p2207
F1.0
sVdata
p2208
F1.0
sVclass
p2209
F1.0
sVtraining
p2210
F1.0
sVthese
p2211
F1.0
sVof
p2212
F1.0
sVstevenson
p2213
F1.0
sVsupervised
p2214
F1.0
sVwere
p2215
F1.0
sVT-FLOAT
p2216
F1.0
saa(lp2217
S'W03-0410121'
p2218
a(dp2219
Vwe
p2220
F1.0
sVset
p2221
F1.0
sVfor
p2222
F1.0
sVthis
p2223
F1.0
sVof
p2224
F1.0
sVbegan
p2225
F1.0
sVwork
p2226
F1.0
sVsame
p2227
F1.0
sVcurrent
p2228
F1.0
sVT-INT
p2229
F1.0
sVverbs
p2230
F1.0
sVper
p2231
F1.0
sVour
p2232
F1.0
sVT-FLOAT
p2233
F1.0
sVwith
p2234
F1.0
sVclass
p2235
F1.0
saa(lp2236
S'W03-041080'
p2237
a(dp2238
Von
p2239
F1.0
sVwagon/the
p2240
F1.0
sg869
F1.0
sVhay
p2241
F2.0
sVwagon
p2242
F1.0
sVloaded
p2243
F1.0
sVT-FLOAT
p2244
F2.0
sVwith
p2245
F1.0
sVthe
p2246
F1.0
saa(lp2247
S'W03-041081'
p2248
a(dp2249
g869
F1.0
sVT-FLOAT
p2250
F1.0
sVfilled
p2251
F1.0
saa(lp2252
S'W03-041082'
p2253
a(dp2254
Von
p2255
F1.0
sVwagon
p2256
F1.0
sVwagon/the
p2257
F1.0
sV*hay
p2258
F1.0
sVhay
p2259
F1.0
sVthe
p2260
F1.0
sVwith
p2261
F1.0
sVT-FLOAT
p2262
F1.0
saa(lp2263
S'W03-041083'
p2264
a(dp2265
Von
p2266
F1.0
sVwagon
p2267
F1.0
sg869
F1.0
sVhay
p2268
F2.0
sVwagon/*the
p2269
F1.0
sVput
p2270
F1.0
sVT-FLOAT
p2271
F2.0
sVwith
p2272
F1.0
sVthe
p2273
F1.0
saa(lp2274
S'W03-041084'
p2275
a(dp2276
Vdiffer
p2277
F1.0
sVsemantic
p2278
F1.0
sVroles
p2279
F1.0
sVthese
p2280
F1.0
sVT-FLOAT
p2281
F1.0
sValternants
p2282
F1.0
sVprepositional
p2283
F1.0
sVthree
p2284
F1.0
sVsame
p2285
F1.0
sValso
p2286
F1.0
sVclasses
p2287
F1.0
sVbut
p2288
F1.0
sVin
p2289
F1.0
sVthe
p2290
F1.0
sVassign
p2291
F1.0
saa(lp2292
S'W03-041085'
p2293
a(dp2294
Vspray/load
p2295
F1.0
sVfor
p2296
F1.0
sVthat
p2297
F1.0
sVof
p2298
F2.0
sg37
F2.0
sVoverlap
p2299
F1.0
sVhowever
p2300
F1.0
sVnote
p2301
F1.0
sVother
p2302
F1.0
sVverbs
p2303
F2.0
sVtwo
p2304
F1.0
sVT-FLOAT
p2305
F1.0
sVtypes
p2306
F1.0
sVthe
p2307
F2.0
sVwith
p2308
F1.0
sVoptions
p2309
F1.0
sVthose
p2310
F1.0
saa(lp2311
S'W03-0410128'
p2312
a(dp2313
Vand
p2314
F1.0
sVnoisier
p2315
F1.0
sVless
p2316
F1.0
sVframe
p2317
F1.0
sVtwo
p2318
F1.0
sVconstitute
p2319
F1.0
sVsimply
p2320
F1.0
sVare
p2321
F1.0
sVindirect
p2322
F1.0
sVeven
p2323
F1.0
sg243
F1.0
sg249
F1.0
sg37
F1.0
sVassuming
p2324
F1.0
sVconsecutive
p2325
F1.0
sVmethod
p2326
F1.0
sVobject
p2327
F1.0
sVthat
p2328
F1.0
sVafter
p2329
F1.0
sVsophisticated
p2330
F1.0
sVobjects
p2331
F1.0
sVby
p2332
F1.0
sVnps
p2333
F1.0
sg4
F2.0
sVdouble
p2334
F1.0
sVidentified
p2335
F1.0
sVT-FLOAT
p2336
F1.0
sVverb
p2337
F1.0
sVthe
p2338
F1.0
saa(lp2339
S'W03-041087'
p2340
a(dp2341
Vhorse
p2342
F2.0
sVjockey
p2343
F1.0
sVraced
p2344
F2.0
sV/the
p2345
F1.0
sVT-FLOAT
p2346
F2.0
sVthe
p2347
F2.0
saa(lp2348
S'W03-0410126'
p2349
a(dp2350
g4
F1.0
sVdo
p2351
F1.0
sVwe
p2352
F1.0
sVusage
p2353
F1.0
sVany
p2354
F1.0
sVT-FLOAT
p2355
F1.0
sVis
p2356
F1.0
sVsince
p2357
F1.0
sVoverall
p2358
F1.0
sVit
p2359
F1.0
sVgeneral
p2360
F1.0
sVverb
p2361
F1.0
sVbias
p2362
F1.0
sVexpect
p2363
F1.0
sVdomain
p2364
F1.0
sVin
p2365
F1.0
sVnot
p2366
F1.0
sVcorpus
p2367
F1.0
sVstrong
p2368
F1.0
sg37
F1.0
saa(lp2369
S'W03-0410127'
p2370
a(dp2371
Vand
p2372
F1.0
sVpartial
p2373
F1.0
sVparser
p2374
F1.0
sVdirect
p2375
F1.0
sVpps
p2376
F1.0
sVas
p2377
F2.0
sVassociated
p2378
F1.0
sVabney
p2379
F1.0
sVsubject
p2380
F1.0
sg243
F1.0
sg249
F1.0
sg37
F2.0
sVto
p2381
F1.0
sVpotentially
p2382
F1.0
sVwhich
p2383
F1.0
sVnp
p2384
F1.0
sVcorpus
p2385
F1.0
sVwe
p2386
F1.0
sVused
p2387
F1.0
sVobject
p2388
F1.0
sVit
p2389
F1.0
sVpreprocess
p2390
F1.0
sVverb
p2391
F1.0
sVwith
p2392
F1.0
sVT-FLOAT
p2393
F1.0
sg4
F1.0
sVdetermines
p2394
F1.0
sVof
p2395
F2.0
sVwell
p2396
F1.0
sVchunker
p2397
F1.0
sVthe
p2398
F4.0
saa(lp2399
S'W03-0410168'
p2400
a(dp2401
g4
F1.0
sVwe
p2402
F1.0
sVsilhouette
p2403
F1.0
sVclusters
p2404
F1.0
sVpoint
p2405
F1.0
sVof
p2406
F1.0
sVis
p2407
F1.0
sVmeasures
p2408
F1.0
sVuse
p2409
F1.0
sg37
F2.0
sVhow
p2410
F1.0
sVother
p2411
F1.0
sVdistant
p2412
F1.0
sVmatlab
p2413
F1.0
sVwhich
p2414
F1.0
sVmeasure
p2415
F1.0
sVfrom
p2416
F2.0
sVthe
p2417
F2.0
sVdata
p2418
F1.0
sVT-FLOAT
p2419
F1.0
sVmean
p2420
F1.0
saa(lp2421
S'W03-0410249'
p2422
a(dp2423
Vand
p2424
F1.0
sVset
p2425
F1.0
sVis
p2426
F1.0
sVas
p2427
F1.0
sVseed
p2428
F1.0
sVare
p2429
F1.0
sVlittle
p2430
F1.0
sg37
F1.0
sVsame
p2431
F1.0
sVabove
p2432
F1.0
sVwe
p2433
F1.0
sVthat
p2434
F2.0
sVbut
p2435
F1.0
sVreported
p2436
F1.0
sVT-FLOAT
p2437
F1.0
sg4
F1.0
sVlower
p2438
F1.0
sVof
p2439
F1.0
sVvalues
p2440
F1.0
sVfound
p2441
F1.0
sVthe
p2442
F3.0
sVmean
p2443
F2.0
saa(lp2444
S'W03-0410169'
p2445
a(dp2446
Vand
p2447
F2.0
sVown
p2448
F1.0
sVpoint
p2449
F2.0
sVis
p2450
F2.0
sVvary
p2451
F1.0
sVcluster
p2452
F3.0
sVlikely
p2453
F1.0
sVanother
p2454
F1.0
sVin
p2455
F1.0
sVclose
p2456
F1.0
sVits
p2457
F1.0
sVsilhouette
p2458
F1.0
sVT-INT
p2459
F4.0
sg243
F1.0
sg249
F1.0
sV+
p2460
F2.0
sg37
F2.0
sVto
p2461
F2.0
sVcentroid
p2462
F1.0
sVtherefore
p2463
F1.0
sVindicating
p2464
F2.0
sVthat
p2465
F2.0
sVvery
p2466
F1.0
sVwrong
p2467
F1.0
sVfrom
p2468
F1.0
sVwith
p2469
F1.0
sVT-FLOAT
p2470
F1.0
sVof
p2471
F1.0
sVnear
p2472
F1.0
sVvalues
p2473
F1.0
sVthe
p2474
F4.0
saa(lp2475
S'W03-0410243'
p2476
a(dp2477
Vand
p2478
F1.0
sVall
p2479
F1.0
sVclusterings
p2480
F1.0
sVover
p2481
F1.0
sVseed
p2482
F1.0
sVin
p2483
F1.0
sVfor
p2484
F1.0
sg243
F1.0
sg249
F1.0
sg37
F1.0
sVthan
p2485
F1.0
sVT-INT
p2486
F1.0
sVmuch
p2487
F1.0
sVlow
p2488
F1.0
sVwas
p2489
F2.0
sVcases
p2490
F1.0
sVextremely
p2491
F1.0
sVthe
p2492
F1.0
sVlower
p2493
F1.0
sVthese
p2494
F1.0
sVbelow
p2495
F1.0
sVsets
p2496
F1.0
sVT-FLOAT
p2497
F2.0
sVmean
p2498
F1.0
saa(lp2499
S'W03-0410242'
p2500
a(dp2501
g4
F1.0
sVfunction
p2502
F1.0
sVlinear
p2503
F1.0
sVsets
p2504
F1.0
sVsimple
p2505
F1.0
sg249
F1.0
sVis
p2506
F1.0
sVin
p2507
F1.0
sVnumber
p2508
F2.0
sVroughly
p2509
F1.0
sg243
F1.0
sVclasses
p2510
F1.0
sVT-FLOAT
p2511
F1.0
sVof
p2512
F2.0
sVthe
p2513
F3.0
sVseed
p2514
F1.0
sVapproximating
p2515
F1.0
sVfeatures
p2516
F1.0
saa(lp2517
S'W03-0410241'
p2518
a(dp2519
Vignored
p2520
F1.0
sVpresumably
p2521
F1.0
sVcaptures
p2522
F1.0
sVfeature
p2523
F1.0
sVas
p2524
F2.0
sVindividual
p2525
F1.0
sVare
p2526
F1.0
sVin
p2527
F1.0
sVinteractions
p2528
F1.0
sg37
F1.0
sVT-INT
p2529
F2.0
sVwhich
p2530
F1.0
sVmi
p2531
F1.0
sVmethod
p2532
F1.0
sVcalculations
p2533
F1.0
sVthat
p2534
F1.0
sVrunning
p2535
F1.0
sVimportant
p2536
F1.0
sVnot
p2537
F1.0
sVthe
p2538
F1.0
sg336
F1.0
sVthis
p2539
F1.0
sVwork
p2540
F1.0
sVwell
p2541
F1.0
sVdid
p2542
F1.0
sVT-FLOAT
p2543
F2.0
saa(lp2544
S'W03-0410240'
p2545
a(dp2546
Vand
p2547
F1.0
sVfeatures
p2548
F1.0
sVclassification
p2549
F1.0
sVcertain
p2550
F1.0
sg37
F1.0
sVseed
p2551
F1.0
sVthreshold
p2552
F1.0
sVrespect
p2553
F1.0
sVcomputed
p2554
F1.0
sVclusterings
p2555
F1.0
sVfeature
p2556
F1.0
sVto
p2557
F1.0
sVverbs
p2558
F1.0
sVabove
p2559
F1.0
sVwe
p2560
F1.0
sVusing
p2561
F1.0
sVwith
p2562
F1.0
sVT-FLOAT
p2563
F1.0
sg4
F1.0
sVof
p2564
F2.0
sVcalculated
p2565
F1.0
sVmi
p2566
F2.0
sVeach
p2567
F1.0
sVthe
p2568
F4.0
saa(lp2569
S'W03-0410247'
p2570
a(dp2571
Vsubset
p2572
F1.0
sVdo
p2573
F1.0
sVwe
p2574
F1.0
sVwould
p2575
F1.0
sVof
p2576
F1.0
sVwell
p2577
F1.0
sg37
F1.0
sValso
p2578
F1.0
sVas
p2579
F1.0
sVverbs
p2580
F1.0
sVask
p2581
F1.0
sVmight
p2582
F1.0
sVany
p2583
F1.0
sV?
p2584
F1.0
saa(lp2585
S'W03-0410246'
p2586
a(dp2587
Vand
p2588
F1.0
sVfeatures
p2589
F1.0
sVmanually
p2590
F1.0
sVis
p2591
F1.0
sVplausible
p2592
F1.0
sVas
p2593
F2.0
sVlinguistically
p2594
F1.0
sVour
p2595
F1.0
sVsemi-supervised
p2596
F1.0
sVfind
p2597
F1.0
sVbased
p2598
F1.0
sVknowledge
p2599
F1.0
sg37
F1.0
sVbetter
p2600
F1.0
sValso
p2601
F1.0
sVperforms
p2602
F1.0
sVlinguistic
p2603
F1.0
sVmethod
p2604
F1.0
sVwe
p2605
F1.0
sVthat
p2606
F1.0
sVthan
p2607
F1.0
sVon
p2608
F1.0
sVwell
p2609
F1.0
sVdetermined
p2610
F1.0
sVT-FLOAT
p2611
F1.0
sVor
p2612
F1.0
saa(lp2613
S'W03-0410245'
p2614
a(dp2615
Vand
p2616
F1.0
sVselection
p2617
F1.0
sVfeatures
p2618
F1.0
sVjust
p2619
F1.0
sVis
p2620
F1.0
sVnumber
p2621
F1.0
sg37
F2.0
sVappropriate
p2622
F1.0
sVT-FLOAT
p2623
F1.0
sVconfirms
p2624
F1.0
sVfor
p2625
F1.0
sVfeature
p2626
F1.0
sVdiscovery
p2627
F1.0
sVthat
p2628
F1.0
sVverb
p2629
F1.0
sVnot
p2630
F1.0
sVclass
p2631
F1.0
sg4
F1.0
sVtask
p2632
F1.0
sVthis
p2633
F1.0
sVof
p2634
F2.0
sVimportant
p2635
F1.0
sVsmall
p2636
F1.0
sVthe
p2637
F1.0
saa(lp2638
S'W03-0410244'
p2639
a(dp2640
Vwhat
p2641
F1.0
sVclassification
p2642
F1.0
sVthat
p2643
F1.0
sVvery
p2644
F1.0
sVdata
p2645
F1.0
sVinterestingly
p2646
F1.0
sVthere
p2647
F1.0
sVgenerally
p2648
F1.0
sg37
F3.0
sVbut
p2649
F1.0
sVhigh
p2650
F1.0
sVmatches
p2651
F1.0
sVstructure
p2652
F1.0
sVT-FLOAT
p2653
F1.0
sVin
p2654
F1.0
sVnot
p2655
F1.0
sVour
p2656
F1.0
sVthe
p2657
F1.0
sVwas
p2658
F1.0
sVis
p2659
F1.0
sVindicating
p2660
F1.0
saa(lp2661
S'W03-041017'
p2662
a(dp2663
Vand
p2664
F1.0
sVset
p2665
F1.0
sVfeatures
p2666
F1.0
sVclassification
p2667
F1.0
sVpreviously
p2668
F1.0
sVhave
p2669
F1.0
sVin
p2670
F1.0
sVshown
p2671
F1.0
sg243
F1.0
sVbroad
p2672
F1.0
sg37
F1.0
sVT-INT
p2673
F2.0
sVperforms
p2674
F1.0
sVwe
p2675
F1.0
sVthat
p2676
F1.0
sVverb
p2677
F1.0
sVjoanis
p2678
F1.0
sVnoisy
p2679
F1.0
sg4
F1.0
sVof
p2680
F1.0
sVstevenson
p2681
F1.0
sVwell
p2682
F1.0
sVsupervised
p2683
F1.0
sg249
F1.0
sVT-FLOAT
p2684
F1.0
saa(lp2685
S'W03-041016'
p2686
a(dp2687
Vaccurate
p2688
F1.0
sVprocessing
p2689
F1.0
sVnecessary
p2690
F1.0
sVconsider
p2691
F1.0
sVfor
p2692
F1.0
sVto
p2693
F1.0
sVof
p2694
F1.0
sVis
p2695
F1.0
sVlack
p2696
F1.0
sVit
p2697
F1.0
sVsophisticated
p2698
F1.0
sValso
p2699
F1.0
sVgrammars
p2700
F1.0
sVfeatures
p2701
F1.0
sVT-FLOAT
p2702
F1.0
sVtext
p2703
F1.0
sVthe
p2704
F1.0
sVextracting
p2705
F1.0
sVtools
p2706
F1.0
sVor
p2707
F1.0
sVprobable
p2708
F1.0
saa(lp2709
S'W03-041015'
p2710
a(dp2711
Vavailable
p2712
F1.0
sVmethods
p2713
F1.0
sVis
p2714
F1.0
sVsubstantial
p2715
F1.0
sVare
p2716
F2.0
sVif
p2717
F1.0
sVminimally
p2718
F1.0
sVfor
p2719
F2.0
sVamounts
p2720
F1.0
sg37
F1.0
sVclassifiers
p2721
F1.0
sVlanguages
p2722
F1.0
sVto
p2723
F1.0
sVverbs
p2724
F1.0
sVclassify
p2725
F1.0
sVdevelopment
p2726
F1.0
sVwe
p2727
F1.0
sVimportance
p2728
F1.0
sVlabelled
p2729
F1.0
sVparticular
p2730
F1.0
sVnot
p2731
F1.0
sVdata
p2732
F1.0
sVthan
p2733
F1.0
sVtraining
p2734
F1.0
sVof
p2735
F3.0
sVsupervised
p2736
F1.0
sVenglish
p2737
F1.0
sVT-FLOAT
p2738
F1.0
sVwhere
p2739
F1.0
sVother
p2740
F1.0
sVautomatically
p2741
F1.0
saa(lp2742
S'W03-041014'
p2743
a(dp2744
g4
F1.0
sVboth
p2745
F1.0
sVand
p2746
F1.0
sVresource
p2747
F1.0
sVcreating
p2748
F1.0
sVclassification
p2749
F1.0
sVof
p2750
F1.0
sVis
p2751
F1.0
sVrequired
p2752
F1.0
sVhowever
p2753
F1.0
sg37
F2.0
sVintensive
p2754
F1.0
sVverb
p2755
F1.0
sVexpertise
p2756
F1.0
sVtime
p2757
F1.0
sVin
p2758
F1.0
sVterms
p2759
F1.0
sVT-FLOAT
p2760
F1.0
sVhighly
p2761
F1.0
sVlinguistic
p2762
F1.0
saa(lp2763
S'W03-041013'
p2764
a(dp2765
Vcomputational
p2766
F1.0
sVal
p2767
F1.0
sVas
p2768
F2.0
sVlexicon
p2769
F1.0
sVin
p2770
F1.0
sVet
p2771
F1.0
sVorganizing
p2772
F1.0
sVverbs
p2773
F1.0
sVknowledge
p2774
F1.0
sVfor
p2775
F1.0
sg243
F1.0
sg249
F1.0
sg37
F2.0
sVT-INT
p2776
F1.0
sVcomplex
p2777
F1.0
sVmeans
p2778
F1.0
sVserve
p2779
F1.0
sVthey
p2780
F1.0
sVsuch
p2781
F1.0
sg4
F2.0
sVabout
p2782
F1.0
sVkipper
p2783
F1.0
sVT-FLOAT
p2784
F2.0
saa(lp2785
S'W03-041012'
p2786
a(dp2787
Vand
p2788
F1.0
sVset
p2789
F1.0
sVshare
p2790
F1.0
sVas
p2791
F1.0
sVframes
p2792
F1.0
sVgroup
p2793
F1.0
sVfor
p2794
F1.0
sVsyntactic
p2795
F1.0
sg243
F2.0
sg249
F2.0
sg37
F3.0
sVT-INT
p2796
F2.0
sVstate
p2797
F1.0
sVverbs
p2798
F1.0
sVsemantics
p2799
F1.0
sVexpressing
p2800
F1.0
sg100
F1.0
sVarguments
p2801
F1.0
sVpossession
p2802
F1.0
sVthat
p2803
F1.0
sVlevin
p2804
F1.0
sVverb
p2805
F1.0
sVsuch
p2806
F2.0
sVT-FLOAT
p2807
F1.0
sVchange
p2808
F1.0
sg4
F2.0
sVboth
p2809
F1.0
sVof
p2810
F4.0
sVtogether
p2811
F1.0
sVclasses
p2812
F1.0
sVcommon
p2813
F1.0
sVtransfer
p2814
F1.0
sVframenet
p2815
F1.0
sVthe
p2816
F2.0
sVor
p2817
F1.0
saa(lp2818
S'W03-041011'
p2819
a(dp2820
Vand
p2821
F2.0
sVsemantic
p2822
F1.0
sVmethods
p2823
F1.0
sVclassification
p2824
F1.0
sVfocus
p2825
F1.0
sVas
p2826
F1.0
sVim
p2827
F1.0
sVapplicability
p2828
F1.0
sVin
p2829
F1.0
sVto
p2830
F1.0
sg243
F1.0
sg249
F1.0
sVlexical
p2831
F1.0
sg37
F4.0
sVT-INT
p2832
F2.0
sVverbs
p2833
F1.0
sg100
F1.0
sVwe
p2834
F1.0
sVhere
p2835
F1.0
sVextending
p2836
F1.0
sVmerlo
p2837
F1.0
sVT-FLOAT
p2838
F1.0
sVschulte
p2839
F1.0
sVon
p2840
F1.0
sVunsupervised
p2841
F1.0
sVof
p2842
F2.0
sVstevenson
p2843
F1.0
sVwalde
p2844
F1.0
sVbrew
p2845
F1.0
sVthe
p2846
F2.0
saa(lp2847
S'W03-041010'
p2848
a(dp2849
Vand
p2850
F3.0
sVfiltering
p2851
F1.0
sVschmelzenbach
p2852
F1.0
sVhave
p2853
F2.0
sVwalde
p2854
F1.0
sVresults
p2855
F1.0
sVtended
p2856
F1.0
sVan
p2857
F1.0
sVas
p2858
F1.0
sVim
p2859
F1.0
sVhuman
p2860
F1.0
sVin
p2861
F1.0
sVsemi-supervised
p2862
F1.0
sVfeatures
p2863
F1.0
sVuse
p2864
F1.0
sVT-INT
p2865
F3.0
sg243
F3.0
sg249
F3.0
sg37
F7.0
sVbeen
p2866
F1.0
sVto
p2867
F1.0
sVextensive
p2868
F1.0
sVmore
p2869
F1.0
sVbe
p2870
F1.0
sVsuccessful
p2871
F1.0
sVbut
p2872
F1.0
sVrestrictive
p2873
F1.0
sVapproaches
p2874
F1.0
sVmerlo
p2875
F1.0
sVrelying
p2876
F1.0
sVhandselection
p2877
F1.0
sVschulte
p2878
F1.0
sVon
p2879
F3.0
sVgrammar
p2880
F1.0
sVunsupervised
p2881
F1.0
sVof
p2882
F3.0
sVstevenson
p2883
F1.0
sVwell
p2884
F1.0
sVT-FLOAT
p2885
F1.0
sVriloff
p2886
F1.0
sVbrew
p2887
F1.0
sVthe
p2888
F3.0
sVor
p2889
F2.0
saa(lp2890
S'W03-041019'
p2891
a(dp2892
Vand
p2893
F2.0
sVjones
p2894
F1.0
sVdorr
p2895
F1.0
sg243
F1.0
sVwalde
p2896
F1.0
sg37
F2.0
sVT-INT
p2897
F2.0
sVim
p2898
F1.0
sVbrew
p2899
F1.0
sg100
F1.0
sVT-FLOAT
p2900
F1.0
sVschulte
p2901
F1.0
saa(lp2902
S'W03-041018'
p2903
a(dp2904
Vand
p2905
F1.0
sVset
p2906
F1.0
sVfeatures
p2907
F2.0
sVmanually
p2908
F1.0
sVsuccessfully
p2909
F1.0
sVcf
p2910
F1.0
sVgeneral
p2911
F1.0
sVrelevant
p2912
F1.0
sVin
p2913
F1.0
sVneed
p2914
F1.0
sVclasses
p2915
F1.0
sVconfirmed
p2916
F1.0
sVfor
p2917
F2.0
sg249
F1.0
sg37
F2.0
sVto
p2918
F1.0
sVdistinguishing
p2919
F1.0
sVcontrast
p2920
F1.0
sVbe
p2921
F1.0
sVwe
p2922
F1.0
sVused
p2923
F1.0
sVthat
p2924
F1.0
sVparticular
p2925
F1.0
sVmerlo
p2926
F1.0
sVT-FLOAT
p2927
F1.0
sg4
F1.0
sVof
p2928
F1.0
sVstevenson
p2929
F1.0
sVwithout
p2930
F1.0
sVcan
p2931
F1.0
sVdetermining
p2932
F1.0
sVthe
p2933
F2.0
saa(lp2934
S'W03-041099'
p2935
a(dp2936
Vci
p2937
F1.0
sVen
p2938
F1.0
sVre
p2939
F1.0
sVT-INT
p2940
F4.0
sVt
p2941
F1.0
sVT-FLOAT
p2942
F1.0
sVpi
p2943
F1.0
saa(lp2944
S'W03-041098'
p2945
a(dp2946
VT-INT
p2947
F2.0
sVT-FLOAT
p2948
F1.0
sg37
F1.0
saa(lp2949
S'W03-041097'
p2950
a(dp2951
Vbe
p2952
F1.0
sg336
F1.0
sVb
p2953
F1.0
sVve
p2954
F3.0
sVcl
p2955
F1.0
sVss
p2956
F1.0
sV#
p2957
F1.0
sVla
p2958
F1.0
sg772
F1.0
sVas
p2959
F1.0
sVT-INT
p2960
F1.0
sg809
F1.0
sVne
p2961
F1.0
sVs
p2962
F1.0
sVfa
p2963
F1.0
sVu
p2964
F1.0
sVrb
p2965
F1.0
sVrbs
p2966
F1.0
sVT-FLOAT
p2967
F1.0
sVcti
p2968
F1.0
sVer
p2969
F1.0
saa(lp2970
S'W03-041096'
p2971
a(dp2972
Vpp
p2973
F1.0
sVuseful
p2974
F1.0
sVdefinitive
p2975
F1.0
sVnot
p2976
F1.0
sVof
p2977
F1.0
sVthus
p2978
F1.0
sVbut
p2979
F1.0
sVusage
p2980
F1.0
sVare
p2981
F1.0
sVindicators
p2982
F1.0
sVT-FLOAT
p2983
F1.0
saa(lp2984
S'W03-041095'
p2985
a(dp2986
Vuseful
p2987
F1.0
sVhighly
p2988
F1.0
sVlikely
p2989
F1.0
sVfrequency
p2990
F1.0
sVin
p2991
F1.0
sValternant
p2992
F1.0
sVrarely
p2993
F1.0
sVpp
p2994
F1.0
sVfurthermore
p2995
F1.0
sg37
F2.0
sVdistinguishing
p2996
F1.0
sVarguments
p2997
F1.0
sVbe
p2998
F1.0
sVused
p2999
F1.0
sVthat
p3000
F1.0
sVdiffer
p3001
F1.0
sVbut
p3002
F1.0
sVnot
p3003
F1.0
sg4
F1.0
sVwill
p3004
F1.0
sVso
p3005
F1.0
sVT-FLOAT
p3006
F1.0
saa(lp3007
S'W03-041094'
p3008
a(dp3009
Vadmired
p3010
F1.0
sVhonesty
p3011
F1.0
sVsimple
p3012
F1.0
sVmoney
p3013
F1.0
sVis
p3014
F1.0
sVargument
p3015
F1.0
sVin
p3016
F2.0
sVour
p3017
F1.0
sVamused
p3018
F1.0
sVtools
p3019
F1.0
sVpp
p3020
F2.0
sVfrom
p3021
F1.0
sVfor
p3022
F3.0
sg37
F2.0
sVadjunct
p3023
F1.0
sVextraction
p3024
F1.0
sVjane
p3025
F2.0
sVnot
p3026
F1.0
sVusing
p3027
F1.0
sVT-FLOAT
p3028
F1.0
sVher
p3029
F1.0
sg869
F2.0
sVexample
p3030
F1.0
sVthe
p3031
F3.0
sVdistinguished
p3032
F1.0
saa(lp3033
S'W03-041093'
p3034
a(dp3035
Vand
p3036
F1.0
sVfeatures
p3037
F1.0
sVgive
p3038
F1.0
sVhigh
p3039
F1.0
sVour
p3040
F1.0
sVadjuncts
p3041
F1.0
sVperfect
p3042
F1.0
sVpp
p3043
F1.0
sVknowledge
p3044
F1.0
sVsince
p3045
F1.0
sg37
F2.0
sVarguments
p3046
F1.0
sVaccuracy
p3047
F1.0
sVdo
p3048
F1.0
sVhowever
p3049
F1.0
sVnot
p3050
F2.0
sVsuch
p3051
F1.0
sVbe
p3052
F1.0
sVwith
p3053
F1.0
sVus
p3054
F1.0
sVcan
p3055
F1.0
sVT-FLOAT
p3056
F1.0
sVdistinguished
p3057
F1.0
saa(lp3058
S'W03-041092'
p3059
a(dp3060
Vand
p3061
F1.0
sVjones
p3062
F1.0
sVdorr
p3063
F1.0
sg243
F1.0
sg37
F1.0
sVT-INT
p3064
F1.0
sVT-FLOAT
p3065
F1.0
saa(lp3066
S'W03-041091'
p3067
a(dp3068
Vtasks
p3069
F1.0
sVclassification
p3070
F1.0
sVcf
p3071
F1.0
sVwhat
p3072
F1.0
sVtakes
p3073
F1.0
sVfor
p3074
F1.0
sVperform
p3075
F1.0
sg249
F1.0
sg37
F1.0
sVto
p3076
F1.0
sVarguments
p3077
F1.0
sVknowing
p3078
F1.0
sVbe
p3079
F1.0
sVmay
p3080
F1.0
sVsufficient
p3081
F1.0
sVexactly
p3082
F1.0
sVpp
p3083
F1.0
sVverb
p3084
F1.0
sVT-FLOAT
p3085
F1.0
sVmany
p3086
F1.0
sVeach
p3087
F1.0
sVthe
p3088
F1.0
saa(lp3089
S'W03-041090'
p3090
a(dp3091
g4
F1.0
sVdrop
p3092
F1.0
sVabove
p3093
F1.0
sVthat
p3094
F1.0
sg243
F1.0
sg249
F1.0
sVobject
p3095
F1.0
sVnote
p3096
F1.0
sVverbs
p3097
F1.0
sVare
p3098
F1.0
sVbenefactives
p3099
F1.0
sVof
p3100
F1.0
sVthe
p3101
F2.0
sVsuperset
p3102
F1.0
sVT-FLOAT
p3103
F1.0
saa(lp3104
S'W03-0410153'
p3105
a(dp3106
Vis
p3107
F1.0
sVrandom
p3108
F1.0
sVnumber
p3109
F1.0
sVscaled
p3110
F1.0
sVin
p3111
F1.0
sVperfect
p3112
F1.0
sg243
F1.0
sg249
F1.0
sVwhereas
p3113
F1.0
sVget
p3114
F1.0
sg37
F1.0
sVsame
p3115
F1.0
sVT-INT
p3116
F2.0
sVyields
p3117
F1.0
sVaround
p3118
F1.0
sVthat
p3119
F1.0
sVagreement
p3120
F1.0
sVit
p3121
F1.0
sVgroups
p3122
F1.0
sVwith
p3123
F1.0
sVT-FLOAT
p3124
F1.0
sVgroupings
p3125
F1.0
sg4
F2.0
sVof
p3126
F2.0
sVvalue
p3127
F2.0
sVso
p3128
F1.0
sVeach
p3129
F1.0
sVthe
p3130
F1.0
saa(lp3131
S'W03-0410214'
p3132
a(dp3133
Vand
p3134
F1.0
sVsome
p3135
F1.0
sVresults
p3136
F1.0
sVmethods
p3137
F1.0
sVusing
p3138
F1.0
sVvery
p3139
F1.0
sVmany
p3140
F1.0
sVwell
p3141
F1.0
sVfeature
p3142
F2.0
sg37
F1.0
sVfar
p3143
F1.0
sVother
p3144
F1.0
sVperformed
p3145
F1.0
sVsets
p3146
F1.0
sVselection
p3147
F1.0
sVour
p3148
F1.0
sVT-FLOAT
p3149
F1.0
sVoutperformed
p3150
F1.0
sVbest
p3151
F1.0
saa(lp3152
S'W03-0410151'
p3153
a(dp3154
Vrand
p3155
F1.0
sVadjusted
p3156
F1.0
sVgold
p3157
F1.0
sVconsistent
p3158
F1.0
sVrespect
p3159
F1.0
sVsecond
p3160
F1.0
sVim
p3161
F1.0
sVmeasure
p3162
F3.0
sVour
p3163
F1.0
sVT-FLOAT
p3164
F1.0
sVclustering
p3165
F1.0
sVgiven
p3166
F1.0
sVclassification
p3167
F1.0
sVto
p3168
F1.0
sg37
F2.0
sVhow
p3169
F1.0
sVinstead
p3170
F1.0
sVis
p3171
F1.0
sVgives
p3172
F1.0
sVused
p3173
F1.0
sVoverall
p3174
F1.0
sVstandard
p3175
F1.0
sVwith
p3176
F1.0
sVby
p3177
F1.0
sVschulte
p3178
F1.0
sg4
F1.0
sVof
p3179
F1.0
sVwalde
p3180
F1.0
sVthe
p3181
F3.0
saa(lp3182
S'W03-0410150'
p3183
a(dp3184
Vand
p3185
F1.0
sVrand
p3186
F1.0
sVadjusted
p3187
F1.0
sVhigh
p3188
F1.0
sVare
p3189
F2.0
sVmeasure
p3190
F1.0
sVrelatively
p3191
F1.0
sVclustering
p3192
F1.0
sVfor
p3193
F1.0
sVT-INT
p3194
F3.0
sVwhen
p3195
F1.0
sg37
F1.0
sVfew
p3196
F1.0
sVclusters
p3197
F1.0
sVaccuracy
p3198
F1.0
sVbe
p3199
F1.0
sVgood
p3200
F2.0
sVvery
p3201
F1.0
sVothers
p3202
F1.0
sVnot
p3203
F1.0
sg4
F2.0
sVcan
p3204
F1.0
sVT-FLOAT
p3205
F3.0
saa(lp3206
S'W03-0410157'
p3207
a(dp3208
Vand
p3209
F1.0
sVgold
p3210
F1.0
sVan
p3211
F1.0
sVindividual
p3212
F1.0
sVgoodness
p3213
F2.0
sVmeasure
p3214
F1.0
sVrespect
p3215
F1.0
sVsilhouette
p3216
F1.0
sVT-INT
p3217
F3.0
sg37
F2.0
sVto
p3218
F1.0
sVclusters
p3219
F1.0
sVgives
p3220
F1.0
sVoverall
p3221
F1.0
sVstandard
p3222
F1.0
sVwith
p3223
F1.0
sVthe
p3224
F4.0
sg4
F1.0
sVboth
p3225
F1.0
sVof
p3226
F3.0
sVaverage
p3227
F1.0
sVclasses
p3228
F1.0
sVT-FLOAT
p3229
F3.0
sVmean
p3230
F1.0
saa(lp3231
S'W03-0410156'
p3232
a(dp3233
Vdifferent
p3234
F1.0
sVfrom
p3235
F1.0
sVclusterings
p3236
F1.0
sVsets
p3237
F1.0
sVness
p3238
F1.0
sg37
F1.0
sVcomparing
p3239
F1.0
sVin
p3240
F1.0
sVfeature
p3241
F1.0
sVT-FLOAT
p3242
F1.0
sVarising
p3243
F1.0
saa(lp3244
S'W03-0410155'
p3245
a(dp3246
g4
F1.0
sVuseful
p3247
F1.0
sVof
p3248
F1.0
sVis
p3249
F1.0
sVit
p3250
F1.0
sVhowever
p3251
F1.0
sVrelative
p3252
F1.0
sVas
p3253
F1.0
sVgoodT-FLOAT
p3254
F1.0
sVmeasure
p3255
F1.0
sg37
F1.0
saa(lp3256
S'W03-0410215'
p3257
a(dp3258
Vtasks
p3259
F1.0
sVconsistent
p3260
F1.0
sg37
F2.0
sVset
p3261
F1.0
sVour
p3262
F1.0
sVno
p3263
F1.0
sVthere
p3264
F1.0
sVfeature
p3265
F2.0
sVT-INT
p3266
F1.0
sVperformance
p3267
F1.0
sVwas
p3268
F2.0
sVacross
p3269
F1.0
sVgood
p3270
F1.0
sVthat
p3271
F1.0
sVhowever
p3272
F1.0
sVwith
p3273
F1.0
sVcorrelated
p3274
F1.0
sVsizes
p3275
F1.0
sVranks
p3276
F1.0
sVof
p3277
F1.0
sVrange
p3278
F1.0
sVT-FLOAT
p3279
F1.0
sVor
p3280
F1.0
sVexperimental
p3281
F1.0
saa(lp3282
S'W03-0410166'
p3283
a(dp3284
g243
F1.0
sg249
F1.0
sVbetter
p3285
F1.0
sVT-INT
p3286
F2.0
sVvs
p3287
F1.0
sVseparation
p3288
F1.0
sVof
p3289
F1.0
sVthe
p3290
F3.0
sVdata
p3291
F1.0
sVT-FLOAT
p3292
F4.0
sVreflects
p3293
F1.0
sVhigher
p3294
F1.0
saa(lp3295
S'W03-0410159'
p3296
a(dp3297
Vwe
p3298
F1.0
sVnumber
p3299
F2.0
sVinformative
p3300
F1.0
sVremains
p3301
F1.0
sVof
p3302
F2.0
sVfix
p3303
F1.0
sVsince
p3304
F1.0
sVmeasure
p3305
F1.0
sVhowever
p3306
F1.0
sg37
F2.0
sVto
p3307
F1.0
sVclasses
p3308
F1.0
sVclusters
p3309
F1.0
sVour
p3310
F1.0
sVthe
p3311
F2.0
sVT-FLOAT
p3312
F1.0
saa(lp3313
S'W03-0410158'
p3314
a(dp3315
Vmeasure
p3316
F1.0
sVnumber
p3317
F2.0
sVan
p3318
F1.0
sVpurely
p3319
F1.0
sVgoodness
p3320
F1.0
sVin
p3321
F1.0
sVour
p3322
F1.0
sVto
p3323
F1.0
sg37
F1.0
sVtheir
p3324
F1.0
sVverbs
p3325
F1.0
sVclusters
p3326
F2.0
sVfinal
p3327
F1.0
sVgives
p3328
F1.0
sVterms
p3329
F1.0
sVoverall
p3330
F1.0
sVseparation
p3331
F1.0
sVdata
p3332
F1.0
sVT-FLOAT
p3333
F1.0
sVof
p3334
F6.0
sVequal
p3335
F1.0
sVwithout
p3336
F1.0
sVindication
p3337
F1.0
sVthe
p3338
F4.0
saa(lp3339
S'W03-0410216'
p3340
a(dp3341
Vit
p3342
F1.0
sVgeneral
p3343
F1.0
sVinconsistent
p3344
F1.0
sVhave
p3345
F2.0
sVin
p3346
F1.0
sVthreshold
p3347
F1.0
sVour
p3348
F1.0
sVconsidering
p3349
F1.0
sVlittle
p3350
F1.0
sVwould
p3351
F2.0
sVdata
p3352
F1.0
sVselected
p3353
F1.0
sg37
F2.0
sVmight
p3354
F1.0
sVwe
p3355
F2.0
sVthat
p3356
F2.0
sVconfidence
p3357
F1.0
sVresults
p3358
F1.0
sVwith
p3359
F1.0
sVT-FLOAT
p3360
F1.0
sg4
F1.0
sVof
p3361
F1.0
sVcould
p3362
F1.0
sVwork
p3363
F2.0
sVwell
p3364
F2.0
sVwhile
p3365
F1.0
sVpattern
p3366
F1.0
sVthe
p3367
F1.0
sVreasonably
p3368
F1.0
saa(lp3369
S'W03-0410167'
p3370
a(dp3371
Vtarget
p3372
F1.0
sVregard
p3373
F1.0
sVto
p3374
F1.0
sVclasses
p3375
F1.0
sVthe
p3376
F1.0
sVT-FLOAT
p3377
F1.0
saa(lp3378
S'W03-0410258'
p3379
a(dp3380
Vnoisier
p3381
F1.0
sVfeatures
p3382
F1.0
sVnumber
p3383
F1.0
sg37
F2.0
sVare
p3384
F1.0
sVbeyond
p3385
F1.0
sVsize
p3386
F1.0
sVcapture
p3387
F1.0
sg243
F1.0
sg249
F1.0
sVdue
p3388
F2.0
sVto
p3389
F2.0
sVours
p3390
F1.0
sVbe
p3391
F1.0
sVsubcat
p3392
F1.0
sVinformation
p3393
F1.0
sVmay
p3394
F1.0
sVdifferences
p3395
F1.0
sVbut
p3396
F1.0
sVperformance
p3397
F1.0
sVT-FLOAT
p3398
F1.0
sVtypes
p3399
F1.0
sVof
p3400
F2.0
sVclasses
p3401
F1.0
sVthe
p3402
F2.0
sVor
p3403
F2.0
saa(lp3404
S'W03-0410217'
p3405
a(dp3406
VT-INT
p3407
F2.0
sVT-FLOAT
p3408
F2.0
sVselection
p3409
F1.0
sVsemi-supervised
p3410
F1.0
sVfeature
p3411
F1.0
saa(lp3412
S'W03-0410250'
p3413
a(dp3414
Vsubset
p3415
F1.0
sVset
p3416
F1.0
sVconclude
p3417
F1.0
sVsome
p3418
F1.0
sVappropriate
p3419
F1.0
sVseed
p3420
F1.0
sVare
p3421
F1.0
sVyes
p3422
F1.0
sVany
p3423
F1.0
sg37
F3.0
sVthan
p3424
F1.0
sVbetter
p3425
F1.0
sVverbs
p3426
F1.0
sVtentatively
p3427
F1.0
sVbe
p3428
F1.0
sVwe
p3429
F1.0
sVthat
p3430
F1.0
sVmay
p3431
F1.0
sVsufficient
p3432
F1.0
sValthough
p3433
F1.0
sVothers
p3434
F1.0
sVclass
p3435
F1.0
sg4
F1.0
sVof
p3436
F2.0
sVas
p3437
F1.0
sVT-FLOAT
p3438
F1.0
sVsets
p3439
F1.0
sVthe
p3440
F1.0
saa(lp3441
S'W03-0410251'
p3442
a(dp3443
Vprecise
p3444
F1.0
sVselection
p3445
F1.0
sVis
p3446
F2.0
sVit
p3447
F1.0
sVas
p3448
F1.0
sVset
p3449
F1.0
sVour
p3450
F1.0
sVsemi-supervised
p3451
F1.0
sVfor
p3452
F1.0
sVcrucial
p3453
F1.0
sg37
F1.0
sVto
p3454
F1.0
sVverbs
p3455
F1.0
sVapproach
p3456
F1.0
sVmethod
p3457
F1.0
sVshows
p3458
F1.0
sVthat
p3459
F1.0
sVnot
p3460
F1.0
sVT-FLOAT
p3461
F1.0
sg4
F1.0
sVsuccess
p3462
F1.0
sVthis
p3463
F1.0
sVof
p3464
F3.0
sVseed
p3465
F1.0
sVpromising
p3466
F1.0
sVthe
p3467
F3.0
saa(lp3468
S'W03-0410252'
p3469
a(dp3470
Vand
p3471
F1.0
sVclassification
p3472
F1.0
sVachieved
p3473
F1.0
sVmeasure
p3474
F1.0
sVas
p3475
F1.0
sVin
p3476
F1.0
sVclose
p3477
F1.0
sVclustering
p3478
F1.0
sVtheir
p3479
F1.0
sg37
F1.0
sVsame
p3480
F1.0
sVto
p3481
F1.0
sVperformance
p3482
F1.0
sVthat
p3483
F1.0
sVvery
p3484
F1.0
sVours
p3485
F1.0
sVusing
p3486
F1.0
sVmerlo
p3487
F1.0
sVT-FLOAT
p3488
F1.0
sVof
p3489
F1.0
sVstevenson
p3490
F1.0
sVsupervised
p3491
F1.0
sVthe
p3492
F1.0
saa(lp3493
S'W03-0410129'
p3494
a(dp3495
Vfeatures
p3496
F1.0
sVexperiments
p3497
F1.0
sVlearning
p3498
F1.0
sVin
p3499
F1.0
sVour
p3500
F1.0
sVcounts
p3501
F1.0
sVslots
p3502
F1.0
sVmachine
p3503
F1.0
sVfrom
p3504
F1.0
sVcalculate
p3505
F1.0
sVfor
p3506
F1.0
sVextracted
p3507
F1.0
sVsection
p3508
F1.0
sg37
F3.0
sVforms
p3509
F1.0
sVT-INT
p3510
F2.0
sVwhich
p3511
F1.0
sVinput
p3512
F1.0
sVwe
p3513
F1.0
sVto
p3514
F1.0
sVverb
p3515
F1.0
sVnormalized
p3516
F1.0
sVdescribed
p3517
F1.0
sVT-FLOAT
p3518
F1.0
sg4
F1.0
sVthese
p3519
F1.0
sVof
p3520
F1.0
sVyielding
p3521
F1.0
sVvector
p3522
F1.0
sVeach
p3523
F1.0
sVthe
p3524
F2.0
saa(lp3525
S'W03-0410254'
p3526
a(dp3527
Vset
p3528
F1.0
sVuseful
p3529
F1.0
sVis
p3530
F1.0
sVarise
p3531
F1.0
sVgeneralization
p3532
F1.0
sg37
F2.0
sVin
p3533
F3.0
sVour
p3534
F1.0
sVT-FLOAT
p3535
F1.0
sVtheir
p3536
F1.0
sVnecessarily
p3537
F1.0
sVspace
p3538
F1.0
sVfeature
p3539
F2.0
sVresearch
p3540
F1.0
sVto
p3541
F1.0
sVacross
p3542
F1.0
sVbe
p3543
F1.0
sVwe
p3544
F1.0
sVthat
p3545
F1.0
sVenglish
p3546
F1.0
sVbut
p3547
F1.0
sVscaling
p3548
F1.0
sVverb
p3549
F1.0
sVnot
p3550
F1.0
sVgeneral
p3551
F1.0
sVproblem
p3552
F1.0
sg4
F2.0
sVdimensionality
p3553
F1.0
sVessentially
p3554
F1.0
sVdid
p3555
F1.0
sVof
p3556
F1.0
sVup
p3557
F1.0
sVface
p3558
F1.0
sVclasses
p3559
F1.0
sVtheirs
p3560
F1.0
sVthe
p3561
F1.0
saa(lp3562
S'W03-0410255'
p3563
a(dp3564
Vand
p3565
F2.0
sVset
p3566
F1.0
sVuseful
p3567
F1.0
sVfeatures
p3568
F1.0
sVnumber
p3569
F1.0
sVas
p3570
F1.0
sVim
p3571
F2.0
sVin
p3572
F1.0
sVour
p3573
F1.0
sVwork
p3574
F1.0
sVuse
p3575
F1.0
sVfor
p3576
F1.0
sVbroad
p3577
F1.0
sg37
F3.0
sVto
p3578
F1.0
sVother
p3579
F1.0
sVbe
p3580
F1.0
sVintended
p3581
F1.0
sVhand
p3582
F1.0
sVT-FLOAT
p3583
F1.0
sVschulte
p3584
F2.0
sg4
F2.0
sVon
p3585
F1.0
sVof
p3586
F2.0
sVlarger
p3587
F1.0
sVwalde
p3588
F2.0
sVclasses
p3589
F1.0
sVbrew
p3590
F1.0
sVthe
p3591
F1.0
saa(lp3592
S'W03-0410256'
p3593
a(dp3594
g4
F1.0
sVall
p3595
F1.0
sVtasks
p3596
F1.0
sVfrom
p3597
F2.0
sVto
p3598
F2.0
sVof
p3599
F2.0
sVwalde
p3600
F1.0
sg37
F2.0
sVwhile
p3601
F1.0
sVT-INT
p3602
F5.0
sVrange
p3603
F2.0
sVim
p3604
F1.0
sVscores
p3605
F1.0
sVours
p3606
F1.0
sVthe
p3607
F1.0
sVmean
p3608
F1.0
sVwith
p3609
F1.0
sVT-FLOAT
p3610
F6.0
sVacross
p3611
F1.0
sVschulte
p3612
F1.0
saa(lp3613
S'W03-0410211'
p3614
a(dp3615
Vset
p3616
F1.0
sVfeatures
p3617
F1.0
sVdevise
p3618
F1.0
sVmeasure
p3619
F1.0
sVrank
p3620
F1.0
sVan
p3621
F2.0
sVorganize
p3622
F1.0
sVentropy
p3623
F1.0
sVin
p3624
F1.0
sVability
p3625
F1.0
sVbased
p3626
F1.0
sVspace
p3627
F1.0
sg37
F1.0
sVtheir
p3628
F1.0
sVmethod
p3629
F1.0
sVto
p3630
F3.0
sVpropose
p3631
F1.0
sVthey
p3632
F1.0
sVdata
p3633
F1.0
sVT-FLOAT
p3634
F1.0
sg4
F1.0
sVon
p3635
F1.0
sVunsupervised
p3636
F1.0
sVof
p3637
F1.0
sVaccording
p3638
F1.0
sVthe
p3639
F1.0
saa(lp3640
S'W03-0410212'
p3641
a(dp3642
Vunfortunately
p3643
F1.0
sVfor
p3644
F1.0
sVprove
p3645
F1.0
sVthis
p3646
F1.0
sg37
F1.0
sVpractical
p3647
F1.0
sVdid
p3648
F1.0
sVpromising
p3649
F1.0
sVnot
p3650
F1.0
sVour
p3651
F1.0
sVT-FLOAT
p3652
F1.0
sVdata
p3653
F1.0
sVmethod
p3654
F1.0
saa(lp3655
S'W03-0410213'
p3656
a(dp3657
Vset
p3658
F3.0
sVfeatures
p3659
F1.0
sVproposed
p3660
F1.0
sVmeasure
p3661
F1.0
sVnumber
p3662
F2.0
sVrank
p3663
F1.0
sg37
F1.0
sVexperiments
p3664
F1.0
sVentropy
p3665
F1.0
sVperformed
p3666
F1.0
sVin
p3667
F2.0
sVdiffers
p3668
F1.0
sVtotal
p3669
F1.0
sVsize
p3670
F2.0
sVhighest
p3671
F1.0
sVfrom
p3672
F2.0
sVT-INT
p3673
F1.0
sVaddition
p3674
F1.0
sg249
F1.0
sVfeature
p3675
F2.0
sVnext
p3676
F1.0
sVto
p3677
F2.0
sVwhich
p3678
F1.0
sVperformance
p3679
F1.0
sVwe
p3680
F2.0
sVtested
p3681
F1.0
sVcardinality
p3682
F1.0
sVwith
p3683
F1.0
sVT-FLOAT
p3684
F1.0
sg4
F1.0
sVof
p3685
F6.0
sVaccording
p3686
F1.0
sg243
F1.0
sVeach
p3687
F2.0
sVthe
p3688
F6.0
sVwhere
p3689
F1.0
saa(lp3690
S'W03-041062'
p3691
a(dp3692
Vadmire
p3693
F1.0
sVversus
p3694
F1.0
sVamuse
p3695
F1.0
sVverbs
p3696
F1.0
sVT-FLOAT
p3697
F1.0
saa(lp3698
S'W03-041063'
p3699
a(dp3700
g869
F1.0
sVadmire
p3701
F1.0
sVT-FLOAT
p3702
F1.0
sVjane
p3703
F1.0
saa(lp3704
S'W03-041060'
p3705
a(dp3706
Vand
p3707
F1.0
sVdiffer
p3708
F1.0
sVsemantic
p3709
F1.0
sVpreposition
p3710
F1.0
sVthese
p3711
F1.0
sVof
p3712
F1.0
sValternation
p3713
F1.0
sVobject
p3714
F1.0
sVdative
p3715
F1.0
sVverbs
p3716
F1.0
sVrole
p3717
F1.0
sVT-FLOAT
p3718
F1.0
sVin
p3719
F1.0
sVthe
p3720
F2.0
sVits
p3721
F1.0
saa(lp3722
S'W03-041061'
p3723
a(dp3724
Vreasons
p3725
F1.0
sVresults
p3726
F1.0
sVgeneral
p3727
F1.0
sVas
p3728
F2.0
sVpractical
p3729
F1.0
sVfrom
p3730
F1.0
sVT-INT
p3731
F1.0
sVfor
p3732
F2.0
sValso
p3733
F1.0
sg37
F2.0
sVto
p3734
F1.0
sVverbs
p3735
F1.0
sVtoo
p3736
F1.0
sVneither
p3737
F1.0
sVmore
p3738
F1.0
sVbe
p3739
F1.0
sVdraw
p3740
F1.0
sVmostly
p3741
F1.0
sVT-FLOAT
p3742
F1.0
sVnor
p3743
F1.0
sVinfrequent
p3744
F1.0
sVcould
p3745
F1.0
sVconclusions
p3746
F1.0
sVwell
p3747
F1.0
sVus
p3748
F1.0
sVenabling
p3749
F1.0
sVclasses
p3750
F1.0
sVcontain
p3751
F1.0
sVsmall
p3752
F1.0
sVthe
p3753
F2.0
saa(lp3754
S'W03-041066'
p3755
a(dp3756
V/*the
p3757
F1.0
sVkids
p3758
F2.0
sVroom
p3759
F2.0
sVran
p3760
F2.0
sVin
p3761
F1.0
sVT-FLOAT
p3762
F2.0
sVwith
p3763
F1.0
sVthe
p3764
F2.0
saa(lp3765
S'W03-041067'
p3766
a(dp3767
Vagent
p3768
F1.0
sVan
p3769
F1.0
sVhave
p3770
F1.0
sVin
p3771
F4.0
sVbirds
p3772
F2.0
sVsubject
p3773
F1.0
sVdiffer
p3774
F1.0
sV/the
p3775
F1.0
sVprepositional
p3776
F1.0
sg37
F1.0
sVverbs
p3777
F1.0
sValternations
p3778
F1.0
sVbut
p3779
F1.0
sVtrees
p3780
F2.0
sVthey
p3781
F1.0
sVwith
p3782
F1.0
sVT-FLOAT
p3783
F3.0
sVboth
p3784
F1.0
sVthese
p3785
F1.0
sVsang
p3786
F2.0
sVallow
p3787
F1.0
sVactivity
p3788
F1.0
sVthe
p3789
F4.0
sVtransitive
p3790
F1.0
saa(lp3791
S'W03-041064'
p3792
a(dp3793
Vand
p3794
F1.0
sVis
p3795
F1.0
sVargument
p3796
F1.0
sVpsychological
p3797
F1.0
sVin
p3798
F1.0
sVsubject
p3799
F1.0
sVdiffer
p3800
F1.0
sg37
F1.0
sVstate
p3801
F1.0
sVverbs
p3802
F3.0
sVjane
p3803
F1.0
sVthat
p3804
F1.0
sVobject
p3805
F1.0
sVexperiencer
p3806
F1.0
sVthe
p3807
F3.0
sVme
p3808
F1.0
sVthese
p3809
F1.0
sVof
p3810
F2.0
sVamuse
p3811
F1.0
sVadmire
p3812
F1.0
sVamuses
p3813
F1.0
sVT-FLOAT
p3814
F2.0
saa(lp3815
S'W03-041065'
p3816
a(dp3817
Vversus
p3818
F1.0
sVsound
p3819
F1.0
sVrun
p3820
F1.0
sVemission
p3821
F1.0
sVverbs
p3822
F1.0
sVT-FLOAT
p3823
F1.0
saa(lp3824
S'W03-041068'
p3825
a(dp3826
Vversus
p3827
F1.0
sVand
p3828
F1.0
sVcheat
p3829
F1.0
sVremove
p3830
F1.0
sVverbs
p3831
F1.0
sVT-FLOAT
p3832
F1.0
sVsteal
p3833
F1.0
saa(lp3834
S'W03-041069'
p3835
a(dp3836
g869
F1.0
sVT-FLOAT
p3837
F1.0
sVcheated
p3838
F1.0
saa(lp3839
S'W03-0410140'
p3840
a(dp3841
VT-INT
p3842
F2.0
sVT-FLOAT
p3843
F2.0
sVmeasures
p3844
F1.0
sVevaluation
p3845
F1.0
saa(lp3846
S'W03-0410141'
p3847
a(dp3848
Vwe
p3849
F1.0
sVtap
p3850
F1.0
sVclusterings
p3851
F1.0
sVseparate
p3852
F1.0
sVvery
p3853
F1.0
sVof
p3854
F1.0
sVinto
p3855
F1.0
sVmeasures
p3856
F1.0
sVuse
p3857
F1.0
sVthree
p3858
F1.0
sVT-FLOAT
p3859
F1.0
sVthat
p3860
F1.0
sVproperties
p3861
F1.0
sVthe
p3862
F1.0
sVevaluation
p3863
F1.0
sg37
F1.0
sVdifferent
p3864
F1.0
saa(lp3865
S'W03-0410142'
p3866
a(dp3867
Vthe
p3868
F2.0
sVwe
p3869
F1.0
sVmajority
p3870
F1.0
sVcluster
p3871
F1.0
sVof
p3872
F2.0
sVclass
p3873
F1.0
sVT-INT
p3874
F3.0
sVcan
p3875
F1.0
sVmembers
p3876
F1.0
sVeach
p3877
F1.0
sVT-FLOAT
p3878
F3.0
sVlabel
p3879
F1.0
sVits
p3880
F1.0
sVassign
p3881
F1.0
sVaccuracy
p3882
F1.0
saa(lp3883
S'W03-0410143'
p3884
a(dp3885
Vand
p3886
F1.0
sVall
p3887
F1.0
sVconsider
p3888
F1.0
sVbe
p3889
F1.0
sVis
p3890
F3.0
sVassigned
p3891
F1.0
sVcluster
p3892
F1.0
sVin
p3893
F1.0
sV=clusterlabel
p3894
F1.0
sVT-FLOAT
p3895
F1.0
sVif
p3896
F1.0
sVfor
p3897
F1.0
sg243
F4.0
sg249
F4.0
sg37
F2.0
sVlabel
p3898
F1.0
sVto
p3899
F2.0
sVverbs
p3900
F1.0
sVcorrectly
p3901
F1.0
sVthen
p3902
F1.0
sVclusterlabel
p3903
F1.0
sVwhich
p3904
F1.0
sVclass
p3905
F3.0
sVactual
p3906
F1.0
sVof
p3907
F1.0
sVclassified
p3908
F1.0
sVplaced
p3909
F1.0
sVthe
p3910
F3.0
sVwhere
p3911
F1.0
saa(lp3912
S'W03-0410144'
p3913
a(dp3914
Vsize
p3915
F1.0
sVthen
p3916
F1.0
sg37
F1.0
sg213
F1.0
sVto
p3917
F2.0
sVdefinition
p3918
F1.0
sVof
p3919
F1.0
sVis
p3920
F1.0
sVaccording
p3921
F1.0
sVprecision
p3922
F1.0
sVstandard
p3923
F1.0
sVcluster
p3924
F1.0
sVT-INT
p3925
F2.0
sVweighted
p3926
F2.0
sVT-FLOAT
p3927
F1.0
sVmean
p3928
F1.0
sVclusters
p3929
F1.0
sVthe
p3930
F3.0
sVhas
p3931
F1.0
sVequivalent
p3932
F1.0
sVaccuracy
p3933
F1.0
saa(lp3934
S'W03-0410146'
p3935
a(dp3936
VT-INT
p3937
F1.0
sVof
p3938
F1.0
sVis
p3939
F1.0
sg37
F2.0
sVmaximum
p3940
F1.0
sVcourse
p3941
F1.0
sVT-FLOAT
p3942
F1.0
sVthe
p3943
F1.0
sVtheoretical
p3944
F1.0
saa(lp3945
S'W03-0410147'
p3946
a(dp3947
Vand
p3948
F1.0
sVtasks
p3949
F1.0
sVclusterings
p3950
F1.0
sVrandom
p3951
F2.0
sVnumber
p3952
F1.0
sVas
p3953
F1.0
sVin
p3954
F1.0
sVour
p3955
F1.0
sVcalculate
p3956
F1.0
sVto
p3957
F1.0
sg37
F2.0
sVsame
p3958
F1.0
sVT-INT
p3959
F2.0
sVverbs
p3960
F1.0
sVwe
p3961
F1.0
sVwith
p3962
F1.0
sVT-FLOAT
p3963
F1.0
sVbaseline
p3964
F1.0
sg4
F1.0
sVof
p3965
F2.0
sVevaluated
p3966
F1.0
sVclasses
p3967
F1.0
sVeach
p3968
F1.0
sVthe
p3969
F1.0
sVexperimental
p3970
F1.0
saa(lp3971
S'W03-0410148'
p3972
a(dp3973
Vprecise
p3974
F1.0
sVupper
p3975
F1.0
sVbecause
p3976
F1.0
sVachieved
p3977
F1.0
sVover
p3978
F1.0
sVbound
p3979
F1.0
sVan
p3980
F1.0
sVdepends
p3981
F1.0
sVbest
p3982
F1.0
sVsize
p3983
F1.0
sVbaseline
p3984
F1.0
sg243
F2.0
sg249
F2.0
sg37
F3.0
sVconservative
p3985
F1.0
sVclusters
p3986
F2.0
sVwe
p3987
F1.0
sVestimate
p3988
F1.0
sVwith
p3989
F1.0
sVT-FLOAT
p3990
F3.0
sg4
F1.0
sVon
p3991
F1.0
sg753
F1.0
sVscenario
p3992
F1.0
sg869
F1.0
sVof
p3993
F2.0
sVcalculated
p3994
F1.0
sVyielding
p3995
F1.0
sVequal-sized
p3996
F1.0
sVthe
p3997
F4.0
sVmean
p3998
F1.0
saa(lp3999
S'W03-0410149'
p4000
a(dp4001
VT-INT
p4002
F1.0
sVthese
p4003
F1.0
sVtable
p4004
F1.0
sVresults
p4005
F1.0
sVreported
p4006
F1.0
sVbelow
p4007
F1.0
sVfigures
p4008
F1.0
sVare
p4009
F1.0
sVin
p4010
F1.0
sVour
p4011
F1.0
sVT-FLOAT
p4012
F1.0
sVwith
p4013
F1.0
saa(lp4014
S'W03-0410271'
p4015
a(dp4016
Vis
p4017
F1.0
sVit
p4018
F1.0
sVsingle
p4019
F1.0
sVin
p4020
F1.0
sVT-FLOAT
p4021
F1.0
sVways
p4022
F1.0
sVlearner
p4023
F1.0
sg37
F3.0
sVproperties
p4024
F1.0
sVto
p4025
F1.0
sVother
p4026
F1.0
sVtoo
p4027
F1.0
sVhas
p4028
F1.0
sVdifficult
p4029
F1.0
sVmultiple
p4030
F1.0
sVclass
p4031
F1.0
sVhowever
p4032
F1.0
sVfocus
p4033
F1.0
sVimportant
p4034
F1.0
sVdistinguish
p4035
F1.0
sVthan
p4036
F1.0
sg4
F1.0
sVon
p4037
F1.0
sg213
F1.0
sVof
p4038
F1.0
sVrather
p4039
F1.0
sVclasses
p4040
F1.0
sVthe
p4041
F2.0
saa(lp4042
S'W03-0410269'
p4043
a(dp4044
Vclustering
p4045
F1.0
sVwe
p4046
F1.0
sVapproach
p4047
F1.0
sVfurthermore
p4048
F1.0
sVof
p4049
F1.0
sVquestion
p4050
F1.0
sg37
F2.0
sVverb
p4051
F1.0
sVitself
p4052
F1.0
sVT-FLOAT
p4053
F1.0
sVcontext
p4054
F1.0
sVin
p4055
F1.0
sVthe
p4056
F2.0
sVmight
p4057
F1.0
sVclass
p4058
F1.0
sVdiscovery
p4059
F1.0
saa(lp4060
S'W03-0410268'
p4061
a(dp4062
Vset
p4063
F1.0
sVuseful
p4064
F1.0
sVmethods
p4065
F1.0
sVis
p4066
F1.0
sVgeneral
p4067
F1.0
sVas
p4068
F2.0
sVT-FLOAT
p4069
F1.0
sVfeatures
p4070
F1.0
sVclustering
p4071
F1.0
sVfor
p4072
F2.0
sVspace
p4073
F1.0
sVfeature
p4074
F1.0
sVresearch
p4075
F1.0
sVneeded
p4076
F1.0
sVmore
p4077
F2.0
sVdefinition
p4078
F1.0
sVselecting
p4079
F1.0
sg37
F1.0
sg4
F1.0
sVon
p4080
F2.0
sVof
p4081
F2.0
sVwell
p4082
F1.0
sVthe
p4083
F3.0
saa(lp4084
S'W03-0410265'
p4085
a(dp4086
Vand
p4087
F1.0
sVall
p4088
F1.0
sVset
p4089
F1.0
sVfeatures
p4090
F1.0
sVmanually
p4091
F1.0
sVthree
p4092
F1.0
sVour
p4093
F1.0
sVclustering
p4094
F1.0
sVselected
p4095
F1.0
sVfeature
p4096
F1.0
sVevaluation
p4097
F1.0
sVwe
p4098
F1.0
sVfull
p4099
F1.0
sVthat
p4100
F1.0
sVoutperformed
p4101
F1.0
sVmetrics
p4102
F1.0
sVon
p4103
F1.0
sVT-FLOAT
p4104
F1.0
sVboth
p4105
F1.0
sVshowed
p4106
F1.0
sVthis
p4107
F1.0
sVof
p4108
F2.0
sVsets
p4109
F1.0
sVthe
p4110
F2.0
saa(lp4111
S'W03-0410264'
p4112
a(dp4113
Vset
p4114
F1.0
sVuseful
p4115
F1.0
sVfeatures
p4116
F1.0
sVproposed
p4117
F1.0
sVis
p4118
F1.0
sVseed
p4119
F1.0
sVare
p4120
F1.0
sVin
p4121
F2.0
sVsemi-supervised
p4122
F1.0
sVclustering
p4123
F1.0
sVuse
p4124
F1.0
sVfrom
p4125
F1.0
sVfor
p4126
F2.0
sVchosen
p4127
F1.0
sg37
F1.0
sVextracted
p4128
F1.0
sVverbs
p4129
F1.0
sVwhich
p4130
F2.0
sVinstead
p4131
F1.0
sVmethod
p4132
F1.0
sVwe
p4133
F1.0
sVT-FLOAT
p4134
F1.0
sg4
F3.0
sVtraining
p4135
F1.0
sVof
p4136
F1.0
sVsupervised
p4137
F1.0
sVthe
p4138
F1.0
sVclassifier
p4139
F1.0
saa(lp4140
S'W03-0410267'
p4141
a(dp4142
g4
F1.0
sVset
p4143
F1.0
sVfeatures
p4144
F1.0
sVsuccessful
p4145
F1.0
sVof
p4146
F2.0
sVis
p4147
F1.0
sVlearner
p4148
F1.0
sg37
F1.0
sVit
p4149
F1.0
sVas
p4150
F2.0
sVseed
p4151
F1.0
sVsupervised
p4152
F1.0
sVdoes
p4153
F1.0
sVnot
p4154
F1.0
sVour
p4155
F1.0
sVthe
p4156
F1.0
sVstill
p4157
F1.0
sVT-FLOAT
p4158
F1.0
sVachieve
p4159
F1.0
sVaccuracy
p4160
F1.0
saa(lp4161
S'W03-0410266'
p4162
a(dp4163
Vprecise
p4164
F1.0
sVselected
p4165
F1.0
sVinsensitive
p4166
F1.0
sVof
p4167
F1.0
sVfurthermore
p4168
F1.0
sVmakeup
p4169
F1.0
sg37
F1.0
sVset
p4170
F1.0
sVmethod
p4171
F1.0
sVto
p4172
F1.0
sVseed
p4173
F1.0
sVT-FLOAT
p4174
F1.0
sVthe
p4175
F3.0
sVis
p4176
F1.0
sVrelatively
p4177
F1.0
saa(lp4178
S'W03-0410261'
p4179
a(dp4180
Vand
p4181
F1.0
sg4
F1.0
sVwe
p4182
F1.0
sVselection
p4183
F1.0
sVmethods
p4184
F1.0
sVsemisupervised
p4185
F1.0
sVunsupervised
p4186
F1.0
sVmanual
p4187
F1.0
sg37
F2.0
sVfor
p4188
F2.0
sVverb
p4189
F1.0
sVexplored
p4190
F1.0
sVhave
p4191
F1.0
sVin
p4192
F1.0
sVfeature
p4193
F1.0
sVT-FLOAT
p4194
F1.0
sVdiscovery
p4195
F1.0
sVapproach
p4196
F1.0
sVclass
p4197
F1.0
sVclustering
p4198
F1.0
saa(lp4199
S'W03-0410260'
p4200
a(dp4201
g4
F1.0
sVclustering
p4202
F1.0
sVfor
p4203
F1.0
sVthese
p4204
F1.0
sVof
p4205
F1.0
sVis
p4206
F1.0
sVquestion
p4207
F1.0
sVit
p4208
F1.0
sVresearch
p4209
F1.0
sVto
p4210
F1.0
sVexplore
p4211
F1.0
sVfuture
p4212
F1.0
sVT-FLOAT
p4213
F1.0
sVin
p4214
F1.0
sVeffect
p4215
F1.0
sVperformance
p4216
F1.0
sVthe
p4217
F1.0
sVvariables
p4218
F1.0
saa(lp4219
S'W03-0410263'
p4220
a(dp4221
Vbecause
p4222
F1.0
sVuseful
p4223
F1.0
sVinclusion
p4224
F1.0
sVconsistent
p4225
F1.0
sVal
p4226
F1.0
sVan
p4227
F1.0
sVdash
p4228
F1.0
sVthreshold
p4229
F1.0
sVet
p4230
F1.0
sVfor
p4231
F1.0
sVprove
p4232
F1.0
sg243
F1.0
sg249
F1.0
sg37
F2.0
sVT-INT
p4233
F1.0
sVmethod
p4234
F1.0
sVwe
p4235
F1.0
sVtried
p4236
F1.0
sVproblem
p4237
F1.0
sVnot
p4238
F1.0
sVfeature
p4239
F1.0
sVT-FLOAT
p4240
F2.0
sVunsupervised
p4241
F1.0
sVdid
p4242
F1.0
sVof
p4243
F2.0
sVno
p4244
F1.0
sVthe
p4245
F1.0
sVhaving
p4246
F1.0
saa(lp4247
S'W03-0410262'
p4248
a(dp4249
Vsubset
p4250
F1.0
sVselection
p4251
F2.0
sVfeatures
p4252
F2.0
sVclassification
p4253
F1.0
sVfeature
p4254
F1.0
sVset
p4255
F1.0
sVin
p4256
F1.0
sVour
p4257
F1.0
sVT-FLOAT
p4258
F1.0
sVfind
p4259
F1.0
sVbased
p4260
F1.0
sg37
F1.0
sVbetter
p4261
F1.0
sVpotential
p4262
F1.0
sVperforms
p4263
F1.0
sVwe
p4264
F1.0
sVfull
p4265
F1.0
sVthat
p4266
F1.0
sVdemonstrating
p4267
F1.0
sVknown
p4268
F1.0
sVusing
p4269
F1.0
sVthan
p4270
F1.0
sVnoisy
p4271
F1.0
sg4
F2.0
sVon
p4272
F1.0
sVtask
p4273
F1.0
sVof
p4274
F4.0
sVmanual
p4275
F1.0
sVbenefit
p4276
F1.0
sVthe
p4277
F2.0
saa(lp4278
S'W03-041071'
p4279
a(dp4280
g869
F1.0
sVT-FLOAT
p4281
F1.0
sVstole
p4282
F1.0
saa(lp4283
S'W03-041070'
p4284
a(dp4285
Vfrom
p4286
F1.0
sVher
p4287
F1.0
sVof
p4288
F1.0
sVmoney/*the
p4289
F1.0
sVmoney
p4290
F1.0
sVjane
p4291
F2.0
sVT-FLOAT
p4292
F1.0
saa(lp4293
S'W03-041073'
p4294
a(dp4295
Vdiffer
p4296
F1.0
sVsemantic
p4297
F1.0
sVtheir
p4298
F1.0
sVthese
p4299
F1.0
sVprepositional
p4300
F1.0
sValternants
p4301
F1.0
sVbut
p4302
F1.0
sg37
F1.0
sVsame
p4303
F1.0
sValso
p4304
F1.0
sVclasses
p4305
F1.0
sVarguments
p4306
F1.0
sVT-FLOAT
p4307
F1.0
sVin
p4308
F1.0
sVthe
p4309
F1.0
sVassign
p4310
F1.0
saa(lp4311
S'W03-041072'
p4312
a(dp4313
Vfrom
p4314
F1.0
sVher
p4315
F1.0
sVof
p4316
F1.0
sV*jane
p4317
F1.0
sVmoney
p4318
F1.0
sVjane
p4319
F1.0
sVT-FLOAT
p4320
F1.0
sVmoney/the
p4321
F1.0
saa(lp4322
S'W03-041075'
p4323
a(dp4324
Vfrom
p4325
F1.0
sVwipe
p4326
F1.0
sVdust
p4327
F1.0
sVtable
p4328
F1.0
sVdust/the
p4329
F1.0
sVtable/the
p4330
F1.0
sVthe
p4331
F2.0
sVT-FLOAT
p4332
F2.0
saa(lp4333
S'W03-041074'
p4334
a(dp4335
Vversus
p4336
F1.0
sVand
p4337
F1.0
sVremove
p4338
F1.0
sVverbs
p4339
F1.0
sVT-FLOAT
p4340
F1.0
sVsteal
p4341
F1.0
sVwipe
p4342
F1.0
saa(lp4343
S'W03-041077'
p4344
a(dp4345
Vdiffer
p4346
F1.0
sVsemantic
p4347
F1.0
sVsyntactic
p4348
F1.0
sVthese
p4349
F1.0
sVassignment
p4350
F1.0
sVgenerally
p4351
F1.0
sg37
F1.0
sVsame
p4352
F1.0
sVpossible
p4353
F1.0
sVclasses
p4354
F1.0
sVrole
p4355
F1.0
sVbut
p4356
F1.0
sVallow
p4357
F1.0
sVin
p4358
F1.0
sVframes
p4359
F1.0
sVthe
p4360
F2.0
sVT-FLOAT
p4361
F1.0
saa(lp4362
S'W03-041076'
p4363
a(dp4364
Vbank/*the
p4365
F1.0
sVfrom
p4366
F1.0
sVmoney/the
p4367
F1.0
sVmoney
p4368
F1.0
sVT-FLOAT
p4369
F2.0
sVsteal
p4370
F1.0
sVthe
p4371
F2.0
sVbank
p4372
F1.0
saa(lp4373
S'W03-041079'
p4374
a(dp4375
Vversus
p4376
F2.0
sVverbs
p4377
F1.0
sg243
F1.0
sVof
p4378
F1.0
sVclasses
p4379
F1.0
sVrelated
p4380
F1.0
sVlevin
p4381
F1.0
sVspray/load
p4382
F1.0
sVother
p4383
F1.0
sVputting
p4384
F1.0
sg249
F1.0
sVT-FLOAT
p4385
F1.0
sVseveral
p4386
F1.0
sVfill
p4387
F1.0
saa(lp4388
S'W03-041078'
p4389
a(dp4390
Vand
p4391
F1.0
sVbe
p4392
F1.0
sVshown
p4393
F1.0
sg243
F1.0
sg249
F1.0
sVobject
p4394
F1.0
sVremove
p4395
F1.0
sVdirect
p4396
F1.0
sVbut
p4397
F1.0
sg37
F1.0
sVT-FLOAT
p4398
F1.0
sVas
p4399
F1.0
sVverbs
p4400
F2.0
sVlocation
p4401
F1.0
sVof
p4402
F2.0
sVnot
p4403
F1.0
sVthe
p4404
F1.0
sVsteal
p4405
F1.0
sVwipe
p4406
F1.0
sVcan
p4407
F1.0
saa(lp4408
S'W03-0410175'
p4409
a(dp4410
Vand
p4411
F1.0
sVset
p4412
F1.0
sVseed
p4413
F1.0
sVfor
p4414
F2.0
sg243
F1.0
sg249
F1.0
sg37
F2.0
sVbetter
p4415
F1.0
sVT-INT
p4416
F1.0
sVmuch
p4417
F1.0
sVhas
p4418
F1.0
sVindicating
p4419
F1.0
sVhigher
p4420
F1.0
sVbut
p4421
F1.0
sVseparation
p4422
F1.0
sVdata
p4423
F1.0
sVT-FLOAT
p4424
F2.0
sg4
F2.0
sVlower
p4425
F1.0
sVof
p4426
F1.0
sVvalue
p4427
F1.0
sVvalues
p4428
F1.0
sVthe
p4429
F2.0
sVslightly
p4430
F1.0
saa(lp4431
S'W03-0410174'
p4432
a(dp4433
Vand
p4434
F1.0
sVset
p4435
F1.0
sVdendrograms
p4436
F1.0
sVfigure
p4437
F1.0
sVfrom
p4438
F1.0
sVtwo
p4439
F2.0
sVseed
p4440
F1.0
sVin
p4441
F1.0
sVdifferent
p4442
F1.0
sVdescribed
p4443
F1.0
sVfor
p4444
F2.0
sg243
F1.0
sg249
F1.0
sVsection
p4445
F1.0
sg37
F2.0
sVsame
p4446
F1.0
sVT-INT
p4447
F2.0
sVverbs
p4448
F1.0
sVshows
p4449
F1.0
sVling
p4450
F1.0
sVusing
p4451
F1.0
sVT-FLOAT
p4452
F1.0
sVof
p4453
F1.0
sVclasses
p4454
F1.0
sVsets
p4455
F1.0
sVthe
p4456
F1.0
sVexample
p4457
F1.0
sVfeature
p4458
F1.0
saa(lp4459
S'W03-0410177'
p4460
a(dp4461
Vand
p4462
F1.0
sVclassification
p4463
F1.0
sVbe
p4464
F1.0
sVis
p4465
F1.0
sVhigh
p4466
F1.0
sVare
p4467
F1.0
sVmeasure
p4468
F1.0
sVwhen
p4469
F1.0
sg37
F2.0
sVother
p4470
F1.0
sVlow
p4471
F1.0
sVversa
p4472
F1.0
sVindependent
p4473
F1.0
sVdependent
p4474
F1.0
sVmeasures
p4475
F1.0
sVtrue
p4476
F1.0
sVthe
p4477
F3.0
sVvice
p4478
F1.0
sVof
p4479
F1.0
sVcould
p4480
F1.0
sVT-FLOAT
p4481
F1.0
sVor
p4482
F1.0
saa(lp4483
S'W03-0410176'
p4484
a(dp4485
Vand
p4486
F1.0
sVcaptures
p4487
F1.0
sVis
p4488
F1.0
sVreflected
p4489
F1.0
sVtwo
p4490
F1.0
sVconnect
p4491
F2.0
sVin
p4492
F3.0
sVwhat
p4493
F1.0
sg37
F2.0
sVverbs
p4494
F1.0
sVlow
p4495
F1.0
sVclusters
p4496
F1.0
sVmain
p4497
F1.0
sVdendrogram
p4498
F1.0
sVthat
p4499
F1.0
sVvery
p4500
F1.0
sVtree
p4501
F1.0
sVT-FLOAT
p4502
F1.0
sVshort
p4503
F1.0
sVlonger
p4504
F1.0
sVthis
p4505
F1.0
sVlines
p4506
F2.0
sVthe
p4507
F3.0
saa(lp4508
S'W03-0410171'
p4509
a(dp4510
Vall
p4511
F1.0
sVin
p4512
F1.0
sVobtain
p4513
F1.0
sVan
p4514
F1.0
sVare
p4515
F1.0
sVmeasure
p4516
F1.0
sVclustering
p4517
F1.0
sVsilhouette
p4518
F1.0
sVcalculate
p4519
F1.0
sVto
p4520
F1.0
sVhow
p4521
F1.0
sVclusters
p4522
F1.0
sVseparated
p4523
F1.0
sVwe
p4524
F1.0
sVoverall
p4525
F1.0
sVthe
p4526
F2.0
sg4
F1.0
sVof
p4527
F2.0
sVwell
p4528
F1.0
sVpoints
p4529
F1.0
sVT-FLOAT
p4530
F1.0
sVmean
p4531
F1.0
saa(lp4532
S'W03-0410170'
p4533
a(dp4534
g4
F3.0
sVparticular
p4535
F1.0
sVT-INT
p4536
F1.0
sVthat
p4537
F1.0
sVof
p4538
F1.0
sVis
p4539
F1.0
sVpoint
p4540
F1.0
sVvalue
p4541
F1.0
sVcluster
p4542
F1.0
sVsuggests
p4543
F1.0
sVin
p4544
F1.0
sVnot
p4545
F1.0
sVT-FLOAT
p4546
F1.0
sVclearly
p4547
F1.0
saa(lp4548
S'W03-0410173'
p4549
a(dp4550
Vand
p4551
F1.0
sVsimilarity
p4552
F1.0
sVlines
p4553
F1.0
sVis
p4554
F1.0
sVsubclusters
p4555
F1.0
sVare
p4556
F1.0
sVcloser
p4557
F1.0
sVwhose
p4558
F2.0
sVlengths
p4559
F1.0
sg249
F1.0
sg37
F2.0
sVshorter
p4560
F1.0
sVindicate
p4561
F2.0
sVdendrogram
p4562
F1.0
sVbranch
p4563
F1.0
sVclusters
p4564
F1.0
sg100
F1.0
sVvertical
p4565
F1.0
sVdiagram
p4566
F1.0
sVdata
p4567
F1.0
sVT-FLOAT
p4568
F1.0
sg4
F2.0
sVof
p4569
F1.0
sVleaves
p4570
F1.0
sVtree
p4571
F1.0
sVroughly
p4572
F1.0
sg243
F1.0
sVpoints
p4573
F1.0
sVthe
p4574
F1.0
saa(lp4575
S'W03-0410179'
p4576
a(dp4577
VT-FLOAT
p4578
F1.0
sValternations
p4579
F1.0
saa(lp4580
S'W03-0410178'
p4581
a(dp4582
Vand
p4583
F1.0
sVbeing
p4584
F1.0
sVit
p4585
F1.0
sVindicates
p4586
F1.0
sVin
p4587
F1.0
sVquality
p4588
F1.0
sVclustering
p4589
F2.0
sVinformation
p4590
F1.0
sVpatterns
p4591
F1.0
sVdata
p4592
F1.0
sg37
F3.0
sVother
p4593
F1.0
sVsuggesting
p4594
F1.0
sVclusters
p4595
F1.0
sg213
F1.0
sVhigher
p4596
F1.0
sVseparated
p4597
F1.0
sVmeasures
p4598
F1.0
sVhowever
p4599
F1.0
sVimportant
p4600
F1.0
sVwith
p4601
F1.0
sVT-FLOAT
p4602
F1.0
sVtighter
p4603
F1.0
sg4
F3.0
sVabout
p4604
F1.0
sVof
p4605
F1.0
sVstronger
p4606
F1.0
sVequal
p4607
F1.0
sVvalue
p4608
F1.0
sVmore
p4609
F1.0
sVinherent
p4610
F1.0
sVthe
p4611
F3.0
sVgives
p4612
F1.0
saa(lp4613
S'W03-0410272'
p4614
a(dp4615
Vand
p4616
F1.0
sVmethods
p4617
F1.0
sVis
p4618
F1.0
sVappropriate
p4619
F1.0
sVin
p4620
F1.0
sVour
p4621
F1.0
sVT-FLOAT
p4622
F1.0
sVissues
p4623
F1.0
sg37
F1.0
sVnext
p4624
F1.0
sVto
p4625
F2.0
sVverbs
p4626
F1.0
sVnew
p4627
F1.0
sVstep
p4628
F1.0
sVproblem
p4629
F1.0
sg4
F1.0
sVlanguage
p4630
F1.0
sVthese
p4631
F1.0
sVof
p4632
F1.0
sVexplore
p4633
F1.0
sVpractical
p4634
F1.0
sVinvestigate
p4635
F1.0
sVthe
p4636
F1.0
sVother
p4637
F1.0
sVgrouping
p4638
F1.0
saa(lp4639
S'W03-0410273'
p4640
a(dp4641
Vand
p4642
F1.0
sVindebted
p4643
F1.0
sVwe
p4644
F1.0
sVhelpful
p4645
F1.0
sVfor
p4646
F1.0
sVsuggestions
p4647
F1.0
sVallan
p4648
F1.0
sVto
p4649
F1.0
sVjepson
p4650
F1.0
sVdiscussions
p4651
F1.0
sVT-FLOAT
p4652
F1.0
sVare
p4653
F1.0
saa(lp4654
S'W03-0410248'
p4655
a(dp4656
Vthis
p4657
F1.0
sVwe
p4658
F1.0
sVfor
p4659
F1.0
sVT-INT
p4660
F1.0
sVran
p4661
F1.0
sVselected
p4662
F1.0
sg37
F1.0
sVdifferent
p4663
F1.0
sVrandomly
p4664
F1.0
sVto
p4665
F1.0
sVeach
p4666
F1.0
sVexperiments
p4667
F1.0
sVverb
p4668
F1.0
sVanswer
p4669
F1.0
sVusing
p4670
F1.0
sVT-FLOAT
p4671
F1.0
sVsets
p4672
F1.0
sVseed
p4673
F1.0
sVclass
p4674
F1.0
saa(lp4675
S'W03-0410274'
p4676
a(dp4677
Vcanada
p4678
F1.0
sVand
p4679
F1.0
sVwe
p4680
F1.0
sVfinancial
p4681
F1.0
sVacknowledge
p4682
F1.0
sVof
p4683
F2.0
sVsupport
p4684
F1.0
sVbell
p4685
F1.0
sVnserc
p4686
F1.0
sVlabs
p4687
F1.0
sVgratefully
p4688
F1.0
sVT-FLOAT
p4689
F1.0
sVthe
p4690
F1.0
sVuniversity
p4691
F1.0
saa(lp4692
S'W03-041044'
p4693
a(dp4694
g4
F1.0
sVthese
p4695
F1.0
sVof
p4696
F2.0
sVvary
p4697
F1.0
sVaccording
p4698
F1.0
sVclass
p4699
F1.0
sVto
p4700
F1.0
sVexpressions
p4701
F1.0
sVverb
p4702
F1.0
sVarguments
p4703
F1.0
sVT-FLOAT
p4704
F1.0
sVin
p4705
F1.0
sVallowable
p4706
F1.0
sValternations
p4707
F1.0
sVthe
p4708
F2.0
saa(lp4709
S'W03-041046'
p4710
a(dp4711
Vand
p4712
F4.0
sVfeatures
p4713
F2.0
sVaspect
p4714
F2.0
sVin
p4715
F1.0
sVinteracts
p4716
F1.0
sVways
p4717
F1.0
sg249
F2.0
sg37
F8.0
sVT-INT
p4718
F3.0
sVtherefore
p4719
F1.0
sg100
F1.0
sVmembership
p4720
F1.0
sVverb
p4721
F1.0
sVtense
p4722
F2.0
sVmerlo
p4723
F1.0
sVwith
p4724
F1.0
sVclass
p4725
F1.0
sVlevin
p4726
F1.0
sVstevenson
p4727
F1.0
sVmeaning
p4728
F1.0
sg243
F2.0
sVinteresting
p4729
F1.0
sVT-FLOAT
p4730
F1.0
sVvoice
p4731
F2.0
saa(lp4732
S'W03-041047'
p4733
a(dp4734
Vand
p4735
F2.0
sVpartial
p4736
F1.0
sVoften
p4737
F1.0
sVauxiliaries
p4738
F1.0
sVpos
p4739
F1.0
sVindicates
p4740
F1.0
sVadverbs
p4741
F1.0
sVare
p4742
F1.0
sVin
p4743
F1.0
sVcounts
p4744
F1.0
sVto
p4745
F1.0
sg243
F2.0
sg249
F2.0
sg37
F4.0
sValso
p4746
F1.0
sVwhich
p4747
F2.0
sVindicators
p4748
F1.0
sVinclude
p4749
F1.0
sVwe
p4750
F1.0
sVverb
p4751
F1.0
sVtense
p4752
F1.0
sVthese
p4753
F1.0
sVof
p4754
F2.0
sVfactors
p4755
F1.0
sVmodals
p4756
F1.0
sVaddition
p4757
F1.0
sVpassive/active
p4758
F1.0
sVT-FLOAT
p4759
F1.0
sVvoice
p4760
F1.0
saa(lp4761
S'W03-041040'
p4762
a(dp4763
Vand
p4764
F2.0
sVset
p4765
F1.0
sVfeatures
p4766
F3.0
sVover
p4767
F1.0
sVdirect
p4768
F1.0
sVone
p4769
F1.0
sVpreposition
p4770
F1.0
sVas
p4771
F1.0
sVfrequency
p4772
F1.0
sVframes
p4773
F1.0
sVindirect
p4774
F1.0
sVslots
p4775
F2.0
sVsubject
p4776
F1.0
sVfor
p4777
F1.0
sVsyntactic
p4778
F3.0
sg243
F2.0
sg249
F2.0
sVprepositional
p4779
F1.0
sg37
F3.0
sVT-INT
p4780
F1.0
sVwhich
p4781
F1.0
sVindexed
p4782
F1.0
sVallowable
p4783
F1.0
sVto
p4784
F1.0
sVobject
p4785
F1.0
sVserve
p4786
F1.0
sVencodes
p4787
F1.0
sVverb
p4788
F2.0
sVwith
p4789
F1.0
sVby
p4790
F1.0
sVoccurring
p4791
F1.0
sg4
F2.0
sVcollectively
p4792
F1.0
sVof
p4793
F2.0
sVapproximations
p4794
F1.0
sVT-FLOAT
p4795
F1.0
sVrough
p4796
F1.0
sVphrases
p4797
F1.0
sVthe
p4798
F3.0
saa(lp4799
S'W03-041041'
p4800
a(dp4801
Vand
p4802
F1.0
sVthere
p4803
F2.0
sVappeared
p4804
F1.0
sVcertain
p4805
F1.0
sVframe
p4806
F1.0
sVit
p4807
F2.0
sVas
p4808
F1.0
sVare
p4809
F1.0
sVin
p4810
F2.0
sVship
p4811
F1.0
sVslots
p4812
F1.0
sVfor
p4813
F1.0
sVsyntactic
p4814
F1.0
sg243
F1.0
sg249
F1.0
sVsince
p4815
F1.0
sg37
F2.0
sValso
p4816
F1.0
sg4
F2.0
sVwe
p4817
F1.0
sVelements
p4818
F1.0
sVspecifications
p4819
F1.0
sVpart
p4820
F1.0
sVT-FLOAT
p4821
F1.0
sVcount
p4822
F1.0
sVthese
p4823
F1.0
sVof
p4824
F1.0
sVrains
p4825
F1.0
sVverb
p4826
F1.0
sVthe
p4827
F1.0
sVfixed
p4828
F1.0
sVor
p4829
F1.0
saa(lp4830
S'W03-041042'
p4831
a(dp4832
Vslots
p4833
F1.0
sValso
p4834
F1.0
sVwe
p4835
F1.0
sVregularities
p4836
F1.0
sVcapture
p4837
F1.0
sVsyntactic
p4838
F1.0
sVaddition
p4839
F1.0
sVof
p4840
F1.0
sVT-FLOAT
p4841
F1.0
sVparticular
p4842
F1.0
sg37
F1.0
sVmapping
p4843
F1.0
sVto
p4844
F3.0
sVarguments
p4845
F1.0
sVwant
p4846
F1.0
sVin
p4847
F2.0
sVframes
p4848
F1.0
sVapproximating
p4849
F1.0
sVthemselves
p4850
F1.0
sVthe
p4851
F2.0
saa(lp4852
S'W03-041043'
p4853
a(dp4854
Vand
p4855
F1.0
sg4
F1.0
sVonto
p4856
F1.0
sVfor
p4857
F1.0
sVpreposition
p4858
F1.0
sg869
F2.0
sVof
p4859
F1.0
sVis
p4860
F1.0
sVobject
p4861
F2.0
sVargument
p4862
F1.0
sg37
F4.0
sVdirect
p4863
F1.0
sVhay
p4864
F2.0
sVtruck
p4865
F3.0
sVlocation
p4866
F1.0
sVT-FLOAT
p4867
F1.0
sVin
p4868
F2.0
sVloaded
p4869
F2.0
sVthe
p4870
F4.0
sVwith
p4871
F1.0
sVexample
p4872
F1.0
saa(lp4873
S'W03-0410162'
p4874
a(dp4875
Vmeans
p4876
F1.0
sVT-INT
p4877
F30.0
sVseed
p4878
F1.0
sVil
p4879
F1.0
sVmean
p4880
F1.0
sVling
p4881
F1.0
sVT-FLOAT
p4882
F14.0
sg213
F2.0
sV=
p4883
F2.0
sVsil
p4884
F1.0
saa(lp4885
S'W03-0410163'
p4886
a(dp4887
Vvi
p4888
F1.0
sVac
p4889
F1.0
sVen
p4890
F1.0
sVco
p4891
F1.0
sVve
p4892
F1.0
sVcl
p4893
F2.0
sVed
p4894
F5.0
sVis
p4895
F2.0
sVea
p4896
F1.0
sVrb
p4897
F1.0
sg37
F4.0
sVap
p4898
F1.0
sVas
p4899
F1.0
sVar
p4900
F1.0
sVus
p4901
F4.0
sVio
p4902
F2.0
sVin
p4903
F3.0
sVet
p4904
F1.0
sVur
p4905
F6.0
sVie
p4906
F1.0
sVnsu
p4907
F1.0
sVes
p4908
F3.0
sVct
p4909
F4.0
sVfir
p4910
F1.0
sVo
p4911
F2.0
sVrv
p4912
F2.0
sVle
p4913
F5.0
sVer
p4914
F1.0
sVT-INT
p4915
F5.0
sg243
F4.0
sg249
F4.0
sVll
p4916
F3.0
sVbl
p4917
F1.0
sVts
p4918
F2.0
sVre
p4919
F3.0
sVlt
p4920
F1.0
sVsh
p4921
F1.0
sVth
p4922
F5.0
sVpe
p4923
F5.0
sVmi
p4924
F1.0
sg100
F3.0
sVte
p4925
F3.0
sVri
p4926
F3.0
sVpl
p4927
F1.0
sVta
p4928
F2.0
sVbe
p4929
F1.0
sVty
p4930
F1.0
sVfu
p4931
F1.0
sVf
p4932
F1.0
sVch
p4933
F1.0
sVst
p4934
F1.0
sVlu
p4935
F1.0
sVto
p4936
F2.0
sVy
p4937
F1.0
sVfe
p4938
F6.0
sVbs
p4939
F1.0
sVfo
p4940
F1.0
sVan
p4941
F2.0
sVsa
p4942
F1.0
sVhe
p4943
F1.0
sg4
F3.0
sg213
F1.0
sg753
F13.0
sg754
F3.0
sg2158
F4.0
sVne
p4944
F1.0
sVof
p4945
F6.0
sVsp
p4946
F1.0
sg772
F6.0
sVsu
p4947
F4.0
sg809
F8.0
sVsk
p4948
F1.0
sVp
p4949
F2.0
sg2962
F4.0
sVr
p4950
F2.0
sg2964
F2.0
sg2941
F2.0
sVw
p4951
F4.0
sVrf
p4952
F1.0
sVat
p4953
F6.0
sVT-FLOAT
p4954
F2.0
sVua
p4955
F1.0
sVor
p4956
F3.0
sVse
p4957
F9.0
sVex
p4958
F1.0
saa(lp4959
S'W03-0410160'
p4960
a(dp4961
Vwe
p4962
F1.0
sVbaseline
p4963
F1.0
sVfor
p4964
F1.0
sVestimating
p4965
F1.0
sVinT-FLOAT
p4966
F1.0
sg37
F1.0
sVT-INT
p4967
F1.0
sVexperiments
p4968
F1.0
sVin
p4969
F1.0
sVour
p4970
F1.0
sVthe
p4971
F1.0
saa(lp4972
S'W03-0410161'
p4973
a(dp4974
g4
F1.0
sVall
p4975
F1.0
sVclusterings
p4976
F1.0
sVfor
p4977
F1.0
sVof
p4978
F1.0
sVrandom
p4979
F1.0
sVvalue
p4980
F1.0
sVT-INT
p4981
F2.0
sVfound
p4982
F1.0
sVdeed
p4983
F1.0
sVT-FLOAT
p4984
F2.0
sVmean
p4985
F1.0
saa(lp4986
S'W03-041048'
p4987
a(dp4988
Vanimacy
p4989
F2.0
sVsemantic
p4990
F1.0
sVfeatures
p4991
F2.0
sVcertain
p4992
F1.0
sVas
p4993
F1.0
sVare
p4994
F1.0
sVT-FLOAT
p4995
F1.0
sVchallenging
p4996
F1.0
sVdetect
p4997
F1.0
sVto
p4998
F1.0
sg243
F1.0
sg249
F1.0
sg37
F2.0
sVT-INT
p4999
F1.0
sVarguments
p5000
F1.0
sVfill
p5001
F1.0
sVmore
p5002
F1.0
sVthat
p5003
F1.0
sVsuch
p5004
F1.0
sVproperties
p5005
F1.0
sVroles
p5006
F1.0
sVof
p5007
F1.0
sVmotion
p5008
F1.0
sVthe
p5009
F2.0
sVor
p5010
F1.0
sVautomatically
p5011
F1.0
saa(lp5012
S'W03-041049'
p5013
a(dp5014
Vand
p5015
F1.0
sVanimacy
p5016
F1.0
sVstevenson
p5017
F1.0
sVextension
p5018
F1.0
sVof
p5019
F2.0
sVis
p5020
F1.0
sVcurrently
p5021
F1.0
sg37
F1.0
sVfeature
p5022
F2.0
sVT-FLOAT
p5023
F1.0
sVonly
p5024
F1.0
sVsuch
p5025
F1.0
sVour
p5026
F1.0
sVthe
p5027
F1.0
sVan
p5028
F1.0
sVmerlo
p5029
F1.0
saa(lp5030
S'W03-0410164'
p5031
a(dp5032
Ven
p5033
F1.0
sVei
p5034
F1.0
sVed
p5035
F2.0
sVis
p5036
F2.0
sVec
p5037
F1.0
sVan
p5038
F4.0
sVtti
p5039
F1.0
sVar
p5040
F1.0
sVat
p5041
F1.0
sVio
p5042
F1.0
sVin
p5043
F2.0
sVay
p5044
F1.0
sVst
p5045
F1.0
sVer
p5046
F1.0
sg4911
F1.0
sVrv
p5047
F1.0
sVev
p5048
F1.0
sg243
F1.0
sg249
F1.0
sg37
F2.0
sVT-INT
p5049
F7.0
sVrf
p5050
F1.0
sVth
p5051
F3.0
sVpe
p5052
F2.0
sVri
p5053
F1.0
sVta
p5054
F2.0
sVbe
p5055
F1.0
sVde
p5056
F1.0
sVjo
p5057
F1.0
sViv
p5058
F1.0
sVT-FLOAT
p5059
F2.0
sVhe
p5060
F2.0
sg753
F5.0
sg754
F4.0
sg2158
F1.0
sVof
p5061
F1.0
sg772
F3.0
sVsu
p5062
F1.0
sg809
F4.0
sVsk
p5063
F2.0
sg2962
F3.0
sg4950
F1.0
sVso
p5064
F1.0
sg2941
F2.0
sg4951
F2.0
sVsc
p5065
F1.0
sVti
p5066
F1.0
sVsa
p5067
F1.0
sVot
p5068
F1.0
sVor
p5069
F1.0
sVse
p5070
F2.0
saa(lp5071
S'W03-0410239'
p5072
a(dp5073
Vfeatures
p5074
F1.0
sVran
p5075
F1.0
sVin
p5076
F1.0
sVrandomly
p5077
F1.0
sVexperiments
p5078
F1.0
sVdirectly
p5079
F1.0
sVmeasure
p5080
F1.0
sVinformation
p5081
F1.0
sVmutual
p5082
F1.0
sVT-INT
p5083
F3.0
sg243
F1.0
sg249
F1.0
sVselected
p5084
F1.0
sg37
F2.0
sVdecision-tree
p5085
F1.0
sValso
p5086
F1.0
sVinduction
p5087
F1.0
sVwe
p5088
F2.0
sVused
p5089
F1.0
sVtried
p5090
F1.0
sVusing
p5091
F1.0
sVcardinality
p5092
F1.0
sVT-FLOAT
p5093
F1.0
sVquinlan
p5094
F1.0
sVapplying
p5095
F1.0
sVof
p5096
F2.0
sVsets
p5097
F1.0
sVthe
p5098
F1.0
sVwhere
p5099
F1.0
saa(lp5100
S'W03-0410207'
p5101
a(dp5102
Vclassification
p5103
F2.0
sVis
p5104
F1.0
sVit
p5105
F1.0
sVexisting
p5106
F1.0
sVexist
p5107
F1.0
sVare
p5108
F1.0
sVin
p5109
F1.0
sVfind
p5110
F1.0
sVinterested
p5111
F1.0
sVdepend
p5112
F1.0
sVsince
p5113
F1.0
sVwhen
p5114
F1.0
sg37
F2.0
sVto
p5115
F1.0
sVdoes
p5116
F2.0
sVapproach
p5117
F1.0
sVmethod
p5118
F1.0
sVwe
p5119
F1.0
sVthat
p5120
F1.0
sVhowever
p5121
F1.0
sVimportant
p5122
F1.0
sVnot
p5123
F2.0
sVsuch
p5124
F1.0
sVan
p5125
F1.0
sVT-FLOAT
p5126
F1.0
sg4
F2.0
sVon
p5127
F1.0
sVapplying
p5128
F1.0
sVthe
p5129
F1.0
sVhaving
p5130
F1.0
saa(lp5131
S'W03-0410206'
p5132
a(dp5133
Vtentatively
p5134
F1.0
sVcomparison
p5135
F1.0
sVgood
p5136
F1.0
sVhelpful
p5137
F1.0
sVthat
p5138
F1.0
sVthis
p5139
F1.0
sVfeature
p5140
F1.0
sVtask
p5141
F1.0
sVsuggests
p5142
F1.0
sVselection
p5143
F1.0
sVcan
p5144
F1.0
sVin
p5145
F1.0
sVperformance
p5146
F1.0
sVbe
p5147
F1.0
sVour
p5148
F1.0
sVT-FLOAT
p5149
F1.0
saa(lp5150
S'W03-0410205'
p5151
a(dp5152
Vsubset
p5153
F1.0
sVset
p5154
F1.0
sVfeatures
p5155
F2.0
sVmanually
p5156
F1.0
sValmost
p5157
F1.0
sVis
p5158
F2.0
sVfeature
p5159
F1.0
sVmoreover
p5160
F1.0
sVT-FLOAT
p5161
F1.0
sVfor
p5162
F1.0
sVselected
p5163
F1.0
sg37
F2.0
sVproperties
p5164
F1.0
sVbetter
p5165
F1.0
sVto
p5166
F1.0
sVmuch
p5167
F1.0
sVindicating
p5168
F1.0
sVhigher
p5169
F1.0
sVfull
p5170
F1.0
sVthat
p5171
F3.0
sVvery
p5172
F1.0
sVfocused
p5173
F1.0
sVseparation
p5174
F1.0
sVdata
p5175
F1.0
sVthan
p5176
F1.0
sg4
F1.0
sVon
p5177
F1.0
sVlead
p5178
F1.0
sValways
p5179
F1.0
sVvalue
p5180
F1.0
sVof
p5181
F3.0
sVthe
p5182
F6.0
sVmore
p5183
F1.0
saa(lp5184
S'W03-0410204'
p5185
a(dp5186
Vsubset
p5187
F1.0
sVfeatures
p5188
F1.0
sVis
p5189
F1.0
sVan
p5190
F1.0
sVrate
p5191
F1.0
sVin
p5192
F1.0
sVfrom
p5193
F1.0
sVto
p5194
F1.0
sg243
F1.0
sg249
F1.0
sVthere
p5195
F1.0
sg37
F1.0
sVincrease
p5196
F1.0
sVT-INT
p5197
F2.0
sVreduction
p5198
F1.0
sVperformance
p5199
F1.0
sVoverall
p5200
F1.0
sVgain
p5201
F1.0
sVling
p5202
F1.0
sVusing
p5203
F1.0
sVwith
p5204
F1.0
sVT-FLOAT
p5205
F1.0
sg4
F1.0
sVof
p5206
F1.0
sVerror
p5207
F1.0
sVsmall
p5208
F1.0
sVthe
p5209
F1.0
sg1860
F2.0
saa(lp5210
S'W03-0410203'
p5211
a(dp5212
Vand
p5213
F1.0
sVsubset
p5214
F1.0
sVtasks
p5215
F1.0
sVmultiway
p5216
F1.0
sVfeatures
p5217
F1.0
sVis
p5218
F1.0
sVan
p5219
F1.0
sVrate
p5220
F1.0
sVset
p5221
F1.0
sVin
p5222
F1.0
sg1860
F1.0
sg243
F1.0
sg249
F1.0
sVthere
p5223
F1.0
sg37
F2.0
sVincrease
p5224
F1.0
sVT-INT
p5225
F2.0
sVreduction
p5226
F1.0
sVperformance
p5227
F1.0
sVover
p5228
F2.0
sVfull
p5229
F1.0
sVbase
p5230
F1.0
sVgain
p5231
F1.0
sVusing
p5232
F1.0
sVwith
p5233
F1.0
sVT-FLOAT
p5234
F1.0
sg4
F1.0
sVon
p5235
F1.0
sVof
p5236
F3.0
sVlarger
p5237
F1.0
sV-way
p5238
F1.0
sVerror
p5239
F1.0
sVthe
p5240
F5.0
sVfeature
p5241
F1.0
saa(lp5242
S'W03-0410202'
p5243
a(dp5244
Vand
p5245
F1.0
sVon
p5246
F2.0
sVtasks
p5247
F1.0
sVset
p5248
F1.0
sVfor
p5249
F1.0
sVto
p5250
F1.0
sVvery
p5251
F1.0
sVof
p5252
F1.0
sVaverage
p5253
F1.0
sVthat
p5254
F1.0
sVmeasures
p5255
F1.0
sg37
F1.0
sV-way
p5256
F1.0
sVfeature
p5257
F1.0
sVT-INT
p5258
F1.0
sVfull
p5259
F1.0
sVT-FLOAT
p5260
F1.0
sVclose
p5261
F1.0
sVperformance
p5262
F1.0
sVthe
p5263
F4.0
sVis
p5264
F1.0
saa(lp5265
S'W03-0410201'
p5266
a(dp5267
Vclustering
p5268
F1.0
sVand
p5269
F1.0
sVgiven
p5270
F1.0
sVmeasures
p5271
F1.0
sVfor
p5272
F1.0
sVthese
p5273
F1.0
sVsubcolumn
p5274
F1.0
sVin
p5275
F3.0
sVresults
p5276
F1.0
sVfeature
p5277
F1.0
sVeach
p5278
F1.0
sVT-INT
p5279
F1.0
sVsecond
p5280
F1.0
sVof
p5281
F1.0
sVare
p5282
F1.0
sVT-FLOAT
p5283
F1.0
sVsets
p5284
F1.0
sVunder
p5285
F1.0
sVthe
p5286
F3.0
sVtable
p5287
F1.0
sg37
F2.0
saa(lp5288
S'W03-0410200'
p5289
a(dp5290
Vsubset
p5291
F1.0
sVthen
p5292
F1.0
sVlinguistically-relevant
p5293
F1.0
sVtask
p5294
F2.0
sVsubsets
p5295
F1.0
sVfor
p5296
F2.0
sVall
p5297
F1.0
sVdefined
p5298
F1.0
sVof
p5299
F1.0
sVis
p5300
F1.0
sVin
p5301
F1.0
sg37
F2.0
sVunion
p5302
F1.0
sVas
p5303
F1.0
sVclasses
p5304
F1.0
sVthese
p5305
F1.0
sVeach
p5306
F1.0
sVthe
p5307
F4.0
sVT-FLOAT
p5308
F1.0
saa(lp5309
S'W03-0410209'
p5310
a(dp5311
VT-INT
p5312
F2.0
sVT-FLOAT
p5313
F2.0
sVselection
p5314
F1.0
sVfeature
p5315
F1.0
sVunsupervised
p5316
F1.0
saa(lp5317
S'W03-0410208'
p5318
a(dp5319
Vand
p5320
F1.0
sVwe
p5321
F1.0
sVminimally
p5322
F1.0
sVunsupervised
p5323
F1.0
sVthis
p5324
F1.0
sVproblem
p5325
F1.0
sVtwo
p5326
F1.0
sVnext
p5327
F1.0
sVto
p5328
F1.0
sVapproaches
p5329
F1.0
sVsupervised
p5330
F1.0
sVT-FLOAT
p5331
F1.0
sVin
p5332
F1.0
sVthe
p5333
F1.0
sVsections
p5334
F1.0
sg37
F1.0
sVpresent
p5335
F1.0
saa.