(lp0
(lp1
S'W04-0213160'
p2
a(dp3
Vprospect
p4
F1.0
sVlayer
p5
F1.0
sVparticularly
p6
F1.0
sVexplanatory
p7
F1.0
sVis
p8
F1.0
sVcorrelations
p9
F1.0
sVdiscourse
p10
F2.0
sVsingle
p11
F1.0
sVin
p12
F1.0
sVT-FLOAT
p13
F1.0
sVif
p14
F1.0
sVnetwork
p15
F1.0
sVfor
p16
F1.0
sVnonetheless
p17
F1.0
sVseems
p18
F1.0
sV,
p19
F3.0
sVto
p20
F1.0
sVonly
p21
F1.0
sVwhich
p22
F1.0
sVbetween
p23
F1.0
sVresources
p24
F1.0
sVmore
p25
F1.0
sVthem
p26
F2.0
sVused
p27
F1.0
sVthat
p28
F1.0
sVmodels
p29
F1.0
sVbecomes
p30
F1.0
sVpossible
p31
F1.0
sVbut
p32
F1.0
sVsystematic
p33
F1.0
sVnot
p34
F1.0
sVannotation
p35
F1.0
sVstructure
p36
F1.0
sVannotated
p37
F1.0
sVa
p38
F4.0
sVsearch
p39
F1.0
sVlead
p40
F1.0
sVof
p41
F4.0
sVvariety
p42
F1.0
sVturn
p43
F1.0
sVso
p44
F1.0
sVcan
p45
F1.0
sVpromising
p46
F1.0
sVthe
p47
F1.0
sVwhole
p48
F1.0
saa(lp49
S'W04-021369'
p50
a(dp51
Vand
p52
F1.0
sVboth
p53
F1.0
sVrhetorical
p54
F1.0
sVfor
p55
F1.0
sVsource
p56
F1.0
sVinformation
p57
F1.0
sVof
p58
F1.0
sg19
F2.0
sVanalysis
p59
F1.0
sVmost
p60
F1.0
sVimportant
p61
F1.0
sVconnectives
p62
F1.0
sVare
p63
F1.0
sVhuman
p64
F1.0
sVthe
p65
F1.0
sVstill
p66
F1.0
sVautomatic
p67
F1.0
sVT-FLOAT
p68
F1.0
sVsurface
p69
F1.0
saa(lp70
S'W04-021362'
p71
a(dp72
Voften
p73
F1.0
sVannotator
p74
F1.0
sVare
p75
F1.0
sVin
p76
F1.0
sVgoal
p77
F1.0
sVquestion
p78
F1.0
sg19
F3.0
sVdirectives
p79
F2.0
sV;
p80
F1.0
sVincreasing
p81
F1.0
sVtheoretical
p82
F1.0
sVmotivated
p83
F1.0
sVthough
p84
F1.0
sVvery
p85
F1.0
sVagreement
p86
F1.0
sVbut
p87
F1.0
sVquite
p88
F1.0
sVnot
p89
F1.0
sVthe
p90
F3.0
sVsettling
p91
F1.0
sVe
p92
F1.0
sVthese
p93
F1.0
sVof
p94
F1.0
sVclear
p95
F1.0
sVwell
p96
F1.0
sVi
p97
F1.0
sVwithout
p98
F1.0
sValways
p99
F1.0
sVfulfill
p100
F1.0
sVT-FLOAT
p101
F3.0
sVfact
p102
F1.0
saa(lp103
S'W04-021363'
p104
a(dp105
Vand
p106
F1.0
sVbe
p107
F2.0
sVunderspecifying
p108
F1.0
sVan
p109
F1.0
sVassigned
p110
F1.0
sVsingle
p111
F1.0
sVin
p112
F1.0
sVxml
p113
F1.0
sVdifferent
p114
F1.0
sVstede
p115
F1.0
sV)
p116
F1.0
sV(
p117
F1.0
sg19
F3.0
sVrelations
p118
F1.0
sVT-INT
p119
F2.0
sVway
p120
F1.0
sVinstead
p121
F1.0
sVrhetorical
p122
F1.0
sVsuggested
p123
F1.0
sVwe
p124
F1.0
sVformat
p125
F1.0
sVforests
p126
F1.0
sVnumber
p127
F1.0
sVurml
p128
F1.0
sVcompeting
p129
F1.0
sVrepresented
p130
F1.0
sVanalyses
p131
F1.0
sVone
p132
F1.0
sVwith
p133
F1.0
sVT-FLOAT
p134
F1.0
sVstructure
p135
F1.0
sg38
F3.0
sV:
p136
F1.0
sVfor
p137
F1.0
sVof
p138
F2.0
sVreitter
p139
F1.0
sVcan
p140
F2.0
sVshared
p141
F1.0
sVwent
p142
F1.0
saa(lp143
S'W04-021360'
p144
a(dp145
Vprecise
p146
F1.0
sVthis
p147
F1.0
sVand
p148
F1.0
sVto
p149
F1.0
sg116
F2.0
sg117
F2.0
sg19
F1.0
sVlong
p150
F1.0
sVT-INT
p151
F1.0
sV!
p152
F1.0
sVtherefore
p153
F1.0
sVcarlson
p154
F1.0
sVmarcu
p155
F1.0
sVrelatively
p156
F1.0
sVwith
p157
F1.0
sVresponded
p158
F1.0
sVsituation
p159
F1.0
saa(lp160
S'W04-021361'
p161
a(dp162
Vcase
p163
F1.0
sVdo
p164
F1.0
sVwhat
p165
F1.0
sVthat
p166
F1.0
sVof
p167
F1.0
sVguidelines
p168
F1.0
sVannotation
p169
F1.0
sVto
p170
F1.0
sVdoubt
p171
F1.0
sVannotators
p172
F1.0
sVin
p173
F1.0
sVT-FLOAT
p174
F1.0
sVtell
p175
F1.0
saa(lp176
S'W04-021366'
p177
a(dp178
Vand
p179
F1.0
sVdeveloped
p180
F1.0
sVis
p181
F1.0
sVan
p182
F1.0
sVT-FLOAT
p183
F1.0
sVwhat
p184
F1.0
sVvisualize
p185
F1.0
sVfor
p186
F1.0
sVmake
p187
F1.0
sVformat
p188
F1.0
sg19
F1.0
sVto
p189
F1.0
sVaccordingly
p190
F1.0
sVought
p191
F1.0
sVannotations
p192
F1.0
sVunderspecified
p193
F1.0
sVbe
p194
F1.0
sVthem
p195
F1.0
sVthat
p196
F1.0
sVtool
p197
F1.0
sVuse
p198
F1.0
sVnow
p199
F1.0
sVannotation
p200
F1.0
sVof
p201
F1.0
sVcan
p202
F1.0
sVallow
p203
F1.0
sVthe
p204
F1.0
saa(lp205
S'W04-021367'
p206
a(dp207
Vwith
p208
F1.0
sVT-INT
p209
F2.0
sVT-FLOAT
p210
F2.0
sVconnectives
p211
F1.0
sVscopes
p212
F1.0
saa(lp213
S'W04-021364'
p214
a(dp215
Vall
p216
F1.0
sVurml
p217
F1.0
sVof
p218
F1.0
sVbeen
p219
F1.0
sVto
p220
F1.0
sVconverted
p221
F1.0
sVT-FLOAT
p222
F1.0
sVhave
p223
F1.0
sVpcc
p224
F1.0
sVthe
p225
F1.0
sVrhetorical
p226
F1.0
sVannotations
p227
F1.0
sVstructure
p228
F1.0
saa(lp229
S'W04-021365'
p230
a(dp231
Vresolved
p232
F1.0
sVbe
p233
F1.0
sVformat
p234
F1.0
sVwith
p235
F1.0
sVthere
p236
F1.0
sVsome
p237
F1.0
sg19
F1.0
sVbut
p238
F1.0
sVit
p239
F1.0
sVto
p240
F1.0
sVstep
p241
F1.0
sVare
p242
F1.0
sg38
F1.0
sVrepresents
p243
F1.0
sVthe
p244
F1.0
sVstill
p245
F1.0
sVopen
p246
F1.0
sVT-FLOAT
p247
F1.0
sVissues
p248
F1.0
sVfirst
p249
F1.0
saa(lp250
S'W04-0213117'
p251
a(dp252
Vavailable
p253
F1.0
sVldc
p254
F1.0
sVhis
p255
F1.0
sVmade
p256
F1.0
sVcorresponding
p257
F1.0
sVrst-annotated
p258
F1.0
sVfor
p259
F1.0
sVthat
p260
F1.0
sVT-FLOAT
p261
F1.0
sVis
p262
F2.0
sg19
F1.0
sVT-INT
p263
F1.0
sVvia
p264
F1.0
sVresult
p265
F1.0
sVenglish
p266
F1.0
sV%
p267
F1.0
sVthe
p268
F1.0
sVcorpus
p269
F1.0
saa(lp270
S'W04-0213116'
p271
a(dp272
Vset
p273
F1.0
sVbe
p274
F1.0
sVan
p275
F1.0
sVconstitute
p276
F1.0
sVtexts
p277
F1.0
sVrecognition
p278
F1.0
sg267
F1.0
sVannotated
p279
F1.0
sVsince
p280
F1.0
sg19
F1.0
sVT-INT
p281
F2.0
sVmethod
p282
F1.0
sVaccuracy
p283
F1.0
sVfairly
p284
F1.0
sVhis
p285
F1.0
sVthat
p286
F1.0
sVoverall
p287
F1.0
sVusing
p288
F1.0
sg38
F1.0
sVtraining
p289
F1.0
sVof
p290
F1.0
sVcould
p291
F1.0
sVreitter
p292
F1.0
sVsmall
p293
F1.0
sVfound
p294
F1.0
sVT-FLOAT
p295
F1.0
sVachieved
p296
F1.0
saa(lp297
S'W04-0213115'
p298
a(dp299
Vand
p300
F1.0
sVclassification
p301
F1.0
sVpos
p302
F1.0
sVparsing
p303
F1.0
sVas
p304
F1.0
sVstatistical
p305
F1.0
sVin
p306
F1.0
sVT-FLOAT
p307
F1.0
sVmachines
p308
F1.0
sVfor
p309
F1.0
sg116
F1.0
sg117
F1.0
sVsupport
p310
F1.0
sg19
F1.0
sVT-INT
p311
F1.0
sVexperiment
p312
F1.0
sVcorpus
p313
F1.0
sVrhetorical
p314
F1.0
sVused
p315
F1.0
sVtags
p316
F1.0
sVan
p317
F1.0
sVwith
p318
F1.0
sVby
p319
F1.0
sg38
F1.0
sVon
p320
F1.0
sVtraining
p321
F1.0
sVreitter
p322
F1.0
sVvector
p323
F1.0
sVwere
p324
F1.0
sVthe
p325
F1.0
sVautomatic
p326
F1.0
sVrst-annotations
p327
F1.0
saa(lp328
S'W04-0213114'
p329
a(dp330
VT-INT
p331
F2.0
sVT-FLOAT
p332
F2.0
sVrhetorical
p333
F1.0
sVanalysis
p334
F1.0
sVstochastic
p335
F1.0
saa(lp336
S'W04-0213113'
p337
a(dp338
Vbridging
p339
F1.0
sVis
p340
F2.0
sVthus
p341
F1.0
sVit
p342
F1.0
sVmarked
p343
F1.0
sVsyntax
p344
F1.0
sVtopic
p345
F1.0
sVas
p346
F1.0
sVrelation
p347
F1.0
sVin
p348
F1.0
sVphrase
p349
F2.0
sVinformation
p350
F1.0
sVfor
p351
F2.0
sg116
F3.0
sg117
F3.0
sg19
F2.0
sVto
p352
F2.0
sVother
p353
F1.0
sVco-reference
p354
F1.0
sVthat
p355
F1.0
sVsome
p356
F1.0
sVpossible
p357
F1.0
sVillustration
p358
F1.0
sVtier
p359
F3.0
sVstructure
p360
F1.0
sg38
F2.0
sVnoun
p361
F2.0
sVlook
p362
F1.0
sVT-FLOAT
p363
F1.0
saa(lp364
S'W04-0213112'
p365
a(dp366
Vformulated
p367
F1.0
sVtext
p368
F1.0
sVinto
p369
F1.0
sVare
p370
F1.0
sVT-FLOAT
p371
F1.0
sVdifferent
p372
F1.0
sg19
F1.0
sVsame
p373
F2.0
sVacross
p374
F1.0
sVbe
p375
F1.0
sVthat
p376
F1.0
sVqueries
p377
F1.0
sVlevels
p378
F1.0
sVdata
p379
F1.0
sVannotation
p380
F1.0
sVstructure
p381
F1.0
sVsearch
p382
F1.0
sVof
p383
F1.0
sVannotations
p384
F1.0
sVso
p385
F1.0
sVcan
p386
F1.0
sVmapped
p387
F1.0
sVthe
p388
F2.0
saa(lp389
S'W04-0213110'
p390
a(dp391
Vlayer
p392
F1.0
sVco-reference
p393
F1.0
sVbridging
p394
F1.0
sVone
p395
F1.0
sVas
p396
F1.0
sVin
p397
F1.0
sVannotated
p398
F1.0
sVfor
p399
F1.0
sg19
F2.0
sVbeen
p400
F1.0
sVwindow
p401
F1.0
sVnp
p402
F1.0
sVentered
p403
F1.0
sVhas
p404
F1.0
sVbe
p405
F1.0
sVthat
p406
F1.0
sVhere
p407
F1.0
sVan
p408
F1.0
sVT-FLOAT
p409
F1.0
sVon
p410
F2.0
sVsearch
p411
F1.0
sVcan
p412
F1.0
sVqueries
p413
F1.0
sVsmall
p414
F1.0
sVthe
p415
F3.0
sVleft
p416
F1.0
saa(lp417
S'W04-0213119'
p418
a(dp419
Vannis
p420
F1.0
sVde/sfb/
p421
F1.0
sVwww
p422
F1.0
sVscreenshot
p423
F1.0
sVfigure
p424
F1.0
sVdatabase
p425
F1.0
sVof
p426
F1.0
sVsymbolic
p427
F1.0
sVunipotsdam
p428
F1.0
sVand
p429
F1.0
sVknowledge-based
p430
F1.0
sVT-INT
p431
F4.0
sVling
p432
F1.0
sVlinguistic
p433
F1.0
sVT-FLOAT
p434
F5.0
sg136
F1.0
saa(lp435
S'W04-0213118'
p436
a(dp437
Vlayers
p438
F1.0
sVincorporate
p439
F1.0
sVparticular
p440
F1.0
sVinformation
p441
F1.0
sVthese
p442
F1.0
sVof
p443
F1.0
sVthe
p444
F1.0
sVwork
p445
F1.0
sVlines
p446
F1.0
sg19
F1.0
sVannotation
p447
F1.0
sVwill
p448
F1.0
sVT-FLOAT
p449
F1.0
sVfuture
p450
F1.0
sVin
p451
F1.0
sValong
p452
F1.0
sVsyntax
p453
F1.0
sVother
p454
F1.0
saa(lp455
S'W04-021379'
p456
a(dp457
Vannotation
p458
F1.0
sVxml-structured
p459
F1.0
sVwritten
p460
F1.0
sVis
p461
F1.0
sVmaterial
p462
F1.0
sVwhen
p463
F1.0
sg19
F1.0
sVan
p464
F1.0
sVT-FLOAT
p465
F1.0
sVfinished
p466
F1.0
sVfile
p467
F1.0
sVthe
p468
F1.0
sVwhole
p469
F1.0
sVinto
p470
F1.0
saa(lp471
S'W04-021371'
p472
a(dp473
Von
p474
F1.0
sVT-FLOAT
p475
F1.0
sVfor
p476
F1.0
sVT-INT
p477
F1.0
sVthis
p478
F1.0
sVfollows
p479
F1.0
sVinspired
p480
F1.0
sVwork
p481
F1.0
sVtree
p482
F1.0
sg19
F1.0
sValso
p483
F1.0
sVdiscourse
p484
F1.0
sVgoals
p485
F1.0
sVwhich
p486
F1.0
sVenglish
p487
F1.0
sVpenn
p488
F1.0
sVthe
p489
F2.0
sVsimilar
p490
F1.0
sVwas
p491
F1.0
sVby
p492
F1.0
sVbank
p493
F1.0
saa(lp494
S'W04-021370'
p495
a(dp496
Vand
p497
F2.0
sVscopes
p498
F1.0
sVwe
p499
F1.0
sVfor
p500
F1.0
sVlayer
p501
F1.0
sVtheir
p502
F1.0
sVpay
p503
F1.0
sVattention
p504
F1.0
sVthus
p505
F1.0
sVthem
p506
F1.0
sVintroduce
p507
F1.0
sVan
p508
F1.0
sVspecific
p509
F1.0
sVto
p510
F2.0
sVdecided
p511
F1.0
sVconnectives
p512
F1.0
sVT-FLOAT
p513
F1.0
sVannotation
p514
F1.0
saa(lp515
S'W04-021375'
p516
a(dp517
Vown
p518
F1.0
sVin
p519
F1.0
sVour
p520
F2.0
sVconano
p521
F1.0
sVimplemented
p522
F1.0
sVjava
p523
F1.0
sVstede
p524
F1.0
sVT-INT
p525
F1.0
sg116
F1.0
sg117
F1.0
sg19
F3.0
sVspecifically
p526
F1.0
sVneeded
p527
F1.0
sVfunctionality
p528
F1.0
sVprovides
p529
F1.0
sVwe
p530
F1.0
sVheintze
p531
F1.0
sVwhich
p532
F1.0
sVtool
p533
F1.0
sVpurpose
p534
F1.0
sVannotation
p535
F1.0
sVfor
p536
F1.0
sVT-FLOAT
p537
F1.0
sVthe
p538
F1.0
sVconsequently
p539
F1.0
saa(lp540
S'W04-021376'
p541
a(dp542
Vand
p543
F1.0
sVall
p544
F2.0
sVshow
p545
F1.0
sVgerman
p546
F1.0
sVtext
p547
F1.0
sVis
p548
F1.0
sVit
p549
F2.0
sVreads
p550
F1.0
sVconnectives
p551
F2.0
sVfile
p552
F1.0
sVin
p553
F1.0
sVT-FLOAT
p554
F1.0
sVopened
p555
F1.0
sVfor
p556
F1.0
sVhighlights
p557
F1.0
sVwhen
p558
F1.0
sg19
F2.0
sVpotential
p559
F1.0
sg80
F1.0
sVbe
p560
F1.0
sVthat
p561
F1.0
sVwords
p562
F1.0
sVwith
p563
F1.0
sVannotation
p564
F1.0
sg38
F3.0
sVthis
p565
F1.0
sVof
p566
F1.0
sVlist
p567
F2.0
sVup
p568
F1.0
sVwill
p569
F1.0
sVthese
p570
F1.0
sVthe
p571
F2.0
saa(lp572
S'W04-0213104'
p573
a(dp574
Vall
p575
F1.0
sVexplained
p576
F1.0
sVin
p577
F1.0
sVT-FLOAT
p578
F1.0
sVlayers
p579
F1.0
sVwhat
p580
F1.0
sVfor
p581
F1.0
sVquestion
p582
F1.0
sg19
F1.0
sVto
p583
F1.0
sVvarious
p584
F1.0
sVpcc
p585
F1.0
sVmight
p586
F1.0
sVbe
p587
F1.0
sVwe
p588
F1.0
sVgood
p589
F1.0
sVnow
p590
F1.0
sVannotation
p591
F1.0
sVthis
p592
F1.0
sVof
p593
F1.0
sVturn
p594
F1.0
sVthe
p595
F2.0
sVhaving
p596
F1.0
saa(lp597
S'W04-0213105'
p598
a(dp599
Vthe
p600
F3.0
sVsearching
p601
F1.0
sVone
p602
F1.0
sVsee
p603
F1.0
sVlayers
p604
F1.0
sVinformation
p605
F1.0
sVfor
p606
F1.0
sg116
F1.0
sg117
F1.0
sVquestion
p607
F1.0
sg19
F1.0
sVT-INT
p608
F2.0
sVconcerns
p609
F1.0
sVbasic
p610
F1.0
sVacross
p611
F1.0
sVhand
p612
F1.0
sVannotation
p613
F1.0
sVon
p614
F1.0
sg92
F1.0
sVthis
p615
F1.0
sVof
p616
F1.0
sg97
F1.0
sVT-FLOAT
p617
F4.0
sVretrieval
p618
F1.0
saa(lp619
S'W04-0213107'
p620
a(dp621
Vand
p622
F1.0
sVcomplete
p623
F1.0
sVsome
p624
F1.0
sg19
F1.0
sVimprovements
p625
F1.0
sVextensions
p626
F1.0
sVbasically
p627
F1.0
sVway
p628
F1.0
sVunder
p629
F1.0
sVT-FLOAT
p630
F1.0
sVstill
p631
F1.0
sVyet
p632
F1.0
sVare
p633
F1.0
saa(lp634
S'W04-0213100'
p635
a(dp636
Vand
p637
F1.0
sVis
p638
F2.0
sVit
p639
F1.0
sVassigned
p640
F1.0
sVare
p641
F1.0
sVyes
p642
F1.0
sVtheir
p643
F1.0
sVconfidence
p644
F1.0
sVfor
p645
F1.0
sVno
p646
F1.0
sg116
F2.0
sg117
F2.0
sVsince
p647
F1.0
sg19
F1.0
sV/
p648
F1.0
sVannotation
p649
F1.0
sValso
p650
F1.0
sVmore
p651
F1.0
sVT-FLOAT
p652
F1.0
sVtopicality
p653
F1.0
sVannotator
p654
F1.0
sVsubjective
p655
F1.0
sVlabelled
p656
F1.0
sVthey
p657
F1.0
sVby
p658
F2.0
sg38
F2.0
sVthis
p659
F1.0
sVvalue
p660
F1.0
sVmatter
p661
F1.0
sVaccompanied
p662
F1.0
sVthe
p663
F1.0
saa(lp664
S'W04-0213101'
p665
a(dp666
Vcorresponding
p667
F1.0
sVannotated
p668
F1.0
sVthat
p669
F1.0
sVelicits
p670
F1.0
sVis
p671
F1.0
sVpartition
p672
F1.0
sVquestion
p673
F1.0
sg19
F2.0
sVtogether
p674
F1.0
sVfocus
p675
F1.0
sVfinally
p676
F1.0
sVanswer
p677
F1.0
sVthe
p678
F3.0
sVwith
p679
F1.0
sVT-FLOAT
p680
F1.0
sVfocus/background
p681
F1.0
saa(lp682
S'W04-0213102'
p683
a(dp684
g38
F1.0
sVformulate
p685
F1.0
sValso
p686
F1.0
sVof
p687
F1.0
sVis
p688
F1.0
sVquestion
p689
F1.0
sVannotator
p690
F1.0
sVto
p691
F1.0
sVasking
p692
F1.0
sVat
p693
F1.0
sVway
p694
F1.0
sVarriving
p695
F1.0
sVthe
p696
F2.0
sVreproducible
p697
F1.0
sVdecisions
p698
F1.0
sVT-FLOAT
p699
F1.0
sVmore
p700
F1.0
saa(lp701
S'W04-0213108'
p702
a(dp703
Vand
p704
F2.0
sVgantly
p705
F1.0
sVimports
p706
F1.0
sVit
p707
F1.0
sVdisplays
p708
F1.0
sVin
p709
F3.0
sVxml
p710
F1.0
sVweb-based
p711
F1.0
sVvariety
p712
F1.0
sg116
F1.0
sg117
F1.0
sg19
F1.0
sVele
p713
F1.0
sVwindow
p714
F1.0
sVdrawn
p715
F1.0
sVmore
p716
F1.0
sVbe
p717
F1.0
sVoptionally
p718
F1.0
sVseparate
p719
F1.0
sVtrees
p720
F1.0
sVtier-orientedway
p721
F1.0
sg38
F3.0
sVdata
p722
F1.0
sVT-FLOAT
p723
F1.0
sVannis
p724
F1.0
sVtagsets
p725
F1.0
sVof
p726
F1.0
sVcan
p727
F1.0
sVformats
p728
F1.0
sVthe
p729
F1.0
saa(lp730
S'W04-0213109'
p731
a(dp732
Vlimited
p733
F1.0
sVmajor
p734
F1.0
sVfigure
p735
F1.0
sVcolor
p736
F1.0
sVis
p737
F1.0
sVas
p738
F1.0
sVin
p739
F1.0
sVT-FLOAT
p740
F1.0
sVstatuses
p741
F1.0
sVinformation
p742
F1.0
sVdifferent
p743
F1.0
sVplays
p744
F1.0
sg116
F1.0
sg117
F1.0
sg19
F2.0
sVT-INT
p745
F1.0
sVrole
p746
F1.0
sVwhich
p747
F1.0
sVshows
p748
F1.0
sVscreenshot
p749
F1.0
sVthough
p750
F1.0
sVsomewhat
p751
F1.0
sVthe
p752
F2.0
sg38
F2.0
sVof
p753
F2.0
sVvalue
p754
F1.0
sVsignalling
p755
F1.0
saa(lp756
S'W04-021348'
p757
a(dp758
Vand
p759
F1.0
sVmotivation
p760
F1.0
sVgerman
p761
F1.0
sVis
p762
F1.0
sVintuition
p763
F1.0
sVsee
p764
F1.0
sVare
p765
F1.0
sVin
p766
F1.0
sVrigorous
p767
F1.0
sVour
p768
F1.0
sVT-FLOAT
p769
F1.0
sVopen
p770
F1.0
sVfor
p771
F3.0
sVinformal
p772
F1.0
sg117
F1.0
sVwhereas
p773
F1.0
sVthere
p774
F1.0
sg19
F1.0
sVshould
p775
F1.0
sVapproach
p776
F1.0
sg80
F1.0
sVrhetorical
p777
F1.0
sVwas
p778
F1.0
sVmore
p779
F2.0
sVbe
p780
F1.0
sVthat
p781
F2.0
sVproblems
p782
F1.0
sVtask
p783
F1.0
sVinvestigation
p784
F1.0
sVanalyses
p785
F1.0
sVthan
p786
F1.0
sVstage
p787
F1.0
sg38
F1.0
sVmain
p788
F1.0
sVmany
p789
F1.0
sVqualitative
p790
F1.0
sVlater
p791
F1.0
sVanalysis
p792
F1.0
sg116
F1.0
sVbelow
p793
F1.0
sVso
p794
F2.0
sVenglish
p795
F1.0
sVat
p796
F1.0
sVquantitative
p797
F1.0
sVthe
p798
F3.0
sVperformed
p799
F1.0
saa(lp800
S'W04-021349'
p801
a(dp802
Vand
p803
F1.0
sVwww
p804
F2.0
sVhumans
p805
F1.0
sV/negra-corpus/annotate
p806
F1.0
sVone
p807
F1.0
sValike
p808
F1.0
sVcoli
p809
F1.0
sVnphil
p810
F1.0
sVmachines
p811
F1.0
sVfrom
p812
F1.0
sVfor
p813
F1.0
sg19
F1.0
sVT-INT
p814
F3.0
sVhtml
p815
F1.0
sVdrawn
p816
F1.0
sVde/elwis/stts/
p817
F1.0
sVconclusion
p818
F1.0
sVthat
p819
F1.0
sVunituebingen
p820
F1.0
sVsfs
p821
F1.0
sVeffort
p822
F1.0
sVannotation
p823
F1.0
sVde/sfb
p824
F1.0
sVthis
p825
F1.0
sVwas
p826
F1.0
sVstts
p827
F1.0
sVunisb
p828
F1.0
sVT-FLOAT
p829
F9.0
saa(lp830
S'W04-021344'
p831
a(dp832
Vand
p833
F1.0
sVall
p834
F1.0
sVrelations
p835
F1.0
sVhave
p836
F1.0
sVT-FLOAT
p837
F1.0
sVcommentaries
p838
F1.0
sVprovided
p839
F1.0
sVannotated
p840
F1.0
sVrsttool
p841
F1.0
sg116
F1.0
sg117
F1.0
sg19
F2.0
sVbeen
p842
F1.0
sVT-INT
p843
F2.0
sVdiscourse
p844
F1.0
sVthompson
p845
F1.0
sVrhetorical
p846
F2.0
sVtheory
p847
F1.0
sVusing
p848
F1.0
sVwith
p849
F1.0
sVby
p850
F1.0
sVstructure
p851
F2.0
sVof
p852
F1.0
sVdefinitions
p853
F1.0
sVthe
p854
F1.0
sVmann
p855
F1.0
saa(lp856
S'W04-021345'
p857
a(dp858
Vand
p859
F2.0
sVset
p860
F1.0
sVprocess
p861
F1.0
sVrevised
p862
F1.0
sVresults
p863
F1.0
sg19
F1.0
sVtexts
p864
F1.0
sVintensively
p865
F1.0
sVtwo
p866
F1.0
sVT-INT
p867
F1.0
sVannotators
p868
F1.0
sVwhich
p869
F1.0
sVstarted
p870
F1.0
sVrst
p871
F1.0
sVwith
p872
F2.0
sVT-FLOAT
p873
F1.0
sg38
F1.0
sVreceived
p874
F1.0
sVtraining
p875
F1.0
sVof
p876
F2.0
sVdiscussed
p877
F1.0
sVwere
p878
F1.0
sVdefinitions
p879
F1.0
sVthe
p880
F3.0
sVfirst
p881
F1.0
saa(lp882
S'W04-021346'
p883
a(dp884
Vand
p885
F1.0
sVthen
p886
F1.0
sVannotated
p887
F1.0
sVamong
p888
F1.0
sValways
p889
F1.0
sVcross-validated
p890
F1.0
sg19
F2.0
sVtexts
p891
F1.0
sVannotators
p892
F1.0
sVT-FLOAT
p893
F1.0
sVwere
p894
F1.0
sVdiscussions
p895
F1.0
sVthe
p896
F2.0
sVwith
p897
F1.0
sVremaining
p898
F1.0
saa(lp899
S'W04-021347'
p900
a(dp901
Vprecise
p902
F1.0
sVcarlson
p903
F1.0
sVguidelines
p904
F1.0
sVthus
p905
F1.0
sVas
p906
F1.0
sVT-FLOAT
p907
F1.0
sVopted
p908
F1.0
sVfor
p909
F2.0
sVto
p910
F1.0
sg116
F2.0
sg117
F2.0
sg19
F2.0
sVT-INT
p911
F1.0
sVwritten
p912
F1.0
sVtake
p913
F1.0
sVwhich
p914
F1.0
sVmore
p915
F1.0
sVmeasuring
p916
F1.0
sVthen
p917
F1.0
sVwe
p918
F1.0
sVcreating
p919
F1.0
sVagreement
p920
F1.0
sVstep
p921
F1.0
sVnot
p922
F1.0
sVmarcu
p923
F1.0
sVannotation
p924
F1.0
sVwould
p925
F1.0
sVinter-annotator
p926
F1.0
sVdid
p927
F1.0
sVof
p928
F1.0
sVallow
p929
F1.0
sVenglish
p930
F1.0
sVthe
p931
F1.0
saa(lp932
S'W04-021340'
p933
a(dp934
VT-INT
p935
F2.0
sVT-FLOAT
p936
F2.0
sVstructure
p937
F1.0
sVsyntactic
p938
F1.0
saa(lp939
S'W04-021341'
p940
a(dp941
Vcore
p942
F1.0
sVjust
p943
F1.0
sVfor
p944
F1.0
sVsyntactic
p945
F1.0
sVof
p946
F1.0
sVcorpus
p947
F1.0
sVT-FLOAT
p948
F1.0
sVbegun
p949
F1.0
sVthe
p950
F1.0
sVhas
p951
F1.0
sVannotation
p952
F1.0
sVstructure
p953
F1.0
saa(lp954
S'W04-021342'
p955
a(dp956
Vgerman
p957
F1.0
sVdeveloped
p958
F1.0
sVguidelines
p959
F1.0
sVal
p960
F1.0
sVannotate
p961
F1.0
sVin
p962
F1.0
sVet
p963
F1.0
sVT-FLOAT
p964
F2.0
sVfor
p965
F2.0
sVsyntactic
p966
F1.0
sg116
F1.0
sg117
F1.0
sg19
F1.0
sVT-INT
p967
F2.0
sVtext
p968
F1.0
sVstructures
p969
F1.0
sVwe
p970
F1.0
sVtool
p971
F1.0
sVtiger
p972
F1.0
sVconstruction
p973
F1.0
sVusing
p974
F1.0
sVannotation
p975
F1.0
sVof
p976
F2.0
sVtree
p977
F1.0
sVproject
p978
F1.0
sVbrants
p979
F1.0
sVfollow
p980
F1.0
sVnewspaper
p981
F1.0
sVthe
p982
F3.0
sVinteractive
p983
F1.0
saa(lp984
S'W04-021343'
p985
a(dp986
VT-INT
p987
F2.0
sVT-FLOAT
p988
F2.0
sVrhetorical
p989
F1.0
sVstructure
p990
F1.0
saa(lp991
S'W04-02139'
p992
a(dp993
Vis
p994
F1.0
sVin
p995
F1.0
sVT-FLOAT
p996
F1.0
sVby
p997
F1.0
sVpapers
p998
F1.0
sVwas
p999
F1.0
sVused
p1000
F1.0
sVmotivated
p1001
F1.0
sVnationwide
p1002
F1.0
sVthat
p1003
F2.0
sVread
p1004
F1.0
sVregional
p1005
F1.0
sVchoice
p1006
F1.0
sVsomewhat
p1007
F1.0
sVparticular
p1008
F1.0
sVthan
p1009
F1.0
sVsimpler
p1010
F1.0
sg38
F1.0
sVlanguage
p1011
F1.0
sVof
p1012
F2.0
sVdaily
p1013
F1.0
sVnewspaper
p1014
F1.0
sVthe
p1015
F4.0
sVfact
p1016
F1.0
saa(lp1017
S'W04-02138'
p1018
a(dp1019
Voften
p1020
F1.0
sVpoint
p1021
F1.0
sVtext
p1022
F1.0
sVsome
p1023
F1.0
sVsay
p1024
F1.0
sVin
p1025
F1.0
sVcommentaries
p1026
F1.0
sVyet
p1027
F1.0
sVinteresting
p1028
F1.0
sVpolitical
p1029
F1.0
sg19
F4.0
sVfavor
p1030
F1.0
sVother
p1031
F2.0
sVtherefore
p1032
F1.0
sVdismissing
p1033
F1.0
sg80
F1.0
sVrhetorical
p1034
F1.0
sVissue
p1035
F1.0
sVmore
p1036
F1.0
sVoffer
p1037
F1.0
sVthey
p1038
F1.0
sVthan
p1039
F1.0
sVstructure
p1040
F1.0
sg38
F2.0
sVtoward
p1041
F1.0
sVportions
p1042
F1.0
sVof
p1043
F4.0
sVnewspapers
p1044
F1.0
sVspecific
p1045
F1.0
sVpoints
p1046
F1.0
sVdicussing
p1047
F1.0
sVnarrative
p1048
F1.0
sVT-FLOAT
p1049
F1.0
sVargue
p1050
F1.0
sVtypically
p1051
F1.0
sVor
p1052
F1.0
sVview
p1053
F2.0
saa(lp1054
S'W04-02137'
p1055
a(dp1056
Vand
p1057
F1.0
sVan
p1058
F1.0
sVare
p1059
F1.0
sVits
p1060
F2.0
sVfrom
p1061
F1.0
sVfor
p1062
F2.0
sg19
F2.0
sVdiscourse
p1063
F1.0
sVother
p1064
F1.0
sVresulted
p1065
F1.0
sVcommentary
p1066
F1.0
sVcorpus
p1067
F1.0
sVrhetorical
p1068
F1.0
sVbuilding
p1069
F1.0
sVaspects
p1070
F1.0
sVthat
p1071
F1.0
sVchoice
p1072
F1.0
sVinvestigation
p1073
F1.0
sVkey
p1074
F1.0
sVgenre
p1075
F1.0
sVwith
p1076
F1.0
sVT-FLOAT
p1077
F1.0
sVstructure
p1078
F2.0
sVmotivations
p1079
F1.0
sVprospects
p1080
F1.0
sVinteraction
p1081
F1.0
sVderivation
p1082
F1.0
sVof
p1083
F3.0
sVup
p1084
F1.0
sVthe
p1085
F6.0
sVautomatic
p1086
F1.0
sVfact
p1087
F1.0
saa(lp1088
S'W04-02135'
p1089
a(dp1090
g38
F1.0
sVand
p1091
F1.0
sVthis
p1092
F1.0
sVcomprehensive
p1093
F1.0
sVof
p1094
F1.0
sg19
F2.0
sVcollection
p1095
F1.0
sVhowever
p1096
F1.0
sVcurrent
p1097
F1.0
sVT-FLOAT
p1098
F1.0
sVstate
p1099
F1.0
sVpaper
p1100
F1.0
sVprovides
p1101
F1.0
sVoverview
p1102
F1.0
sVeffort
p1103
F1.0
sVthe
p1104
F1.0
sVdata
p1105
F1.0
sVits
p1106
F1.0
saa(lp1107
S'W04-02134'
p1108
a(dp1109
g19
F1.0
sVperspective
p1110
F1.0
sVhave
p1111
F1.0
sVin
p1112
F1.0
sVT-FLOAT
p1113
F1.0
sVprevious
p1114
F1.0
sVstede
p1115
F2.0
sg116
F3.0
sg117
F3.0
sVtwo
p1116
F1.0
sVbeen
p1117
F1.0
sVT-INT
p1118
F2.0
sVpapers
p1119
F1.0
sg80
F1.0
sVrhetorical
p1120
F1.0
sVunderspecified
p1121
F1.0
sVaspects
p1122
F1.0
sVcorpus
p1123
F1.0
sVstructure
p1124
F1.0
sVsummarization
p1125
F1.0
sVon
p1126
F2.0
sVpresented
p1127
F1.0
sVof
p1128
F2.0
sVknowledge-based
p1129
F1.0
sVreitter
p1130
F1.0
sVthe
p1131
F2.0
saa(lp1132
S'W04-02133'
p1133
a(dp1134
Vand
p1135
F1.0
sVgerman
p1136
F1.0
sVat
p1137
F1.0
sVcommentaries
p1138
F1.0
sVassembled
p1139
F1.0
sVinformation
p1140
F1.0
sVdifferent
p1141
F2.0
sVannotated
p1142
F1.0
sg19
F2.0
sVbeen
p1143
F1.0
sVto
p1144
F1.0
sVdegrees
p1145
F1.0
sVpotsdam
p1146
F1.0
sVlinguistic
p1147
F1.0
sVcorpus
p1148
F1.0
sVhas
p1149
F1.0
sVwith
p1150
F1.0
sg38
F1.0
sVof
p1151
F1.0
sVuniversity
p1152
F1.0
sVnewspaper
p1153
F1.0
sVT-FLOAT
p1154
F1.0
saa(lp1155
S'W04-02132'
p1156
a(dp1157
Vand
p1158
F1.0
sVnumber
p1159
F1.0
sVpaper
p1160
F1.0
sVdesign
p1161
F1.0
sVin
p1162
F1.0
sVT-FLOAT
p1163
F1.0
sVdecisions
p1164
F1.0
sVits
p1165
F1.0
sg19
F1.0
sVdescribes
p1166
F1.0
sVtaken
p1167
F1.0
sVcorpus
p1168
F1.0
sVexplains
p1169
F1.0
sVannotations
p1170
F1.0
sVmulti-layer
p1171
F1.0
sVapplications
p1172
F1.0
sVusing
p1173
F1.0
sVwith
p1174
F1.0
sVannotation
p1175
F1.0
sg38
F1.0
sVthis
p1176
F1.0
sVof
p1177
F1.0
sVthe
p1178
F3.0
saa(lp1179
S'W04-02131'
p1180
a(dp1181
Vand
p1182
F3.0
sVgerman
p1183
F1.0
sVco-reference
p1184
F1.0
sVsyntax
p1185
F1.0
sVconnectives
p1186
F1.0
sVcommentaries
p1187
F1.0
sVassembled
p1188
F1.0
sVinformation
p1189
F2.0
sVdifferent
p1190
F2.0
sVannotated
p1191
F1.0
sg116
F1.0
sg117
F1.0
sVcurrently
p1192
F1.0
sg19
F6.0
sVbeen
p1193
F1.0
sVto
p1194
F1.0
sVdegrees
p1195
F1.0
sVpart-of-speech
p1196
F1.0
sVcorpus
p1197
F1.0
sVhas
p1198
F1.0
sVwith
p1199
F1.0
sVstructure
p1200
F2.0
sg38
F1.0
sg136
F1.0
sVof
p1201
F1.0
sVrhetorical
p1202
F1.0
sVnewspaper
p1203
F1.0
sVT-FLOAT
p1204
F1.0
saa(lp1205
S'W04-021353'
p1206
a(dp1207
Vproposed
p1208
F1.0
sVtext
p1209
F1.0
sVsingle
p1210
F1.0
sVrelation
p1211
F1.0
sVsimultaneously
p1212
F1.0
sg116
F2.0
sg117
F2.0
sVsegments
p1213
F1.0
sg19
F3.0
sVrelations
p1214
F1.0
sVT-INT
p1215
F2.0
sVadjacent
p1216
F1.0
sVbetween
p1217
F1.0
sVthompson
p1218
F1.0
sVmultiple
p1219
F1.0
sVthat
p1220
F2.0
sVmay
p1221
F1.0
sVmaintains
p1222
F1.0
sVrst
p1223
F1.0
sVhold
p1224
F2.0
sg38
F1.0
sVlascarides
p1225
F1.0
sVasher
p1226
F1.0
sVwhile
p1227
F1.0
sVT-FLOAT
p1228
F1.0
sVmann
p1229
F1.0
sVsdrt
p1230
F1.0
saa(lp1231
S'W04-021352'
p1232
a(dp1233
VT-INT
p1234
F2.0
sVT-FLOAT
p1235
F2.0
sVrhetorical
p1236
F1.0
sVstructure
p1237
F1.0
sVunderspecified
p1238
F1.0
saa(lp1239
S'W04-021351'
p1240
a(dp1241
Vrespond
p1242
F1.0
sVand
p1243
F3.0
sVunderspecification
p1244
F1.0
sVis
p1245
F1.0
sVan
p1246
F2.0
sVsee
p1247
F2.0
sVconnectives
p1248
F1.0
sVits
p1249
F1.0
sVadditional
p1250
F1.0
sVfor
p1251
F1.0
sVto
p1252
F2.0
sg116
F2.0
sg117
F2.0
sVthat
p1253
F1.0
sg19
F1.0
sVlong
p1254
F1.0
sVannotation
p1255
F1.0
sVT-INT
p1256
F4.0
sVonly
p1257
F1.0
sVother
p1258
F1.0
sVattends
p1259
F1.0
sVtreatment
p1260
F1.0
sVwhich
p1261
F1.0
sVobjective
p1262
F1.0
sVrhetorical
p1263
F1.0
sVscopes
p1264
F1.0
sVwe
p1265
F1.0
sVtowards
p1266
F1.0
sVintended
p1267
F1.0
sVformat
p1268
F1.0
sVhand
p1269
F2.0
sVstep
p1270
F1.0
sVsystematic
p1271
F1.0
sVintermediate
p1272
F1.0
sVone
p1273
F1.0
sVwith
p1274
F2.0
sVthe
p1275
F3.0
sVstructure
p1276
F1.0
sg38
F2.0
sVon
p1277
F3.0
sVlevel
p1278
F1.0
sVthis
p1279
F1.0
sVof
p1280
F2.0
sVas
p1281
F1.0
sVtheir
p1282
F1.0
sVT-FLOAT
p1283
F3.0
sVroad
p1284
F1.0
saa(lp1285
S'W04-021350'
p1286
a(dp1287
g38
F1.0
sVand
p1288
F1.0
sVwww
p1289
F1.0
sVpossibly
p1290
F1.0
sVprocess
p1291
F1.0
sVassigning
p1292
F1.0
sVis
p1293
F1.0
sVwith
p1294
F1.0
sg19
F2.0
sVrelations
p1295
F1.0
sVT-INT
p1296
F1.0
sVhtml
p1297
F1.0
sVwagsoft
p1298
F1.0
sVambiguity
p1299
F1.0
sVsubjectivity
p1300
F1.0
sVloaded
p1301
F1.0
sVT-FLOAT
p1302
F3.0
sVrhetorical
p1303
F1.0
sVcom/rsttool
p1304
F1.0
saa(lp1305
S'W04-021357'
p1306
a(dp1307
Vthere
p1308
F1.0
sVless
p1309
F1.0
sVof
p1310
F1.0
sVis
p1311
F2.0
sVadverbial
p1312
F1.0
sVwhen
p1313
F1.0
sg19
F1.0
sVconnective
p1314
F1.0
sVan
p1315
F1.0
sVto
p1316
F1.0
sVas
p1317
F1.0
sVmuch
p1318
F1.0
sVspans
p1319
F1.0
sVrange
p1320
F1.0
sVthe
p1321
F3.0
sVclarity
p1322
F1.0
sVT-FLOAT
p1323
F1.0
saa(lp1324
S'W04-021356'
p1325
a(dp1326
Vstretches
p1327
F1.0
sVoften
p1328
F1.0
sVclause
p1329
F2.0
sVis
p1330
F3.0
sVit
p1331
F1.0
sVsecond
p1332
F1.0
sVfurther
p1333
F1.0
sVspan
p1334
F2.0
sVwhen
p1335
F1.0
sg19
F2.0
sg80
F1.0
sVpreceding
p1336
F1.0
sVbut
p1337
F1.0
sVback
p1338
F1.0
sVusually
p1339
F1.0
sVcoordinating
p1340
F1.0
sVconjunction
p1341
F2.0
sVT-FLOAT
p1342
F1.0
sg38
F1.0
sVsignal
p1343
F1.0
sVsometimes
p1344
F1.0
sVfollowing
p1345
F1.0
sVthe
p1346
F6.0
sVfirst
p1347
F1.0
saa(lp1348
S'W04-021355'
p1349
a(dp1350
Vclause
p1351
F2.0
sVsome
p1352
F1.0
sVrelated
p1353
F1.0
sVconjunctions
p1354
F1.0
sVare
p1355
F1.0
sVspans
p1356
F1.0
sVT-FLOAT
p1357
F1.0
sVclearly
p1358
F1.0
sVmatrix
p1359
F1.0
sg116
F1.0
sg117
F1.0
sg19
F2.0
sVrelations
p1360
F1.0
sVby
p1361
F1.0
sVwhich
p1362
F1.0
sVtext
p1363
F1.0
sVdemarcate
p1364
F1.0
sVsignalled
p1365
F1.0
sVembedded
p1366
F1.0
sVof
p1367
F1.0
sVrange
p1368
F1.0
sVsubordinating
p1369
F1.0
sVthe
p1370
F2.0
saa(lp1371
S'W04-021359'
p1372
a(dp1373
Vand
p1374
F1.0
sVoften
p1375
F1.0
sValmost
p1376
F1.0
sVpointed
p1377
F1.0
sVrandom
p1378
F1.0
sVas
p1379
F1.0
sVrelation
p1380
F1.0
sVour
p1381
F1.0
sVdecisions
p1382
F1.0
sVout
p1383
F1.0
sVwhat
p1384
F1.0
sVspan
p1385
F1.0
sg19
F1.0
sVto
p1386
F3.0
sVchoose
p1387
F1.0
sVboundary
p1388
F1.0
sVannotators
p1389
F1.0
sVlocate
p1390
F1.0
sVthat
p1391
F1.0
sVvery
p1392
F1.0
sVthey
p1393
F1.0
sVT-FLOAT
p1394
F1.0
sg38
F1.0
sVmade
p1395
F1.0
sVof
p1396
F1.0
sVthe
p1397
F1.0
sVwhere
p1398
F1.0
saa(lp1399
S'W04-021358'
p1400
a(dp1401
Vbe
p1402
F1.0
sVrhetorical
p1403
F1.0
sVoften
p1404
F1.0
sVthat
p1405
F1.0
sVthus
p1406
F1.0
sVrelations
p1407
F1.0
sVanswered
p1408
F1.0
sVonly
p1409
F1.0
sVsubjectively
p1410
F1.0
sVcan
p1411
F1.0
sVquestions
p1412
F1.0
sVT-FLOAT
p1413
F1.0
sVposes
p1414
F1.0
sVassigning
p1415
F1.0
saa(lp1416
S'W04-0213148'
p1417
a(dp1418
g116
F2.0
sg117
F1.0
sVal
p1419
F1.0
sg19
F1.0
sVT-INT
p1420
F1.0
sVet
p1421
F1.0
sVT-FLOAT
p1422
F2.0
sVwebber
p1423
F1.0
saa(lp1424
S'W04-021326'
p1425
a(dp1426
Vand
p1427
F1.0
sVago
p1428
F1.0
sVin
p1429
F1.0
sVsurprisingly
p1430
F1.0
sVdue
p1431
F1.0
sVyear
p1432
F1.0
sVT-FLOAT
p1433
F1.0
sVbefore
p1434
F1.0
sVT-INT
p1435
F1.0
sVbrandenburg
p1436
F1.0
sVlegislation
p1437
F1.0
sg19
F1.0
sVto
p1438
F2.0
sVmore
p1439
F1.0
sVdrafted
p1440
F1.0
sVit
p1441
F1.0
sVdramatic
p1442
F1.0
sg38
F1.0
sVdecide
p1443
F1.0
sVnot
p1444
F1.0
sVnow
p1445
F1.0
sVthan
p1446
F1.0
sVfiscal
p1447
F1.0
sVon
p1448
F1.0
sVwithdrew
p1449
F1.0
sVsuggested
p1450
F1.0
sVshe
p1451
F1.0
sVsituation
p1452
F1.0
sVthe
p1453
F1.0
saa(lp1454
S'W04-021327'
p1455
a(dp1456
Vand
p1457
F1.0
sVboth
p1458
F1.0
sVbecause
p1459
F1.0
sVof
p1460
F1.0
sVhad
p1461
F1.0
sg19
F1.0
sVtogether
p1462
F1.0
sVprepared
p1463
F1.0
sVunexpectedly
p1464
F1.0
sVministries
p1465
F1.0
sVplan
p1466
F1.0
sVT-FLOAT
p1467
F1.0
sVtreasury
p1468
F1.0
sVthe
p1469
F2.0
sVeducation
p1470
F1.0
sVteacher
p1471
F1.0
saa(lp1472
S'W04-021322'
p1473
a(dp1474
Vwe
p1475
F1.0
sVpoint
p1476
F1.0
sVthis
p1477
F1.0
sVsection
p1478
F1.0
sVbriefly
p1479
F1.0
sVwill
p1480
F1.0
sVT-INT
p1481
F2.0
sVin
p1482
F1.0
sVT-FLOAT
p1483
F2.0
sVdiscuss
p1484
F1.0
saa(lp1485
S'W04-021323'
p1486
a(dp1487
Vpart-of-speech
p1488
F1.0
sVT-INT
p1489
F2.0
sVT-FLOAT
p1490
F2.0
sVtags
p1491
F1.0
saa(lp1492
S'W04-021320'
p1493
a(dp1494
Vand
p1495
F1.0
sVxml
p1496
F1.0
sVall
p1497
F1.0
sVown
p1498
F1.0
sVtools
p1499
F1.0
sVeach
p1500
F1.0
sVdtd
p1501
F1.0
sVlayer
p1502
F1.0
sVits
p1503
F1.0
sVspecific
p1504
F1.0
sVT-FLOAT
p1505
F1.0
sVdone
p1506
F1.0
sVare
p1507
F1.0
sVin
p1508
F1.0
sg80
F1.0
sVhas
p1509
F1.0
sVwith
p1510
F1.0
sVannotations
p1511
F1.0
saa(lp1512
S'W04-021321'
p1513
a(dp1514
Vinterchangability
p1515
F1.0
sVannotation
p1516
F1.0
sVfor
p1517
F1.0
sVto
p1518
F1.0
sVthis
p1519
F1.0
sVof
p1520
F2.0
sVquestion
p1521
F1.0
sg19
F1.0
sVbut
p1522
F1.0
sVit
p1523
F1.0
sVwell-known
p1524
F1.0
sVhow
p1525
F1.0
sVoffers
p1526
F1.0
sVadvantages
p1527
F1.0
sVraises
p1528
F1.0
sVT-FLOAT
p1529
F1.0
sVquery
p1530
F1.0
sVthe
p1531
F3.0
sVcorpus
p1532
F1.0
sVacross
p1533
F1.0
sVlevels
p1534
F1.0
saa(lp1535
S'W04-021328'
p1536
a(dp1537
Vthough
p1538
F1.0
sVthis
p1539
F1.0
sVis
p1540
F1.0
sVwithdrawal
p1541
F1.0
sg19
F1.0
sVT-FLOAT
p1542
F1.0
sVunderstandable
p1543
F1.0
sVtreasury
p1544
F1.0
sVthe
p1545
F1.0
sVby
p1546
F1.0
sVsecretary
p1547
F1.0
saa(lp1548
S'W04-0213138'
p1549
a(dp1550
g38
F1.0
sVinformation
p1551
F1.0
sVseek
p1552
F1.0
sVis
p1553
F1.0
sVhere
p1554
F1.0
sVone
p1555
F1.0
sVto
p1556
F1.0
sVT-FLOAT
p1557
F1.0
sVkey
p1558
F1.0
sVof
p1559
F1.0
sVmodel
p1560
F1.0
sVissue
p1561
F1.0
sVdiscourse-based
p1562
F1.0
sVstructure
p1563
F1.0
saa(lp1564
S'W04-0213131'
p1565
a(dp1566
Vand
p1567
F3.0
sVtation
p1568
F1.0
sVsentence
p1569
F1.0
sVgeneration
p1570
F1.0
sVtext
p1571
F2.0
sVis
p1572
F1.0
sVcorrelations
p1573
F1.0
sVtwo
p1574
F1.0
sVplanning
p1575
F2.0
sVat
p1576
F1.0
sVin
p1577
F1.0
sVT-FLOAT
p1578
F3.0
sVexpressions
p1579
F1.0
sVinformation
p1580
F1.0
sVphases
p1581
F1.0
sVexploited
p1582
F1.0
sVreferring
p1583
F1.0
sVfor
p1584
F1.0
sVto
p1585
F1.0
sVrather
p1586
F1.0
sg117
F1.0
sg19
F5.0
sVleast
p1587
F1.0
sVthan
p1588
F1.0
sVprocess
p1589
F1.0
sVcolloquial
p1590
F1.0
sVpcc
p1591
F1.0
sVnear-synonym
p1592
F1.0
sVmore
p1593
F1.0
sVbe
p1594
F1.0
sVpartly
p1595
F2.0
sVthat
p1596
F2.0
sVbetween
p1597
F1.0
sVuse
p1598
F1.0
sVchoice
p1599
F1.0
sVdriven
p1600
F1.0
sVparticular
p1601
F1.0
sVby
p1602
F2.0
sVstructure
p1603
F2.0
sVlook
p1604
F1.0
sg38
F1.0
sVwell-motivated
p1605
F1.0
sg92
F1.0
sVlike
p1606
F1.0
sVg
p1607
F1.0
sVthis
p1608
F1.0
sVof
p1609
F3.0
sVsentence-internal
p1610
F1.0
sVsyntactic
p1611
F1.0
sVchoices
p1612
F1.0
sVlexeme
p1613
F1.0
sg116
F1.0
sVcan
p1614
F1.0
sVy
p1615
F1.0
sVx
p1616
F1.0
sVthe
p1617
F1.0
sVor
p1618
F1.0
sVcon
p1619
F1.0
saa(lp1620
S'W04-0213130'
p1621
a(dp1622
Vgeneration
p1623
F1.0
sVT-INT
p1624
F2.0
sVT-FLOAT
p1625
F2.0
sVsalience-based
p1626
F1.0
sVtext
p1627
F1.0
saa(lp1628
S'W04-0213133'
p1629
a(dp1630
Vand
p1631
F1.0
sVmotivation
p1632
F1.0
sVbecause
p1633
F1.0
sVis
p1634
F1.0
sVunderstood
p1635
F1.0
sVare
p1636
F1.0
sVdecisions
p1637
F1.0
sVyet
p1638
F1.0
sVfor
p1639
F1.0
sVthere
p1640
F1.0
sg19
F1.0
sVsystems
p1641
F1.0
sVlinguistic
p1642
F1.0
sVthen
p1643
F1.0
sVthem
p1644
F1.0
sVthat
p1645
F1.0
sVnot
p1646
F1.0
sVT-FLOAT
p1647
F1.0
sVwell
p1648
F1.0
sVhard-wire
p1649
F1.0
sVmaking
p1650
F1.0
sVthe
p1651
F1.0
sVtypically
p1652
F1.0
saa(lp1653
S'W04-0213132'
p1654
a(dp1655
Vis
p1656
F2.0
sVin
p1657
F1.0
sVone
p1658
F1.0
sVsupplementary
p1659
F1.0
sVperspective
p1660
F1.0
sVpartner
p1661
F1.0
sVour
p1662
F1.0
sVinformation
p1663
F1.0
sVdifferent
p1664
F1.0
sg116
F1.0
sg117
F1.0
sg19
F2.0
sVT-INT
p1665
F1.0
sVprojects
p1666
F1.0
sVwhich
p1667
F1.0
sVtaken
p1668
F1.0
sVventionalized
p1669
F1.0
sVinforma
p1670
F1.0
sVdiscourse-based
p1671
F1.0
sVbut
p1672
F1.0
sVnews
p1673
F1.0
sVby
p1674
F1.0
sVstructure
p1675
F1.0
sg38
F1.0
sVon
p1676
F1.0
sg92
F1.0
sg1607
F1.0
sVof
p1677
F2.0
sVtion
p1678
F1.0
sVreports
p1679
F1.0
sVpatterns
p1680
F1.0
sVT-FLOAT
p1681
F3.0
sVinter
p1682
F1.0
sVorder
p1683
F1.0
saa(lp1684
S'W04-0213134'
p1685
a(dp1686
Vthis
p1687
F1.0
sVword
p1688
F1.0
sVespecially
p1689
F1.0
sVfor
p1690
F1.0
sg116
F1.0
sg117
F1.0
sVbelong
p1691
F1.0
sVfree
p1692
F1.0
sVoften
p1693
F1.0
sVlanguages
p1694
F1.0
sVto
p1695
F1.0
sVin
p1696
F1.0
sVconstituent
p1697
F1.0
sVT-FLOAT
p1698
F1.0
sVrelatively
p1699
F1.0
sVwith
p1700
F1.0
sVorder
p1701
F2.0
sVgroup
p1702
F1.0
sVpreferences
p1703
F1.0
saa(lp1704
S'W04-0213137'
p1705
a(dp1706
Vjust
p1707
F1.0
sVup
p1708
F1.0
sVis
p1709
F1.0
sVphenomena
p1710
F1.0
sVan
p1711
F1.0
sVoverarching
p1712
F1.0
sVsketched
p1713
F1.0
sVgoal
p1714
F1.0
sVfor
p1715
F1.0
sVbasis
p1716
F1.0
sg19
F1.0
sVto
p1717
F1.0
sVdiscourse
p1718
F1.0
sVbuild
p1719
F1.0
sVpcc
p1720
F1.0
sVapplications
p1721
F1.0
sVbesides
p1722
F1.0
sVT-FLOAT
p1723
F1.0
sVstructure
p1724
F2.0
sVdeveloping
p1725
F1.0
sVof
p1726
F2.0
sVempirical
p1727
F1.0
sVinvestigating
p1728
F1.0
sVthe
p1729
F3.0
saa(lp1730
S'W04-0213136'
p1731
a(dp1732
Vimproved
p1733
F1.0
sVmodels
p1734
F1.0
sVof
p1735
F1.0
sVT-INT
p1736
F2.0
sVdiscourse
p1737
F1.0
sVT-FLOAT
p1738
F2.0
saa(lp1739
S'W04-0213159'
p1740
a(dp1741
g38
F1.0
sVlanguages
p1742
F1.0
sg19
F2.0
sVthough
p1743
F1.0
sVthis
p1744
F1.0
sVof
p1745
F2.0
sVnumber
p1746
F1.0
sVresearch
p1747
F1.0
sVchallenges
p1748
F1.0
sVacross
p1749
F1.0
sVas
p1750
F1.0
sVtag
p1751
F1.0
sVT-FLOAT
p1752
F1.0
sVapplicability
p1753
F1.0
sVsets
p1754
F1.0
sVsuch
p1755
F1.0
sVthe
p1756
F1.0
sVposes
p1757
F1.0
sVclearly
p1758
F1.0
sVdifferent
p1759
F1.0
saa(lp1760
S'W04-0213158'
p1761
a(dp1762
Vand
p1763
F1.0
sVlarger
p1764
F1.0
sVtag
p1765
F1.0
sVT-FLOAT
p1766
F1.0
sVclearly
p1767
F1.0
sVsize
p1768
F1.0
sVfrom
p1769
F1.0
sVlead
p1770
F1.0
sg19
F1.0
sVto
p1771
F1.0
sVwhich
p1772
F1.0
sVresources
p1773
F1.0
sVsharable
p1774
F1.0
sVformats
p1775
F1.0
sVhere
p1776
F1.0
sVstandard
p1777
F1.0
sVemergence
p1778
F1.0
sVannotation
p1779
F1.0
sVkind
p1780
F1.0
sVwould
p1781
F1.0
sVpresented
p1782
F1.0
sVof
p1783
F3.0
sVcould
p1784
F1.0
sVwork
p1785
F1.0
sVbenefit
p1786
F1.0
sVsets
p1787
F1.0
sVthe
p1788
F2.0
saa(lp1789
S'W04-0213153'
p1790
a(dp1791
Vand
p1792
F1.0
sVbreadth
p1793
F1.0
sVtexts
p1794
F1.0
sVT-FLOAT
p1795
F1.0
sVconversion
p1796
F1.0
sVhad
p1797
F1.0
sg19
F3.0
sVbeen
p1798
F1.0
sVT-INT
p1799
F2.0
sVemphasis
p1800
F1.0
sVtaken
p1801
F1.0
sVcorpus
p1802
F1.0
sVshifted
p1803
F1.0
sVtowards
p1804
F2.0
sVafter
p1805
F1.0
sVstep
p1806
F1.0
sVurml
p1807
F1.0
sVrst
p1808
F1.0
sVwith
p1809
F1.0
sVannotation
p1810
F1.0
sVentire
p1811
F1.0
sVof
p1812
F2.0
sVpos-tagging
p1813
F1.0
sVdepth
p1814
F1.0
sVthe
p1815
F3.0
sVfirst
p1816
F1.0
saa(lp1817
S'W04-0213152'
p1818
a(dp1819
Vparticularly
p1820
F1.0
sVthat
p1821
F1.0
sVthis
p1822
F1.0
sVmeans
p1823
F1.0
sVquickly
p1824
F1.0
sVT-FLOAT
p1825
F1.0
sVcan
p1826
F1.0
sVnot
p1827
F1.0
sVpcc
p1828
F1.0
sVthe
p1829
F1.0
sVgrow
p1830
F1.0
saa(lp1831
S'W04-0213150'
p1832
a(dp1833
g38
F1.0
sVof
p1834
F1.0
sVis
p1835
F1.0
sVfunded
p1836
F1.0
sVproject
p1837
F1.0
sVresult
p1838
F1.0
sVnot
p1839
F1.0
sVpcc
p1840
F1.0
sVthe
p1841
F2.0
sVT-FLOAT
p1842
F1.0
saa(lp1843
S'W04-0213157'
p1844
a(dp1845
Vand
p1846
F1.0
sValready
p1847
F1.0
sVcore
p1848
F1.0
sVin
p1849
F1.0
sVmoved
p1850
F1.0
sVconnectives
p1851
F1.0
sVhave
p1852
F1.0
sg80
F1.0
sVT-FLOAT
p1853
F1.0
sVbeyond
p1854
F1.0
sg116
F1.0
sg117
F1.0
sg19
F1.0
sVby
p1855
F1.0
sVcorpus
p1856
F1.0
sVannotations
p1857
F1.0
sVscopes
p1858
F1.0
sVsome
p1859
F1.0
sVstep
p1860
F2.0
sVparticular
p1861
F1.0
sVgrow
p1862
F1.0
sVrently
p1863
F1.0
sVwill
p1864
F1.0
sVthe
p1865
F3.0
sVothers
p1866
F1.0
saa(lp1867
S'W04-0213156'
p1868
a(dp1869
Vwww
p1870
F1.0
sVunipotsdam
p1871
F1.0
sVcourse
p1872
F1.0
sVthesis
p1873
F1.0
sVin
p1874
F1.0
sVspecial
p1875
F1.0
sVout
p1876
F1.0
sg19
F1.0
sVT-INT
p1877
F3.0
sVwhich
p1878
F1.0
sVwas
p1879
F1.0
sVde/sfb/projekt
p1880
F1.0
sVde
p1881
F1.0
sVdiploma
p1882
F1.0
sVhere
p1883
F1.0
sVmention
p1884
F1.0
sVstep
p1885
F1.0
sVling
p1886
F1.0
sVphp
p1887
F1.0
sVthe
p1888
F2.0
sg38
F1.0
sVcarried
p1889
F1.0
sVthis
p1890
F1.0
sVof
p1891
F2.0
sVwork
p1892
F1.0
sVserves
p1893
F1.0
sVdavid
p1894
F1.0
sVreitter
p1895
F1.0
sVT-FLOAT
p1896
F5.0
saa(lp1897
S'W04-0213155'
p1898
a(dp1899
Vand
p1900
F1.0
sVtext
p1901
F1.0
sVidea
p1902
F1.0
sVan
p1903
F1.0
sVas
p1904
F1.0
sVplanning
p1905
F1.0
sVin
p1906
F2.0
sVground
p1907
F1.0
sVcur
p1908
F1.0
sVfor
p1909
F1.0
sVto
p1910
F2.0
sg116
F1.0
sg117
F1.0
sg19
F3.0
sVanno
p1911
F1.0
sVT-INT
p1912
F2.0
sVexposition
p1913
F1.0
sVlinguistic
p1914
F1.0
sVstede
p1915
F1.0
sVmulti-level
p1916
F1.0
sVdescription
p1917
F1.0
sVapproaches
p1918
F1.0
sVchiarcos
p1919
F1.0
sVsuch
p1920
F1.0
sVT-FLOAT
p1921
F1.0
sg38
F1.0
sVtask
p1922
F1.0
sVobservation
p1923
F1.0
sVof
p1924
F2.0
sVsee
p1925
F1.0
sVapplied
p1926
F1.0
sVthe
p1927
F2.0
sVorder
p1928
F1.0
saa(lp1929
S'W04-021335'
p1930
a(dp1931
Vand
p1932
F1.0
sVis
p1933
F1.0
sVshort
p1934
F1.0
sVT-FLOAT
p1935
F1.0
sVtime
p1936
F1.0
saa(lp1937
S'W04-021334'
p1938
a(dp1939
Vfor
p1940
F1.0
sVmany
p1941
F1.0
sVwork
p1942
F1.0
sVenough
p1943
F1.0
sVT-FLOAT
p1944
F1.0
sVstate
p1945
F1.0
sVfuture
p1946
F1.0
sVteachers
p1947
F1.0
sVin
p1948
F1.0
sVnot
p1949
F1.0
sVthe
p1950
F1.0
sVhas
p1951
F1.0
sVits
p1952
F1.0
saa(lp1953
S'W04-021337'
p1954
a(dp1955
g38
F1.0
sVand
p1956
F1.0
sVquickly
p1957
F1.0
sVdo
p1958
F1.0
sVgovernment
p1959
F1.0
sVT-FLOAT
p1960
F1.0
sVmake
p1961
F1.0
sg19
F1.0
sVit
p1962
F1.0
sVto
p1963
F1.0
sVthe
p1964
F1.0
sVhas
p1965
F1.0
sVdecision
p1966
F1.0
saa(lp1967
S'W04-021336'
p1968
a(dp1969
Vbegin
p1970
F1.0
sVpupils
p1971
F1.0
sVT-INT
p1972
F1.0
sVof
p1973
F2.0
sVdrop
p1974
F1.0
sVnumber
p1975
F1.0
sVwill
p1976
F1.0
sVfall
p1977
F1.0
sVsignificant
p1978
F1.0
sVin
p1979
F2.0
sVthe
p1980
F2.0
sVT-FLOAT
p1981
F1.0
saa(lp1982
S'W04-021331'
p1983
a(dp1984
Vindeed
p1985
F1.0
sVthere
p1986
F1.0
sVare
p1987
F1.0
sVT-FLOAT
p1988
F1.0
sVseveral
p1989
F1.0
sVopen
p1990
F1.0
sVissues
p1991
F1.0
saa(lp1992
S'W04-021332'
p1993
a(dp1994
Vis
p1995
F2.0
sVsettlements
p1996
F1.0
sVit
p1997
F1.0
sVaccept
p1998
F1.0
sVone
p1999
F1.0
sVin
p2000
F1.0
sVhappen
p2001
F1.0
sVwhat
p2002
F1.0
sVretirement
p2003
F1.0
sVfor
p2004
F1.0
sg19
F1.0
sVshould
p2005
F1.0
sVto
p2006
F1.0
sVenough
p2007
F1.0
sVoffer
p2008
F1.0
sVwho
p2009
F1.0
sVearly
p2010
F1.0
sVnot
p2011
F2.0
sVT-FLOAT
p2012
F1.0
sVcase
p2013
F1.0
sVreceive
p2014
F1.0
sVof
p2015
F1.0
sVclear
p2016
F1.0
sVthing
p2017
F1.0
sVteachers
p2018
F1.0
sVthe
p2019
F1.0
sVor
p2020
F1.0
saa(lp2021
S'W04-021339'
p2022
a(dp2023
Vfigure
p2024
F1.0
sVof
p2025
F1.0
sVsample
p2026
F1.0
sVT-INT
p2027
F2.0
sVcommentary
p2028
F1.0
sVpcc
p2029
F1.0
sVtranslation
p2030
F1.0
sg136
F1.0
sVT-FLOAT
p2031
F1.0
saa(lp2032
S'W04-021338'
p2033
a(dp2034
Veducation
p2035
F1.0
sVgive
p2036
F1.0
sVmoney
p2037
F1.0
sVor
p2038
F1.0
sVpriority
p2039
F1.0
sVto
p2040
F1.0
sVcost
p2041
F1.0
sVeither
p2042
F1.0
sVT-FLOAT
p2043
F1.0
sVsave
p2044
F1.0
sVany
p2045
F1.0
sVat
p2046
F1.0
saa(lp2047
S'W04-0213128'
p2048
a(dp2049
Vand
p2050
F1.0
sVis
p2051
F1.0
sVidea
p2052
F1.0
sVgeneral
p2053
F1.0
sVas
p2054
F6.0
sVat
p2055
F1.0
sVhave
p2056
F1.0
sVknowledgebased
p2057
F1.0
sVits
p2058
F1.0
sVinformation
p2059
F1.0
sVuse
p2060
F1.0
sVfor
p2061
F1.0
sVdisposal
p2062
F1.0
sVsystem
p2063
F1.0
sVfind
p2064
F1.0
sVto
p2065
F2.0
sVmuch
p2066
F1.0
sVunderspecified
p2067
F1.0
sVpossible
p2068
F1.0
sVit
p2069
F1.0
sVproduce
p2070
F1.0
sVT-FLOAT
p2071
F1.0
sg38
F1.0
sVnecessary
p2072
F1.0
sVtarget
p2073
F1.0
sVspecific
p2074
F1.0
sVpart
p2075
F1.0
sVcan
p2076
F1.0
sVrepresentation
p2077
F1.0
sVthe
p2078
F3.0
saa(lp2079
S'W04-0213129'
p2080
a(dp2081
Vfeed
p2082
F1.0
sVinformation
p2083
F1.0
sVuseful
p2084
F1.0
sVfor
p2085
F1.0
sVdeveloping
p2086
F1.0
sVthese
p2087
F1.0
sVis
p2088
F1.0
sVmechanisms
p2089
F1.0
sg19
F1.0
sVpossibility
p2090
F1.0
sVto
p2091
F1.0
sVhand-annotated
p2092
F1.0
sVin
p2093
F1.0
sVvery
p2094
F1.0
sVthe
p2095
F1.0
sVT-FLOAT
p2096
F1.0
saa(lp2097
S'W04-0213126'
p2098
a(dp2099
Vbe
p2100
F1.0
sVknowledge
p2101
F1.0
sVfor
p2102
F1.0
sVthen
p2103
F1.0
sVinformation
p2104
F1.0
sVof
p2105
F1.0
sVco-reference
p2106
F1.0
sVbasis
p2107
F1.0
sVcapabilities
p2108
F1.0
sVfull-blown
p2109
F1.0
sVtested
p2110
F1.0
sVbase
p2111
F1.0
sVrelation-inference
p2112
F1.0
sVcan
p2113
F1.0
sVT-FLOAT
p2114
F1.0
sVthe
p2115
F2.0
sVon
p2116
F1.0
sVits
p2117
F1.0
saa(lp2118
S'W04-0213127'
p2119
a(dp2120
Vand
p2121
F1.0
sVwe
p2122
F1.0
sVfull
p2123
F1.0
sVfrom
p2124
F1.0
sVco-reference
p2125
F1.0
sVtree
p2126
F1.0
sVuse
p2127
F1.0
sVmodule
p2128
F1.0
sg19
F1.0
sVT-FLOAT
p2129
F1.0
sVcan
p2130
F1.0
sVthe
p2131
F3.0
sVrhetorical
p2132
F1.0
sVconversely
p2133
F1.0
sVannotations
p2134
F1.0
sVtune
p2135
F1.0
saa(lp2136
S'W04-0213123'
p2137
a(dp2138
Vgeneration
p2139
F1.0
sVdeveloped
p2140
F1.0
sVthus
p2141
F1.0
sVare
p2142
F1.0
sVin
p2143
F1.0
sVdifferent
p2144
F1.0
sVfrom
p2145
F1.0
sVto
p2146
F1.0
sg19
F1.0
sVextraction
p2147
F1.0
sVinterested
p2148
F1.0
sVdegrees
p2149
F1.0
sVbe
p2150
F1.0
sVwe
p2151
F1.0
sVthat
p2152
F1.0
sVmay
p2153
F1.0
sVbut
p2154
F1.0
sVgranularity
p2155
F1.0
sVnot
p2156
F1.0
sVrepresentations
p2157
F1.0
sVactual
p2158
F1.0
sVof
p2159
F1.0
sVT-FLOAT
p2160
F1.0
saa(lp2161
S'W04-0213120'
p2162
a(dp2163
Vand
p2164
F2.0
sVal
p2165
F1.0
sg19
F2.0
sVare
p2166
F1.0
sVstatistical
p2167
F1.0
sVet
p2168
F1.0
sVcommentaries
p2169
F1.0
sVhanneforth
p2170
F1.0
sVagain
p2171
F1.0
sVtargeting
p2172
F1.0
sVstede
p2173
F1.0
sg116
F2.0
sg117
F2.0
sVhybrid
p2174
F1.0
sVsystem
p2175
F1.0
sVT-INT
p2176
F2.0
sVdiscourse
p2177
F1.0
sVrhetorical
p2178
F1.0
sVsummarization
p2179
F1.0
sVwe
p2180
F1.0
sVexperimenting
p2181
F1.0
sVgenre
p2182
F1.0
sVparsing
p2183
F1.0
sVwith
p2184
F1.0
sVthe
p2185
F1.0
sg38
F1.0
sVfor
p2186
F1.0
sVof
p2187
F1.0
sVknowledge-based
p2188
F1.0
sVanalysis
p2189
F1.0
sVT-FLOAT
p2190
F2.0
saa(lp2191
S'W04-0213121'
p2192
a(dp2193
Vand
p2194
F2.0
sVdomain
p2195
F1.0
sVmethods
p2196
F1.0
sVbe
p2197
F1.0
sVenriching
p2198
F1.0
sVtree
p2199
F1.0
sVis
p2200
F1.0
sVidea
p2201
F1.0
sVparsing
p2202
F1.0
sVsee
p2203
F1.0
sVconnectives
p2204
F1.0
sVhave
p2205
F1.0
sVby
p2206
F1.0
sVbased
p2207
F1.0
sVknowledge
p2208
F2.0
sVfor
p2209
F1.0
sVT-INT
p2210
F2.0
sg116
F2.0
sg117
F2.0
sVsection
p2211
F1.0
sVhypothesize
p2212
F1.0
sg19
F5.0
sVrelations
p2213
F1.0
sVshallow-analysis
p2214
F1.0
sVto
p2215
F3.0
sVdiscourse
p2216
F1.0
sVrhetorical
p2217
F1.0
sVinto
p2218
F1.0
sVunderspecified
p2219
F1.0
sVmap
p2220
F1.0
sVcoherence
p2221
F1.0
sVthat
p2222
F2.0
sVmay
p2223
F1.0
sVchunking
p2224
F1.0
sVshallow
p2225
F1.0
sVbase
p2226
F1.0
sVreferences
p2227
F1.0
sVnot
p2228
F1.0
sVworld
p2229
F1.0
sVT-FLOAT
p2230
F4.0
sVtagging
p2231
F1.0
sVhandled
p2232
F1.0
sg38
F2.0
sVon
p2233
F1.0
sVpipeline
p2234
F1.0
sVresolve
p2235
F1.0
sg92
F1.0
sg1607
F1.0
sVof
p2236
F1.0
sVmodules
p2237
F1.0
sVresulting
p2238
F1.0
sVcan
p2239
F1.0
sVcontain
p2240
F1.0
sVrepresentation
p2241
F1.0
sVthe
p2242
F3.0
sVor
p2243
F1.0
saa(lp2244
S'W04-021380'
p2245
a(dp2246
VT-INT
p2247
F2.0
sVT-FLOAT
p2248
F2.0
sVco-reference
p2249
F1.0
saa(lp2250
S'W04-021381'
p2251
a(dp2252
Vdeveloped
p2253
F1.0
sVco-reference
p2254
F1.0
sVguidelines
p2255
F1.0
sVas
p2256
F1.0
sVhave
p2257
F1.0
sVin
p2258
F1.0
sVT-FLOAT
p2259
F1.0
sVannotating
p2260
F1.0
sVyet
p2261
F1.0
sVgross
p2262
F1.0
sVfor
p2263
F3.0
sVbasis
p2264
F1.0
sg116
F1.0
sg117
F1.0
sg19
F1.0
sVbeen
p2265
F1.0
sVT-INT
p2266
F1.0
sVempirically
p2267
F1.0
sVversion
p2268
F1.0
sVwhich
p2269
F1.0
sVpcc
p2270
F1.0
sVcorpus
p2271
F1.0
sVcore
p2272
F1.0
sVwe
p2273
F1.0
sVagreement
p2274
F1.0
sVbut
p2275
F1.0
sVnot
p2276
F1.0
sVannotation
p2277
F1.0
sg38
F1.0
sVinter-annotator
p2278
F1.0
sVof
p2279
F1.0
sVevaluated
p2280
F1.0
sVserved
p2281
F1.0
sVthe
p2282
F1.0
sVfirst
p2283
F1.0
saa(lp2284
S'W04-021382'
p2285
a(dp2286
Vmmax
p2287
F1.0
sVwe
p2288
F1.0
sVfor
p2289
F1.0
sVmarking
p2290
F1.0
sVtool
p2291
F1.0
sVT-FLOAT
p2292
F1.0
sVuse
p2293
F1.0
sVbeen
p2294
F1.0
sg19
F1.0
sVT-INT
p2295
F1.0
sVco-reference
p2296
F1.0
sVspecifically
p2297
F1.0
sVwhich
p2298
F1.0
sVthe
p2299
F1.0
sVhas
p2300
F1.0
sVis
p2301
F1.0
sVdesigned
p2302
F1.0
saa(lp2303
S'W04-021383'
p2304
a(dp2305
Vand
p2306
F1.0
sVdefinite
p2307
F1.0
sVan
p2308
F1.0
sVadverbs
p2309
F1.0
sVsentences
p2310
F1.0
sVT-FLOAT
p2311
F1.0
sg116
F2.0
sg117
F2.0
sVcurrently
p2312
F2.0
sVprepositional
p2313
F2.0
sg19
F6.0
sVanaphoric
p2314
F1.0
sVto
p2315
F2.0
sVvarious
p2316
F1.0
sVestablishes
p2317
F1.0
sVmarks
p2318
F1.0
sVpronouns
p2319
F1.0
sg136
F2.0
sVthen
p2320
F1.0
sVkinds
p2321
F1.0
sVof
p2322
F1.0
sVupon
p2323
F1.0
sVannotator
p2324
F1.0
sVverb
p2325
F1.0
sVlink
p2326
F1.0
sVtwo
p2327
F1.0
sVbetween
p2328
F1.0
sVantecedent
p2329
F1.0
sVnoun
p2330
F2.0
sVidentifying
p2331
F1.0
sVphrases
p2332
F4.0
sVrestricted
p2333
F2.0
sVthe
p2334
F4.0
sVexpression
p2335
F2.0
sVfirst
p2336
F1.0
saa(lp2337
S'W04-021384'
p2338
a(dp2339
Vbridging
p2340
F1.0
sVvia
p2341
F1.0
sVlinks
p2342
F1.0
sVan
p2343
F1.0
sVdifferent
p2344
F1.0
sg116
F1.0
sg117
F1.0
sVdefinite
p2345
F1.0
sVtwo
p2346
F1.0
sVanaphoric
p2347
F1.0
sg136
F1.0
sVbe
p2348
F1.0
sVkinds
p2349
F1.0
sVnoun
p2350
F1.0
sVpicking
p2351
F1.0
sVantecedent
p2352
F1.0
sVworld-knowledge
p2353
F1.0
sVof
p2354
F1.0
sVup
p2355
F1.0
sVcan
p2356
F1.0
sVphrases
p2357
F1.0
sVT-FLOAT
p2358
F1.0
sVor
p2359
F1.0
saa(lp2360
S'W04-021386'
p2361
a(dp2362
Vhis
p2363
F1.0
sVespecially
p2364
F1.0
sVthis
p2365
F1.0
sVdog
p2366
F1.0
sg116
F1.0
sVT-FLOAT
p2367
F2.0
sVannoyed
p2368
F1.0
sVfact
p2369
F1.0
saa(lp2370
S'W04-021388'
p2371
a(dp2372
Vsignalled
p2373
F1.0
sVgerman
p2374
F1.0
sVentity-attribute
p2375
F1.0
sVcomputer
p2376
F1.0
sVare
p2377
F1.0
sVin
p2378
F1.0
sVstill
p2379
F1.0
sg267
F1.0
sVT-INT
p2380
F2.0
sg116
F2.0
sg117
F1.0
sg19
F4.0
sVrelations
p2381
F1.0
sVtheir
p2382
F1.0
sVcorpus
p2383
F1.0
sVtests
p2384
F1.0
sVthat
p2385
F1.0
sVlexically
p2386
F1.0
sVwho
p2387
F1.0
sVwounds
p2388
F1.0
sVhealing
p2389
F1.0
sVthe
p2390
F1.0
sg92
F1.0
sg1607
F1.0
sVof
p2391
F2.0
sVdetermined
p2392
F1.0
sVshe
p2393
F1.0
sVwere
p2394
F1.0
sVT-FLOAT
p2395
F4.0
saa(lp2396
S'W04-0213144'
p2397
a(dp2398
Vand
p2399
F1.0
sVset
p2400
F1.0
sVfeatures
p2401
F1.0
sVinto
p2402
F1.0
sVnumber
p2403
F1.0
sVintonation
p2404
F1.0
sVT-FLOAT
p2405
F1.0
sVcommentaries
p2406
F1.0
sVlayers
p2407
F1.0
sVspeakers
p2408
F1.0
sVannotated
p2409
F1.0
sg19
F1.0
sVby
p2410
F1.0
sVvarious
p2411
F1.0
sVpcc
p2412
F1.0
sVcan
p2413
F1.0
sVcorrespondence
p2414
F1.0
sVbe
p2415
F3.0
sVthat
p2416
F1.0
sVread
p2417
F1.0
sVnews
p2418
F1.0
sVwith
p2419
F1.0
sVannotation
p2420
F1.0
sg38
F1.0
sVof
p2421
F1.0
sVwill
p2422
F1.0
sVpatterns
p2423
F1.0
sVso
p2424
F1.0
sVprosodic
p2425
F1.0
sVprofessional
p2426
F1.0
sVthe
p2427
F1.0
saa(lp2428
S'W04-0213146'
p2429
a(dp2430
Vinformation
p2431
F1.0
sVrhetorical
p2432
F1.0
sVgoal
p2433
F1.0
sVmodels
p2434
F1.0
sVof
p2435
F1.0
sVis
p2436
F1.0
sg19
F1.0
sVcurrent
p2437
F1.0
sVto
p2438
F1.0
sVsecond
p2439
F1.0
sVbesides
p2440
F1.0
sVenhance
p2441
F1.0
sVthe
p2442
F1.0
sVmain
p2443
F1.0
sVT-FLOAT
p2444
F1.0
sVstructure
p2445
F2.0
saa(lp2446
S'W04-0213140'
p2447
a(dp2448
Vand
p2449
F1.0
sVhartmann
p2450
F1.0
sVin
p2451
F2.0
sVinformation
p2452
F1.0
sVfor
p2453
F1.0
sVT-INT
p2454
F1.0
sg116
F2.0
sg117
F2.0
sg19
F2.0
sVcharacterize
p2455
F1.0
sVto
p2456
F2.0
sVmain
p2457
F1.0
sVminor
p2458
F1.0
sVused
p2459
F1.0
sVreliefgebung
p2460
F1.0
sVdistibution
p2461
F1.0
sVrst
p2462
F1.0
sVT-FLOAT
p2463
F1.0
sVterm
p2464
F1.0
sVnuclearity
p2465
F1.0
sVtexts
p2466
F1.0
sVof
p2467
F2.0
sVnotion
p2468
F1.0
sVthe
p2469
F3.0
sVsimilar
p2470
F1.0
sVexample
p2471
F1.0
saa(lp2472
S'W04-021397'
p2473
a(dp2474
Vand
p2475
F1.0
sVthe
p2476
F2.0
sVphases
p2477
F1.0
sVof
p2478
F1.0
sVis
p2479
F1.0
sVtwo
p2480
F1.0
sVhere
p2481
F1.0
sg19
F2.0
sVunits
p2482
F1.0
sVmarked
p2483
F1.0
sVare
p2484
F1.0
sVT-FLOAT
p2485
F1.0
sVin
p2486
F1.0
sVdomains
p2487
F1.0
sVsuch
p2488
F1.0
sVannotation
p2489
F1.0
sg136
F1.0
sVproceeds
p2490
F1.0
sVas
p2491
F1.0
sVfirst
p2492
F1.0
saa(lp2493
S'W04-021396'
p2494
a(dp2495
Vmmax
p2496
F1.0
sVwe
p2497
F1.0
sVfor
p2498
F1.0
sVthis
p2499
F1.0
sVwell
p2500
F1.0
sVuse
p2501
F1.0
sVas
p2502
F1.0
sVT-FLOAT
p2503
F1.0
sVannotation
p2504
F1.0
saa(lp2505
S'W04-021394'
p2506
a(dp2507
Vand
p2508
F1.0
sVconverging
p2509
F1.0
sVon
p2510
F1.0
sVeven
p2511
F1.0
sVindeed
p2512
F1.0
sVis
p2513
F2.0
sVguidelines
p2514
F1.0
sg19
F1.0
sVthan
p2515
F1.0
sVco-reference
p2516
F1.0
sVit
p2517
F1.0
sVT-FLOAT
p2518
F1.0
sVdifficult
p2519
F1.0
sVwith
p2520
F1.0
sVannotation
p2521
F1.0
sVmore
p2522
F1.0
saa(lp2523
S'W04-021392'
p2524
a(dp2525
Vinformation
p2526
F1.0
sVT-FLOAT
p2527
F1.0
sVstructure
p2528
F1.0
saa(lp2529
S'W04-021390'
p2530
a(dp2531
Vrepair
p2532
F1.0
sVfees
p2533
F1.0
sVinsurance
p2534
F2.0
sVher
p2535
F2.0
sg116
F2.0
sg117
F1.0
sVhospital
p2536
F1.0
sg19
F3.0
sVshocked
p2537
F1.0
sVhealth
p2538
F1.0
sVprice
p2539
F1.0
sVbut
p2540
F1.0
sVpaid
p2541
F1.0
sVnot
p2542
F1.0
sVthe
p2543
F4.0
sg92
F1.0
sVfor
p2544
F1.0
sg1607
F1.0
sVdid
p2545
F1.0
sVcover
p2546
F1.0
sVsame-kind
p2547
F1.0
sVautomobile
p2548
F1.0
sVT-FLOAT
p2549
F5.0
sVor
p2550
F1.0
saa(lp2551
S'W04-021399'
p2552
a(dp2553
Vand
p2554
F1.0
sVamong
p2555
F1.0
sVis-units
p2556
F1.0
sVinferrable
p2557
F1.0
sVmarked
p2558
F1.0
sVactive
p2559
F1.0
sVas
p2560
F1.0
sVinactive
p2561
F1.0
sVare
p2562
F1.0
sVin
p2563
F1.0
sVexpressions
p2564
F1.0
sVreferring
p2565
F1.0
sVfor
p2566
F1.0
sg116
F1.0
sg117
F1.0
sg19
F5.0
sVlabel
p2567
F1.0
sVaccessible-situation
p2568
F1.0
sVstatus
p2569
F1.0
sVaccessibletext
p2570
F1.0
sVphase
p2571
F1.0
sVsuch
p2572
F1.0
sVT-FLOAT
p2573
F1.0
sg38
F1.0
sVcognitive
p2574
F1.0
sVreceive
p2575
F1.0
sVsecond
p2576
F1.0
sVwill
p2577
F1.0
sVthe
p2578
F3.0
saa(lp2579
S'W04-021398'
p2580
a(dp2581
Vand
p2582
F1.0
sVan
p2583
F1.0
sVas
p2584
F1.0
sVare
p2585
F3.0
sVspans
p2586
F2.0
sVsuch
p2587
F1.0
sg19
F1.0
sVto
p2588
F1.0
sVrole
p2589
F1.0
sVunits
p2590
F1.0
sVlinguistic
p2591
F1.0
sVis-partitioning
p2592
F1.0
sVplay
p2593
F1.0
sVthat
p2594
F2.0
sVconstituent
p2595
F1.0
sVT-FLOAT
p2596
F1.0
sg38
F3.0
sVpartitioning
p2597
F1.0
sVreceive
p2598
F1.0
sVof
p2599
F1.0
sVcan
p2600
F1.0
sVdomains
p2601
F1.0
sVthe
p2602
F4.0
saa(lp2603
S'W04-021318'
p2604
a(dp2605
Vlayers
p2606
F1.0
sVall
p2607
F2.0
sVfor
p2608
F1.0
sVT-FLOAT
p2609
F1.0
sVbeen
p2610
F1.0
sVproduced
p2611
F1.0
sVtexts
p2612
F1.0
sVhave
p2613
F1.0
sVnot
p2614
F1.0
sVthe
p2615
F2.0
sVyet
p2616
F1.0
saa(lp2617
S'W04-021317'
p2618
a(dp2619
Vinformation
p2620
F1.0
sVdifferent
p2621
F1.0
sVannotated
p2622
F1.0
sVof
p2623
F1.0
sVsix
p2624
F1.0
sg19
F1.0
sVbeen
p2625
F1.0
sVT-FLOAT
p2626
F1.0
sVare
p2627
F1.0
sVwhich
p2628
F1.0
sVin
p2629
F1.0
sVfollowing
p2630
F1.0
sVcharacterized
p2631
F1.0
sVthe
p2632
F2.0
sVhas
p2633
F1.0
sVwith
p2634
F1.0
sVcorpus
p2635
F1.0
sVtypes
p2636
F1.0
sVsubsections
p2637
F1.0
saa(lp2638
S'W04-021316'
p2639
a(dp2640
Vfrom
p2641
F1.0
sVconclusions
p2642
F1.0
sVof
p2643
F1.0
sVsection
p2644
F1.0
sVsome
p2645
F1.0
sVT-INT
p2646
F1.0
sVstate
p2647
F1.0
sVdraws
p2648
F1.0
sVthe
p2649
F2.0
sVeffort
p2650
F1.0
sVT-FLOAT
p2651
F1.0
sVpresent
p2652
F1.0
saa(lp2653
S'W04-021315'
p2654
a(dp2655
Vway
p2656
F1.0
sVfor
p2657
F1.0
sVthat
p2658
F1.0
sVT-FLOAT
p2659
F1.0
sVsection
p2660
F1.0
sg19
F2.0
sVbeen
p2661
F1.0
sVor
p2662
F2.0
sVT-INT
p2663
F1.0
sVapplications
p2664
F1.0
sVfuture
p2665
F1.0
sVare
p2666
F2.0
sVhave
p2667
F1.0
sVunder
p2668
F1.0
sVpcc
p2669
F1.0
sVthe
p2670
F2.0
sVdiscusses
p2671
F1.0
sVwith
p2672
F1.0
sVcompleted
p2673
F1.0
sVplanned
p2674
F1.0
saa(lp2675
S'W04-021314'
p2676
a(dp2677
Vthe
p2678
F2.0
sVbeing
p2679
F1.0
sVis
p2680
F1.0
sVorganized
p2681
F1.0
sVproduced
p2682
F2.0
sVas
p2683
F1.0
sVpaper
p2684
F1.0
sVare
p2685
F1.0
sVhave
p2686
F1.0
sVlayers
p2687
F1.0
sVdifferent
p2688
F1.0
sVsection
p2689
F1.0
sVbeen
p2690
F1.0
sVT-INT
p2691
F1.0
sg136
F1.0
sVexplains
p2692
F1.0
sVthat
p2693
F1.0
sVannotation
p2694
F1.0
sVfollows
p2695
F1.0
sVof
p2696
F1.0
sVT-FLOAT
p2697
F1.0
sVor
p2698
F1.0
saa(lp2699
S'W04-021313'
p2700
a(dp2701
Vgiven
p2702
F1.0
sVcommentaries
p2703
F1.0
sVfigure
p2704
F1.0
sVfor
p2705
F1.0
sVof
p2706
F2.0
sVis
p2707
F1.0
sVin
p2708
F1.0
sg19
F1.0
sVillustration
p2709
F1.0
sVan
p2710
F1.0
sVT-INT
p2711
F1.0
sVT-FLOAT
p2712
F1.0
sVenglish
p2713
F1.0
sVtranslation
p2714
F1.0
sVone
p2715
F1.0
sVthe
p2716
F1.0
saa(lp2717
S'W04-021312'
p2718
a(dp2719
Vall
p2720
F1.0
sVfrom
p2721
F1.0
sVto
p2722
F1.0
sVof
p2723
F1.0
sVsentences
p2724
F1.0
sVroughly
p2725
F1.0
sVsame
p2726
F1.0
sg19
F1.0
sVT-INT
p2727
F2.0
sVlength
p2728
F1.0
sVare
p2729
F1.0
sVT-FLOAT
p2730
F1.0
sVin
p2731
F1.0
sVpcc
p2732
F1.0
sVthe
p2733
F2.0
sVcommentaries
p2734
F1.0
sVranging
p2735
F1.0
saa(lp2736
S'W04-021310'
p2737
a(dp2738
Vagain
p2739
F1.0
sVgoal
p2740
F1.0
sg117
F1.0
sVin
p2741
F1.0
sg19
F1.0
sValso
p2742
F1.0
sVfeatures
p2743
F1.0
sVof
p2744
F1.0
sVthe
p2745
F1.0
sVT-FLOAT
p2746
F1.0
sVstructural
p2747
F1.0
saa.