(dp0
Vrepresent
p1
F5.062595033026967
sVall
p2
F3.4657359027997265
sVconcept
p3
F5.062595033026967
sVpartial
p4
F5.062595033026967
sVconsider
p5
F5.062595033026967
sVqueri
p6
F5.062595033026967
sVfocus
p7
F4.3694478524670215
sVzinc
p8
F5.062595033026967
sVfollow
p9
F3.970291913552122
sVammonia
p10
F5.062595033026967
sVaccur
p11
F5.062595033026967
sVdepend
p12
F3.970291913552122
sVspecif
p13
F3.6888794541139363
sVto
p14
F1.3862943611198906
sVoneword
p15
F5.062595033026967
sVpresent
p16
F3.4657359027997265
sVpreprocess
p17
F5.062595033026967
sVintroduc
p18
F4.3694478524670215
sVra
p19
F5.062595033026967
sVinsofar
p20
F5.062595033026967
sVeveri
p21
F5.062595033026967
sVlexicosyntact
p22
F5.062595033026967
sVgovern
p23
F5.062595033026967
sVveri
p24
F3.970291913552122
sVword
p25
F4.3694478524670215
sVlevel
p26
F5.062595033026967
sVlist
p27
F4.3694478524670215
sViter
p28
F3.295836866004329
sVp
p29
F2.8903717578961645
sVterabyt
p30
F5.062595033026967
sVsmall
p31
F2.772588722239781
sVphilpot
p32
F5.062595033026967
sVsmaller
p33
F5.062595033026967
sVberland
p34
F5.062595033026967
sVnatur
p35
F4.3694478524670215
sVpast
p36
F5.062595033026967
sVcost
p37
F5.062595033026967
sVdesign
p38
F4.3694478524670215
sVfurther
p39
F4.3694478524670215
sVchem
p40
F2.8903717578961645
sVpmi
p41
F4.3694478524670215
sVexcit
p42
F5.062595033026967
sVsupervis
p43
F2.8903717578961645
sVwhat
p44
F5.062595033026967
sVappear
p45
F4.3694478524670215
sVcompar
p46
F5.062595033026967
sVsection
p47
F3.295836866004329
sVabl
p48
F5.062595033026967
sVcurrent
p49
F4.3694478524670215
sVexperiment
p50
F3.4657359027997265
sVnew
p51
F2.8903717578961645
sV;
p52
F5.062595033026967
sVmethod
p53
F3.4657359027997265
sVhere
p54
F5.062595033026967
sVmet
p55
F5.062595033026967
sVmodif
p56
F5.062595033026967
sVaddress
p57
F5.062595033026967
sV[
p58
F2.0794415416798357
sVmodifi
p59
F5.062595033026967
sVsinc
p60
F5.062595033026967
sVvalu
p61
F5.062595033026967
sVsearch
p62
F5.062595033026967
sVproduc
p63
F3.4657359027997265
sVunsupervis
p64
F5.062595033026967
sVlarger
p65
F5.062595033026967
sVprecis
p66
F2.302585092994046
sVamount
p67
F5.062595033026967
sVriloff
p68
F5.062595033026967
sVpermit
p69
F5.062595033026967
sVstudi
p70
F4.3694478524670215
sVtremend
p71
F5.062595033026967
sVsgx
p72
F4.3694478524670215
sVsemant
p73
F2.4849066497880004
sVappli
p74
F3.1354942159291497
sVapproxim
p75
F5.062595033026967
sVprefer
p76
F5.062595033026967
sVavenu
p77
F4.3694478524670215
sVsubstr
p78
F3.970291913552122
sVtotal
p79
F4.3694478524670215
sVselect
p80
F3.4657359027997265
sVuse
p81
F1.9459101490553132
sVfrom
p82
F2.302585092994046
sVtwo
p83
F3.295836866004329
sVnext
p84
F5.062595033026967
sVfew
p85
F5.062595033026967
sVcall
p86
F5.062595033026967
sVtype
p87
F5.062595033026967
sVmore
p88
F3.295836866004329
sVminim
p89
F5.062595033026967
sVon
p90
F1.791759469228055
sVhenc
p91
F4.3694478524670215
sVrelat
p92
F1.3862943611198906
sVprobabilist
p93
F5.062595033026967
sVparticular
p94
F3.6888794541139363
sVharvest
p95
F3.6888794541139363
sV+|*
p96
F5.062595033026967
sVmust
p97
F5.062595033026967
sVretriev
p98
F3.6888794541139363
sVscalabl
p99
F4.3694478524670215
sVthis
p100
F2.1972245773362196
sVsetup
p101
F5.062595033026967
sVwork
p102
F3.970291913552122
sVjudg
p103
F5.062595033026967
sVannot
p104
F5.062595033026967
sVpantel
p105
F4.3694478524670215
sVremain
p106
F4.3694478524670215
sVcan
p107
F3.1354942159291497
sVlearn
p108
F3.295836866004329
sVpointwis
p109
F4.3694478524670215
sVgive
p110
F5.062595033026967
sVprocess
p111
F4.3694478524670215
sVchalleng
p112
F5.062595033026967
sVaccept
p113
F3.970291913552122
sVhigh
p114
F2.8903717578961645
sVunreli
p115
F5.062595033026967
sVexplor
p116
F5.062595033026967
sVcharniak
p117
F5.062595033026967
sVphrase
p118
F5.062595033026967
sVhydrogen
p119
F5.062595033026967
sVoccur
p120
F5.062595033026967
sVhuge
p121
F5.062595033026967
sVsurfac
p122
F4.3694478524670215
sVmultipl
p123
F5.062595033026967
sVgeorg
p124
F5.062595033026967
sVhow
p125
F5.062595033026967
sVvital
p126
F5.062595033026967
sVrecoveri
p127
F5.062595033026967
sVreject
p128
F5.062595033026967
sVanswer
p129
F5.062595033026967
sVinstead
p130
F5.062595033026967
sVsimpl
p131
F5.062595033026967
sVpolit
p132
F5.062595033026967
sVproduct
p133
F4.3694478524670215
sVresourc
p134
F4.3694478524670215
sVmay
p135
F4.3694478524670215
sVexemplifi
p136
F5.062595033026967
sVbefor
p137
F5.062595033026967
sVattent
p138
F5.062595033026967
sVdate
p139
F5.062595033026967
sVsuch
p140
F3.6888794541139363
sVdata
p141
F3.4657359027997265
sVgrow
p142
F5.062595033026967
sVbirthdat
p143
F5.062595033026967
sVapposit
p144
F5.062595033026967
sVa
p145
F1.0986122886681098
sVsx
p146
F5.062595033026967
sVnoun
p147
F3.6888794541139363
sVbootstrap
p148
F3.6888794541139363
sVexplicit
p149
F5.062595033026967
sVambigu
p150
F5.062595033026967
sVissu
p151
F5.062595033026967
sVinform
p152
F3.970291913552122
sVespresso
p153
F1.791759469228055
sVcombin
p154
F4.3694478524670215
sVallow
p155
F5.062595033026967
sVenter
p156
F5.062595033026967
sVorder
p157
F4.3694478524670215
sVhelp
p158
F3.970291913552122
sVover
p159
F4.3694478524670215
sVfall
p160
F5.062595033026967
sVwhilst
p161
F5.062595033026967
sVpaper
p162
F3.6888794541139363
sVthrough
p163
F5.062595033026967
sVeffici
p164
F4.3694478524670215
sVsuffer
p165
F5.062595033026967
sVvari
p166
F5.062595033026967
sVparamet
p167
F5.062595033026967
sVreactant
p168
F5.062595033026967
sVconjunct
p169
F5.062595033026967
sVthank
p170
F5.062595033026967
sValway
p171
F5.062595033026967
sVsemiautomat
p172
F5.062595033026967
sV,
p173
F0.6931471805599453
sV:
p174
F2.8903717578961645
sVmain
p175
F5.062595033026967
sVwellknown
p176
F5.062595033026967
sVthen
p177
F2.772588722239781
sVthem
p178
F3.4657359027997265
sVgood
p179
F4.3694478524670215
sVrecal
p180
F2.70805020110221
sVenrich
p181
F5.062595033026967
sViniti
p182
F5.062595033026967
sVframework
p183
F4.3694478524670215
sVpromis
p184
F5.062595033026967
sVautomat
p185
F3.4657359027997265
sVthey
p186
F4.3694478524670215
sVnegat
p187
F5.062595033026967
sVnot
p188
F3.970291913552122
sVdataset
p189
F2.8903717578961645
sVdiscuss
p190
F4.3694478524670215
sVbank
p191
F5.062595033026967
sVterm
p192
F2.6390573296152584
sVoxygen
p193
F5.062595033026967
sVdrop
p194
F5.062595033026967
sVhyponym
p195
F5.062595033026967
sVtoken
p196
F5.062595033026967
sVeach
p197
F2.8903717578961645
sVhigher
p198
F5.062595033026967
sVside
p199
F4.3694478524670215
sVmean
p200
F4.3694478524670215
sVsubset
p201
F5.062595033026967
sVdomain
p202
F3.970291913552122
sVdetect
p203
F5.062595033026967
sVreplac
p204
F5.062595033026967
sVprocedur
p205
F5.062595033026967
sVcombinatori
p206
F5.062595033026967
sVexpect
p207
F3.970291913552122
sVopportun
p208
F5.062595033026967
sVour
p209
F2.995732273553991
sVextract
p210
F1.9459101490553132
sVorient
p211
F5.062595033026967
sVout
p212
F4.3694478524670215
sVminipar
p213
F5.062595033026967
sVshown
p214
F5.062595033026967
sV'
p215
F3.4657359027997265
sVresearch
p216
F4.3694478524670215
sVcategori
p217
F5.062595033026967
sVadapt
p218
F5.062595033026967
sVformula
p219
F4.3694478524670215
sVrh
p220
F3.970291913552122
sVcorrect
p221
F3.295836866004329
sVstatist
p222
F3.4657359027997265
sVmillion
p223
F5.062595033026967
sVgiven
p224
F2.8903717578961645
sVrelationspecif
p225
F5.062595033026967
sVbase
p226
F3.6888794541139363
sVpatternand
p227
F5.062595033026967
sVfrequenc
p228
F3.6888794541139363
sVcould
p229
F4.3694478524670215
sVkeep
p230
F4.3694478524670215
sVfilter
p231
F3.1354942159291497
sVturn
p232
F5.062595033026967
sVpropos
p233
F2.995732273553991
sVretain
p234
F4.3694478524670215
sVisa
p235
F2.8903717578961645
sVneglect
p236
F5.062595033026967
sVfrequent
p237
F5.062595033026967
sVfirst
p238
F3.295836866004329
sVoper
p239
F5.062595033026967
sVmajor
p240
F5.062595033026967
sVthere
p241
F5.062595033026967
sVcarri
p242
F5.062595033026967
sVonc
p243
F5.062595033026967
sVindepend
p244
F5.062595033026967
sVqualiti
p245
F5.062595033026967
sVnumber
p246
F3.295836866004329
sVrank
p247
F4.3694478524670215
sVone
p248
F2.70805020110221
sVrestrict
p249
F4.3694478524670215
sVwill
p250
F3.970291913552122
sVunlik
p251
F4.3694478524670215
sVstabl
p252
F5.062595033026967
sVpredefin
p253
F5.062595033026967
sVaposteriori
p254
F5.062595033026967
sVsize
p255
F3.6888794541139363
sVhas
p256
F3.1354942159291497
sVdiffer
p257
F5.062595033026967
sVbenedict
p258
F5.062595033026967
sVassoci
p259
F4.3694478524670215
sVsystem
p260
F1.791759469228055
sVleast
p261
F5.062595033026967
sVtheir
p262
F3.295836866004329
sVunderlin
p263
F5.062595033026967
sVtoo
p264
F4.3694478524670215
sVgeneralpurpos
p265
F5.062595033026967
sVtermin
p266
F5.062595033026967
sVcorpus
p267
F2.302585092994046
sVjohn
p268
F5.062595033026967
sVfinal
p269
F5.062595033026967
sVinclud
p270
F3.970291913552122
sVthat
p271
F1.791759469228055
sVet
p272
F3.970291913552122
sVshallow
p273
F5.062595033026967
sVpart
p274
F5.062595033026967
sVattempt
p275
F4.3694478524670215
sVthan
p276
F3.4657359027997265
sVserv
p277
F5.062595033026967
sVwide
p278
F3.6888794541139363
sVhearst
p279
F3.970291913552122
sVtarget
p280
F5.062595033026967
sVprovid
p281
F5.062595033026967
sVtrec
p282
F3.295836866004329
sVmatter
p283
F5.062595033026967
sVr
p284
F5.062595033026967
sVwere
p285
F4.3694478524670215
sVposit
p286
F5.062595033026967
sVtoward
p287
F5.062595033026967
sVare
p288
F2.0794415416798357
sVand
p289
F1.3862943611198906
sVentail
p290
F5.062595033026967
sVmind
p291
F5.062595033026967
sVani
p292
F3.970291913552122
sVraw
p293
F5.062595033026967
sVseed
p294
F2.1972245773362196
sVhave
p295
F3.1354942159291497
sVtabl
p296
F2.995732273553991
sVseen
p297
F5.062595033026967
sVseem
p298
F5.062595033026967
sVacid
p299
F5.062595033026967
sVengin
p300
F5.062595033026967
sVtechniqu
p301
F3.1354942159291497
sVmoreov
p302
F4.3694478524670215
sVcope
p303
F5.062595033026967
sValso
p304
F3.4657359027997265
sVpatternbas
p305
F3.970291913552122
sVmaintain
p306
F5.062595033026967
sVbuild
p307
F3.970291913552122
sVwhich
p308
F3.295836866004329
sV=
p309
F3.4657359027997265
sVplay
p310
F5.062595033026967
sVdistribut
p311
F5.062595033026967
sVpreliminari
p312
F3.970291913552122
sVmultipli
p313
F5.062595033026967
sVwho
p314
F5.062595033026967
sVlexic
p315
F3.295836866004329
sVmost
p316
F3.1354942159291497
sVregular
p317
F5.062595033026967
sVplan
p318
F5.062595033026967
sVphase
p319
F2.70805020110221
sV]
p320
F2.0794415416798357
sVmodel
p321
F4.3694478524670215
sVadopt
p322
F4.3694478524670215
sVm
p323
F4.3694478524670215
sVdoe
p324
F5.062595033026967
sVinde
p325
F5.062595033026967
sVfourphas
p326
F5.062595033026967
sVruntim
p327
F5.062595033026967
sVdetermin
p328
F5.062595033026967
sVusual
p329
F5.062595033026967
sV}
p330
F4.3694478524670215
sVfact
p331
F5.062595033026967
sVnlp
p332
F4.3694478524670215
sVeditdist
p333
F5.062595033026967
sVpope
p334
F5.062595033026967
sVshow
p335
F3.4657359027997265
sVtext
p336
F3.970291913552122
sVrandom
p337
F4.3694478524670215
sVthreshold
p338
F4.3694478524670215
sVdiscoveri
p339
F3.6888794541139363
sVground
p340
F5.062595033026967
sVinvolv
p341
F5.062595033026967
sVclusteringbas
p342
F5.062595033026967
sVonli
p343
F3.4657359027997265
sVnois
p344
F5.062595033026967
sV(
p345
F4.3694478524670215
sVcaraballo
p346
F5.062595033026967
sVsolut
p347
F4.3694478524670215
sVbehind
p348
F5.062595033026967
sVbush
p349
F5.062595033026967
sVversion
p350
F5.062595033026967
sVanalyz
p351
F5.062595033026967
sVfactor
p352
F5.062595033026967
sVshepherd
p353
F5.062595033026967
sVexpress
p354
F3.6888794541139363
sVstop
p355
F5.062595033026967
sVreport
p356
F4.3694478524670215
sVrequir
p357
F3.4657359027997265
sVendless
p358
F5.062595033026967
sVoutperform
p359
F4.3694478524670215
sVyield
p360
F5.062595033026967
sVqa
p361
F5.062595033026967
sVwebbas
p362
F3.970291913552122
sVcommon
p363
F3.4657359027997265
sVcontain
p364
F5.062595033026967
sVx
p365
F3.4657359027997265
sVlinguist
p366
F4.3694478524670215
sVwhere
p367
F3.6888794541139363
sVworkbench
p368
F5.062595033026967
sVset
p369
F2.0794415416798357
sVart
p370
F4.3694478524670215
sVhuman
p371
F3.6888794541139363
sVknowital
p372
F5.062595033026967
sVknowledg
p373
F3.970291913552122
sVspars
p374
F4.3694478524670215
sVresult
p375
F3.4657359027997265
sVfail
p376
F4.3694478524670215
sVbest
p377
F5.062595033026967
sV)
p378
F4.3694478524670215
sVextend
p379
F4.3694478524670215
sVpattern
p380
F1.3862943611198906
sVreview
p381
F5.062595033026967
sVlabel
p382
F5.062595033026967
sVxvi
p383
F5.062595033026967
sVstate
p384
F4.3694478524670215
sVscore
p385
F3.6888794541139363
sVvarious
p386
F3.4657359027997265
sVbetween
p387
F4.3694478524670215
sVchemic
p388
F5.062595033026967
sVexperi
p389
F3.4657359027997265
sVapproach
p390
F2.5649493574615367
sVaccord
p391
F5.062595033026967
sVsyntact
p392
F4.3694478524670215
sVdo
p393
F4.3694478524670215
sVinduc
p394
F5.062595033026967
sVweak
p395
F3.6888794541139363
sVextens
p396
F4.3694478524670215
sVsucceed
p397
F5.062595033026967
sVkey
p398
F4.3694478524670215
sVdistinguish
p399
F4.3694478524670215
sVweari
p400
F5.062595033026967
sVboth
p401
F2.995732273553991
sVc
p402
F4.3694478524670215
sVhowev
p403
F3.295836866004329
sVinstanc
p404
F1.3862943611198906
sVmani
p405
F3.295836866004329
sVmann
p406
F5.062595033026967
sVcomment
p407
F5.062595033026967
sVamong
p408
F5.062595033026967
sVpoint
p409
F4.3694478524670215
sVinstanti
p410
F3.970291913552122
sVontolog
p411
F4.3694478524670215
sVca
p412
F5.062595033026967
sVsolv
p413
F5.062595033026967
sVexploit
p414
F5.062595033026967
sVpr
p415
F4.3694478524670215
sVcompos
p416
F5.062595033026967
sVbeen
p417
F4.3694478524670215
sVmuch
p418
F3.970291913552122
sVreaction
p419
F5.062595033026967
sVfire
p420
F5.062595033026967
sVgas
p421
F5.062595033026967
sVpostagg
p422
F5.062595033026967
sVgeneral
p423
F2.8903717578961645
sVhar
p424
F5.062595033026967
sVthose
p425
F3.970291913552122
sVcase
p426
F5.062595033026967
sVnovel
p427
F5.062595033026967
sVlook
p428
F5.062595033026967
sVthese
p429
F3.6888794541139363
sVmight
p430
F5.062595033026967
sVbill
p431
F5.062595033026967
sVaim
p432
F5.062595033026967
sVdefin
p433
F3.970291913552122
sVwhile
p434
F3.4657359027997265
sVabov
p435
F5.062595033026967
sVanchor
p436
F5.062595033026967
sVloop
p437
F5.062595033026967
sVcoher
p438
F4.3694478524670215
sVadvantag
p439
F5.062595033026967
sVis
p440
F1.6094379124341003
sVthus
p441
F4.3694478524670215
sVit
p442
F2.8903717578961645
sVii
p443
F5.062595033026967
sVcluster
p444
F3.6888794541139363
sVbias
p445
F5.062595033026967
sVin
p446
F1.3862943611198906
sVwordnet
p447
F5.062595033026967
sVif
p448
F3.970291913552122
sVdevelop
p449
F4.3694478524670215
sVauthor
p450
F5.062595033026967
sVgeneric
p451
F2.302585092994046
sVsuggest
p452
F5.062595033026967
sVmake
p453
F4.3694478524670215
sVfewer
p454
F4.3694478524670215
sVmember
p455
F5.062595033026967
sVbinari
p456
F3.6888794541139363
sVcomplex
p457
F5.062595033026967
sVspeech
p458
F5.062595033026967
sVsentenc
p459
F4.3694478524670215
sVgirju
p460
F5.062595033026967
sVinfer
p461
F3.4657359027997265
sVdifficult
p462
F5.062595033026967
sVevid
p463
F3.970291913552122
sVexpans
p464
F3.6888794541139363
sVeffect
p465
F3.970291913552122
sVhand
p466
F4.3694478524670215
sVuser
p467
F5.062595033026967
sVrefin
p468
F5.062595033026967
sVimplement
p469
F5.062595033026967
sVexpand
p470
F4.3694478524670215
sVrecent
p471
F4.3694478524670215
sVlower
p472
F5.062595033026967
sVtask
p473
F5.062595033026967
sVdiscourag
p474
F5.062595033026967
sVmention
p475
F5.062595033026967
sVi
p476
F2.8903717578961645
sVchemistri
p477
F5.062595033026967
sVwell
p478
F4.3694478524670215
sVparenthes
p479
F5.062595033026967
sVexampl
p480
F3.295836866004329
sVexpens
p481
F5.062595033026967
sVy
p482
F3.295836866004329
sVthe
p483
F0.6931471805599453
sVweakest
p484
F5.062595033026967
sVidentifi
p485
F4.3694478524670215
sVless
p486
F4.3694478524670215
sVobtain
p487
F4.3694478524670215
sV|x
p488
F5.062595033026967
sVwebexpans
p489
F5.062595033026967
sVsurpass
p490
F5.062595033026967
sV{
p491
F4.3694478524670215
sVpaul
p492
F5.062595033026967
sVoutlin
p493
F5.062595033026967
sVyet
p494
F5.062595033026967
sVlanguag
p495
F5.062595033026967
sVprevious
p496
F3.4657359027997265
sVweb
p497
F2.8903717578961645
sVravichandran
p498
F4.3694478524670215
sVtheoret
p499
F5.062595033026967
sVidentif
p500
F5.062595033026967
sVmultiword
p501
F5.062595033026967
sVinput
p502
F3.295836866004329
sVvulner
p503
F5.062595033026967
sVsubsequ
p504
F4.3694478524670215
sVadj
p505
F5.062595033026967
sVmatch
p506
F4.3694478524670215
sVtake
p507
F4.3694478524670215
sVearli
p508
F5.062595033026967
sVapplic
p509
F4.3694478524670215
sVsparsiti
p510
F5.062595033026967
sVintuit
p511
F3.970291913552122
sVpostag
p512
F5.062595033026967
sVweaklysupervis
p513
F5.062595033026967
sVformal
p514
F4.3694478524670215
sVmeasur
p515
F3.970291913552122
sVlike
p516
F4.3694478524670215
sVsuccess
p517
F4.3694478524670215
sVhydrochlor
p518
F5.062595033026967
sVmanual
p519
F3.4657359027997265
sVbenefit
p520
F5.062595033026967
sVnecessari
p521
F5.062595033026967
sVt
p522
F4.3694478524670215
sVoutput
p523
F3.1354942159291497
sVsketch
p524
F5.062595033026967
sVfleischman
p525
F5.062595033026967
sVoften
p526
F5.062595033026967
sVdeal
p527
F5.062595033026967
sVparticipl
p528
F5.062595033026967
sVbegin
p529
F5.062595033026967
sVsampl
p530
F3.6888794541139363
sVproper
p531
F5.062595033026967
sVguarante
p532
F4.3694478524670215
sVscale
p533
F5.062595033026967
sVfor
p534
F1.6094379124341003
sVlexicopo
p535
F5.062595033026967
sVavoid
p536
F5.062595033026967
sVdefinit
p537
F3.970291913552122
sVper
p538
F5.062595033026967
sVpioneer
p539
F5.062595033026967
sVestim
p540
F3.6888794541139363
sVlarg
p541
F3.970291913552122
sVcondit
p542
F5.062595033026967
sV?
p543
F5.062595033026967
sVmachin
p544
F5.062595033026967
sVbe
p545
F3.295836866004329
sVencourag
p546
F5.062595033026967
sVinvestig
p547
F4.3694478524670215
sVpower
p548
F5.062595033026967
sVslight
p549
F3.970291913552122
sVinspect
p550
F5.062595033026967
sVagreement
p551
F5.062595033026967
sVdiscount
p552
F5.062595033026967
sVgreat
p553
F5.062595033026967
sVdiscov
p554
F4.3694478524670215
sValthough
p555
F5.062595033026967
sVby
p556
F2.0794415416798357
sVcomparison
p557
F5.062595033026967
sVconstraint
p558
F5.062595033026967
sVof
p559
F1.0986122886681098
sVliteratur
p560
F5.062595033026967
sVplus
p561
F5.062595033026967
sValemb
p562
F5.062595033026967
sVdiscard
p563
F3.970291913552122
sVor
p564
F4.3694478524670215
sVcutoff
p565
F5.062595033026967
sVclinton
p566
F5.062595033026967
sVinto
p567
F3.970291913552122
sVoxid
p568
F5.062595033026967
sVterminolog
p569
F5.062595033026967
sVthree
p570
F4.3694478524670215
sVpair
p571
F5.062595033026967
sVreactswith
p572
F5.062595033026967
sVensur
p573
F5.062595033026967
sVlargescal
p574
F5.062595033026967
sVpartof
p575
F3.1354942159291497
sVlog
p576
F5.062595033026967
sVsuffici
p577
F3.970291913552122
sVsupport
p578
F5.062595033026967
sV*
p579
F4.3694478524670215
sVquestion
p580
F4.3694478524670215
sVtextual
p581
F3.970291913552122
sVstart
p582
F4.3694478524670215
sVdowney
p583
F5.062595033026967
sVlow
p584
F3.295836866004329
sVfraction
p585
F5.062595033026967
sVprecision/recal
p586
F5.062595033026967
sVperform
p587
F2.772588722239781
sVcorpora
p588
F2.995732273553991
sVwas
p589
F5.062595033026967
sVanalysi
p590
F5.062595033026967
sVan
p591
F2.995732273553991
sVform
p592
F5.062595033026967
sVenough
p593
F5.062595033026967
sVsubsum
p594
F5.062595033026967
sVbut
p595
F3.4657359027997265
sVeas
p596
F5.062595033026967
sVhighest
p597
F4.3694478524670215
sVwith
p598
F2.1972245773362196
sVcount
p599
F3.970291913552122
sVheavi
p600
F5.062595033026967
sVknowledgerich
p601
F5.062595033026967
sVconsist
p602
F5.062595033026967
sVpossibl
p603
F3.970291913552122
sVwhether
p604
F5.062595033026967
sVwish
p605
F5.062595033026967
sVlimit
p606
F5.062595033026967
sVotherwis
p607
F5.062595033026967
sVproblem
p608
F3.6888794541139363
sVsimilar
p609
F3.295836866004329
sVfeatur
p610
F4.3694478524670215
sVad
p611
F5.062595033026967
sVevalu
p612
F2.8903717578961645
sVclassic
p613
F5.062595033026967
sVparser
p614
F5.062595033026967
sVal
p615
F3.970291913552122
sVy|
p616
F5.062595033026967
sVrepres
p617
F4.3694478524670215
sVas
p618
F2.0794415416798357
sVexist
p619
F5.062595033026967
sVat
p620
F2.8903717578961645
sVgenerat
p621
F3.4657359027997265
sVimprov
p622
F4.3694478524670215
sVincorrect
p623
F3.4657359027997265
sVdenot
p624
F5.062595033026967
sVmutual
p625
F4.3694478524670215
sV%
p626
F4.3694478524670215
sVgoogl
p627
F3.6888794541139363
sVno
p628
F5.062595033026967
sVdispos
p629
F5.062595033026967
sVwhen
p630
F4.3694478524670215
sVdetail
p631
F5.062595033026967
sVevent
p632
F5.062595033026967
sVemphas
p633
F4.3694478524670215
sVother
p634
F3.970291913552122
sVrole
p635
F5.062595033026967
sVfutur
p636
F4.3694478524670215
sVvarieti
p637
F3.6888794541139363
sVtest
p638
F5.062595033026967
sVarchitectur
p639
F5.062595033026967
sVintend
p640
F4.3694478524670215
sVwildcard
p641
F5.062595033026967
sVasterisk
p642
F5.062595033026967
sVandrew
p643
F5.062595033026967
sVconsid
p644
F4.3694478524670215
sVhovi
p645
F5.062595033026967
sVinfrequ
p646
F5.062595033026967
sVe
p647
F5.062595033026967
sVlead
p648
F5.062595033026967
sValgorithm
p649
F2.302585092994046
sVwe
p650
F1.6094379124341003
sVreliabl
p651
F3.1354942159291497
sVnitric
p652
F5.062595033026967
sVpotenti
p653
F5.062595033026967
sVtime
p654
F4.3694478524670215
s.