(dp0
Vrepresent
p1
F4.499809670330265
sVall
p2
F3.4011973816621555
sVchain
p3
F4.499809670330265
sVnewsitem
p4
F4.499809670330265
sVreclust
p5
F4.499809670330265
sVfour
p6
F4.499809670330265
sVty
p7
F4.499809670330265
sVeffort
p8
F4.499809670330265
sVarticl
p9
F2.1972245773362196
sVto
p10
F1.0986122886681098
sVth
p11
F4.499809670330265
sVaris
p12
F4.499809670330265
sVsourc
p13
F3.8066624897703196
sVstraightforward
p14
F4.499809670330265
sV//glaro
p15
F4.499809670330265
sVend
p16
F4.499809670330265
sVfocus
p17
F3.8066624897703196
sVveri
p18
F3.8066624897703196
sVappar
p19
F4.499809670330265
sVrelev
p20
F3.8066624897703196
sVtri
p21
F4.499809670330265
sVlevel
p22
F3.1354942159291497
sVitem
p23
F4.499809670330265
sVvector
p24
F3.4011973816621555
sVcosin
p25
F3.8066624897703196
sVquick
p26
F4.499809670330265
sVtexttotext
p27
F2.8903717578961645
sVservic
p28
F4.499809670330265
sVpleas
p29
F4.499809670330265
sVupper
p30
F3.8066624897703196
sVimpli
p31
F3.8066624897703196
sVnatur
p32
F4.499809670330265
sVdirect
p33
F4.499809670330265
sVsecond
p34
F4.499809670330265
sVmonolingu
p35
F4.499809670330265
sVaggreg
p36
F3.8066624897703196
sVter
p37
F4.499809670330265
sVaim
p38
F3.4011973816621555
sVcompar
p39
F3.4011973816621555
sVabl
p40
F4.499809670330265
sVcalcul
p41
F3.1354942159291497
sVdaeso
p42
F4.499809670330265
sV;
p43
F4.499809670330265
sVmethod
p44
F2.8903717578961645
sVcontrast
p45
F4.499809670330265
sVmea
p46
F4.499809670330265
sVvariat
p47
F4.499809670330265
sVv
p48
F4.499809670330265
sVvalu
p49
F3.4011973816621555
sVconvert
p50
F4.499809670330265
sVstevin
p51
F4.499809670330265
sVk
p52
F3.8066624897703196
sVtechnolog
p53
F4.499809670330265
sVprecis
p54
F2.302585092994046
sVamount
p55
F3.4011973816621555
sVstudi
p56
F4.499809670330265
sVsemant
p57
F3.8066624897703196
sVtotal
p58
F3.4011973816621555
sVuse
p59
F1.791759469228055
sVor
p60
F3.4011973816621555
sVfrom
p61
F2.8903717578961645
sVdescrib
p62
F3.8066624897703196
sVwould
p63
F3.4011973816621555
sVvisit
p64
F4.499809670330265
sVtwo
p65
F3.1354942159291497
sVcoverag
p66
F4.499809670330265
sVnext
p67
F3.8066624897703196
sVnonparaphras
p68
F4.499809670330265
sVmore
p69
F3.4011973816621555
sVrelat
p70
F4.499809670330265
sVtoolkit
p71
F4.499809670330265
sVtrain
p72
F4.499809670330265
sVaccept
p73
F3.4011973816621555
sVparticular
p74
F3.8066624897703196
sVharvest
p75
F4.499809670330265
sVretriev
p76
F2.8903717578961645
sVvaluabl
p77
F4.499809670330265
sVf
p78
F4.499809670330265
sVthis
p79
F2.1972245773362196
sVwork
p80
F4.499809670330265
sVmi
p81
F4.499809670330265
sVannot
p82
F3.1354942159291497
sValig
p83
F3.8066624897703196
sVremain
p84
F3.8066624897703196
sVparagraph
p85
F4.499809670330265
sVcan
p86
F2.1972245773362196
sVlearn
p87
F4.499809670330265
sVprocess
p88
F3.8066624897703196
sVshare
p89
F4.499809670330265
sVindic
p90
F4.499809670330265
sVhigh
p91
F4.499809670330265
sVparaphras
p92
F1.3862943611198906
sVwant
p93
F3.8066624897703196
sVphrase
p94
F3.8066624897703196
sVtheshold
p95
F4.499809670330265
sVoccur
p96
F4.499809670330265
sVwithinclust
p97
F4.499809670330265
sVmultipl
p98
F4.499809670330265
sVdivid
p99
F3.4011973816621555
sVanoth
p100
F4.499809670330265
sVsnippet
p101
F4.499809670330265
sVcriterion
p102
F4.499809670330265
sVstemmer
p103
F4.499809670330265
sVreject
p104
F3.8066624897703196
sVanswer
p105
F4.499809670330265
sVinstead
p106
F4.499809670330265
sVperspect
p107
F4.499809670330265
sVmap
p108
F4.499809670330265
sVresourc
p109
F3.4011973816621555
sVwrong
p110
F4.499809670330265
sVcours
p111
F4.499809670330265
sVattent
p112
F4.499809670330265
sVfi
p113
F4.499809670330265
sVassoci
p114
F4.499809670330265
sVsubclust
p115
F2.70805020110221
sVlar
p116
F4.499809670330265
sVa
p117
F1.0986122886681098
sVessenti
p118
F4.499809670330265
sVst
p119
F4.499809670330265
sVinform
p120
F3.8066624897703196
sVsi
p121
F4.499809670330265
sVso
p122
F4.499809670330265
sVconstitu
p123
F3.4011973816621555
sViti
p124
F4.499809670330265
sVover
p125
F4.499809670330265
sVuvt
p126
F4.499809670330265
sVbecaus
p127
F3.4011973816621555
sVdv
p128
F4.499809670330265
sVpaper
p129
F4.499809670330265
sVthrough
p130
F4.499809670330265
sVstill
p131
F3.4011973816621555
sVgroup
p132
F4.499809670330265
sVthank
p133
F3.8066624897703196
sV,
p134
F0.6931471805599453
sVbetter
p135
F4.499809670330265
sVclu
p136
F4.499809670330265
sVtherefor
p137
F4.499809670330265
sVly
p138
F4.499809670330265
sVthen
p139
F4.499809670330265
sVgood
p140
F4.499809670330265
sVrecal
p141
F3.1354942159291497
sVsentenc
p142
F2.4849066497880004
sVthey
p143
F4.499809670330265
sVnot
p144
F2.8903717578961645
sVname
p145
F4.499809670330265
sVrealist
p146
F4.499809670330265
sVl
p147
F4.499809670330265
sVeasili
p148
F4.499809670330265
sVeach
p149
F2.70805020110221
sVedu/gkhome/views/cluto/
p150
F4.499809670330265
sVhigher
p151
F3.4011973816621555
sVmean
p152
F4.499809670330265
sVhard
p153
F4.499809670330265
sVea
p154
F4.499809670330265
sVex
p155
F4.499809670330265
sVyear
p156
F4.499809670330265
sVeu
p157
F4.499809670330265
sVour
p158
F2.1972245773362196
sVbeyond
p159
F4.499809670330265
sVextract
p160
F3.1354942159291497
sVevent
p161
F3.8066624897703196
sVes
p162
F4.499809670330265
sVout
p163
F4.499809670330265
sVvariabl
p164
F4.499809670330265
sVshown
p165
F4.499809670330265
sVp
p166
F4.499809670330265
sVblu
p167
F4.499809670330265
sVnewli
p168
F4.499809670330265
sVqc
p169
F4.499809670330265
sVresearch
p170
F3.8066624897703196
sVcontent
p171
F4.499809670330265
sVrewrit
p172
F4.499809670330265
sVra
p173
F4.499809670330265
sVdutch
p174
F3.4011973816621555
sVro
p175
F4.499809670330265
sVcorrect
p176
F3.8066624897703196
sVclusterstop
p177
F4.499809670330265
sVdifficulti
p178
F4.499809670330265
sVgiven
p179
F4.499809670330265
sVfree
p180
F4.499809670330265
sVheadlin
p181
F1.3862943611198906
sVreason
p182
F4.499809670330265
sVbase
p183
F4.499809670330265
sVperform
p184
F2.5649493574615367
sVg
p185
F4.499809670330265
sVcould
p186
F4.499809670330265
sVdaesoproject
p187
F3.8066624897703196
sVati
p188
F4.499809670330265
sVthing
p189
F4.499809670330265
sVgiza++
p190
F4.499809670330265
sVw
p191
F4.499809670330265
sVthink
p192
F4.499809670330265
sVise
p193
F4.499809670330265
sVfirst
p194
F3.8066624897703196
sVorigin
p195
F3.1354942159291497
sVsoftwar
p196
F4.499809670330265
sVexchang
p197
F4.499809670330265
sVnumber
p198
F3.4011973816621555
sVthereof
p199
F4.499809670330265
sVone
p200
F3.1354942159291497
sVacquisit
p201
F3.8066624897703196
sValreadi
p202
F3.8066624897703196
sVsuch
p203
F2.70805020110221
sVdiffer
p204
F3.1354942159291497
sVdata
p205
F2.8903717578961645
sVsystem
p206
F3.4011973816621555
sVconstruct
p207
F4.499809670330265
sVtoo
p208
F4.499809670330265
sVcorpus
p209
F3.1354942159291497
sVfinal
p210
F4.499809670330265
sVstore
p211
F4.499809670330265
sVassign
p212
F3.8066624897703196
sVoption
p213
F4.499809670330265
sVthat
p214
F1.791759469228055
sVtool
p215
F4.499809670330265
sVpart
p216
F4.499809670330265
sVsomewhat
p217
F4.499809670330265
sVhlower
p218
F4.499809670330265
sVhupper
p219
F4.499809670330265
sVcrawl
p220
F4.499809670330265
sVthan
p221
F3.8066624897703196
sVste
p222
F4.499809670330265
sVkind
p223
F4.499809670330265
sVb
p224
F4.499809670330265
sVtarget
p225
F4.499809670330265
sVdtc
p226
F4.499809670330265
sVcharact
p227
F4.499809670330265
sVr
p228
F3.8066624897703196
sVstp
p229
F4.499809670330265
sVwere
p230
F3.4011973816621555
sVtoward
p231
F4.499809670330265
sVand
p232
F1.3862943611198906
sVfashion
p233
F4.499809670330265
sVcomput
p234
F4.499809670330265
sVconcepttotext
p235
F4.499809670330265
sVpri
p236
F4.499809670330265
sVmine
p237
F4.499809670330265
sVlin
p238
F4.499809670330265
sVpackag
p239
F4.499809670330265
sVcoher
p240
F4.499809670330265
sVtabl
p241
F2.8903717578961645
sVneed
p242
F3.4011973816621555
sVrout
p243
F4.499809670330265
sValso
p244
F3.4011973816621555
sVexampl
p245
F3.1354942159291497
sVbuild
p246
F4.499809670330265
sVwhich
p247
F2.8903717578961645
sV=
p248
F3.4011973816621555
sVsure
p249
F4.499809670330265
sVprogramm
p250
F4.499809670330265
sVpair
p251
F2.5649493574615367
sVbyher
p252
F4.499809670330265
sVtradit
p253
F4.499809670330265
sVsimplif
p254
F4.499809670330265
sVclear
p255
F3.1354942159291497
sVcover
p256
F4.499809670330265
sVkn
p257
F4.499809670330265
sVfact
p258
F3.8066624897703196
sVshow
p259
F3.4011973816621555
sVtext
p260
F3.1354942159291497
sVthreshold
p261
F2.302585092994046
sVrough
p262
F3.8066624897703196
sVtend
p263
F4.499809670330265
sVtrivial
p264
F4.499809670330265
sVfind
p265
F3.4011973816621555
sVonli
p266
F3.1354942159291497
sVratio
p267
F4.499809670330265
sVrich
p268
F4.499809670330265
sVhe
p269
F4.499809670330265
sVhlt
p270
F4.499809670330265
sVdo
p271
F3.8066624897703196
sVget
p272
F4.499809670330265
sVstop
p273
F4.499809670330265
sVincreas
p274
F4.499809670330265
sVds
p275
F4.499809670330265
sVenabl
p276
F4.499809670330265
sVorgan
p277
F4.499809670330265
sVh
p278
F4.499809670330265
sVbad
p279
F4.499809670330265
sVcommon
p280
F4.499809670330265
sVcontain
p281
F4.499809670330265
sVx
p282
F4.499809670330265
sVlinguist
p283
F4.499809670330265
sVwhere
p284
F3.8066624897703196
sVview
p285
F4.499809670330265
sVset
p286
F3.4011973816621555
sVfair
p287
F4.499809670330265
sVknowledg
p288
F4.499809670330265
sVare
p289
F1.6094379124341003
sVclose
p290
F4.499809670330265
sVbest
p291
F4.499809670330265
sVsubject
p292
F4.499809670330265
sVdetect
p293
F4.499809670330265
sVpattern
p294
F4.499809670330265
sVthpk
p295
F4.499809670330265
sVirw
p296
F4.499809670330265
sVscore
p297
F3.8066624897703196
sVvarious
p298
F3.8066624897703196
sVbetween
p299
F2.70805020110221
sVimport
p300
F3.8066624897703196
sVapproach
p301
F2.8903717578961645
sVwe
p302
F1.3862943611198906
sVwi
p303
F4.499809670330265
sVextent
p304
F3.8066624897703196
sVdistinguish
p305
F4.499809670330265
sVnews
p306
F2.1972245773362196
sVboth
p307
F4.499809670330265
sVc
p308
F3.8066624897703196
sVlast
p309
F4.499809670330265
sVhowev
p310
F3.8066624897703196
sValon
p311
F4.499809670330265
sVs
p312
F4.499809670330265
sVinstanc
p313
F3.1354942159291497
sVgrain
p314
F4.499809670330265
sVcontext
p315
F2.8903717578961645
sVlogic
p316
F4.499809670330265
sVquestionansw
p317
F4.499809670330265
sVco
p318
F4.499809670330265
sVpoint
p319
F3.4011973816621555
sVce
p320
F4.499809670330265
sVtypic
p321
F4.499809670330265
sVthroughout
p322
F4.499809670330265
sVsummar
p323
F4.499809670330265
sVquit
p324
F4.499809670330265
sVunclust
p325
F3.8066624897703196
sVsal
p326
F4.499809670330265
sVfro
p327
F4.499809670330265
sVdue
p328
F4.499809670330265
sVbeen
p329
F4.499809670330265
sVmuch
p330
F3.8066624897703196
sVinterest
p331
F4.499809670330265
sVbasic
p332
F4.499809670330265
sVpk
p333
F4.499809670330265
sVpo
p334
F4.499809670330265
sVpl
p335
F4.499809670330265
sVstrategi
p336
F3.8066624897703196
sVtogeth
p337
F4.499809670330265
sVrepres
p338
F3.8066624897703196
sVcase
p339
F3.4011973816621555
sVlook
p340
F4.499809670330265
sVthese
p341
F2.5649493574615367
sValign
p342
F1.791759469228055
sVharder
p343
F4.499809670330265
sVn
p344
F3.8066624897703196
sVwill
p345
F3.4011973816621555
sVail
p346
F4.499809670330265
sVwhile
p347
F3.8066624897703196
sVpairwis
p348
F3.4011973816621555
sVerror
p349
F4.499809670330265
sVfiner
p350
F4.499809670330265
sVunsupervis
p351
F3.8066624897703196
sVpropag
p352
F4.499809670330265
sVve
p353
F4.499809670330265
sVis
p354
F1.0986122886681098
sVgenerat
p355
F2.1972245773362196
sVit
p356
F2.302585092994046
sVworri
p357
F4.499809670330265
sVcluster
p358
F1.3862943611198906
sVitself
p359
F4.499809670330265
sVin
p360
F1.0986122886681098
sVie
p361
F4.499809670330265
sVif
p362
F2.5649493574615367
sVdevelop
p363
F2.5649493574615367
sV)
p364
F4.499809670330265
sVmake
p365
F4.499809670330265
sVsame
p366
F3.4011973816621555
sVbinari
p367
F4.499809670330265
sVdocument
p368
F4.499809670330265
sVcomplet
p369
F4.499809670330265
sVhttp
p370
F4.499809670330265
sVoptim
p371
F3.1354942159291497
sVeffect
p372
F3.4011973816621555
sVbosma
p373
F4.499809670330265
sVimplement
p374
F4.499809670330265
sVrecent
p375
F4.499809670330265
sVhighqual
p376
F4.499809670330265
sVlower
p377
F4.499809670330265
sVtask
p378
F2.8903717578961645
sVoff
p379
F3.8066624897703196
sVcenter
p380
F4.499809670330265
sVi
p381
F3.8066624897703196
sVwell
p382
F3.8066624897703196
sVwithout
p383
F4.499809670330265
sVchoos
p384
F4.499809670330265
sVy
p385
F4.499809670330265
sVjudg
p386
F4.499809670330265
sVthe
p387
F0.6931471805599453
sVparaphrast
p388
F4.499809670330265
sVexplan
p389
F4.499809670330265
sVidentifi
p390
F4.499809670330265
sVabund
p391
F4.499809670330265
sVobtain
p392
F2.5649493574615367
sVhuman
p393
F3.4011973816621555
sVlanguag
p394
F4.499809670330265
sVprevious
p395
F3.8066624897703196
sVweb
p396
F3.8066624897703196
sVny
p397
F4.499809670330265
sVcl
p398
F4.499809670330265
sVadd
p399
F3.8066624897703196
sVhas
p400
F3.1354942159291497
sVmatch
p401
F4.499809670330265
sVtake
p402
F4.499809670330265
sVapplic
p403
F4.499809670330265
sVelhadad
p404
F4.499809670330265
sVmeasur
p405
F3.8066624897703196
sVknow
p406
F4.499809670330265
sVrecallk
p407
F4.499809670330265
sVlike
p408
F3.8066624897703196
sVmanual
p409
F4.499809670330265
sVcollect
p410
F2.70805020110221
sVsimilaritybas
p411
F4.499809670330265
sVt
p412
F3.4011973816621555
sVhave
p413
F2.8903717578961645
sVexceed
p414
F3.8066624897703196
sVdeal
p415
F4.499809670330265
sVcaptur
p416
F4.499809670330265
sVsome
p417
F2.8903717578961645
sVback
p418
F3.8066624897703196
sVfor
p419
F1.3862943611198906
sVoverlap
p420
F3.8066624897703196
sVlarg
p421
F3.8066624897703196
sVumn
p422
F4.499809670330265
sVporter
p423
F4.499809670330265
sVmachin
p424
F3.8066624897703196
sVbe
p425
F1.791759469228055
sVinvestig
p426
F4.499809670330265
sVps
p427
F4.499809670330265
sVword
p428
F2.8903717578961645
sVstem
p429
F3.8066624897703196
sVstep
p430
F3.4011973816621555
sValthough
p431
F3.8066624897703196
sVfound
p432
F3.8066624897703196
sVby
p433
F2.0794415416798357
sVon
p434
F1.9459101490553132
sVabout
p435
F4.499809670330265
sVcluto
p436
F4.499809670330265
sVof
p437
F1.0986122886681098
sVmateri
p438
F4.499809670330265
sVo
p439
F4.499809670330265
sVow
p440
F4.499809670330265
sVov
p441
F4.499809670330265
sVproduc
p442
F4.499809670330265
sVnsi
p443
F4.499809670330265
sVeffici
p444
F4.499809670330265
sVbarzilay
p445
F4.499809670330265
sVinto
p446
F3.8066624897703196
sVwithin
p447
F4.499809670330265
sVautomat
p448
F3.4011973816621555
sVlatter
p449
F4.499809670330265
sVartifici
p450
F4.499809670330265
sVthere
p451
F3.4011973816621555
sVquestion
p452
F4.499809670330265
sVkmean
p453
F3.1354942159291497
sVavail
p454
F4.499809670330265
sVpa
p455
F4.499809670330265
sVinclud
p456
F4.499809670330265
sVway
p457
F2.8903717578961645
sV:
p458
F3.1354942159291497
sVwas
p459
F3.8066624897703196
sVfunction
p460
F3.1354942159291497
sVnetherland
p461
F4.499809670330265
sVpe
p462
F4.499809670330265
sVbut
p463
F3.8066624897703196
sVtranslat
p464
F3.8066624897703196
sVwith
p465
F2.70805020110221
sVbetweenclust
p466
F4.499809670330265
sVmade
p467
F3.4011973816621555
sVpossibl
p468
F3.8066624897703196
sVj
p469
F4.499809670330265
sVus
p470
F3.8066624897703196
sVbelow
p471
F4.499809670330265
sVlimit
p472
F4.499809670330265
sVproblem
p473
F4.499809670330265
sVremaind
p474
F4.499809670330265
sVsimilar
p475
F2.0794415416798357
sVdisplay
p476
F4.499809670330265
sVdatadriven
p477
F4.499809670330265
sVad
p478
F4.499809670330265
sVevalu
p479
F3.8066624897703196
sVcertain
p480
F3.8066624897703196
sVproven
p481
F4.499809670330265
sVan
p482
F2.0794415416798357
sVas
p483
F1.9459101490553132
sVexist
p484
F4.499809670330265
sVat
p485
F2.70805020110221
sVav
p486
F4.499809670330265
sVay
p487
F4.499809670330265
sVlyk
p488
F4.499809670330265
sVincorrect
p489
F3.1354942159291497
sVagain
p490
F4.499809670330265
sVnl
p491
F4.499809670330265
sVgoogl
p492
F3.1354942159291497
sVno
p493
F3.8066624897703196
sVtit
p494
F4.499809670330265
sVwauter
p495
F4.499809670330265
sVwhen
p496
F3.1354942159291497
sVrs
p497
F4.499809670330265
sVng
p498
F4.499809670330265
sVfield
p499
F4.499809670330265
sVother
p500
F3.8066624897703196
sVfutur
p501
F3.8066624897703196
sVtest
p502
F3.4011973816621555
sVns
p503
F4.499809670330265
sVsubdivid
p504
F4.499809670330265
sVm
p505
F4.499809670330265
sVconsid
p506
F3.4011973816621555
sVreceiv
p507
F4.499809670330265
sVe
p508
F4.499809670330265
sValgorithm
p509
F3.1354942159291497
sVscientif
p510
F4.499809670330265
sVreliabl
p511
F4.499809670330265
sVspace
p512
F3.8066624897703196
sVignor
p513
F4.499809670330265
s.