(lp0
(lp1
S'W11-0815172'
p2
a(dp3
Vm
p4
F1.0
saa(lp5
S'W11-0815195'
p6
a(dp7
Va
p8
F0.05
sVc
p9
F0.1
sVe
p10
F0.1
sVd
p11
F0.05
sVsit
p12
F0.05
sg4
F0.05
sVl
p13
F0.05
sVo
p14
F0.1
sVn
p15
F0.1
sVp
p16
F0.05
sVs
p17
F0.05
sVr
p18
F0.05
sVu
p19
F0.05
sVt
p20
F0.05
sVio
p21
F0.05
sVpo
p22
F0.05
saa(lp23
S'W11-0815177'
p24
a(dp25
Vinsert
p26
F0.047619047619047616
sVfor
p27
F0.047619047619047616
sVpossibl
p28
F0.047619047619047616
sVthis
p29
F0.047619047619047616
sVof
p30
F0.047619047619047616
sVis
p31
F0.09523809523809523
sVthat
p32
F0.047619047619047616
sVnumber
p33
F0.047619047619047616
sVindic
p34
F0.047619047619047616
sVone
p35
F0.047619047619047616
sVto
p36
F0.047619047619047616
sVreason
p37
F0.047619047619047616
sVmwes
p38
F0.047619047619047616
sVthan
p39
F0.047619047619047616
sVin
p40
F0.047619047619047616
sVhappen
p41
F0.047619047619047616
sVother
p42
F0.047619047619047616
sVthe
p43
F0.09523809523809523
sVhigher
p44
F0.047619047619047616
saa(lp45
S'W11-0815197'
p46
a(dp47
g16
F0.3333333333333333
sVg
p48
F0.3333333333333333
sVh
p49
F0.3333333333333333
saa(lp50
S'W11-0815196'
p51
a(dp52
g16
F0.3333333333333333
sg48
F0.3333333333333333
sg49
F0.3333333333333333
saa(lp53
S'W11-0815191'
p54
a(dp55
Vindex
p56
F0.09090909090909091
sVof
p57
F0.09090909090909091
sg4
F0.09090909090909091
sV,
p58
F0.09090909090909091
sVtopic
p59
F0.09090909090909091
sVsecond
p60
F0.09090909090909091
sVgain
p61
F0.09090909090909091
sVin
p62
F0.09090909090909091
sVthe
p63
F0.09090909090909091
sVhighest
p64
F0.09090909090909091
sVwas
p65
F0.09090909090909091
saa(lp66
S'W11-0815190'
p67
a(dp68
Vand
p69
F0.02631578947368421
sVbecaus
p70
F0.02631578947368421
sVtopic
p71
F0.02631578947368421
sVas
p72
F0.02631578947368421
sVresult
p73
F0.02631578947368421
sVhave
p74
F0.02631578947368421
sVin
p75
F0.02631578947368421
sVindex
p76
F0.02631578947368421
sVonli
p77
F0.02631578947368421
sVfor
p78
F0.02631578947368421
sVno
p79
F0.02631578947368421
sVtv
p80
F0.02631578947368421
sVthere
p81
F0.02631578947368421
sg58
F0.05263157894736842
sVmwe
p82
F0.05263157894736842
sVverifi
p83
F0.02631578947368421
sVwas
p84
F0.07894736842105263
sVchannel
p85
F0.02631578947368421
sVwhose
p86
F0.02631578947368421
sVgain
p87
F0.02631578947368421
sVdictionari
p88
F0.02631578947368421
sVnot
p89
F0.02631578947368421
sVchang
p90
F0.02631578947368421
sVloss
p91
F0.02631578947368421
sVbcn
p92
F0.02631578947368421
sVthis
p93
F0.05263157894736842
sVof
p94
F0.02631578947368421
sVdoe
p95
F0.02631578947368421
sVthe
p96
F0.10526315789473684
sVor
p97
F0.02631578947368421
saa(lp98
S'W11-0815193'
p99
a(dp100
Von
p101
F1.0
saa(lp102
S'W11-0815176'
p103
a(dp104
Vand
p105
F0.034482758620689655
sVobtain
p106
F0.034482758620689655
sVas
p107
F0.034482758620689655
sVresult
p108
F0.034482758620689655
sVin
p109
F0.034482758620689655
sVbest
p110
F0.034482758620689655
sVindex
p111
F0.034482758620689655
sVnomin
p112
F0.06896551724137931
sVmwes
p113
F0.034482758620689655
sg58
F0.10344827586206896
sVbetter
p114
F0.034482758620689655
sVdecis
p115
F0.034482758620689655
sVconfid
p116
F0.034482758620689655
sVlowest
p117
F0.034482758620689655
sVwe
p118
F0.034482758620689655
sVthat
p119
F0.034482758620689655
sVconsid
p120
F0.034482758620689655
sVcompound
p121
F0.06896551724137931
sVthan
p122
F0.034482758620689655
sVthis
p123
F0.034482758620689655
sVtree
p124
F0.034482758620689655
sVcontain
p125
F0.034482758620689655
sVthe
p126
F0.06896551724137931
sVorder
p127
F0.034482758620689655
saa(lp128
S'W11-0815217'
p129
a(dp130
Vand
p131
F0.025
sVfocus
p132
F0.025
sg58
F0.05
sVbring
p133
F0.025
sVadequ
p134
F0.025
sVin
p135
F0.075
sVimpact
p136
F0.025
sVthese
p137
F0.05
sVfor
p138
F0.025
sVsystem
p139
F0.025
sVwhether
p140
F0.025
sVtreatment
p141
F0.025
sVmultiword
p142
F0.025
sVmore
p143
F0.025
sVapplic
p144
F0.025
sVinvestig
p145
F0.025
sVindex
p146
F0.025
sVexpress
p147
F0.075
sVcompound
p148
F0.025
sVretriev
p149
F0.025
sg8
F0.025
sVon
p150
F0.05
sVnoun
p151
F0.025
sVconsist
p152
F0.025
sVpossibl
p153
F0.025
sVthis
p154
F0.025
sVof
p155
F0.025
sVwork
p156
F0.025
sVinform
p157
F0.025
sVcan
p158
F0.025
sVimprov
p159
F0.025
sVthe
p160
F0.05
saa(lp161
S'W11-0815214'
p162
a(dp163
g16
F0.3333333333333333
sg48
F0.3333333333333333
sg49
F0.3333333333333333
saa(lp164
S'W11-0815215'
p165
a(dp166
Vcn
p167
F0.03225806451612903
sVtabl
p168
F0.03225806451612903
sVrank
p169
F0.03225806451612903
sVdue
p170
F0.03225806451612903
sVtopic
p171
F0.03225806451612903
sVbring
p172
F0.03225806451612903
sVin
p173
F0.03225806451612903
sVseem
p174
F0.03225806451612903
sVindex
p175
F0.03225806451612903
sV#
p176
F0.03225806451612903
sVfor
p177
F0.03225806451612903
sVmwes
p178
F0.03225806451612903
sVsum
p179
F0.03225806451612903
sg58
F0.06451612903225806
sVto
p180
F0.06451612903225806
sVdocument
p181
F0.03225806451612903
sVmore
p182
F0.06451612903225806
sVrelev
p183
F0.03225806451612903
sg8
F0.03225806451612903
sVinsert
p184
F0.03225806451612903
sVterm
p185
F0.03225806451612903
sV:
p186
F0.03225806451612903
sVretriev
p187
F0.03225806451612903
sVspecif
p188
F0.03225806451612903
sVof
p189
F0.03225806451612903
sVprecis
p190
F0.03225806451612903
sVimprov
p191
F0.03225806451612903
sVthe
p192
F0.03225806451612903
saa(lp193
S'W11-0815199'
p194
a(dp195
g16
F0.3333333333333333
sg48
F0.3333333333333333
sg49
F0.3333333333333333
saa(lp196
S'W11-0815175'
p197
a(dp198
Vand
p199
F0.07142857142857142
sVgs
p200
F0.07142857142857142
sg4
F0.14285714285714285
sVafter
p201
F0.07142857142857142
sVmanual
p202
F0.07142857142857142
sg58
F0.07142857142857142
sVindic
p203
F0.07142857142857142
sVobtain
p204
F0.07142857142857142
sVresult
p205
F0.07142857142857142
sVwere
p206
F0.07142857142857142
sVfrom
p207
F0.07142857142857142
sVthe
p208
F0.07142857142857142
sVbest
p209
F0.07142857142857142
saa(lp210
S'W11-0815210'
p211
a(dp212
g16
F0.3333333333333333
sg48
F0.3333333333333333
sg49
F0.3333333333333333
saa(lp213
S'W11-0815211'
p214
a(dp215
g8
F0.3333333333333333
sg16
F0.3333333333333333
sg13
F0.3333333333333333
saa(lp216
S'W11-081568'
p217
a(dp218
Von
p219
F0.07692307692307693
sVwe
p220
F0.07692307692307693
sVword
p221
F0.07692307692307693
sVthis
p222
F0.07692307692307693
sVof
p223
F0.07692307692307693
sVwork
p224
F0.07692307692307693
sVfocus
p225
F0.07692307692307693
sg58
F0.07692307692307693
sVmwes
p226
F0.07692307692307693
sVcompos
p227
F0.07692307692307693
sVin
p228
F0.07692307692307693
sVexact
p229
F0.07692307692307693
sVtwo
p230
F0.07692307692307693
saa(lp231
S'W11-0815119'
p232
a(dp233
Vcorpus
p234
F0.25
sVwithout
p235
F0.25
sVmwe
p236
F0.25
sVbaselin
p237
F0.25
saa(lp238
S'W11-0815118'
p239
a(dp240
Vdescrib
p241
F0.16666666666666666
sVthese
p242
F0.16666666666666666
sVindic
p243
F0.16666666666666666
sVbelow
p244
F0.16666666666666666
sVare
p245
F0.16666666666666666
sg186
F0.16666666666666666
saa(lp246
S'W11-081560'
p247
a(dp248
g8
F0.1111111111111111
sVtotal
p249
F0.1111111111111111
sVof
p250
F0.1111111111111111
sVtopic
p251
F0.1111111111111111
sVcollect
p252
F0.1111111111111111
sVqueri
p253
F0.1111111111111111
sVtest
p254
F0.1111111111111111
sVthe
p255
F0.1111111111111111
sVhas
p256
F0.1111111111111111
saa(lp257
S'W11-081561'
p258
a(dp259
Vand
p260
F0.03225806451612903
sVlist
p261
F0.03225806451612903
sVis
p262
F0.03225806451612903
sVsuppli
p263
F0.03225806451612903
sVclef
p264
F0.03225806451612903
sVjudgment
p265
F0.03225806451612903
sVmateri
p266
F0.03225806451612903
sg58
F0.03225806451612903
sVby
p267
F0.03225806451612903
sVto
p268
F0.06451612903225806
sVqueri
p269
F0.03225806451612903
sVdocument
p270
F0.06451612903225806
sVwas
p271
F0.03225806451612903
sVaccord
p272
F0.03225806451612903
sVwith
p273
F0.03225806451612903
sVrelev
p274
F0.06451612903225806
sg8
F0.0967741935483871
sVwhether
p275
F0.03225806451612903
sVof
p276
F0.06451612903225806
sVprepar
p277
F0.03225806451612903
sVmanual
p278
F0.03225806451612903
sVprovid
p279
F0.03225806451612903
sVthe
p280
F0.06451612903225806
sVassign
p281
F0.03225806451612903
saa(lp282
S'W11-081562'
p283
a(dp284
Vwe
p285
F0.0625
sVretriev
p286
F0.0625
sVof
p287
F0.0625
sVin
p288
F0.0625
sVlist
p289
F0.0625
sVuse
p290
F0.0625
sVzettair
p291
F0.0625
sVeach
p292
F0.0625
sVto
p293
F0.125
sVqueri
p294
F0.0625
sVrank
p295
F0.0625
sVgenerat
p296
F0.0625
sVthe
p297
F0.0625
sVdocument
p298
F0.0625
sVrespons
p299
F0.0625
saa(lp300
S'W11-081563'
p301
a(dp302
Vfor
p303
F0.08333333333333333
sVqueri
p304
F0.08333333333333333
sVtop
p305
F0.08333333333333333
sVwere
p306
F0.08333333333333333
sg58
F0.16666666666666666
sVtopic
p307
F0.08333333333333333
sVscore
p308
F0.08333333333333333
sVeach
p309
F0.08333333333333333
sVthe
p310
F0.08333333333333333
sVdocument
p311
F0.08333333333333333
sVselect
p312
F0.08333333333333333
saa(lp313
S'W11-081564'
p314
a(dp315
Vand
p316
F0.07692307692307693
sVwe
p317
F0.07692307692307693
sVmetric
p318
F0.07692307692307693
sVuse
p319
F0.07692307692307693
sVrank
p320
F0.07692307692307693
sVto
p321
F0.07692307692307693
sVcalcul
p322
F0.07692307692307693
sVscore
p323
F0.07692307692307693
sVcosin
p324
F0.07692307692307693
sVthe
p325
F0.23076923076923078
sVdocument
p326
F0.07692307692307693
saa(lp327
S'W11-081565'
p328
a(dp329
Vwe
p330
F0.07142857142857142
sVretriev
p331
F0.07142857142857142
sVtrec
p332
F0.07142857142857142
sVevalu
p333
F0.07142857142857142
sVmetric
p334
F0.07142857142857142
sVuse
p335
F0.07142857142857142
sVtool
p336
F0.07142857142857142
sg58
F0.07142857142857142
sVto
p337
F0.07142857142857142
sVcalcul
p338
F0.07142857142857142
sVeval
p339
F0.07142857142857142
sVthe
p340
F0.14285714285714285
sVfinal
p341
F0.07142857142857142
saa(lp342
S'W11-081566'
p343
a(dp344
Vretriev
p345
F0.07142857142857142
sVcompar
p346
F0.07142857142857142
sVthis
p347
F0.07142857142857142
sVof
p348
F0.14285714285714285
sVtool
p349
F0.07142857142857142
sVlist
p350
F0.14285714285714285
sVagainst
p351
F0.07142857142857142
sVthe
p352
F0.14285714285714285
sVdocument
p353
F0.14285714285714285
sVrelev
p354
F0.07142857142857142
saa(lp355
S'W11-081567'
p356
a(dp357
Vas
p358
F0.2
sVexpress
p359
F0.2
sVterm
p360
F0.2
sVsingl
p361
F0.2
sVmultiword
p362
F0.2
saa(lp363
S'W11-0815171'
p364
a(dp365
g11
F0.5
sg20
F0.5
saa(lp366
S'W11-0815219'
p367
a(dp368
Vpoint
p369
F0.041666666666666664
sVir
p370
F0.041666666666666664
sVat
p371
F0.041666666666666664
sVin
p372
F0.08333333333333333
sVsever
p373
F0.041666666666666664
sVuse
p374
F0.041666666666666664
sVassoci
p375
F0.041666666666666664
sVsystem
p376
F0.041666666666666664
sVbetter
p377
F0.041666666666666664
sVmultiword
p378
F0.041666666666666664
sVimport
p379
F0.041666666666666664
sVwe
p380
F0.041666666666666664
sVexpress
p381
F0.041666666666666664
sVunderstand
p382
F0.041666666666666664
sVwith
p383
F0.041666666666666664
sg8
F0.041666666666666664
sVthis
p384
F0.041666666666666664
sVof
p385
F0.08333333333333333
sVwork
p386
F0.041666666666666664
sVaim
p387
F0.041666666666666664
sVachiev
p388
F0.041666666666666664
sVthe
p389
F0.041666666666666664
saa(lp390
S'W11-0815170'
p391
a(dp392
g17
F0.5
sg48
F0.5
saa(lp393
S'W11-0815189'
p394
a(dp395
Vabout
p396
F0.0625
sVbomb
p397
F0.0625
sVmwe
p398
F0.0625
sVthat
p399
F0.0625
sVthis
p400
F0.0625
sVis
p401
F0.0625
sg77
F0.0625
sVan
p402
F0.0625
sVtopic
p403
F0.0625
sVinfluenc
p404
F0.0625
sVresult
p405
F0.0625
sVinterest
p406
F0.0625
sVletter
p407
F0.0625
sVthe
p408
F0.125
sVfact
p409
F0.0625
saa(lp410
S'W11-0815182'
p411
a(dp412
Vresult
p413
F0.047619047619047616
sVindex
p414
F0.047619047619047616
sVwe
p415
F0.047619047619047616
sVthat
p416
F0.09523809523809523
sVconclud
p417
F0.047619047619047616
sVis
p418
F0.047619047619047616
sVthus
p419
F0.047619047619047616
sg58
F0.047619047619047616
sVleast
p420
F0.047619047619047616
sVone
p421
F0.047619047619047616
sVqueri
p422
F0.047619047619047616
sVcan
p423
F0.047619047619047616
sg8
F0.047619047619047616
sVof
p424
F0.047619047619047616
sVthe
p425
F0.19047619047619047
sVmodifi
p426
F0.047619047619047616
sVwcn
p427
F0.047619047619047616
saa(lp428
S'W11-0815183'
p429
a(dp430
Vand
p431
F0.018691588785046728
sVsubset
p432
F0.009345794392523364
sVcn
p433
F0.018691588785046728
sVcreat
p434
F0.009345794392523364
sVwhat
p435
F0.009345794392523364
sVis
p436
F0.009345794392523364
sV``
p437
F0.028037383177570093
sVindic
p438
F0.009345794392523364
sV''
p439
F0.102803738317757
sVorigin
p440
F0.009345794392523364
sVpos=
p441
F0.009345794392523364
sVexist
p442
F0.009345794392523364
sVresult
p443
F0.009345794392523364
sVin
p444
F0.009345794392523364
sVscore=
p445
F0.018691588785046728
sVbest
p446
F0.009345794392523364
sVgh
p447
F0.009345794392523364
sVuse
p448
F0.009345794392523364
sVid=
p449
F0.009345794392523364
sVunderworld
p450
F0.018691588785046728
sVnn
p451
F0.009345794392523364
sVprove
p452
F0.009345794392523364
sVhad
p453
F0.009345794392523364
sg58
F0.037383177570093455
sV/
p454
F0.018691588785046728
sVto
p455
F0.009345794392523364
sVrole
p456
F0.009345794392523364
sVmwe
p457
F0.009345794392523364
sVsynset
p458
F0.018691588785046728
sVblack
p459
F0.009345794392523364
sg186
F0.009345794392523364
sVwas
p460
F0.009345794392523364
sV<
p461
F0.056074766355140186
sV?
p462
F0.009345794392523364
sV>
p463
F0.056074766355140186
sVwf
p464
F0.009345794392523364
sVwe
p465
F0.009345794392523364
sVthat
p466
F0.018691588785046728
sVconclud
p467
F0.009345794392523364
sV/wf
p468
F0.009345794392523364
sVterm
p469
F0.009345794392523364
sVcandid
p470
F0.009345794392523364
sVknow
p471
F0.009345794392523364
sVdictionari
p472
F0.018691588785046728
sVlema=
p473
F0.009345794392523364
sVhole
p474
F0.009345794392523364
sVvalu
p475
F0.009345794392523364
sg8
F0.028037383177570093
sVtopic
p476
F0.009345794392523364
sVbcn
p477
F0.018691588785046728
sVof
p478
F0.028037383177570093
sVtelescop
p479
F0.009345794392523364
sVcode=
p480
F0.018691588785046728
sVhubbl
p481
F0.009345794392523364
sg15
F0.018691588785046728
sVcan
p482
F0.009345794392523364
sVchoos
p483
F0.009345794392523364
sVthe
p484
F0.06542056074766354
sVsimilar
p485
F0.009345794392523364
sV/term
p486
F0.009345794392523364
sVgain
p487
F0.009345794392523364
saa(lp488
S'W11-0815180'
p489
a(dp490
Vall
p491
F0.03571428571428571
sVidentifi
p492
F0.03571428571428571
sVindic
p493
F0.03571428571428571
sVhave
p494
F0.03571428571428571
sVindex
p495
F0.03571428571428571
sV%
p496
F0.03571428571428571
sVcompar
p497
F0.03571428571428571
sValso
p498
F0.03571428571428571
sg58
F0.07142857142857142
sVto
p499
F0.03571428571428571
sVother
p500
F0.03571428571428571
sVanalyz
p501
F0.03571428571428571
sVhas
p502
F0.03571428571428571
sVwcn
p503
F0.03571428571428571
sVlowest
p504
F0.07142857142857142
sVwe
p505
F0.03571428571428571
sVthat
p506
F0.03571428571428571
sVgain
p507
F0.03571428571428571
sValthough
p508
F0.03571428571428571
sVloss
p509
F0.03571428571428571
sg186
F0.03571428571428571
sVthis
p510
F0.03571428571428571
sVcan
p511
F0.03571428571428571
sVthe
p512
F0.10714285714285714
saa(lp513
S'W11-0815181'
p514
a(dp515
Vdiffer
p516
F0.06666666666666667
sg496
F0.06666666666666667
sVcompar
p517
F0.06666666666666667
sVno
p518
F0.06666666666666667
sVof
p519
F0.06666666666666667
sVhad
p520
F0.06666666666666667
sg58
F0.06666666666666667
sVbut
p521
F0.06666666666666667
sVtopic
p522
F0.06666666666666667
sVto
p523
F0.06666666666666667
sVsignific
p524
F0.06666666666666667
sVthe
p525
F0.13333333333333333
sVmodifi
p526
F0.06666666666666667
sVbaselin
p527
F0.06666666666666667
saa(lp528
S'W11-0815186'
p529
a(dp530
Vand
p531
F0.03389830508474576
sVbomb
p532
F0.01694915254237288
sVletter
p533
F0.01694915254237288
sVpoint
p534
F0.01694915254237288
sVis
p535
F0.03389830508474576
sVrank
p536
F0.01694915254237288
sVtopic
p537
F0.01694915254237288
sVconsequ
p538
F0.01694915254237288
sVas
p539
F0.01694915254237288
sVin
p540
F0.06779661016949153
sVcn
p541
F0.03389830508474576
sVindex
p542
F0.03389830508474576
sVuse
p543
F0.01694915254237288
sVfrom
p544
F0.01694915254237288
sVtv
p545
F0.01694915254237288
sg58
F0.05084745762711865
sVby
p546
F0.01694915254237288
sVto
p547
F0.01694915254237288
sVscore
p548
F0.01694915254237288
sVdocument
p549
F0.01694915254237288
sVchannel
p550
F0.01694915254237288
sVhigher
p551
F0.01694915254237288
sVmap
p552
F0.01694915254237288
sVexpress
p553
F0.01694915254237288
sVreturn
p554
F0.01694915254237288
sVthat
p555
F0.01694915254237288
sVafter
p556
F0.01694915254237288
sVpercentag
p557
F0.01694915254237288
sVdictionari
p558
F0.01694915254237288
sVincreas
p559
F0.01694915254237288
sVrelev
p560
F0.01694915254237288
sg8
F0.01694915254237288
sVinsert
p561
F0.01694915254237288
sVhas
p562
F0.01694915254237288
sg11
F0.01694915254237288
sVthis
p563
F0.01694915254237288
sVof
p564
F0.03389830508474576
sVtwice
p565
F0.01694915254237288
sVwere
p566
F0.01694915254237288
sVposit
p567
F0.01694915254237288
sVthe
p568
F0.11864406779661017
sVbaselin
p569
F0.01694915254237288
sVfirst
p570
F0.01694915254237288
saa(lp571
S'W11-0815187'
p572
a(dp573
Vand
p574
F0.030303030303030304
sVcn
p575
F0.030303030303030304
sVit
p576
F0.030303030303030304
sVrank
p577
F0.09090909090909091
sVsee
p578
F0.030303030303030304
sVdecreas
p579
F0.030303030303030304
sVin
p580
F0.12121212121212122
sVbaselin
p581
F0.030303030303030304
sVgiven
p582
F0.030303030303030304
sg58
F0.030303030303030304
sValso
p583
F0.030303030303030304
sVscore
p584
F0.030303030303030304
sVfourth
p585
F0.030303030303030304
sVhas
p586
F0.030303030303030304
sVwas
p587
F0.06060606060606061
sVwe
p588
F0.030303030303030304
sVthat
p589
F0.06060606060606061
sVby
p590
F0.030303030303030304
sVdocument
p591
F0.030303030303030304
sVposit
p592
F0.06060606060606061
sVthe
p593
F0.12121212121212122
sVfirst
p594
F0.030303030303030304
saa(lp595
S'W11-0815184'
p596
a(dp597
Vblack_hol
p598
F0.012987012987012988
sVten
p599
F0.012987012987012988
sVshow
p600
F0.012987012987012988
sVletter_bomb
p601
F0.025974025974025976
sVqueri
p602
F0.012987012987012988
sVpro
p603
F0.012987012987012988
sVexplos
p604
F0.012987012987012988
sVtopic
p605
F0.03896103896103896
sVnum
p606
F0.012987012987012988
sVexist
p607
F0.012987012987012988
sVin
p608
F0.03896103896103896
sVbomb
p609
F0.025974025974025976
sVfind
p610
F0.012987012987012988
sVbaselin
p611
F0.012987012987012988
sVwhat
p612
F0.012987012987012988
sVfor
p613
F0.025974025974025976
sVprove
p614
F0.012987012987012988
sVtv
p615
F0.012987012987012988
sVtitl
p616
F0.012987012987012988
sVtop
p617
F0.012987012987012988
sVfigur
p618
F0.012987012987012988
sVscore
p619
F0.012987012987012988
sVrole
p620
F0.012987012987012988
sVblack
p621
F0.012987012987012988
sg186
F0.025974025974025976
sg461
F0.05194805194805195
sg462
F0.012987012987012988
sg463
F0.05194805194805195
sVbe
p622
F0.012987012987012988
sg176
F0.012987012987012988
sVtabl
p623
F0.012987012987012988
sVstudio
p624
F0.012987012987012988
sVletter
p625
F0.025974025974025976
sVhole
p626
F0.012987012987012988
sVmodifi
p627
F0.012987012987012988
sVpresent
p628
F0.012987012987012988
sg8
F0.012987012987012988
sVon
p629
F0.012987012987012988
sVarabella
p630
F0.012987012987012988
sVdocument
p631
F0.012987012987012988
sVretriev
p632
F0.012987012987012988
sVof
p633
F0.05194805194805195
sVtelescop
p634
F0.012987012987012988
sVhubbl
p635
F0.012987012987012988
sVkiesbauer
p636
F0.025974025974025976
sVinform
p637
F0.012987012987012988
sVchannel
p638
F0.012987012987012988
sVtv_channel
p639
F0.012987012987012988
sVthe
p640
F0.1038961038961039
sV/titl
p641
F0.012987012987012988
sV/num
p642
F0.012987012987012988
saa(lp643
S'W11-0815185'
p644
a(dp645
Vis
p646
F0.1
sVfourth
p647
F0.1
sVin
p648
F0.1
sVposit
p649
F0.1
sVthe
p650
F0.3
sVdocument
p651
F0.1
sVrelev
p652
F0.1
sVbaselin
p653
F0.1
saa(lp654
S'W11-0815213'
p655
a(dp656
g16
F0.3333333333333333
sg48
F0.3333333333333333
sg49
F0.3333333333333333
saa(lp657
S'W11-0815102'
p658
a(dp659
Vand
p660
F0.03571428571428571
sVclassif
p661
F0.03571428571428571
sVobtain
p662
F0.03571428571428571
sVpointwis
p663
F0.03571428571428571
sVbest
p664
F0.03571428571428571
sVuse
p665
F0.03571428571428571
sVdice
p666
F0.03571428571428571
sVfor
p667
F0.03571428571428571
sg58
F0.14285714285714285
sVsever
p668
F0.03571428571428571
sVwas
p669
F0.03571428571428571
sVmethod
p670
F0.03571428571428571
sVafter
p671
F0.03571428571428571
sVmutual
p672
F0.07142857142857142
sVwith
p673
F0.03571428571428571
sVof
p674
F0.03571428571428571
sVinform
p675
F0.07142857142857142
sVcombin
p676
F0.03571428571428571
sVstatist
p677
F0.03571428571428571
sVchisquar
p678
F0.03571428571428571
sVthe
p679
F0.07142857142857142
sVresult
p680
F0.03571428571428571
saa(lp681
S'W11-0815103'
p682
a(dp683
g58
F0.07142857142857142
sVweka
p684
F0.07142857142857142
sVappli
p685
F0.07142857142857142
sVobtain
p686
F0.07142857142857142
sVdata
p687
F0.07142857142857142
sVto
p688
F0.07142857142857142
sVcandid
p689
F0.07142857142857142
sVmwe
p690
F0.07142857142857142
sVcontain
p691
F0.07142857142857142
sVtest
p692
F0.07142857142857142
sVfrom
p693
F0.07142857142857142
sVthe
p694
F0.07142857142857142
sVwas
p695
F0.07142857142857142
sVmodel
p696
F0.07142857142857142
saa(lp697
S'W11-0815100'
p698
a(dp699
Vand
p700
F0.08333333333333333
sVthis
p701
F0.08333333333333333
sVwith
p702
F0.08333333333333333
sVexampl
p703
F0.08333333333333333
sVprovid
p704
F0.08333333333333333
sVtrue
p705
F0.08333333333333333
sVtrain
p706
F0.08333333333333333
sVmwe
p707
F0.08333333333333333
sVof
p708
F0.08333333333333333
sVfals
p709
F0.08333333333333333
sVdata
p710
F0.08333333333333333
sVrequir
p711
F0.08333333333333333
saa(lp712
S'W11-0815101'
p713
a(dp714
Vand
p715
F0.07692307692307693
sVset
p716
F0.07692307692307693
sVfals
p717
F0.07692307692307693
sVtrain
p718
F0.07692307692307693
sVhalf
p719
F0.15384615384615385
sg58
F0.15384615384615385
sVmwes
p720
F0.07692307692307693
sVinstanc
p721
F0.07692307692307693
sVcontain
p722
F0.07692307692307693
sVthe
p723
F0.07692307692307693
sVtrue
p724
F0.07692307692307693
saa(lp725
S'W11-0815106'
p726
a(dp727
g8
F0.058823529411764705
sVconcaten
p728
F0.058823529411764705
sVall
p729
F0.058823529411764705
sVbigram
p730
F0.058823529411764705
sVwhich
p731
F0.058823529411764705
sVwould
p732
F0.058823529411764705
sVwere
p733
F0.058823529411764705
sVdiffer
p734
F0.058823529411764705
sVachiev
p735
F0.058823529411764705
sVif
p736
F0.058823529411764705
sVdictionari
p737
F0.058823529411764705
sVcontain
p738
F0.058823529411764705
sVword
p739
F0.058823529411764705
sVthe
p740
F0.11764705882352941
sVmean
p741
F0.058823529411764705
sVfirst
p742
F0.058823529411764705
saa(lp743
S'W11-0815107'
p744
a(dp745
Vand
p746
F0.047619047619047616
sVdictio
p747
F0.047619047619047616
sVretriev
p748
F0.09523809523809523
sg11
F0.047619047619047616
sVcall
p749
F0.047619047619047616
sVthis
p750
F0.047619047619047616
sVwas
p751
F0.047619047619047616
sVexpress
p752
F0.047619047619047616
sg176
F0.19047619047619047
sg58
F0.047619047619047616
sg15
F0.047619047619047616
sVnari
p753
F0.047619047619047616
sVcontain
p754
F0.047619047619047616
sVrecal
p755
F0.047619047619047616
sV=
p756
F0.047619047619047616
sVrelev
p757
F0.09523809523809523
saa(lp758
S'W11-0815104'
p759
a(dp760
g11
F0.14285714285714285
sVtionari
p761
F0.14285714285714285
sg58
F0.2857142857142857
sVbi
p762
F0.14285714285714285
sVcall
p763
F0.14285714285714285
sVthe
p764
F0.14285714285714285
saa(lp765
S'W11-081578'
p766
a(dp767
Vwe
p768
F0.1111111111111111
sVdescrib
p769
F0.1111111111111111
sVcreat
p770
F0.1111111111111111
sVthese
p771
F0.1111111111111111
sVdictionari
p772
F0.1111111111111111
sVhow
p773
F0.1111111111111111
sVbelow
p774
F0.1111111111111111
sVmwe
p775
F0.1111111111111111
sVwere
p776
F0.1111111111111111
saa(lp777
S'W11-081577'
p778
a(dp779
Vand
p780
F0.03571428571428571
sVcreat
p781
F0.03571428571428571
sVinto
p782
F0.03571428571428571
sVnumber
p783
F0.03571428571428571
sVautomat
p784
F0.03571428571428571
sVas
p785
F0.03571428571428571
sVare
p786
F0.03571428571428571
sVextract
p787
F0.03571428571428571
sVinvolv
p788
F0.03571428571428571
sVtechniqu
p789
F0.03571428571428571
sVmwes
p790
F0.03571428571428571
sg58
F0.03571428571428571
sVto
p791
F0.03571428571428571
sVcorpus
p792
F0.03571428571428571
sVsingl
p793
F0.03571428571428571
sVbe
p794
F0.03571428571428571
sVdictionari
p795
F0.03571428571428571
sVby
p796
F0.03571428571428571
sg8
F0.07142857142857142
sVinsert
p797
F0.03571428571428571
sVterm
p798
F0.03571428571428571
sVof
p799
F0.03571428571428571
sVmanual
p800
F0.03571428571428571
sVcontain
p801
F0.03571428571428571
sVthe
p802
F0.10714285714285714
saa(lp803
S'W11-081576'
p804
a(dp805
Vbomb
p806
F0.030303030303030304
sVdictionari
p807
F0.030303030303030304
sVpro
p808
F0.015151515151515152
sVexplos
p809
F0.015151515151515152
sVqualiti
p810
F0.030303030303030304
sg58
F0.015151515151515152
sVsourc
p811
F0.015151515151515152
sVin
p812
F0.045454545454545456
sVvari
p813
F0.015151515151515152
sVfind
p814
F0.015151515151515152
sVsever
p815
F0.015151515151515152
sVimpact
p816
F0.015151515151515152
sVuse
p817
F0.015151515151515152
sVle
p818
F0.015151515151515152
sVfor
p819
F0.015151515151515152
sVtv
p820
F0.015151515151515152
sVtitl
p821
F0.015151515151515152
sVsystem
p822
F0.015151515151515152
sVto
p823
F0.015151515151515152
sVmwe
p824
F0.015151515151515152
sg461
F0.030303030303030304
sVchannel
p825
F0.015151515151515152
sg463
F0.030303030303030304
sVter_bmombullettitewr_obormdbetv_xcpharnensesl
p826
F0.015151515151515152
sVwe
p827
F0.015151515151515152
sVir
p828
F0.015151515151515152
sVdiffer
p829
F0.015151515151515152
sVion
p830
F0.015151515151515152
sVstudio
p831
F0.015151515151515152
sVletter
p832
F0.030303030303030304
sVpresent
p833
F0.015151515151515152
sg8
F0.015151515151515152
sVon
p834
F0.015151515151515152
sVarabella
p835
F0.015151515151515152
sVperform
p836
F0.015151515151515152
sVexamin
p837
F0.015151515151515152
sVof
p838
F0.10606060606060606
sVkiesbauer
p839
F0.030303030303030304
sVinform
p840
F0.015151515151515152
sg20
F0.015151515151515152
sVdetermin
p841
F0.015151515151515152
sVthe
p842
F0.12121212121212122
sV/titl
p843
F0.015151515151515152
sVorder
p844
F0.015151515151515152
saa(lp845
S'W11-081575'
p846
a(dp847
Vblack_hol
p848
F0.03333333333333333
sVqueri
p849
F0.03333333333333333
sVtopic
p850
F0.03333333333333333
sVnum
p851
F0.03333333333333333
sVexist
p852
F0.03333333333333333
sVin
p853
F0.03333333333333333
sVwhat
p854
F0.03333333333333333
sVprove
p855
F0.03333333333333333
sVfigur
p856
F0.03333333333333333
sVrole
p857
F0.03333333333333333
sVblack
p858
F0.03333333333333333
sg186
F0.06666666666666667
sg461
F0.06666666666666667
sg462
F0.03333333333333333
sg463
F0.06666666666666667
sVbe
p859
F0.03333333333333333
sVhole
p860
F0.03333333333333333
sVmodifi
p861
F0.06666666666666667
sVof
p862
F0.06666666666666667
sVtelescop
p863
F0.03333333333333333
sVhubbl
p864
F0.03333333333333333
sVthe
p865
F0.1
sV/num
p866
F0.03333333333333333
saa(lp867
S'W11-081574'
p868
a(dp869
Vorigin
p870
F0.015151515151515152
sV''
p871
F0.16666666666666666
sVpos=
p872
F0.015151515151515152
sVexist
p873
F0.015151515151515152
sVin
p874
F0.015151515151515152
sVscore=
p875
F0.030303030303030304
sVgh
p876
F0.015151515151515152
sVwhat
p877
F0.015151515151515152
sVid=
p878
F0.015151515151515152
sVunderworld
p879
F0.030303030303030304
sVnn
p880
F0.015151515151515152
sVprove
p881
F0.015151515151515152
sg454
F0.030303030303030304
sVrole
p882
F0.015151515151515152
sVsynset
p883
F0.030303030303030304
sVblack
p884
F0.015151515151515152
sg186
F0.015151515151515152
sVwas
p885
F0.015151515151515152
sg461
F0.09090909090909091
sg462
F0.015151515151515152
sg463
F0.09090909090909091
sVwf
p886
F0.015151515151515152
sV``
p887
F0.045454545454545456
sV/wf
p888
F0.015151515151515152
sVlema=
p889
F0.015151515151515152
sVhole
p890
F0.015151515151515152
sV/term
p891
F0.015151515151515152
sVtopic
p892
F0.015151515151515152
sVterm
p893
F0.015151515151515152
sVof
p894
F0.030303030303030304
sVtelescop
p895
F0.015151515151515152
sVcode=
p896
F0.030303030303030304
sVhubbl
p897
F0.015151515151515152
sg15
F0.030303030303030304
sVthe
p898
F0.045454545454545456
saa(lp899
S'W11-081573'
p900
a(dp901
g8
F0.125
sVretriev
p902
F0.125
sVqualiti
p903
F0.125
sg58
F0.125
sVshould
p904
F0.125
sVas
p905
F0.125
sVresult
p906
F0.125
sVincreas
p907
F0.125
saa(lp908
S'W11-081572'
p909
a(dp910
Vbe
p911
F0.045454545454545456
sVexpress
p912
F0.045454545454545456
sVword
p913
F0.045454545454545456
sVspecif
p914
F0.045454545454545456
sVthat
p915
F0.045454545454545456
sVmwes
p916
F0.045454545454545456
sVindex
p917
F0.045454545454545456
sVof
p918
F0.045454545454545456
sVsepar
p919
F0.045454545454545456
sVadequ
p920
F0.045454545454545456
sVcan
p921
F0.045454545454545456
sVrational
p922
F0.045454545454545456
sVcontain
p923
F0.09090909090909091
sVthe
p924
F0.13636363636363635
sVdocument
p925
F0.045454545454545456
sVwas
p926
F0.045454545454545456
sVthan
p927
F0.045454545454545456
sVthose
p928
F0.045454545454545456
sVmore
p929
F0.045454545454545456
saa(lp930
S'W11-081571'
p931
a(dp932
g8
F0.125
sVand
p933
F0.08333333333333333
sVterm
p934
F0.041666666666666664
sVpurpos
p935
F0.041666666666666664
sVbigram
p936
F0.041666666666666664
sVfor
p937
F0.041666666666666664
sVsingl
p938
F0.041666666666666664
sVindex
p939
F0.041666666666666664
sVis
p940
F0.041666666666666664
sVeach
p941
F0.041666666666666664
sg58
F0.041666666666666664
sVoccur
p942
F0.041666666666666664
sVas
p943
F0.041666666666666664
sVtreat
p944
F0.041666666666666664
sVdictionari
p945
F0.041666666666666664
sVin
p946
F0.08333333333333333
sVretriev
p947
F0.041666666666666664
sVdocument
p948
F0.041666666666666664
sVpredefin
p949
F0.041666666666666664
sVpresent
p950
F0.041666666666666664
saa(lp951
S'W11-081570'
p952
a(dp953
Vexemplifi
p954
F0.25
sVthis
p955
F0.25
sVfigur
p956
F0.25
sVconcaten
p957
F0.25
saa(lp958
S'W11-081519'
p959
a(dp960
Vindex
p961
F0.058823529411764705
sVterm
p962
F0.058823529411764705
sVconcept
p963
F0.058823529411764705
sVdocument
p964
F0.058823529411764705
sVsystem
p965
F0.058823529411764705
sVan
p966
F0.058823529411764705
sVto
p967
F0.058823529411764705
sVideal
p968
F0.058823529411764705
sVin
p969
F0.11764705882352941
sVfound
p970
F0.058823529411764705
sVthe
p971
F0.17647058823529413
sVshould
p972
F0.058823529411764705
sg58
F0.058823529411764705
sVcorrespond
p973
F0.058823529411764705
saa(lp974
S'W11-081518'
p975
a(dp976
g8
F0.0625
sVindex
p977
F0.0625
sVterm
p978
F0.0625
sVappropri
p979
F0.0625
sVfor
p980
F0.0625
sVof
p981
F0.125
sVis
p982
F0.0625
sVir
p983
F0.0625
sVqualiti
p984
F0.0625
sVsystem
p985
F0.0625
sVkey
p986
F0.0625
sVfactor
p987
F0.0625
sVthe
p988
F0.125
sVselect
p989
F0.0625
saa(lp990
S'W11-081511'
p991
a(dp992
Vand
p993
F0.023809523809523808
sVidentifi
p994
F0.023809523809523808
sg58
F0.07142857142857142
sVas
p995
F0.047619047619047616
sVunit
p996
F0.023809523809523808
sVif
p997
F0.047619047619047616
sVeven
p998
F0.023809523809523808
sVfor
p999
F0.023809523809523808
sVmwes
p1000
F0.023809523809523808
sVboundari
p1001
F0.023809523809523808
sVsystem
p1002
F0.023809523809523808
sVtreat
p1003
F0.023809523809523808
sVbetween
p1004
F0.023809523809523808
sVsingl
p1005
F0.023809523809523808
sVbe
p1006
F0.023809523809523808
sVthem
p1007
F0.023809523809523808
sVrecogn
p1008
F0.023809523809523808
sVmay
p1009
F0.023809523809523808
sVsequenc
p1010
F0.023809523809523808
sVstandard
p1011
F0.023809523809523808
sVcapabl
p1012
F0.023809523809523808
sg10
F0.023809523809523808
sVan
p1013
F0.023809523809523808
sg8
F0.09523809523809523
sVword
p1014
F0.047619047619047616
sVi
p1015
F0.023809523809523808
sVof
p1016
F0.07142857142857142
sVnevertheless
p1017
F0.023809523809523808
sVtoken
p1018
F0.023809523809523808
sVinstanc
p1019
F0.023809523809523808
sVnecessari
p1020
F0.023809523809523808
sVincap
p1021
F0.023809523809523808
saa(lp1022
S'W11-081510'
p1023
a(dp1024
Vand
p1025
F0.03125
sVnatur
p1026
F0.03125
sVchalleng
p1027
F0.03125
sVquit
p1028
F0.03125
sVdiffer
p1029
F0.03125
sVfor
p1030
F0.03125
sVmwes
p1031
F0.03125
sg58
F0.03125
sVclass
p1032
F0.03125
sVto
p1033
F0.03125
sVtreatment
p1034
F0.03125
sVhas
p1035
F0.03125
sVbe
p1036
F0.03125
sVthem
p1037
F0.03125
sVthat
p1038
F0.03125
sVpose
p1039
F0.03125
sVmechan
p1040
F0.03125
sVcharacterist
p1041
F0.03125
sVthe
p1042
F0.09375
sg8
F0.03125
sVspecif
p1043
F0.03125
sVprovid
p1044
F0.03125
sVof
p1045
F0.09375
sVheterogen
p1046
F0.03125
sVunifi
p1047
F0.03125
sVcan
p1048
F0.03125
sVeach
p1049
F0.03125
sVimplement
p1050
F0.03125
saa(lp1051
S'W11-081513'
p1052
a(dp1053
g8
F0.06666666666666667
sVlexicon
p1054
F0.03333333333333333
sVword
p1055
F0.03333333333333333
sVthat
p1056
F0.03333333333333333
sVmwes
p1057
F0.03333333333333333
sVof
p1058
F0.16666666666666666
sVis
p1059
F0.03333333333333333
sVnumber
p1060
F0.06666666666666667
sVsame
p1061
F0.03333333333333333
sVit
p1062
F0.03333333333333333
sVnativ
p1063
F0.03333333333333333
sVas
p1064
F0.03333333333333333
sVestim
p1065
F0.03333333333333333
sVspeaker
p1066
F0.03333333333333333
sVsingl
p1067
F0.03333333333333333
sVin
p1068
F0.03333333333333333
sVthe
p1069
F0.13333333333333333
sVhas
p1070
F0.03333333333333333
sVmagnitud
p1071
F0.03333333333333333
sVorder
p1072
F0.03333333333333333
sVlanguag
p1073
F0.03333333333333333
saa(lp1074
S'W11-081512'
p1075
a(dp1076
Vand
p1077
F0.034482758620689655
sVnlp
p1078
F0.034482758620689655
sVidentifi
p1079
F0.034482758620689655
sVbe
p1080
F0.034482758620689655
sVit
p1081
F0.034482758620689655
sVan
p1082
F0.034482758620689655
sVare
p1083
F0.034482758620689655
sVin
p1084
F0.034482758620689655
sVuse
p1085
F0.034482758620689655
sVfor
p1086
F0.034482758620689655
sVmwes
p1087
F0.034482758620689655
sVmake
p1088
F0.034482758620689655
sVabl
p1089
F0.034482758620689655
sg58
F0.06896551724137931
sVto
p1090
F0.06896551724137931
sVway
p1091
F0.034482758620689655
sVapplic
p1092
F0.034482758620689655
sVthem
p1093
F0.06896551724137931
sVthat
p1094
F0.034482758620689655
sVhandl
p1095
F0.034482758620689655
sVeffect
p1096
F0.034482758620689655
sVmeaning
p1097
F0.034482758620689655
sVmechan
p1098
F0.034482758620689655
sVrequir
p1099
F0.034482758620689655
sg8
F0.034482758620689655
sVof
p1100
F0.034482758620689655
saa(lp1101
S'W11-081515'
p1102
a(dp1103
Vwe
p1104
F0.05
sVretriev
p1105
F0.05
sVsystem
p1106
F0.05
sVevalu
p1107
F0.05
sVinform
p1108
F0.05
sVthis
p1109
F0.05
sVof
p1110
F0.1
sVinto
p1111
F0.05
sg58
F0.05
sVan
p1112
F0.1
sVperform
p1113
F0.05
sVpaper
p1114
F0.05
sVapplicationori
p1115
F0.05
sVtreatment
p1116
F0.05
sVmwe
p1117
F0.05
sVin
p1118
F0.05
sVthe
p1119
F0.05
sVinclus
p1120
F0.05
saa(lp1121
S'W11-081514'
p1122
a(dp1123
Vand
p1124
F0.04
sVunderestim
p1125
F0.04
sVvocabulari
p1126
F0.04
sVdomain
p1127
F0.04
sVterminolog
p1128
F0.04
sVcompos
p1129
F0.04
sVare
p1130
F0.08
sVin
p1131
F0.04
sVspecial
p1132
F0.04
sVprobabl
p1133
F0.04
sVratio
p1134
F0.04
sVmwes
p1135
F0.04
sVwhen
p1136
F0.04
sg58
F0.08
sVlanguag
p1137
F0.04
sVwhich
p1138
F0.04
sVmost
p1139
F0.04
sVconsid
p1140
F0.04
sVby
p1141
F0.04
sVspecif
p1142
F0.04
sVthese
p1143
F0.04
sVhowev
p1144
F0.04
sVthe
p1145
F0.04
saa(lp1146
S'W11-081517'
p1147
a(dp1148
Vand
p1149
F0.02631578947368421
sVnlp
p1150
F0.02631578947368421
sVprocess
p1151
F0.02631578947368421
sVis
p1152
F0.02631578947368421
sVir
p1153
F0.05263157894736842
sVit
p1154
F0.02631578947368421
sg58
F0.05263157894736842
sVas
p1155
F0.02631578947368421
sVin
p1156
F0.07894736842105263
sVlanguag
p1157
F0.02631578947368421
sVindex
p1158
F0.02631578947368421
sVtechniqu
p1159
F0.02631578947368421
sVfor
p1160
F0.02631578947368421
sVmwes
p1161
F0.02631578947368421
sVsystem
p1162
F0.05263157894736842
sVto
p1163
F0.02631578947368421
sVvital
p1164
F0.02631578947368421
sVselect
p1165
F0.02631578947368421
sVconveni
p1166
F0.02631578947368421
sVsingl
p1167
F0.02631578947368421
sVbe
p1168
F0.02631578947368421
sVmodern
p1169
F0.02631578947368421
sVcontribut
p1170
F0.02631578947368421
sVmay
p1171
F0.05263157894736842
sVunit
p1172
F0.02631578947368421
sValthough
p1173
F0.02631578947368421
sVnot
p1174
F0.02631578947368421
sVscenario
p1175
F0.02631578947368421
sVthis
p1176
F0.02631578947368421
sVof
p1177
F0.02631578947368421
sVthe
p1178
F0.05263157894736842
saa(lp1179
S'W11-081516'
p1180
a(dp1181
Vaccess
p1182
F0.07142857142857142
sVinterest
p1183
F0.07142857142857142
sVprovid
p1184
F0.07142857142857142
sVdata
p1185
F0.07142857142857142
sVir
p1186
F0.07142857142857142
sVsystem
p1187
F0.07142857142857142
sVaim
p1188
F0.07142857142857142
sVto
p1189
F0.14285714285714285
sVuser
p1190
F0.07142857142857142
sVthey
p1191
F0.07142857142857142
sVquick
p1192
F0.07142857142857142
sVwith
p1193
F0.07142857142857142
sVare
p1194
F0.07142857142857142
saa(lp1195
S'W11-0815141'
p1196
a(dp1197
Vwe
p1198
F0.07142857142857142
sVthem
p1199
F0.07142857142857142
sVfor
p1200
F0.07142857142857142
sVvariat
p1201
F0.07142857142857142
sVindividu
p1202
F0.07142857142857142
sVof
p1203
F0.07142857142857142
sg58
F0.07142857142857142
sVobtain
p1204
F0.07142857142857142
sVeight
p1205
F0.07142857142857142
sVresult
p1206
F0.07142857142857142
sVeach
p1207
F0.07142857142857142
sVcorpus
p1208
F0.07142857142857142
sVone
p1209
F0.07142857142857142
sVwith
p1210
F0.07142857142857142
saa(lp1211
S'W11-0815108'
p1212
a(dp1213
g8
F0.08695652173913043
sVspecialist
p1214
F0.043478260869565216
sVcandid
p1215
F0.043478260869565216
sVor
p1216
F0.043478260869565216
sVfrom
p1217
F0.043478260869565216
sVcreat
p1218
F0.043478260869565216
sVfals
p1219
F0.043478260869565216
sVtrue
p1220
F0.043478260869565216
sVwho
p1221
F0.043478260869565216
sVlist
p1222
F0.043478260869565216
sVclassifi
p1223
F0.043478260869565216
sVone
p1224
F0.043478260869565216
sVtopic
p1225
F0.043478260869565216
sVas
p1226
F0.043478260869565216
sVother
p1227
F0.043478260869565216
sVqueri
p1228
F0.043478260869565216
sVmwe
p1229
F0.043478260869565216
sVof
p1230
F0.043478260869565216
sVthe
p1231
F0.08695652173913043
sVwas
p1232
F0.043478260869565216
sVby
p1233
F0.043478260869565216
saa(lp1234
S'W11-081582'
p1235
a(dp1236
Vbigram
p1237
F0.034482758620689655
sVpos
p1238
F0.034482758620689655
sVin
p1239
F0.06896551724137931
sg77
F0.034482758620689655
sVnn
p1240
F0.034482758620689655
sVmake
p1241
F0.034482758620689655
sVwhen
p1242
F0.034482758620689655
sg58
F0.10344827586206896
sVto
p1243
F0.034482758620689655
sVother
p1244
F0.034482758620689655
sVexperi
p1245
F0.034482758620689655
sVwas
p1246
F0.034482758620689655
sVwe
p1247
F0.034482758620689655
sVform
p1248
F0.034482758620689655
sVuse
p1249
F0.034482758620689655
sVfeasibl
p1250
F0.034482758620689655
sVcompound
p1251
F0.034482758620689655
sVnoun
p1252
F0.034482758620689655
sVby
p1253
F0.034482758620689655
sVboth
p1254
F0.034482758620689655
sVword
p1255
F0.06896551724137931
sVof
p1256
F0.034482758620689655
sVthe
p1257
F0.06896551724137931
sVorder
p1258
F0.034482758620689655
saa(lp1259
S'W11-081583'
p1260
a(dp1261
Vbigram
p1262
F0.06060606060606061
sVthus
p1263
F0.030303030303030304
sVnumber
p1264
F0.030303030303030304
sVas
p1265
F0.030303030303030304
sVnois
p1266
F0.030303030303030304
sVnn
p1267
F0.030303030303030304
sg58
F0.09090909090909091
sVto
p1268
F0.06060606060606061
sVmwe
p1269
F0.030303030303030304
sVpreprocess
p1270
F0.030303030303030304
sVexperi
p1271
F0.030303030303030304
sVwas
p1272
F0.030303030303030304
sVreduc
p1273
F0.030303030303030304
sVelimin
p1274
F0.030303030303030304
sVthat
p1275
F0.030303030303030304
sVsequenc
p1276
F0.030303030303030304
sVstep
p1277
F0.030303030303030304
sVcandid
p1278
F0.030303030303030304
sVaffect
p1279
F0.030303030303030304
sVwith
p1280
F0.06060606060606061
sg8
F0.030303030303030304
sVconsist
p1281
F0.030303030303030304
sVof
p1282
F0.09090909090909091
sVcould
p1283
F0.030303030303030304
sVthe
p1284
F0.06060606060606061
saa(lp1285
S'W11-081580'
p1286
a(dp1287
Vorigin
p1288
F0.043478260869565216
sVfilter
p1289
F0.043478260869565216
sVwe
p1290
F0.043478260869565216
sVbigram
p1291
F0.043478260869565216
sVof
p1292
F0.043478260869565216
sVuse
p1293
F0.043478260869565216
sVnumber
p1294
F0.043478260869565216
sg58
F0.043478260869565216
sVthem
p1295
F0.043478260869565216
sVavail
p1296
F0.043478260869565216
sVinform
p1297
F0.043478260869565216
sVtag
p1298
F0.043478260869565216
sVlarg
p1299
F0.043478260869565216
sVin
p1300
F0.043478260869565216
sVveri
p1301
F0.043478260869565216
sVthe
p1302
F0.17391304347826086
sVdocument
p1303
F0.043478260869565216
sVwas
p1304
F0.043478260869565216
sVsinc
p1305
F0.043478260869565216
sVmorphosyntact
p1306
F0.043478260869565216
saa(lp1307
S'W11-081581'
p1308
a(dp1309
Vwe
p1310
F0.047619047619047616
sValso
p1311
F0.047619047619047616
sVextract
p1312
F0.09523809523809523
sVof
p1313
F0.047619047619047616
sg58
F0.09523809523809523
sVprocedur
p1314
F0.047619047619047616
sVlema
p1315
F0.047619047619047616
sVfield
p1316
F0.09523809523809523
sVpos
p1317
F0.047619047619047616
sVin
p1318
F0.047619047619047616
sValong
p1319
F0.047619047619047616
sVwith
p1320
F0.047619047619047616
sVthe
p1321
F0.19047619047619047
sVvalu
p1322
F0.047619047619047616
sVprevious
p1323
F0.047619047619047616
saa(lp1324
S'W11-0815173'
p1325
a(dp1326
g4
F1.0
saa(lp1327
S'W11-081587'
p1328
a(dp1329
Vand
p1330
F0.1111111111111111
sVuse
p1331
F0.1111111111111111
sVmutual
p1332
F0.1111111111111111
sVinform
p1333
F0.1111111111111111
sVchisquar
p1334
F0.1111111111111111
sVwere
p1335
F0.1111111111111111
sVthe
p1336
F0.2222222222222222
sVmethod
p1337
F0.1111111111111111
saa(lp1338
S'W11-081584'
p1339
a(dp1340
Vbigram
p1341
F0.03333333333333333
sVten
p1342
F0.03333333333333333
sVtext
p1343
F0.03333333333333333
sVat
p1344
F0.03333333333333333
sVin
p1345
F0.06666666666666667
sVoccur
p1346
F0.03333333333333333
sVselect
p1347
F0.03333333333333333
sVhad
p1348
F0.03333333333333333
sg58
F0.03333333333333333
sVleast
p1349
F0.03333333333333333
sVnext
p1350
F0.03333333333333333
sVcorpus
p1351
F0.03333333333333333
sVwas
p1352
F0.03333333333333333
sVwe
p1353
F0.03333333333333333
sVchose
p1354
F0.03333333333333333
sVthat
p1355
F0.03333333333333333
sVtime
p1356
F0.03333333333333333
sVstep
p1357
F0.03333333333333333
sVcandid
p1358
F0.03333333333333333
sVhighest
p1359
F0.03333333333333333
sVof
p1360
F0.03333333333333333
sVso
p1361
F0.03333333333333333
sVfrequenc
p1362
F0.03333333333333333
sVthe
p1363
F0.16666666666666666
sVwhole
p1364
F0.03333333333333333
saa(lp1365
S'W11-081585'
p1366
a(dp1367
g8
F0.058823529411764705
sVbigram
p1368
F0.058823529411764705
sg11
F0.058823529411764705
sVmwes
p1369
F0.058823529411764705
sVof
p1370
F0.058823529411764705
sVlist
p1371
F0.058823529411764705
sg58
F0.17647058823529413
sVcompos
p1372
F0.058823529411764705
sVas
p1373
F0.058823529411764705
sVcall
p1374
F0.058823529411764705
sVresult
p1375
F0.058823529411764705
sVthe
p1376
F0.058823529411764705
sVwas
p1377
F0.058823529411764705
sVby
p1378
F0.058823529411764705
sVfirst
p1379
F0.058823529411764705
saa(lp1380
S'W11-081588'
p1381
a(dp1382
Vbecaus
p1383
F0.03225806451612903
sVbias
p1384
F0.03225806451612903
sVyahoo
p1385
F0.03225806451612903
sVour
p1386
F0.03225806451612903
sV!
p1387
F0.03225806451612903
sVweb
p1388
F0.03225806451612903
sVuse
p1389
F0.03225806451612903
sVfrom
p1390
F0.03225806451612903
sVwould
p1391
F0.03225806451612903
sg58
F0.03225806451612903
sVper
p1392
F0.03225806451612903
sVto
p1393
F0.03225806451612903
sVit
p1394
F0.03225806451612903
sVcorpus
p1395
F0.03225806451612903
sVwas
p1396
F0.03225806451612903
sVdespit
p1397
F0.03225806451612903
sVtool
p1398
F0.03225806451612903
sVterm
p1399
F0.03225806451612903
sVobtain
p1400
F0.03225806451612903
sVnumber
p1401
F0.03225806451612903
sVvalu
p1402
F0.03225806451612903
sVcount
p1403
F0.03225806451612903
sVsearch
p1404
F0.03225806451612903
sVfrequenc
p1405
F0.03225806451612903
sVgenr
p1406
F0.03225806451612903
sVnecessari
p1407
F0.03225806451612903
sVof
p1408
F0.06451612903225806
sVthe
p1409
F0.0967741935483871
saa(lp1410
S'W11-081589'
p1411
a(dp1412
g8
F0.10526315789473684
sVmeasur
p1413
F0.05263157894736842
sVwe
p1414
F0.05263157894736842
sVfor
p1415
F0.05263157894736842
sVthis
p1416
F0.05263157894736842
sVof
p1417
F0.10526315789473684
sVfrequenc
p1418
F0.05263157894736842
sVwork
p1419
F0.05263157894736842
sVuse
p1420
F0.05263157894736842
sVnumber
p1421
F0.05263157894736842
sVas
p1422
F0.05263157894736842
sVterm
p1423
F0.05263157894736842
sVwhich
p1424
F0.05263157894736842
sVin
p1425
F0.05263157894736842
sVoccur
p1426
F0.05263157894736842
sVthe
p1427
F0.05263157894736842
sVpage
p1428
F0.05263157894736842
saa(lp1429
S'W11-0815179'
p1430
a(dp1431
Vindex
p1432
F0.06896551724137931
sVhighest
p1433
F0.034482758620689655
sVgs
p1434
F0.034482758620689655
sVsame
p1435
F0.034482758620689655
sVwas
p1436
F0.034482758620689655
sVof
p1437
F0.06896551724137931
sVimprov
p1438
F0.034482758620689655
sg58
F0.10344827586206896
sVbut
p1439
F0.034482758620689655
sVtopic
p1440
F0.034482758620689655
sVwhere
p1441
F0.034482758620689655
sVloss
p1442
F0.034482758620689655
sVgain
p1443
F0.034482758620689655
sVhave
p1444
F0.034482758620689655
sVlargest
p1445
F0.034482758620689655
sVshow
p1446
F0.034482758620689655
sVour
p1447
F0.034482758620689655
sVthe
p1448
F0.13793103448275862
sg496
F0.06896551724137931
sVwith
p1449
F0.034482758620689655
sVpercentag
p1450
F0.034482758620689655
saa(lp1451
S'W11-0815178'
p1452
a(dp1453
Vinsert
p1454
F0.047619047619047616
sVall
p1455
F0.047619047619047616
sVterm
p1456
F0.047619047619047616
sVhave
p1457
F0.047619047619047616
sVcompar
p1458
F0.047619047619047616
sVbl
p1459
F0.047619047619047616
sg58
F0.09523809523809523
sVindic
p1460
F0.047619047619047616
sVquantit
p1461
F0.047619047619047616
sVresult
p1462
F0.047619047619047616
sVmwe
p1463
F0.047619047619047616
sVin
p1464
F0.047619047619047616
sVimprov
p1465
F0.047619047619047616
sVthe
p1466
F0.09523809523809523
sVdegrad
p1467
F0.047619047619047616
sVwith
p1468
F0.09523809523809523
sVthan
p1469
F0.047619047619047616
sVmore
p1470
F0.047619047619047616
saa(lp1471
S'W11-0815194'
p1472
a(dp1473
Vand
p1474
F0.03125
sValthough
p1475
F0.03125
sVsome
p1476
F0.03125
sVindic
p1477
F0.03125
sVhigh
p1478
F0.03125
sVresult
p1479
F0.03125
sVhave
p1480
F0.03125
sVin
p1481
F0.0625
sg58
F0.09375
sVdownsid
p1482
F0.03125
sVtopic
p1483
F0.03125
sVother
p1484
F0.03125
sVvalu
p1485
F0.03125
sVwe
p1486
F0.03125
sVloss
p1487
F0.03125
sVreach
p1488
F0.03125
sVhand
p1489
F0.03125
sVthey
p1490
F0.0625
sVimprov
p1491
F0.03125
sVveri
p1492
F0.03125
sVaverag
p1493
F0.03125
sg8
F0.03125
sVon
p1494
F0.03125
sVof
p1495
F0.03125
sg4
F0.0625
sVfound
p1496
F0.03125
sVthe
p1497
F0.03125
saa(lp1498
S'W11-081524'
p1499
a(dp1500
Vand
p1501
F0.05
sVwe
p1502
F0.05
sVrepres
p1503
F0.05
sVthis
p1504
F0.05
sVof
p1505
F0.05
sVis
p1506
F0.05
sVsome
p1507
F0.05
sVbriefli
p1508
F0.05
sVstructur
p1509
F0.05
sVdiscuss
p1510
F0.05
sVmwes
p1511
F0.05
sVas
p1512
F0.05
sVpaper
p1513
F0.05
sVthey
p1514
F0.05
sVin
p1515
F0.05
sVfollow
p1516
F0.05
sVthe
p1517
F0.05
sg186
F0.05
sVsection
p1518
F0.05
sVchalleng
p1519
F0.05
saa(lp1520
S'W11-081525'
p1521
a(dp1522
g8
F0.04
sVand
p1523
F0.08
sVperform
p1524
F0.04
sVevalu
p1525
F0.04
sVthis
p1526
F0.08
sVof
p1527
F0.08
sVis
p1528
F0.04
sg58
F0.04
sVby
p1529
F0.04
sVemploy
p1530
F0.04
sVmethod
p1531
F0.04
sVmateri
p1532
F0.04
sVpaper
p1533
F0.04
sVin
p1534
F0.12
sVfollow
p1535
F0.04
sVthe
p1536
F0.08
sVsection
p1537
F0.08
sVdiscuss
p1538
F0.04
saa(lp1539
S'W11-081526'
p1540
a(dp1541
Vand
p1542
F0.125
sVwe
p1543
F0.125
sVfinish
p1544
F0.125
sVwork
p1545
F0.125
sVsome
p1546
F0.125
sVfutur
p1547
F0.125
sVwith
p1548
F0.125
sVconclus
p1549
F0.125
saa(lp1550
S'W11-081527'
p1551
a(dp1552
Vconcept
p1553
F0.02857142857142857
sVsome
p1554
F0.02857142857142857
sVcross
p1555
F0.02857142857142857
sVas
p1556
F0.08571428571428572
sVat
p1557
F0.02857142857142857
sVunit
p1558
F0.02857142857142857
sVboundari
p1559
F0.02857142857142857
sg58
F0.02857142857142857
sVbeen
p1560
F0.02857142857142857
sVmultiword
p1561
F0.02857142857142857
sVidiosyncrat
p1562
F0.02857142857142857
sVhas
p1563
F0.02857142857142857
sVsingl
p1564
F0.02857142857142857
sVanalysi
p1565
F0.02857142857142857
sVthat
p1566
F0.05714285714285714
sVsequenc
p1567
F0.02857142857142857
sVexpress
p1568
F0.02857142857142857
sVinterpret
p1569
F0.02857142857142857
sg8
F0.05714285714285714
sVwide
p1570
F0.02857142857142857
sVword
p1571
F0.05714285714285714
sVlevel
p1572
F0.02857142857142857
sVof
p1573
F0.08571428571428572
sVact
p1574
F0.02857142857142857
sVthe
p1575
F0.02857142857142857
sVlinguist
p1576
F0.02857142857142857
sVor
p1577
F0.02857142857142857
sVview
p1578
F0.02857142857142857
saa(lp1579
S'W11-081520'
p1580
a(dp1581
g8
F0.047619047619047616
sVindex
p1582
F0.047619047619047616
sg77
F0.047619047619047616
sVloss
p1583
F0.047619047619047616
sVbe
p1584
F0.047619047619047616
sVperform
p1585
F0.047619047619047616
sVof
p1586
F0.09523809523809523
sVis
p1587
F0.047619047619047616
sVthere
p1588
F0.047619047619047616
sVterm
p1589
F0.047619047619047616
sg58
F0.047619047619047616
sVcontent
p1590
F0.047619047619047616
sVmay
p1591
F0.047619047619047616
sVsemant
p1592
F0.047619047619047616
sVatom
p1593
F0.047619047619047616
sVthe
p1594
F0.09523809523809523
sVdocument
p1595
F0.047619047619047616
sVwith
p1596
F0.047619047619047616
sVif
p1597
F0.047619047619047616
saa(lp1598
S'W11-081522'
p1599
a(dp1600
Vabout
p1601
F0.06666666666666667
sVdocument
p1602
F0.06666666666666667
sVreturn
p1603
F0.06666666666666667
sVcelesti
p1604
F0.06666666666666667
sVfor
p1605
F0.06666666666666667
sVirrelev
p1606
F0.06666666666666667
sVbodi
p1607
F0.06666666666666667
sVqc
p1608
F0.06666666666666667
sVinstead
p1609
F0.06666666666666667
sVcomput
p1610
F0.06666666666666667
sVcarbon
p1611
F0.06666666666666667
sVlinguist
p1612
F0.06666666666666667
sVassoci
p1613
F0.06666666666666667
sVor
p1614
F0.06666666666666667
sVdrink
p1615
F0.06666666666666667
saa(lp1616
S'W11-081523'
p1617
a(dp1618
Vindex
p1619
F0.043478260869565216
sVuse
p1620
F0.043478260869565216
sVinvestig
p1621
F0.043478260869565216
sVfor
p1622
F0.043478260869565216
sVmwes
p1623
F0.043478260869565216
sVof
p1624
F0.13043478260869565
sVmetric
p1625
F0.043478260869565216
sVir
p1626
F0.08695652173913043
sVqualiti
p1627
F0.043478260869565216
sVeffect
p1628
F0.043478260869565216
sg58
F0.043478260869565216
sVto
p1629
F0.043478260869565216
sVqueri
p1630
F0.043478260869565216
sVresult
p1631
F0.043478260869565216
sVin
p1632
F0.043478260869565216
sVthe
p1633
F0.08695652173913043
sVanalyz
p1634
F0.043478260869565216
sVorder
p1635
F0.043478260869565216
sVare
p1636
F0.043478260869565216
saa(lp1637
S'W11-08159'
p1638
a(dp1639
g8
F0.10526315789473684
sVanalysi
p1640
F0.05263157894736842
sVlinguist
p1641
F0.05263157894736842
sVword
p1642
F0.05263157894736842
sVthat
p1643
F0.05263157894736842
sVmwes
p1644
F0.05263157894736842
sVof
p1645
F0.10526315789473684
sVact
p1646
F0.05263157894736842
sVsome
p1647
F0.05263157894736842
sVdefin
p1648
F0.05263157894736842
sVas
p1649
F0.10526315789473684
sVunit
p1650
F0.05263157894736842
sVsequenc
p1651
F0.05263157894736842
sVlevel
p1652
F0.05263157894736842
sVsingl
p1653
F0.05263157894736842
sVat
p1654
F0.05263157894736842
saa(lp1655
S'W11-08158'
p1656
a(dp1657
Vet
p1658
F0.3333333333333333
sVal
p1659
F0.3333333333333333
sVcalzolari
p1660
F0.3333333333333333
saa(lp1661
S'W11-08151'
p1662
a(dp1663
g8
F0.041666666666666664
sVuse
p1664
F0.041666666666666664
sVprompt
p1665
F0.041666666666666664
sVfor
p1666
F0.041666666666666664
sVthat
p1667
F0.041666666666666664
sVthese
p1668
F0.041666666666666664
sVof
p1669
F0.08333333333333333
sVexpress
p1670
F0.08333333333333333
sVdetail
p1671
F0.041666666666666664
sVaim
p1672
F0.041666666666666664
sVextens
p1673
F0.041666666666666664
sVadequ
p1674
F0.041666666666666664
sVtext
p1675
F0.041666666666666664
sVtreatment
p1676
F0.041666666666666664
sVmultiword
p1677
F0.041666666666666664
sVin
p1678
F0.041666666666666664
sVnatur
p1679
F0.041666666666666664
sVthe
p1680
F0.041666666666666664
sVstudi
p1681
F0.041666666666666664
sVlanguag
p1682
F0.041666666666666664
sVmore
p1683
F0.08333333333333333
saa(lp1684
S'W11-08153'
p1685
a(dp1686
Vbe
p1687
F0.05263157894736842
sVappropri
p1688
F0.05263157894736842
sVretriev
p1689
F0.05263157894736842
sVsystem
p1690
F0.05263157894736842
sVmwes
p1691
F0.05263157894736842
sVof
p1692
F0.10526315789473684
sVcould
p1693
F0.05263157894736842
sVintuit
p1694
F0.05263157894736842
sg58
F0.10526315789473684
sVinform
p1695
F0.05263157894736842
sVtreatment
p1696
F0.05263157894736842
sVimprov
p1697
F0.05263157894736842
sVthe
p1698
F0.10526315789473684
sVan
p1699
F0.05263157894736842
sVwith
p1700
F0.05263157894736842
sVresult
p1701
F0.05263157894736842
saa(lp1702
S'W11-08152'
p1703
a(dp1704
g8
F0.11764705882352941
sVand
p1705
F0.058823529411764705
sVconcept
p1706
F0.058823529411764705
sVword
p1707
F0.058823529411764705
sVthat
p1708
F0.058823529411764705
sVbe
p1709
F0.058823529411764705
sVexpress
p1710
F0.11764705882352941
sVidea
p1711
F0.058823529411764705
sVcan
p1712
F0.058823529411764705
sVmwe
p1713
F0.058823529411764705
sVnot
p1714
F0.058823529411764705
sVtypic
p1715
F0.058823529411764705
sVby
p1716
F0.058823529411764705
sVsingl
p1717
F0.058823529411764705
sVusual
p1718
F0.058823529411764705
saa(lp1719
S'W11-08155'
p1720
a(dp1721
Vand
p1722
F0.047619047619047616
sVon
p1723
F0.047619047619047616
sVthem
p1724
F0.047619047619047616
sVretriev
p1725
F0.047619047619047616
sVshow
p1726
F0.047619047619047616
sVmwes
p1727
F0.047619047619047616
sVof
p1728
F0.047619047619047616
sVunit
p1729
F0.047619047619047616
sVwhen
p1730
F0.047619047619047616
sVidentifi
p1731
F0.047619047619047616
sVas
p1732
F0.047619047619047616
sVexperiment
p1733
F0.047619047619047616
sVindex
p1734
F0.047619047619047616
sVresult
p1735
F0.047619047619047616
sg8
F0.047619047619047616
sVimprov
p1736
F0.047619047619047616
sVthe
p1737
F0.047619047619047616
sVdocument
p1738
F0.047619047619047616
sVrelev
p1739
F0.047619047619047616
sVsingl
p1740
F0.047619047619047616
sVtreat
p1741
F0.047619047619047616
saa(lp1742
S'W11-08154'
p1743
a(dp1744
g8
F0.041666666666666664
sVindex
p1745
F0.041666666666666664
sVthem
p1746
F0.041666666666666664
sVfrom
p1747
F0.041666666666666664
sVtechniqu
p1748
F0.041666666666666664
sVfor
p1749
F0.041666666666666664
sVthis
p1750
F0.041666666666666664
sVof
p1751
F0.08333333333333333
sVis
p1752
F0.041666666666666664
sVcorpora
p1753
F0.041666666666666664
sVautomat
p1754
F0.041666666666666664
sVaim
p1755
F0.041666666666666664
sVto
p1756
F0.08333333333333333
sVas
p1757
F0.041666666666666664
sVpaper
p1758
F0.041666666666666664
sVmwes
p1759
F0.041666666666666664
sVappli
p1760
F0.041666666666666664
sVthe
p1761
F0.08333333333333333
sVunit
p1762
F0.041666666666666664
sVextract
p1763
F0.041666666666666664
sVsingl
p1764
F0.041666666666666664
saa(lp1765
S'W11-08156'
p1766
a(dp1767
Vand
p1768
F0.058823529411764705
sVis
p1769
F0.029411764705882353
sVone
p1770
F0.029411764705882353
sVmotiv
p1771
F0.029411764705882353
sVresult
p1772
F0.029411764705882353
sVin
p1773
F0.029411764705882353
sVif
p1774
F0.029411764705882353
sVultim
p1775
F0.029411764705882353
sVlead
p1776
F0.029411764705882353
sVinteract
p1777
F0.029411764705882353
sVidentif
p1778
F0.029411764705882353
sVto
p1779
F0.08823529411764706
sVtreatment
p1780
F0.029411764705882353
sVmultiword
p1781
F0.029411764705882353
sVmanmachin
p1782
F0.029411764705882353
sVmore
p1783
F0.029411764705882353
sVapplic
p1784
F0.029411764705882353
sVinvestig
p1785
F0.029411764705882353
sVcontribut
p1786
F0.029411764705882353
sVexpress
p1787
F0.029411764705882353
sVan
p1788
F0.029411764705882353
sVappropri
p1789
F0.029411764705882353
sVthis
p1790
F0.029411764705882353
sVof
p1791
F0.08823529411764706
sVwork
p1792
F0.029411764705882353
sVprecis
p1793
F0.029411764705882353
sVimprov
p1794
F0.029411764705882353
sVthe
p1795
F0.058823529411764705
saa(lp1796
S'W11-0815109'
p1797
a(dp1798
Vbigram
p1799
F0.1111111111111111
sg11
F0.1111111111111111
sVform
p1800
F0.1111111111111111
sVmwes
p1801
F0.1111111111111111
sVof
p1802
F0.1111111111111111
sVthe
p1803
F0.1111111111111111
sVlinguist
p1804
F0.1111111111111111
sVwith
p1805
F0.1111111111111111
sVselect
p1806
F0.1111111111111111
saa(lp1807
S'W11-0815218'
p1808
a(dp1809
Vand
p1810
F0.0392156862745098
sVall
p1811
F0.0196078431372549
sVcomput
p1812
F0.0392156862745098
sVprocess
p1813
F0.0196078431372549
sVtext
p1814
F0.0196078431372549
sVis
p1815
F0.0196078431372549
sg58
F0.058823529411764705
sVare
p1816
F0.0196078431372549
sVin
p1817
F0.0392156862745098
sVaim
p1818
F0.0196078431372549
sVuse
p1819
F0.0196078431372549
sVend
p1820
F0.0196078431372549
sVfor
p1821
F0.0392156862745098
sVto
p1822
F0.0196078431372549
sVmwes
p1823
F0.0196078431372549
sVdue
p1824
F0.0196078431372549
sVtheir
p1825
F0.0392156862745098
sVwhich
p1826
F0.0196078431372549
sVtype
p1827
F0.0196078431372549
sVmethod
p1828
F0.0196078431372549
sVbe
p1829
F0.0196078431372549
sVthat
p1830
F0.0196078431372549
sVvariat
p1831
F0.0196078431372549
sVexpress
p1832
F0.0196078431372549
sVdiffer
p1833
F0.0196078431372549
sVcharacterist
p1834
F0.0196078431372549
sVthe
p1835
F0.0392156862745098
sVproblem
p1836
F0.0196078431372549
sVboth
p1837
F0.0196078431372549
sVappropri
p1838
F0.0196078431372549
sVtarget
p1839
F0.0196078431372549
sVsuccess
p1840
F0.0196078431372549
sVthis
p1841
F0.0196078431372549
sVof
p1842
F0.0784313725490196
sVgenr
p1843
F0.0196078431372549
sVup
p1844
F0.0196078431372549
sVcaus
p1845
F0.0196078431372549
sVfound
p1846
F0.0196078431372549
sVstudi
p1847
F0.0196078431372549
sVlinguist
p1848
F0.0196078431372549
saa(lp1849
S'W11-0815192'
p1850
a(dp1851
Vpoint
p1852
F0.16666666666666666
sVof
p1853
F0.16666666666666666
sVpercentag
p1854
F0.16666666666666666
sVgain
p1855
F0.16666666666666666
sVthe
p1856
F0.16666666666666666
sVwas
p1857
F0.16666666666666666
saa(lp1858
S'W11-081591'
p1859
a(dp1860
Vwe
p1861
F0.037037037037037035
sVentri
p1862
F0.037037037037037035
sVdictionari
p1863
F0.037037037037037035
sVsecond
p1864
F0.037037037037037035
sVof
p1865
F0.037037037037037035
sVeach
p1866
F0.037037037037037035
sg58
F0.07407407407407407
sVrank
p1867
F0.07407407407407407
sVcompos
p1868
F0.037037037037037035
sV;
p1869
F0.037037037037037035
sg11
F0.037037037037037035
sVcalcul
p1870
F0.037037037037037035
sVcall
p1871
F0.037037037037037035
sVmwe
p1872
F0.037037037037037035
sVbetween
p1873
F0.037037037037037035
sVposit
p1874
F0.037037037037037035
sVthe
p1875
F0.18518518518518517
sVfirst
p1876
F0.037037037037037035
sVby
p1877
F0.037037037037037035
sVaverag
p1878
F0.037037037037037035
sVmerg
p1879
F0.037037037037037035
saa(lp1880
S'W11-081590'
p1881
a(dp1882
g8
F0.047619047619047616
sVon
p1883
F0.047619047619047616
sVwe
p1884
F0.047619047619047616
sVentri
p1885
F0.047619047619047616
sVin
p1886
F0.047619047619047616
sVscore
p1887
F0.047619047619047616
sVfor
p1888
F0.047619047619047616
sVmeasur
p1889
F0.047619047619047616
sVwith
p1890
F0.047619047619047616
sVof
p1891
F0.047619047619047616
sVgenerat
p1892
F0.047619047619047616
sg58
F0.047619047619047616
sVrank
p1893
F0.047619047619047616
sVeach
p1894
F0.047619047619047616
sVbase
p1895
F0.047619047619047616
sVdecreas
p1896
F0.047619047619047616
sVweb
p1897
F0.047619047619047616
sVfrequenc
p1898
F0.047619047619047616
sVthe
p1899
F0.047619047619047616
sVassoci
p1900
F0.047619047619047616
sVorder
p1901
F0.047619047619047616
saa(lp1902
S'W11-081593'
p1903
a(dp1904
Ventail
p1905
F0.03225806451612903
sVevalu
p1906
F0.03225806451612903
sVir
p1907
F0.03225806451612903
sVit
p1908
F0.03225806451612903
sVresult
p1909
F0.03225806451612903
sVin
p1910
F0.06451612903225806
sVprevious
p1911
F0.03225806451612903
sVcreat
p1912
F0.03225806451612903
sVcompar
p1913
F0.03225806451612903
sVmwes
p1914
F0.03225806451612903
sg58
F0.03225806451612903
sVto
p1915
F0.06451612903225806
sVwas
p1916
F0.03225806451612903
sVmore
p1917
F0.03225806451612903
sVeffect
p1918
F0.03225806451612903
sVnoisi
p1919
F0.03225806451612903
sVdictionari
p1920
F0.03225806451612903
sg8
F0.03225806451612903
sVchoic
p1921
F0.03225806451612903
sVwhether
p1922
F0.03225806451612903
sVof
p1923
F0.06451612903225806
sVnegat
p1924
F0.03225806451612903
sVpotenti
p1925
F0.03225806451612903
sVthe
p1926
F0.12903225806451613
sVorder
p1927
F0.03225806451612903
saa(lp1928
S'W11-0815167'
p1929
a(dp1930
g8
F0.06666666666666667
sg9
F0.06666666666666667
sVde
p1931
F0.06666666666666667
sg16
F0.06666666666666667
sVthis
p1932
F0.06666666666666667
sVin
p1933
F0.06666666666666667
sg4
F0.13333333333333333
sg15
F0.06666666666666667
sVtopic
p1934
F0.06666666666666667
sVmwes
p1935
F0.06666666666666667
sVtabl
p1936
F0.06666666666666667
sVx
p1937
F0.06666666666666667
sg186
F0.06666666666666667
sVwith
p1938
F0.06666666666666667
saa(lp1939
S'W11-0815160'
p1940
a(dp1941
Vand
p1942
F0.02702702702702703
sVevalu
p1943
F0.02702702702702703
sVindividu
p1944
F0.02702702702702703
sVobtain
p1945
F0.02702702702702703
sVindic
p1946
F0.02702702702702703
sVan
p1947
F0.02702702702702703
sVtopic
p1948
F0.02702702702702703
sVresult
p1949
F0.02702702702702703
sVidentif
p1950
F0.02702702702702703
sVuse
p1951
F0.05405405405405406
sVfor
p1952
F0.02702702702702703
sVperform
p1953
F0.02702702702702703
sg58
F0.05405405405405406
sVsame
p1954
F0.02702702702702703
sVbetter
p1955
F0.02702702702702703
sVto
p1956
F0.02702702702702703
sVwe
p1957
F0.05405405405405406
sVbefor
p1958
F0.02702702702702703
sVunderstand
p1959
F0.02702702702702703
sg8
F0.02702702702702703
sVon
p1960
F0.02702702702702703
sVdegrad
p1961
F0.02702702702702703
sVthis
p1962
F0.02702702702702703
sVof
p1963
F0.05405405405405406
sVmwes
p1964
F0.02702702702702703
sVimprov
p1965
F0.02702702702702703
sVthe
p1966
F0.10810810810810811
sVpurpos
p1967
F0.02702702702702703
sVwhere
p1968
F0.02702702702702703
sVor
p1969
F0.02702702702702703
saa(lp1970
S'W11-081594'
p1971
a(dp1972
Vbigram
p1973
F0.09090909090909091
sg11
F0.09090909090909091
sVthird
p1974
F0.09090909090909091
sVis
p1975
F0.09090909090909091
sg58
F0.2727272727272727
sVcall
p1976
F0.09090909090909091
sVdictionari
p1977
F0.09090909090909091
sVthe
p1978
F0.09090909090909091
sVwith
p1979
F0.09090909090909091
saa(lp1980
S'W11-081597'
p1981
a(dp1982
Vbe
p1983
F0.09090909090909091
sVdictionari
p1984
F0.09090909090909091
sVform
p1985
F0.09090909090909091
sVmwes
p1986
F0.09090909090909091
sg58
F0.09090909090909091
sVwill
p1987
F0.09090909090909091
sVcall
p1988
F0.09090909090909091
sVfourth
p1989
F0.09090909090909091
sVthe
p1990
F0.09090909090909091
sVby
p1991
F0.09090909090909091
sg11
F0.09090909090909091
saa(lp1992
S'W11-0815163'
p1993
a(dp1994
Vand
p1995
F0.03225806451612903
sVset
p1996
F0.03225806451612903
sVshow
p1997
F0.03225806451612903
sVqueri
p1998
F0.06451612903225806
sVover
p1999
F0.03225806451612903
sVnumber
p2000
F0.03225806451612903
sVpercentag
p2001
F0.03225806451612903
sVtopic
p2002
F0.0967741935483871
sVconsequ
p2003
F0.03225806451612903
sVas
p2004
F0.03225806451612903
sVtabl
p2005
F0.03225806451612903
sVuse
p2006
F0.03225806451612903
sVfor
p2007
F0.03225806451612903
sVmwes
p2008
F0.03225806451612903
sg58
F0.06451612903225806
sVcomplet
p2009
F0.03225806451612903
sVcontain
p2010
F0.03225806451612903
sVdictionari
p2011
F0.03225806451612903
sVmodifi
p2012
F0.03225806451612903
sg8
F0.03225806451612903
sVof
p2013
F0.0967741935483871
sVeach
p2014
F0.03225806451612903
sVthe
p2015
F0.0967741935483871
saa(lp2016
S'W11-081599'
p2017
a(dp2018
g8
F0.11764705882352941
sVterm
p2019
F0.058823529411764705
sValgorithm
p2020
F0.058823529411764705
sVpossibl
p2021
F0.058823529411764705
sVthis
p2022
F0.058823529411764705
sVof
p2023
F0.058823529411764705
sVis
p2024
F0.058823529411764705
sVtree
p2025
F0.058823529411764705
sVit
p2026
F0.058823529411764705
sVclassifi
p2027
F0.058823529411764705
sVto
p2028
F0.058823529411764705
sVdecis
p2029
F0.058823529411764705
sVmwe
p2030
F0.058823529411764705
sVin
p2031
F0.058823529411764705
sVwith
p2032
F0.058823529411764705
sVmake
p2033
F0.058823529411764705
saa(lp2034
S'W11-0815168'
p2035
a(dp2036
g9
F0.3333333333333333
sVb
p2037
F0.3333333333333333
sg15
F0.3333333333333333
saa(lp2038
S'W11-0815169'
p2039
a(dp2040
g9
F0.3333333333333333
sVw
p2041
F0.3333333333333333
sg15
F0.3333333333333333
saa(lp2042
S'W11-081533'
p2043
a(dp2044
g8
F0.1
sVthis
p2045
F0.1
sVxtract
p2046
F0.1
sVis
p2047
F0.1
sVtool
p2048
F0.1
sVcall
p2049
F0.1
sVin
p2050
F0.1
sVimplement
p2051
F0.1
sVapproach
p2052
F0.1
sVlexicograph
p2053
F0.1
saa(lp2054
S'W11-081532'
p2055
a(dp2056
Vset
p2057
F0.02631578947368421
sVidentifi
p2058
F0.02631578947368421
sVis
p2059
F0.02631578947368421
sg58
F0.10526315789473684
sVin
p2060
F0.05263157894736842
sVsmadja
p2061
F0.02631578947368421
sVuse
p2062
F0.02631578947368421
sVfrom
p2063
F0.02631578947368421
sVtechniqu
p2064
F0.02631578947368421
sVmwes
p2065
F0.02631578947368421
sVsystem
p2066
F0.02631578947368421
sVidentif
p2067
F0.02631578947368421
sVto
p2068
F0.02631578947368421
sVmwe
p2069
F0.02631578947368421
sVapproach
p2070
F0.02631578947368421
sVmethod
p2071
F0.02631578947368421
sVthat
p2072
F0.02631578947368421
sVwho
p2073
F0.02631578947368421
sVbase
p2074
F0.02631578947368421
sVknown
p2075
F0.02631578947368421
sg8
F0.05263157894736842
sVon
p2076
F0.02631578947368421
sVterm
p2077
F0.02631578947368421
sVword
p2078
F0.02631578947368421
sVpractic
p2079
F0.02631578947368421
sVof
p2080
F0.07894736842105263
sVcorpora
p2081
F0.02631578947368421
sVwell
p2082
F0.02631578947368421
sVcalcul
p2083
F0.02631578947368421
sVstatist
p2084
F0.02631578947368421
sVfrequenc
p2085
F0.02631578947368421
saa(lp2086
S'W11-081531'
p2087
a(dp2088
Vand
p2089
F0.06060606060606061
sVeffici
p2090
F0.030303030303030304
sVtext
p2091
F0.030303030303030304
sVan
p2092
F0.030303030303030304
sVas
p2093
F0.030303030303030304
sVtag
p2094
F0.030303030303030304
sVin
p2095
F0.06060606060606061
sVdetect
p2096
F0.030303030303030304
sVtechniqu
p2097
F0.06060606060606061
sVfor
p2098
F0.030303030303030304
sVperform
p2099
F0.030303030303030304
sg58
F0.06060606060606061
sVaccuraci
p2100
F0.030303030303030304
sVmwe
p2101
F0.030303030303030304
sVpreprocess
p2102
F0.030303030303030304
sVpars
p2103
F0.030303030303030304
sVimprov
p2104
F0.030303030303030304
sVincreas
p2105
F0.030303030303030304
sVsuch
p2106
F0.030303030303030304
sVbecom
p2107
F0.030303030303030304
sVwith
p2108
F0.030303030303030304
sVrecent
p2109
F0.030303030303030304
sVthese
p2110
F0.030303030303030304
sVof
p2111
F0.06060606060606061
sVcan
p2112
F0.030303030303030304
sVaid
p2113
F0.030303030303030304
sVthe
p2114
F0.06060606060606061
saa(lp2115
S'W11-081530'
p2116
a(dp2117
Vnlp
p2118
F0.047619047619047616
sVspecif
p2119
F0.047619047619047616
sVmwes
p2120
F0.047619047619047616
sVof
p2121
F0.14285714285714285
sVover
p2122
F0.047619047619047616
sVyear
p2123
F0.047619047619047616
sVautomat
p2124
F0.047619047619047616
sVdiscoveri
p2125
F0.047619047619047616
sVpast
p2126
F0.047619047619047616
sVattent
p2127
F0.047619047619047616
sVin
p2128
F0.047619047619047616
sVmani
p2129
F0.047619047619047616
sVthe
p2130
F0.14285714285714285
sVhas
p2131
F0.047619047619047616
sVtype
p2132
F0.047619047619047616
sVresearch
p2133
F0.047619047619047616
sVattract
p2134
F0.047619047619047616
saa(lp2135
S'W11-081537'
p2136
a(dp2137
Vand
p2138
F0.02702702702702703
sVentropi
p2139
F0.02702702702702703
sVsome
p2140
F0.02702702702702703
sVas
p2141
F0.02702702702702703
sVpermut
p2142
F0.02702702702702703
sVpointwis
p2143
F0.02702702702702703
sVour
p2144
F0.02702702702702703
sVextract
p2145
F0.02702702702702703
sVuse
p2146
F0.02702702702702703
sVfrom
p2147
F0.02702702702702703
sVdice
p2148
F0.02702702702702703
sVfor
p2149
F0.02702702702702703
sVcollect
p2150
F0.02702702702702703
sVmwes
p2151
F0.02702702702702703
sg58
F0.16216216216216217
sVto
p2152
F0.02702702702702703
sVexperi
p2153
F0.02702702702702703
sVwe
p2154
F0.02702702702702703
sVcoeffici
p2155
F0.02702702702702703
sVmutual
p2156
F0.05405405405405406
sVstandard
p2157
F0.02702702702702703
sVsuch
p2158
F0.02702702702702703
sVttest
p2159
F0.02702702702702703
sg8
F0.02702702702702703
sVmeasur
p2160
F0.02702702702702703
sVdocument
p2161
F0.02702702702702703
sVof
p2162
F0.02702702702702703
sVinform
p2163
F0.05405405405405406
sVstatist
p2164
F0.02702702702702703
sVchisquar
p2165
F0.02702702702702703
saa(lp2166
S'W11-081536'
p2167
a(dp2168
Vand
p2169
F0.11904761904761904
sVcomput
p2170
F0.023809523809523808
sVdeal
p2171
F0.023809523809523808
sVnumber
p2172
F0.023809523809523808
sVhave
p2173
F0.023809523809523808
sVdiscoveri
p2174
F0.023809523809523808
sVbaldwin
p2175
F0.047619047619047616
sVsever
p2176
F0.023809523809523808
sVcolloc
p2177
F0.023809523809523808
sVtechniqu
p2178
F0.023809523809523808
sVfor
p2179
F0.07142857142857142
sVmwes
p2180
F0.023809523809523808
sg58
F0.047619047619047616
sVconstruct
p2181
F0.023809523809523808
sVresearch
p2182
F0.023809523809523808
sVother
p2183
F0.047619047619047616
sg186
F0.023809523809523808
sVpearc
p2184
F0.023809523809523808
sVvillavicencio
p2185
F0.023809523809523808
sVthat
p2186
F0.023809523809523808
sVverbparticl
p2187
F0.023809523809523808
sVcompound
p2188
F0.023809523809523808
sVevert
p2189
F0.023809523809523808
sVwith
p2190
F0.023809523809523808
sVkrenn
p2191
F0.023809523809523808
sg8
F0.023809523809523808
sVnoun
p2192
F0.023809523809523808
sVof
p2193
F0.047619047619047616
sVnicholson
p2194
F0.023809523809523808
sVmani
p2195
F0.023809523809523808
sVthe
p2196
F0.023809523809523808
sVpropos
p2197
F0.023809523809523808
saa(lp2198
S'W11-081535'
p2199
a(dp2200
Vand
p2201
F0.027777777777777776
sVis
p2202
F0.027777777777777776
sVsome
p2203
F0.027777777777777776
sVas
p2204
F0.05555555555555555
sVare
p2205
F0.027777777777777776
sVgenerat
p2206
F0.027777777777777776
sVsurfac
p2207
F0.027777777777777776
sVnois
p2208
F0.027777777777777776
sVfor
p2209
F0.05555555555555555
sVlikelihood
p2210
F0.027777777777777776
sg58
F0.1111111111111111
sVvalid
p2211
F0.027777777777777776
sVinclud
p2212
F0.027777777777777776
sVcriteria
p2213
F0.027777777777777776
sVform
p2214
F0.027777777777777776
sVmeasur
p2215
F0.027777777777777776
sVcoeffici
p2216
F0.027777777777777776
sVmutual
p2217
F0.027777777777777776
sVbase
p2218
F0.027777777777777776
sVsuch
p2219
F0.027777777777777776
sVassoci
p2220
F0.027777777777777776
sVdice
p2221
F0.027777777777777776
sg8
F0.027777777777777776
sVon
p2222
F0.027777777777777776
sVprovid
p2223
F0.027777777777777776
sVof
p2224
F0.027777777777777776
sVremov
p2225
F0.027777777777777776
sVmaximum
p2226
F0.027777777777777776
sVinform
p2227
F0.027777777777777776
sVthe
p2228
F0.027777777777777776
sVseri
p2229
F0.027777777777777776
saa(lp2230
S'W11-081534'
p2231
a(dp2232
Vand
p2233
F0.037037037037037035
sVautomat
p2234
F0.037037037037037035
sVmonolingu
p2235
F0.037037037037037035
sVgenerat
p2236
F0.037037037037037035
sVextract
p2237
F0.037037037037037035
sVfrom
p2238
F0.037037037037037035
sVfor
p2239
F0.037037037037037035
sVmwes
p2240
F0.037037037037037035
sVthere
p2241
F0.037037037037037035
sg58
F0.037037037037037035
sVbeen
p2242
F0.037037037037037035
sVvalid
p2243
F0.037037037037037035
sVmwe
p2244
F0.037037037037037035
sVhas
p2245
F0.037037037037037035
sVmore
p2246
F0.037037037037037035
sVthat
p2247
F0.037037037037037035
sVcandid
p2248
F0.037037037037037035
sVreleas
p2249
F0.037037037037037035
sVrecent
p2250
F0.037037037037037035
sVboth
p2251
F0.037037037037037035
sVof
p2252
F0.07407407407407407
sVcorpora
p2253
F0.037037037037037035
sVmwetoolkit
p2254
F0.037037037037037035
sVthe
p2255
F0.1111111111111111
saa(lp2256
S'W11-0815212'
p2257
a(dp2258
g16
F0.3333333333333333
sg48
F0.3333333333333333
sg49
F0.3333333333333333
saa(lp2259
S'W11-081539'
p2260
a(dp2261
Vand
p2262
F0.04878048780487805
sVevalu
p2263
F0.024390243902439025
sVqueri
p2264
F0.024390243902439025
sVis
p2265
F0.024390243902439025
sVir
p2266
F0.024390243902439025
sVqualiti
p2267
F0.024390243902439025
sVani
p2268
F0.024390243902439025
sg58
F0.04878048780487805
sVin
p2269
F0.04878048780487805
sVour
p2270
F0.024390243902439025
sVdiffer
p2271
F0.024390243902439025
sVdetect
p2272
F0.024390243902439025
sVgoal
p2273
F0.024390243902439025
sVfor
p2274
F0.024390243902439025
sVmwes
p2275
F0.04878048780487805
sVsystem
p2276
F0.04878048780487805
sVsame
p2277
F0.024390243902439025
sVidentif
p2278
F0.024390243902439025
sVto
p2279
F0.024390243902439025
sVtreatment
p2280
F0.024390243902439025
sVbetween
p2281
F0.024390243902439025
sVdocument
p2282
F0.024390243902439025
sVstandard
p2283
F0.024390243902439025
sVwith
p2284
F0.024390243902439025
sVof
p2285
F0.07317073170731707
sVwithout
p2286
F0.024390243902439025
sVimprov
p2287
F0.024390243902439025
sVthe
p2288
F0.17073170731707318
saa(lp2289
S'W11-081538'
p2290
a(dp2291
Von
p2292
F0.047619047619047616
sVwe
p2293
F0.047619047619047616
sVexperi
p2294
F0.047619047619047616
sVan
p2295
F0.047619047619047616
sVevalu
p2296
F0.047619047619047616
sVhypothesi
p2297
F0.047619047619047616
sVthat
p2298
F0.047619047619047616
sVmwes
p2299
F0.047619047619047616
sVof
p2300
F0.047619047619047616
sVir
p2301
F0.047619047619047616
sVsystem
p2302
F0.047619047619047616
sg58
F0.047619047619047616
sVcarri
p2303
F0.047619047619047616
sVbase
p2304
F0.047619047619047616
sVcan
p2305
F0.047619047619047616
sVimprov
p2306
F0.047619047619047616
sVthe
p2307
F0.14285714285714285
sVout
p2308
F0.047619047619047616
sVresult
p2309
F0.047619047619047616
saa(lp2310
S'W11-0815198'
p2311
a(dp2312
g16
F0.3333333333333333
sg48
F0.3333333333333333
sg49
F0.3333333333333333
saa(lp2313
S'W11-0815159'
p2314
a(dp2315
Von
p2316
F0.045454545454545456
sg2037
F0.045454545454545456
sVretriev
p2317
F0.045454545454545456
sVevalu
p2318
F0.09090909090909091
sVthis
p2319
F0.045454545454545456
sVthere
p2320
F0.045454545454545456
sVrespons
p2321
F0.045454545454545456
sVdetail
p2322
F0.045454545454545456
sVeffect
p2323
F0.045454545454545456
sVtopic
p2324
F0.045454545454545456
sVto
p2325
F0.045454545454545456
sVwere
p2326
F0.045454545454545456
sVmwes
p2327
F0.045454545454545456
sVwhich
p2328
F0.045454545454545456
sVin
p2329
F0.13636363636363635
sVstudi
p2330
F0.045454545454545456
sVdocument
p2331
F0.045454545454545456
sVthe
p2332
F0.09090909090909091
saa(lp2333
S'W11-0815158'
p2334
a(dp2335
Vevalu
p2336
F0.017857142857142856
sVqueri
p2337
F0.017857142857142856
sVis
p2338
F0.017857142857142856
sVin
p2339
F0.03571428571428571
sVbecaus
p2340
F0.017857142857142856
sVsystem
p2341
F0.017857142857142856
sVtopic
p2342
F0.03571428571428571
sVdecreas
p2343
F0.017857142857142856
sVhave
p2344
F0.03571428571428571
sVtabl
p2345
F0.017857142857142856
sVguid
p2346
F0.017857142857142856
sVbaselin
p2347
F0.017857142857142856
sVno
p2348
F0.017857142857142856
sVmwes
p2349
F0.017857142857142856
sVthere
p2350
F0.017857142857142856
sg58
F0.05357142857142857
sVaccuraci
p2351
F0.017857142857142856
sVmwe
p2352
F0.03571428571428571
sVexperi
p2353
F0.017857142857142856
sVfinal
p2354
F0.017857142857142856
sVwcn
p2355
F0.017857142857142856
sg8
F0.03571428571428571
sVdeeper
p2356
F0.017857142857142856
sVthat
p2357
F0.05357142857142857
sVgain
p2358
F0.017857142857142856
sVon
p2359
F0.017857142857142856
sVdocument
p2360
F0.017857142857142856
sVcase
p2361
F0.017857142857142856
sVinsert
p2362
F0.017857142857142856
sVbcn
p2363
F0.017857142857142856
sg186
F0.017857142857142856
sVpossibl
p2364
F0.017857142857142856
sVthis
p2365
F0.017857142857142856
sVof
p2366
F0.05357142857142857
sVus
p2367
F0.017857142857142856
sVcan
p2368
F0.017857142857142856
sg1937
F0.017857142857142856
sVthe
p2369
F0.10714285714285714
sVtoward
p2370
F0.017857142857142856
sVfirst
p2371
F0.017857142857142856
saa(lp2372
S'W11-0815151'
p2373
a(dp2374
g8
F0.047619047619047616
sVloss
p2375
F0.047619047619047616
sVresult
p2376
F0.047619047619047616
sVthis
p2377
F0.047619047619047616
sVis
p2378
F0.047619047619047616
sVoveral
p2379
F0.047619047619047616
sVbl
p2380
F0.047619047619047616
sg58
F0.09523809523809523
sVthan
p2381
F0.047619047619047616
sVbetter
p2382
F0.047619047619047616
sVwhi
p2383
F0.047619047619047616
sVexplain
p2384
F0.047619047619047616
sVgain
p2385
F0.047619047619047616
sVthe
p2386
F0.09523809523809523
sVobtain
p2387
F0.047619047619047616
sVhowev
p2388
F0.047619047619047616
sVaverag
p2389
F0.09523809523809523
sVhigher
p2390
F0.047619047619047616
saa(lp2391
S'W11-0815150'
p2392
a(dp2393
Vand
p2394
F0.02857142857142857
sVqueri
p2395
F0.02857142857142857
sVindividu
p2396
F0.02857142857142857
sVtopic
p2397
F0.02857142857142857
sVsee
p2398
F0.02857142857142857
sVin
p2399
F0.08571428571428572
sVbaselin
p2400
F0.02857142857142857
sVindex
p2401
F0.02857142857142857
sVcompar
p2402
F0.05714285714285714
sVhow
p2403
F0.02857142857142857
sVwhen
p2404
F0.02857142857142857
sg58
F0.02857142857142857
sVbetter
p2405
F0.02857142857142857
sVto
p2406
F0.02857142857142857
sg186
F0.02857142857142857
sVmap
p2407
F0.08571428571428572
sVwe
p2408
F0.02857142857142857
sVgain
p2409
F0.02857142857142857
sVhad
p2410
F0.02857142857142857
sVcase
p2411
F0.02857142857142857
sVloss
p2412
F0.02857142857142857
sVbcn
p2413
F0.05714285714285714
sVof
p2414
F0.02857142857142857
sVwors
p2415
F0.02857142857142857
sVcan
p2416
F0.02857142857142857
sVthe
p2417
F0.08571428571428572
sVor
p2418
F0.02857142857142857
saa(lp2419
S'W11-0815153'
p2420
a(dp2421
Vless
p2422
F0.041666666666666664
sVis
p2423
F0.08333333333333333
sVir
p2424
F0.041666666666666664
sVsignific
p2425
F0.041666666666666664
sVresult
p2426
F0.041666666666666664
sVin
p2427
F0.041666666666666664
sVdiffer
p2428
F0.041666666666666664
sg496
F0.041666666666666664
sVcompar
p2429
F0.041666666666666664
sg58
F0.041666666666666664
sVbehind
p2430
F0.041666666666666664
sVbetween
p2431
F0.041666666666666664
sVbe
p2432
F0.041666666666666664
sVthat
p2433
F0.041666666666666664
sVintuit
p2434
F0.041666666666666664
sVconsid
p2435
F0.041666666666666664
sVnot
p2436
F0.041666666666666664
sVthan
p2437
F0.041666666666666664
sg8
F0.041666666666666664
sVthis
p2438
F0.041666666666666664
sVof
p2439
F0.041666666666666664
sVthe
p2440
F0.08333333333333333
saa(lp2441
S'W11-0815152'
p2442
a(dp2443
Vmap
p2444
F0.034482758620689655
sVis
p2445
F0.034482758620689655
sVone
p2446
F0.034482758620689655
sVin
p2447
F0.034482758620689655
sVif
p2448
F0.034482758620689655
sVabsolut
p2449
F0.034482758620689655
sVdecid
p2450
F0.034482758620689655
sg496
F0.034482758620689655
sVanoth
p2451
F0.034482758620689655
sg58
F0.06896551724137931
sVto
p2452
F0.06896551724137931
sVinstead
p2453
F0.034482758620689655
sVdo
p2454
F0.034482758620689655
sVwe
p2455
F0.034482758620689655
sVrun
p2456
F0.034482758620689655
sVchose
p2457
F0.034482758620689655
sVsuperior
p2458
F0.034482758620689655
sVuse
p2459
F0.034482758620689655
sVvalu
p2460
F0.034482758620689655
sg8
F0.034482758620689655
sVof
p2461
F0.06896551724137931
sVinde
p2462
F0.034482758620689655
sVcalcul
p2463
F0.034482758620689655
sVthe
p2464
F0.034482758620689655
sVmargin
p2465
F0.034482758620689655
sVorder
p2466
F0.034482758620689655
saa(lp2467
S'W11-0815155'
p2468
a(dp2469
Vdiffer
p2470
F0.125
sg496
F0.125
sVless
p2471
F0.125
sVof
p2472
F0.125
sVare
p2473
F0.125
sVconsid
p2474
F0.125
sVtie
p2475
F0.125
sVthan
p2476
F0.125
saa(lp2477
S'W11-0815154'
p2478
a(dp2479
Vbe
p2480
F0.08
sVdiffer
p2481
F0.08
sVfrom
p2482
F0.04
sVgreater
p2483
F0.04
sVfor
p2484
F0.04
sVsame
p2485
F0.04
sVqueri
p2486
F0.04
sVtwo
p2487
F0.04
sVindic
p2488
F0.04
sVshould
p2489
F0.04
sVtopic
p2490
F0.04
sVto
p2491
F0.04
sVas
p2492
F0.04
sVgain
p2493
F0.04
sVconsid
p2494
F0.04
sVbetween
p2495
F0.04
sg496
F0.04
sVthe
p2496
F0.12
sVthan
p2497
F0.04
sVvalu
p2498
F0.04
sVresult
p2499
F0.04
saa(lp2500
S'W11-0815157'
p2501
a(dp2502
Vand
p2503
F0.09090909090909091
sVbcn
p2504
F0.045454545454545456
sVgiven
p2505
F0.045454545454545456
sVcompar
p2506
F0.045454545454545456
sVsee
p2507
F0.045454545454545456
sVthat
p2508
F0.045454545454545456
sVthis
p2509
F0.045454545454545456
sVtabl
p2510
F0.045454545454545456
sg58
F0.045454545454545456
sVindic
p2511
F0.045454545454545456
sVbetter
p2512
F0.045454545454545456
sVto
p2513
F0.045454545454545456
sVwe
p2514
F0.045454545454545456
sVcan
p2515
F0.045454545454545456
sVin
p2516
F0.045454545454545456
sVthe
p2517
F0.09090909090909091
sVbaselin
p2518
F0.045454545454545456
sVmargin
p2519
F0.045454545454545456
sVare
p2520
F0.045454545454545456
sVwcn
p2521
F0.045454545454545456
saa(lp2522
S'W11-0815156'
p2523
a(dp2524
Vand
p2525
F0.1
sVmap
p2526
F0.1
sVconsid
p2527
F0.1
sVthis
p2528
F0.1
sVof
p2529
F0.1
sg58
F0.1
sVare
p2530
F0.1
sVway
p2531
F0.1
sVtie
p2532
F0.1
sVvalu
p2533
F0.1
saa(lp2534
S'W11-0815222'
p2535
a(dp2536
Vcriteria
p2537
F0.05
sVdo
p2538
F0.05
sVall
p2539
F0.05
sVin
p2540
F0.05
sVthese
p2541
F0.05
sVof
p2542
F0.05
sVrelat
p2543
F0.05
sVsome
p2544
F0.05
sg58
F0.05
sVbut
p2545
F0.05
sVsatisfi
p2546
F0.05
sVto
p2547
F0.05
sVtopic
p2548
F0.05
sVare
p2549
F0.05
sVqueri
p2550
F0.1
sVnot
p2551
F0.05
sVthe
p2552
F0.1
sVdocument
p2553
F0.05
saa(lp2554
S'W11-081546'
p2555
a(dp2556
Vand
p2557
F0.01818181818181818
sVen
p2558
F0.01818181818181818
sVoc
p2559
F0.01818181818181818
sVrobustwsd
p2560
F0.01818181818181818
sVin
p2561
F0.01818181818181818
sg58
F0.05454545454545454
sVtopic
p2562
F0.01818181818181818
sVas
p2563
F0.03636363636363636
sVtabl
p2564
F0.01818181818181818
sVentitl
p2565
F0.01818181818181818
sVtotal
p2566
F0.01818181818181818
sVclef
p2567
F0.01818181818181818
sVwell
p2568
F0.01818181818181818
sVfor
p2569
F0.01818181818181818
sVpu
p2570
F0.01818181818181818
sVts
p2571
F0.01818181818181818
sVlist
p2572
F0.01818181818181818
sVqueri
p2573
F0.01818181818181818
sg186
F0.01818181818181818
sVwere
p2574
F0.01818181818181818
sVtask
p2575
F0.01818181818181818
sVjudgment
p2576
F0.01818181818181818
sVrelev
p2577
F0.01818181818181818
sg8
F0.03636363636363636
sg9
F0.01818181818181818
sVdocument
p2578
F0.03636363636363636
sg11
F0.01818181818181818
sg48
F0.01818181818181818
sg49
F0.01818181818181818
sVprepar
p2579
F0.01818181818181818
sg4
F0.01818181818181818
sg13
F0.03636363636363636
sg14
F0.01818181818181818
sVcollect
p2580
F0.01818181818181818
sg17
F0.01818181818181818
sg19
F0.01818181818181818
sg20
F0.03636363636363636
sVcontext
p2581
F0.01818181818181818
sVof
p2582
F0.05454545454545454
sVthe
p2583
F0.10909090909090909
sVor
p2584
F0.01818181818181818
saa(lp2585
S'W11-081547'
p2586
a(dp2587
Vtask
p2588
F0.058823529411764705
sVword
p2589
F0.058823529411764705
sVcontribut
p2590
F0.058823529411764705
sVthis
p2591
F0.058823529411764705
sVof
p2592
F0.11764705882352941
sVir
p2593
F0.058823529411764705
sVaim
p2594
F0.058823529411764705
sVto
p2595
F0.11764705882352941
sVmonolingu
p2596
F0.058823529411764705
sVdisambigu
p2597
F0.058823529411764705
sVexplor
p2598
F0.058823529411764705
sVbilingu
p2599
F0.058823529411764705
sVthe
p2600
F0.11764705882352941
sVor
p2601
F0.058823529411764705
saa(lp2602
S'W11-081544'
p2603
a(dp2604
Vand
p2605
F0.05263157894736842
sVbe
p2606
F0.05263157894736842
sVhereaft
p2607
F0.05263157894736842
sVangel
p2608
F0.05263157894736842
sVla
p2609
F0.05263157894736842
sVof
p2610
F0.05263157894736842
sg58
F0.05263157894736842
sVwill
p2611
F0.05263157894736842
sVlos
p2612
F0.05263157894736842
sVas
p2613
F0.10526315789473684
sVtime
p2614
F0.05263157894736842
sVherald
p2615
F0.05263157894736842
sVthe
p2616
F0.15789473684210525
sVgh
p2617
F0.05263157894736842
sVcorpus
p2618
F0.05263157894736842
sVrefer
p2619
F0.05263157894736842
saa(lp2620
S'W11-081545'
p2621
a(dp2622
Vand
p2623
F0.058823529411764705
sg8
F0.058823529411764705
sVconsid
p2624
F0.058823529411764705
sVover
p2625
F0.058823529411764705
sVeach
p2626
F0.058823529411764705
sg58
F0.11764705882352941
sVarticl
p2627
F0.11764705882352941
sVas
p2628
F0.058823529411764705
sVtogeth
p2629
F0.058823529411764705
sVthey
p2630
F0.058823529411764705
sVcontain
p2631
F0.058823529411764705
sVnews
p2632
F0.11764705882352941
sVdocument
p2633
F0.058823529411764705
sVis
p2634
F0.058823529411764705
saa(lp2635
S'W11-081543'
p2636
a(dp2637
Vcase
p2638
F0.08
sVand
p2639
F0.04
sVuse
p2640
F0.04
sVangel
p2641
F0.04
sVof
p2642
F0.08
sVis
p2643
F0.04
sVin
p2644
F0.08
sg58
F0.08
sVbritish
p2645
F0.04
sVherald
p2646
F0.04
sVlos
p2647
F0.04
sVamerican
p2648
F0.04
sVtime
p2649
F0.04
sVenglish
p2650
F0.08
sVthe
p2651
F0.2
sVlanguag
p2652
F0.04
saa(lp2653
S'W11-081540'
p2654
a(dp2655
Vand
p2656
F0.07142857142857142
sVwe
p2657
F0.07142857142857142
sVresourc
p2658
F0.07142857142857142
sVdescrib
p2659
F0.07142857142857142
sVthis
p2660
F0.07142857142857142
sVsection
p2661
F0.07142857142857142
sVuse
p2662
F0.07142857142857142
sVdiffer
p2663
F0.07142857142857142
sVin
p2664
F0.14285714285714285
sVthe
p2665
F0.14285714285714285
sVexperi
p2666
F0.07142857142857142
sVmethod
p2667
F0.07142857142857142
saa(lp2668
S'W11-081541'
p2669
a(dp2670
Vand
p2671
F0.3333333333333333
sVtool
p2672
F0.3333333333333333
sVresourc
p2673
F0.3333333333333333
saa(lp2674
S'W11-081548'
p2675
a(dp2676
Vtask
p2677
F0.08333333333333333
sVfor
p2678
F0.08333333333333333
sVof
p2679
F0.08333333333333333
sVir
p2680
F0.08333333333333333
sVassess
p2681
F0.08333333333333333
sVto
p2682
F0.08333333333333333
sVvalid
p2683
F0.08333333333333333
sVdisambigu
p2684
F0.08333333333333333
sVwordsens
p2685
F0.08333333333333333
sVthe
p2686
F0.16666666666666666
sVwas
p2687
F0.08333333333333333
saa(lp2688
S'W11-081549'
p2689
a(dp2690
g8
F0.07142857142857142
sVby
p2691
F0.07142857142857142
sVsystem
p2692
F0.07142857142857142
sVthus
p2693
F0.07142857142857142
sg58
F0.07142857142857142
sVbeen
p2694
F0.07142857142857142
sVannot
p2695
F0.07142857142857142
sVdisambigu
p2696
F0.07142857142857142
sVhave
p2697
F0.07142857142857142
sVin
p2698
F0.07142857142857142
sVcorpus
p2699
F0.07142857142857142
sVdocument
p2700
F0.07142857142857142
sVthe
p2701
F0.14285714285714285
saa(lp2702
S'W11-0815115'
p2703
a(dp2704
g8
F0.06666666666666667
sVwe
p2705
F0.06666666666666667
sVset
p2706
F0.06666666666666667
sVfor
p2707
F0.06666666666666667
sVaccord
p2708
F0.06666666666666667
sVof
p2709
F0.06666666666666667
sg58
F0.06666666666666667
sVprecis
p2710
F0.06666666666666667
sVto
p2711
F0.06666666666666667
sVcalcul
p2712
F0.06666666666666667
sVequat
p2713
F0.06666666666666667
sVqueri
p2714
F0.06666666666666667
sVthe
p2715
F0.06666666666666667
sVaverag
p2716
F0.06666666666666667
sVmean
p2717
F0.06666666666666667
saa(lp2718
S'W11-0815147'
p2719
a(dp2720
Vgs
p2721
F0.030303030303030304
sVcn
p2722
F0.030303030303030304
sVis
p2723
F0.030303030303030304
sVindic
p2724
F0.030303030303030304
sVsecond
p2725
F0.030303030303030304
sVresult
p2726
F0.030303030303030304
sVin
p2727
F0.030303030303030304
sVextract
p2728
F0.030303030303030304
sVbest
p2729
F0.030303030303030304
sVbaselin
p2730
F0.030303030303030304
sVindex
p2731
F0.06060606060606061
sVfrom
p2732
F0.030303030303030304
sVbuilt
p2733
F0.030303030303030304
sVmwes
p2734
F0.030303030303030304
sVwith
p2735
F0.06060606060606061
sg58
F0.09090909090909091
sVcorpus
p2736
F0.030303030303030304
sVover
p2737
F0.030303030303030304
sVconsid
p2738
F0.030303030303030304
sVcome
p2739
F0.030303030303030304
sg8
F0.030303030303030304
sVplace
p2740
F0.030303030303030304
sVimprov
p2741
F0.030303030303030304
sVthe
p2742
F0.15151515151515152
sVsubtl
p2743
F0.030303030303030304
saa(lp2744
S'W11-0815114'
p2745
a(dp2746
Vreturn
p2747
F0.1
sVemphas
p2748
F0.1
sVearlier
p2749
F0.1
sVavp
p2750
F0.1
sVrank
p2751
F0.1
sVin
p2752
F0.1
sVthe
p2753
F0.1
sVdocument
p2754
F0.1
sVrelev
p2755
F0.1
sVmore
p2756
F0.1
saa(lp2757
S'W11-0815117'
p2758
a(dp2759
Vsystem
p2760
F0.05555555555555555
sVindex
p2761
F0.05555555555555555
sVir
p2762
F0.05555555555555555
sVcreat
p2763
F0.05555555555555555
sVfor
p2764
F0.05555555555555555
sg16
F0.05555555555555555
sg756
F0.05555555555555555
sVin
p2765
F0.05555555555555555
sg4
F0.05555555555555555
sg58
F0.05555555555555555
sVan
p2766
F0.05555555555555555
sV|q|
p2767
F0.05555555555555555
sVap
p2768
F0.05555555555555555
sVdictionari
p2769
F0.05555555555555555
sVeach
p2770
F0.05555555555555555
sVthe
p2771
F0.05555555555555555
sVmj
p2772
F0.05555555555555555
sVwas
p2773
F0.05555555555555555
saa(lp2774
S'W11-0815116'
p2775
a(dp2776
Vbefor
p2777
F1.0
saa(lp2778
S'W11-0815148'
p2779
a(dp2780
g8
F0.08333333333333333
sVand
p2781
F0.08333333333333333
sVcn
p2782
F0.08333333333333333
sVbl
p2783
F0.08333333333333333
sVbetter
p2784
F0.08333333333333333
sVworst
p2785
F0.08333333333333333
sVresult
p2786
F0.08333333333333333
sVgot
p2787
F0.08333333333333333
sVthe
p2788
F0.08333333333333333
sVsurpris
p2789
F0.08333333333333333
sVthan
p2790
F0.08333333333333333
sVbest
p2791
F0.08333333333333333
saa(lp2792
S'W11-0815149'
p2793
a(dp2794
g8
F0.0625
sVloss
p2795
F0.0625
sVbcn
p2796
F0.0625
sVretriev
p2797
F0.0625
sVfor
p2798
F0.0625
sVqualiti
p2799
F0.0625
sVidentif
p2800
F0.0625
sVas
p2801
F0.0625
sVresult
p2802
F0.0625
sVmwe
p2803
F0.0625
sVin
p2804
F0.0625
sVnot
p2805
F0.0625
sVfrom
p2806
F0.0625
sVthe
p2807
F0.0625
sVwas
p2808
F0.0625
sVexpect
p2809
F0.0625
saa(lp2810
S'W11-0815146'
p2811
a(dp2812
Vand
p2813
F0.034482758620689655
sVbecaus
p2814
F0.034482758620689655
sVindic
p2815
F0.034482758620689655
sVtopic
p2816
F0.034482758620689655
sVas
p2817
F0.034482758620689655
sVhappen
p2818
F0.034482758620689655
sVfrom
p2819
F0.06896551724137931
sVmwes
p2820
F0.034482758620689655
sg58
F0.06896551724137931
sVcontent
p2821
F0.034482758620689655
sVother
p2822
F0.034482758620689655
sVcorpus
p2823
F0.034482758620689655
sVdocument
p2824
F0.034482758620689655
sVwas
p2825
F0.034482758620689655
sVcandid
p2826
F0.034482758620689655
sVnot
p2827
F0.034482758620689655
sVwith
p2828
F0.034482758620689655
sVchoic
p2829
F0.034482758620689655
sVmade
p2830
F0.034482758620689655
sVthis
p2831
F0.034482758620689655
sVof
p2832
F0.06896551724137931
sVthe
p2833
F0.13793103448275862
sVwhole
p2834
F0.034482758620689655
saa(lp2835
S'W11-0815111'
p2836
a(dp2837
Vwe
p2838
F0.05555555555555555
sVuse
p2839
F0.05555555555555555
sVfor
p2840
F0.05555555555555555
sVmanipul
p2841
F0.05555555555555555
sVdiffer
p2842
F0.05555555555555555
sg58
F0.1111111111111111
sVdictionari
p2843
F0.05555555555555555
sVto
p2844
F0.05555555555555555
sVway
p2845
F0.05555555555555555
sVin
p2846
F0.05555555555555555
sVneed
p2847
F0.05555555555555555
sVbuilt
p2848
F0.05555555555555555
sVthe
p2849
F0.1111111111111111
sVexperi
p2850
F0.05555555555555555
sVcorpus
p2851
F0.05555555555555555
sVprevious
p2852
F0.05555555555555555
saa(lp2853
S'W11-0815144'
p2854
a(dp2855
Vand
p2856
F0.10526315789473684
sVcase
p2857
F0.05263157894736842
sVdiffer
p2858
F0.05263157894736842
sg496
F0.10526315789473684
sVloss
p2859
F0.05263157894736842
sValmost
p2860
F0.05263157894736842
sVof
p2861
F0.05263157894736842
sVis
p2862
F0.10526315789473684
sVless
p2863
F0.05263157894736842
sg58
F0.05263157894736842
sVgain
p2864
F0.05263157894736842
sVbetween
p2865
F0.05263157894736842
sVthe
p2866
F0.10526315789473684
sVthan
p2867
F0.05263157894736842
sVwcn
p2868
F0.05263157894736842
saa(lp2869
S'W11-0815142'
p2870
a(dp2871
Vmap
p2872
F0.05263157894736842
sVab
p2873
F0.05263157894736842
sVin
p2874
F0.05263157894736842
sVfor
p2875
F0.05263157894736842
sVof
p2876
F0.05263157894736842
sVwere
p2877
F0.05263157894736842
sVset
p2878
F0.05263157894736842
sVby
p2879
F0.05263157894736842
sVtopic
p2880
F0.05263157894736842
sVentir
p2881
F0.05263157894736842
sVqueri
p2882
F0.05263157894736842
sVresult
p2883
F0.05263157894736842
sVtabl
p2884
F0.05263157894736842
sVthe
p2885
F0.21052631578947367
sVsummar
p2886
F0.05263157894736842
sVpresent
p2887
F0.05263157894736842
saa(lp2888
S'W11-0815143'
p2889
a(dp2890
Vtotal
p2891
F0.08333333333333333
sVreturn
p2892
F0.08333333333333333
sVfor
p2893
F0.08333333333333333
sVqueri
p2894
F0.08333333333333333
sg58
F0.16666666666666666
sVtopic
p2895
F0.08333333333333333
sVare
p2896
F0.08333333333333333
sVin
p2897
F0.08333333333333333
sVthe
p2898
F0.08333333333333333
sVdocument
p2899
F0.08333333333333333
sVrelev
p2900
F0.08333333333333333
saa(lp2901
S'W11-0815140'
p2902
a(dp2903
Vindex
p2904
F0.07692307692307693
sVaccord
p2905
F0.038461538461538464
sVin
p2906
F0.07692307692307693
sVto
p2907
F0.038461538461538464
sVfor
p2908
F0.038461538461538464
sVwas
p2909
F0.038461538461538464
sVmwes
p2910
F0.038461538461538464
sVof
p2911
F0.038461538461538464
sVafter
p2912
F0.038461538461538464
sVuse
p2913
F0.038461538461538464
sg58
F0.07692307692307693
sVtopic
p2914
F0.038461538461538464
sValso
p2915
F0.038461538461538464
sVwere
p2916
F0.038461538461538464
sVgenerat
p2917
F0.038461538461538464
sVinclud
p2918
F0.038461538461538464
sVdictionari
p2919
F0.038461538461538464
sVeach
p2920
F0.07692307692307693
sVthe
p2921
F0.07692307692307693
sVqueri
p2922
F0.038461538461538464
sVtype
p2923
F0.038461538461538464
saa(lp2924
S'W11-0815110'
p2925
a(dp2926
Vindic
p2927
F0.5
sVcreat
p2928
F0.5
saa(lp2929
S'W11-0815226'
p2930
a(dp2931
Vdomain
p2932
F0.037037037037037035
sVevalu
p2933
F0.037037037037037035
sVnewspap
p2934
F0.037037037037037035
sVbecaus
p2935
F0.037037037037037035
sVterminolog
p2936
F0.037037037037037035
sVan
p2937
F0.037037037037037035
sVfurther
p2938
F0.037037037037037035
sVsubject
p2939
F0.037037037037037035
sVdiffer
p2940
F0.037037037037037035
sVfrom
p2941
F0.037037037037037035
sVfor
p2942
F0.037037037037037035
sg58
F0.1111111111111111
sVarticl
p2943
F0.037037037037037035
sValso
p2944
F0.037037037037037035
sVinterest
p2945
F0.037037037037037035
sVhas
p2946
F0.037037037037037035
sVbe
p2947
F0.037037037037037035
sVvariat
p2948
F0.037037037037037035
sg8
F0.07407407407407407
sVspecif
p2949
F0.037037037037037035
sVof
p2950
F0.037037037037037035
sVcorpora
p2951
F0.037037037037037035
sVcan
p2952
F0.037037037037037035
sVeach
p2953
F0.037037037037037035
saa(lp2954
S'W11-0815225'
p2955
a(dp2956
Vand
p2957
F0.05555555555555555
sg8
F0.05555555555555555
sVgood
p2958
F0.05555555555555555
sVname
p2959
F0.05555555555555555
sVthis
p2960
F0.05555555555555555
sVof
p2961
F0.05555555555555555
sVcomplement
p2962
F0.05555555555555555
sVto
p2963
F0.05555555555555555
sVtheme
p2964
F0.05555555555555555
sVother
p2965
F0.05555555555555555
sVare
p2966
F0.05555555555555555
sVin
p2967
F0.05555555555555555
sVfurther
p2968
F0.05555555555555555
sVstudi
p2969
F0.05555555555555555
sVsubject
p2970
F0.05555555555555555
sVextract
p2971
F0.05555555555555555
sVmethod
p2972
F0.05555555555555555
sVentiti
p2973
F0.05555555555555555
saa(lp2974
S'W11-0815224'
p2975
a(dp2976
Vand
p2977
F0.045454545454545456
sVwe
p2978
F0.045454545454545456
sVnoun
p2979
F0.045454545454545456
sVfor
p2980
F0.045454545454545456
sVwould
p2981
F0.045454545454545456
sVthis
p2982
F0.045454545454545456
sVjust
p2983
F0.045454545454545456
sVwork
p2984
F0.09090909090909091
sg58
F0.045454545454545456
sVto
p2985
F0.045454545454545456
sVas
p2986
F0.045454545454545456
sVother
p2987
F0.045454545454545456
sVfutur
p2988
F0.045454545454545456
sVuse
p2989
F0.09090909090909091
sVcompound
p2990
F0.045454545454545456
sVnot
p2991
F0.045454545454545456
sVin
p2992
F0.045454545454545456
sVmwe
p2993
F0.045454545454545456
sVtype
p2994
F0.045454545454545456
sVlike
p2995
F0.045454545454545456
saa(lp2996
S'W11-0815223'
p2997
a(dp2998
Vwe
p2999
F0.07692307692307693
sVthat
p3000
F0.07692307692307693
sVmwes
p3001
F0.07692307692307693
sVconclud
p3002
F0.07692307692307693
sVinfluenc
p3003
F0.07692307692307693
sVqualiti
p3004
F0.07692307692307693
sVuse
p3005
F0.07692307692307693
sVdirect
p3006
F0.07692307692307693
sValso
p3007
F0.07692307692307693
sVresult
p3008
F0.07692307692307693
sVof
p3009
F0.07692307692307693
sVthe
p3010
F0.15384615384615385
saa(lp3011
S'W11-0815113'
p3012
a(dp3013
Vwide
p3014
F0.0625
sVuse
p3015
F0.0625
sVretriev
p3016
F0.0625
sVevalu
p3017
F0.0625
sVmost
p3018
F0.0625
sVis
p3019
F0.0625
sVmeasur
p3020
F0.0625
sVrank
p3021
F0.0625
sVprecis
p3022
F0.0625
sVto
p3023
F0.0625
sVresult
p3024
F0.0625
sVin
p3025
F0.0625
sVthe
p3026
F0.125
sVorder
p3027
F0.0625
sVaverag
p3028
F0.0625
saa(lp3029
S'W11-0815221'
p3030
a(dp3031
Vsemant
p3032
F0.03571428571428571
sVsome
p3033
F0.07142857142857142
sVbecaus
p3034
F0.03571428571428571
sVtopic
p3035
F0.03571428571428571
sVresult
p3036
F0.03571428571428571
sVin
p3037
F0.03571428571428571
sVuse
p3038
F0.03571428571428571
sg58
F0.07142857142857142
sVto
p3039
F0.03571428571428571
sVdocument
p3040
F0.03571428571428571
sVanalysi
p3041
F0.03571428571428571
sVreturn
p3042
F0.03571428571428571
sVexpress
p3043
F0.03571428571428571
sVase
p3044
F0.03571428571428571
sV]
p3045
F0.03571428571428571
sVrelev
p3046
F0.03571428571428571
sVrequir
p3047
F0.03571428571428571
sg8
F0.03571428571428571
sg9
F0.03571428571428571
sVmade
p3048
F0.03571428571428571
sVnevertheless
p3049
F0.03571428571428571
sVof
p3050
F0.03571428571428571
sVthese
p3051
F0.03571428571428571
sVwors
p3052
F0.03571428571428571
sVthe
p3053
F0.07142857142857142
saa(lp3054
S'W11-0815220'
p3055
a(dp3056
Vit
p3057
F0.03125
sVgeneral
p3058
F0.03125
sVresult
p3059
F0.03125
sVin
p3060
F0.03125
sVindex
p3061
F0.03125
sVfor
p3062
F0.03125
sVmwes
p3063
F0.03125
sVmake
p3064
F0.03125
sg58
F0.0625
sVto
p3065
F0.0625
sVdocument
p3066
F0.0625
sVeasier
p3067
F0.03125
sVrelat
p3068
F0.03125
sVbecaus
p3069
F0.03125
sVrelev
p3070
F0.03125
sVinsert
p3071
F0.03125
sVterm
p3072
F0.0625
sVretriev
p3073
F0.0625
sVspecif
p3074
F0.0625
sVthese
p3075
F0.03125
sVof
p3076
F0.0625
sVimprov
p3077
F0.03125
sVthe
p3078
F0.09375
saa(lp3079
S'W11-0815112'
p3080
a(dp3081
Vand
p3082
F0.025
sVthey
p3083
F0.025
sVinto
p3084
F0.025
sVas
p3085
F0.05
sVare
p3086
F0.025
sVhave
p3087
F0.025
sVin
p3088
F0.05
sVconsider
p3089
F0.025
sVfrom
p3090
F0.025
sVdescrib
p3091
F0.025
sVmwes
p3092
F0.025
sg58
F0.075
sVbeen
p3093
F0.025
sVtake
p3094
F0.025
sVwhich
p3095
F0.025
sVcorpus
p3096
F0.025
sVtherefor
p3097
F0.025
sVsingl
p3098
F0.025
sVdo
p3099
F0.025
sVrecal
p3100
F0.025
sVmeasur
p3101
F0.025
sVdictionari
p3102
F0.025
sVnot
p3103
F0.025
sVrelev
p3104
F0.025
sVsetbas
p3105
F0.025
sVinsert
p3106
F0.025
sVterm
p3107
F0.025
sVretriev
p3108
F0.025
sVprecis
p3109
F0.025
sVitem
p3110
F0.025
sVwere
p3111
F0.025
sVthe
p3112
F0.1
sVorder
p3113
F0.025
saa(lp3114
S'W11-081554'
p3115
a(dp3116
Vand
p3117
F0.03333333333333333
sVqueri
p3118
F0.03333333333333333
sVis
p3119
F0.03333333333333333
sVzettair
p3120
F0.03333333333333333
sVcompact
p3121
F0.03333333333333333
sVindex
p3122
F0.03333333333333333
sVuse
p3123
F0.06666666666666667
sVengin
p3124
F0.03333333333333333
sVfor
p3125
F0.1
sg58
F0.03333333333333333
sVtextual
p3126
F0.03333333333333333
sVcall
p3127
F0.03333333333333333
sVwhich
p3128
F0.03333333333333333
sVtext
p3129
F0.03333333333333333
sVbe
p3130
F0.03333333333333333
sVwe
p3131
F0.03333333333333333
sVthat
p3132
F0.03333333333333333
sVtool
p3133
F0.03333333333333333
sg8
F0.06666666666666667
sVboth
p3134
F0.03333333333333333
sVsearch
p3135
F0.03333333333333333
sVtask
p3136
F0.03333333333333333
sVthis
p3137
F0.03333333333333333
sVcollect
p3138
F0.03333333333333333
sVcan
p3139
F0.03333333333333333
sVthe
p3140
F0.03333333333333333
saa(lp3141
S'W11-081557'
p3142
a(dp3143
Vand
p3144
F0.043478260869565216
sVrepresent
p3145
F0.043478260869565216
sVbomb
p3146
F0.08695652173913043
sVtext
p3147
F0.043478260869565216
sVare
p3148
F0.043478260869565216
sVin
p3149
F0.043478260869565216
sVmerg
p3150
F0.043478260869565216
sVfor
p3151
F0.043478260869565216
sg58
F0.043478260869565216
sVto
p3152
F0.043478260869565216
sVsingl
p3153
F0.043478260869565216
sVafter
p3154
F0.043478260869565216
sVbut
p3155
F0.043478260869565216
sVstem
p3156
F0.043478260869565216
sVthey
p3157
F0.043478260869565216
sVnot
p3158
F0.043478260869565216
sg8
F0.043478260869565216
sVlemmat
p3159
F0.043478260869565216
sVexampl
p3160
F0.043478260869565216
sVwere
p3161
F0.043478260869565216
sVthe
p3162
F0.043478260869565216
sVconflat
p3163
F0.043478260869565216
saa(lp3164
S'W11-081556'
p3165
a(dp3166
Vterm
p3167
F0.125
sVprovid
p3168
F0.125
sVof
p3169
F0.125
sVrelat
p3170
F0.125
sVstem
p3171
F0.125
sVcan
p3172
F0.125
sVfurther
p3173
F0.125
sVconflat
p3174
F0.125
saa(lp3175
S'W11-081551'
p3176
a(dp3177
Vand
p3178
F0.017857142857142856
sVorigin
p3179
F0.008928571428571428
sVcode
p3180
F0.008928571428571428
sVtext
p3181
F0.008928571428571428
sVcanon
p3182
F0.008928571428571428
sVit
p3183
F0.008928571428571428
sVlema
p3184
F0.008928571428571428
sV''
p3185
F0.09821428571428571
sVas
p3186
F0.008928571428571428
sVpos=
p3187
F0.008928571428571428
sVin
p3188
F0.08035714285714286
sVscore=
p3189
F0.017857142857142856
sVextract
p3190
F0.008928571428571428
sVwordnet
p3191
F0.008928571428571428
sVgh
p3192
F0.008928571428571428
sVuse
p3193
F0.008928571428571428
sVid=
p3194
F0.008928571428571428
sVunderworld
p3195
F0.017857142857142856
sVappear
p3196
F0.008928571428571428
sVfor
p3197
F0.008928571428571428
sg58
F0.044642857142857144
sg454
F0.017857142857142856
sVtheir
p3198
F0.008928571428571428
sVfigur
p3199
F0.008928571428571428
sVscore
p3200
F0.008928571428571428
sVwhich
p3201
F0.008928571428571428
sVsynset
p3202
F0.026785714285714284
sg186
F0.008928571428571428
sg461
F0.05357142857142857
sg463
F0.05357142857142857
sVwf
p3203
F0.008928571428571428
sV``
p3204
F0.026785714285714284
sVform
p3205
F0.017857142857142856
sV/wf
p3206
F0.008928571428571428
sVwe
p3207
F0.008928571428571428
sg8
F0.008928571428571428
sVnot
p3208
F0.008928571428571428
sVlema=
p3209
F0.008928571428571428
sVaddit
p3210
F0.008928571428571428
sV/term
p3211
F0.008928571428571428
sVboth
p3212
F0.008928571428571428
sVterm
p3213
F0.044642857142857144
sVdocument
p3214
F0.008928571428571428
sVword
p3215
F0.008928571428571428
sVnn
p3216
F0.008928571428571428
sVthis
p3217
F0.008928571428571428
sVof
p3218
F0.017857142857142856
sVcode=
p3219
F0.017857142857142856
sVstructur
p3220
F0.008928571428571428
sg15
F0.017857142857142856
sVinform
p3221
F0.008928571428571428
sVpaper
p3222
F0.008928571428571428
sVcontain
p3223
F0.008928571428571428
sVthe
p3224
F0.07142857142857142
sVattribut
p3225
F0.008928571428571428
sVlocat
p3226
F0.008928571428571428
sVother
p3227
F0.008928571428571428
saa(lp3228
S'W11-081550'
p3229
a(dp3230
g8
F0.14814814814814814
sVand
p3231
F0.037037037037037035
sVabout
p3232
F0.037037037037037035
sVidentifi
p3233
F0.037037037037037035
sVlemma
p3234
F0.037037037037037035
sVof
p3235
F0.1111111111111111
sValso
p3236
F0.037037037037037035
sVin
p3237
F0.037037037037037035
sVterm
p3238
F0.07407407407407407
sVstructur
p3239
F0.037037037037037035
sg58
F0.037037037037037035
sVinform
p3240
F0.037037037037037035
sVtag
p3241
F0.037037037037037035
sVcontain
p3242
F0.037037037037037035
sVit
p3243
F0.037037037037037035
sVthe
p3244
F0.1111111111111111
sVdocument
p3245
F0.07407407407407407
sVmorphosyntact
p3246
F0.037037037037037035
saa(lp3247
S'W11-081553'
p3248
a(dp3249
Vand
p3250
F0.041666666666666664
sVis
p3251
F0.041666666666666664
sVir
p3252
F0.041666666666666664
sVan
p3253
F0.041666666666666664
sVas
p3254
F0.041666666666666664
sVresult
p3255
F0.041666666666666664
sVour
p3256
F0.041666666666666664
sVindex
p3257
F0.041666666666666664
sg77
F0.041666666666666664
sVsystem
p3258
F0.041666666666666664
sVnext
p3259
F0.041666666666666664
sVlemma
p3260
F0.041666666666666664
sVdocument
p3261
F0.08333333333333333
sVform
p3262
F0.041666666666666664
sVuse
p3263
F0.041666666666666664
sVby
p3264
F0.041666666666666664
sVstep
p3265
F0.041666666666666664
sg58
F0.041666666666666664
sg8
F0.041666666666666664
sVof
p3266
F0.041666666666666664
sVwere
p3267
F0.041666666666666664
sVthe
p3268
F0.08333333333333333
saa(lp3269
S'W11-081552'
p3270
a(dp3271
Vand
p3272
F0.038461538461538464
sVuse
p3273
F0.038461538461538464
sVexperi
p3274
F0.038461538461538464
sVword
p3275
F0.038461538461538464
sVto
p3276
F0.038461538461538464
sVof
p3277
F0.11538461538461539
sVavoid
p3278
F0.038461538461538464
sVformat
p3279
F0.038461538461538464
sg58
F0.038461538461538464
sVlemma
p3280
F0.038461538461538464
sVthat
p3281
F0.038461538461538464
sVcan
p3282
F0.038461538461538464
sVvariat
p3283
F0.038461538461538464
sVnot
p3284
F0.038461538461538464
sVaffect
p3285
F0.038461538461538464
sVthe
p3286
F0.23076923076923078
sVlinguist
p3287
F0.038461538461538464
sVcorpus
p3288
F0.038461538461538464
sVresult
p3289
F0.038461538461538464
saa(lp3290
S'W11-081559'
p3291
a(dp3292
Vand
p3293
F0.0625
sg77
F0.0625
sVjust
p3294
F0.0625
sVof
p3295
F0.0625
sVwere
p3296
F0.0625
sg58
F0.0625
sVtopic
p3297
F0.0625
sVlemma
p3298
F0.0625
sVas
p3299
F0.0625
sVuse
p3300
F0.0625
sVqueri
p3301
F0.0625
sVcorpus
p3302
F0.0625
sVextract
p3303
F0.0625
sVthe
p3304
F0.1875
saa(lp3305
S'W11-081558'
p3306
a(dp3307
Vindex
p3308
F0.07692307692307693
sVof
p3309
F0.07692307692307693
sVis
p3310
F0.07692307692307693
sVafter
p3311
F0.07692307692307693
sg58
F0.07692307692307693
sVnext
p3312
F0.07692307692307693
sVtopic
p3313
F0.07692307692307693
sVstep
p3314
F0.07692307692307693
sVqueri
p3315
F0.07692307692307693
sVthe
p3316
F0.23076923076923078
sVprepar
p3317
F0.07692307692307693
saa(lp3318
S'W11-0815161'
p3319
a(dp3320
g8
F0.047619047619047616
sVuse
p3321
F0.047619047619047616
sVnumber
p3322
F0.047619047619047616
sVcreat
p3323
F0.047619047619047616
sVof
p3324
F0.047619047619047616
sVmethodolog
p3325
F0.047619047619047616
sVexpress
p3326
F0.047619047619047616
sVdiffer
p3327
F0.09523809523809523
sg58
F0.047619047619047616
sValso
p3328
F0.047619047619047616
sVas
p3329
F0.047619047619047616
sVdictionari
p3330
F0.09523809523809523
sVeach
p3331
F0.09523809523809523
sVin
p3332
F0.047619047619047616
sVthe
p3333
F0.047619047619047616
sVcontain
p3334
F0.047619047619047616
sVwas
p3335
F0.047619047619047616
sVis
p3336
F0.047619047619047616
saa(lp3337
S'W11-0815164'
p3338
a(dp3339
Vmap
p3340
F0.043478260869565216
sVall
p3341
F0.043478260869565216
sVhave
p3342
F0.043478260869565216
sVfor
p3343
F0.043478260869565216
sVthat
p3344
F0.043478260869565216
sVmwes
p3345
F0.043478260869565216
sVof
p3346
F0.08695652173913043
sVis
p3347
F0.043478260869565216
sValter
p3348
F0.043478260869565216
sVit
p3349
F0.043478260869565216
sVbeen
p3350
F0.043478260869565216
sg58
F0.043478260869565216
sVtopic
p3351
F0.043478260869565216
sVto
p3352
F0.043478260869565216
sVby
p3353
F0.043478260869565216
sVinterest
p3354
F0.043478260869565216
sVidentif
p3355
F0.043478260869565216
sVthe
p3356
F0.08695652173913043
sVobserv
p3357
F0.043478260869565216
sVvalu
p3358
F0.043478260869565216
sVfirst
p3359
F0.043478260869565216
saa(lp3360
S'W11-0815165'
p3361
a(dp3362
Vshown
p3363
F0.16666666666666666
sVthese
p3364
F0.16666666666666666
sVin
p3365
F0.16666666666666666
sVare
p3366
F0.16666666666666666
sVtabl
p3367
F0.16666666666666666
sVvalu
p3368
F0.16666666666666666
saa(lp3369
S'W11-0815166'
p3370
a(dp3371
Vindex
p3372
F0.058823529411764705
sVwe
p3373
F0.058823529411764705
sVgs
p3374
F0.058823529411764705
sVcompar
p3375
F0.058823529411764705
sVthat
p3376
F0.058823529411764705
sVin
p3377
F0.058823529411764705
sVshown
p3378
F0.058823529411764705
sVobtain
p3379
F0.058823529411764705
sVto
p3380
F0.058823529411764705
sVas
p3381
F0.058823529411764705
sVother
p3382
F0.058823529411764705
sVresult
p3383
F0.058823529411764705
sVtabl
p3384
F0.058823529411764705
sVverifi
p3385
F0.058823529411764705
sVthe
p3386
F0.11764705882352941
sVbest
p3387
F0.058823529411764705
saa(lp3388
S'W11-0815139'
p3389
a(dp3390
g8
F0.07142857142857142
sVinsert
p3391
F0.07142857142857142
sVand
p3392
F0.07142857142857142
sVinvestig
p3393
F0.07142857142857142
sVevalu
p3394
F0.14285714285714285
sVthis
p3395
F0.07142857142857142
sVof
p3396
F0.07142857142857142
sVeffect
p3397
F0.07142857142857142
sVmwes
p3398
F0.07142857142857142
sVqueri
p3399
F0.07142857142857142
sVin
p3400
F0.07142857142857142
sVthe
p3401
F0.07142857142857142
sVdocument
p3402
F0.07142857142857142
saa(lp3403
S'W11-0815138'
p3404
a(dp3405
Vand
p3406
F0.025
sVset
p3407
F0.025
sVevalu
p3408
F0.05
sVqueri
p3409
F0.05
sVinto
p3410
F0.025
sVan
p3411
F0.025
sVtopic
p3412
F0.075
sVtotal
p3413
F0.025
sVgiven
p3414
F0.025
sVdivid
p3415
F0.025
sVmwes
p3416
F0.05
sVtwo
p3417
F0.025
sVby
p3418
F0.025
sVmwe
p3419
F0.025
sVoverview
p3420
F0.025
sg186
F0.025
sVis
p3421
F0.05
sVanalysi
p3422
F0.025
sVwe
p3423
F0.025
sVthat
p3424
F0.025
sVeffect
p3425
F0.025
sVmodifi
p3426
F0.025
sg58
F0.05
sVinsert
p3427
F0.025
sg77
F0.025
sVof
p3428
F0.05
sVcontain
p3429
F0.025
sVthe
p3430
F0.075
sVwhere
p3431
F0.05
saa(lp3432
S'W11-0815132'
p3433
a(dp3434
Vmetric
p3435
F0.5
sVevalu
p3436
F0.5
saa(lp3437
S'W11-0815131'
p3438
a(dp3439
Vmwes
p3440
F0.2
sVwith
p3441
F0.2
sVmanual
p3442
F0.2
sg11
F0.2
sVof
p3443
F0.2
saa(lp3444
S'W11-0815130'
p3445
a(dp3446
aa(lp3447
S'W11-0815137'
p3448
a(dp3449
Vinsert
p3450
F0.06666666666666667
sVevalu
p3451
F0.06666666666666667
sVperform
p3452
F0.06666666666666667
sVof
p3453
F0.06666666666666667
sVir
p3454
F0.06666666666666667
sVobtain
p3455
F0.06666666666666667
sVsystem
p3456
F0.06666666666666667
sVmwes
p3457
F0.06666666666666667
sVresult
p3458
F0.06666666666666667
sVin
p3459
F0.13333333333333333
sVthe
p3460
F0.2
sVexperi
p3461
F0.06666666666666667
saa(lp3462
S'W11-0815136'
p3463
a(dp3464
Vand
p3465
F0.03636363636363636
sVj=
p3466
F0.01818181818181818
sVset
p3467
F0.01818181818181818
sVevalu
p3468
F0.01818181818181818
sVqueri
p3469
F0.03636363636363636
sVis
p3470
F0.09090909090909091
sVnumber
p3471
F0.03636363636363636
sVrank
p3472
F0.01818181818181818
sVresult
p3473
F0.03636363636363636
sVdk
p3474
F0.01818181818181818
sVfrom
p3475
F0.01818181818181818
sVfor
p3476
F0.01818181818181818
sVtop
p3477
F0.01818181818181818
sg58
F0.03636363636363636
sVrelev
p3478
F0.03636363636363636
sV|q|
p3479
F0.03636363636363636
sVwhich
p3480
F0.01818181818181818
sVdocument
p3481
F0.05454545454545454
sVuntil
p3482
F0.01818181818181818
sVk=
p3483
F0.01818181818181818
sVrecal
p3484
F0.01818181818181818
sVfraction
p3485
F0.01818181818181818
sVrjk
p3486
F0.01818181818181818
sVby
p3487
F0.01818181818181818
sVexperi
p3488
F0.01818181818181818
sVretriev
p3489
F0.03636363636363636
sVof
p3490
F0.07272727272727272
sVj
p3491
F0.01818181818181818
sVmj
p3492
F0.03636363636363636
sVthe
p3493
F0.12727272727272726
sVwhere
p3494
F0.01818181818181818
saa(lp3495
S'W11-0815135'
p3496
a(dp3497
Vretriev
p3498
F0.06666666666666667
sVof
p3499
F0.06666666666666667
sVis
p3500
F0.13333333333333333
sVprecis
p3501
F0.06666666666666667
sVto
p3502
F0.06666666666666667
sVportion
p3503
F0.06666666666666667
sVwhich
p3504
F0.06666666666666667
sVqueri
p3505
F0.06666666666666667
sVactual
p3506
F0.06666666666666667
sVthe
p3507
F0.2
sVdocument
p3508
F0.06666666666666667
sVrelev
p3509
F0.06666666666666667
saa(lp3510
S'W11-0815134'
p3511
a(dp3512
Vand
p3513
F0.125
sVon
p3514
F0.125
sVrecal
p3515
F0.125
sVevalu
p3516
F0.125
sVis
p3517
F0.125
sVir
p3518
F0.125
sVprecis
p3519
F0.125
sVbase
p3520
F0.125
saa(lp3521
S'W11-0815162'
p3522
a(dp3523
Vaccord
p3524
F0.047619047619047616
sVhave
p3525
F0.047619047619047616
sVfor
p3526
F0.047619047619047616
sVmwes
p3527
F0.047619047619047616
sVof
p3528
F0.047619047619047616
sVuse
p3529
F0.047619047619047616
sVthus
p3530
F0.047619047619047616
sg58
F0.09523809523809523
sVnumber
p3531
F0.047619047619047616
sVtopic
p3532
F0.047619047619047616
sVto
p3533
F0.047619047619047616
sVas
p3534
F0.047619047619047616
sVqueri
p3535
F0.047619047619047616
sVconsid
p3536
F0.047619047619047616
sVeach
p3537
F0.047619047619047616
sVthe
p3538
F0.09523809523809523
sVdictionari
p3539
F0.047619047619047616
sVvari
p3540
F0.047619047619047616
sVmethod
p3541
F0.047619047619047616
saa(lp3542
S'W11-0815209'
p3543
a(dp3544
g16
F0.3333333333333333
sg48
F0.3333333333333333
sg49
F0.3333333333333333
saa(lp3545
S'W11-0815208'
p3546
a(dp3547
g8
F0.3333333333333333
sg16
F0.3333333333333333
sg13
F0.3333333333333333
saa(lp3548
S'W11-0815201'
p3549
a(dp3550
g16
F0.3333333333333333
sg48
F0.3333333333333333
sg49
F0.3333333333333333
saa(lp3551
S'W11-0815200'
p3552
a(dp3553
g8
F0.3333333333333333
sg16
F0.3333333333333333
sg13
F0.3333333333333333
saa(lp3554
S'W11-0815203'
p3555
a(dp3556
g16
F0.3333333333333333
sg48
F0.3333333333333333
sg49
F0.3333333333333333
saa(lp3557
S'W11-0815202'
p3558
a(dp3559
g16
F0.3333333333333333
sg48
F0.3333333333333333
sg49
F0.3333333333333333
saa(lp3560
S'W11-0815205'
p3561
a(dp3562
Vrank
p3563
F0.037037037037037035
sVtopic
p3564
F0.037037037037037035
sVio
p3565
F0.037037037037037035
sVtabl
p3566
F0.037037037037037035
sVbaselin
p3567
F0.037037037037037035
sg176
F0.037037037037037035
sVfor
p3568
F0.037037037037037035
sVsit
p3569
F0.037037037037037035
sg186
F0.037037037037037035
sVpo
p3570
F0.037037037037037035
sg9
F0.07407407407407407
sg10
F0.07407407407407407
sg11
F0.037037037037037035
sg48
F0.037037037037037035
sg49
F0.037037037037037035
sg4
F0.037037037037037035
sg14
F0.07407407407407407
sg15
F0.07407407407407407
sg16
F0.037037037037037035
sg17
F0.037037037037037035
sg18
F0.037037037037037035
sg19
F0.037037037037037035
sg20
F0.037037037037037035
saa(lp3571
S'W11-0815204'
p3572
a(dp3573
g16
F0.3333333333333333
sg48
F0.3333333333333333
sg49
F0.3333333333333333
saa(lp3574
S'W11-0815207'
p3575
a(dp3576
g16
F0.3333333333333333
sg48
F0.3333333333333333
sg49
F0.3333333333333333
saa(lp3577
S'W11-0815206'
p3578
a(dp3579
g16
F0.3333333333333333
sg48
F0.3333333333333333
sg49
F0.3333333333333333
saa(lp3580
S'W11-0815128'
p3581
a(dp3582
aa(lp3583
S'W11-0815129'
p3584
a(dp3585
Vmwes
p3586
F0.2
sVwith
p3587
F0.2
sVmanual
p3588
F0.2
sg11
F0.2
sVof
p3589
F0.2
saa(lp3590
S'W11-0815120'
p3591
a(dp3592
aa(lp3593
S'W11-0815121'
p3594
a(dp3595
Vmwes
p3596
F0.2
sVwith
p3597
F0.2
sVof
p3598
F0.2
sVnoun
p3599
F0.2
sVcompound
p3600
F0.2
saa(lp3601
S'W11-0815122'
p3602
a(dp3603
g11
F1.0
saa(lp3604
S'W11-0815123'
p3605
a(dp3606
aa(lp3607
S'W11-0815124'
p3608
a(dp3609
Vcn
p3610
F0.14285714285714285
sVmwes
p3611
F0.14285714285714285
sVof
p3612
F0.14285714285714285
sg58
F0.14285714285714285
sVwith
p3613
F0.14285714285714285
sVbest
p3614
F0.14285714285714285
sg11
F0.14285714285714285
saa(lp3615
S'W11-0815125'
p3616
a(dp3617
aa(lp3618
S'W11-0815126'
p3619
a(dp3620
Vmwes
p3621
F0.16666666666666666
sVof
p3622
F0.16666666666666666
sVtree
p3623
F0.16666666666666666
sg58
F0.16666666666666666
sVdecis
p3624
F0.16666666666666666
sVwith
p3625
F0.16666666666666666
saa(lp3626
S'W11-0815127'
p3627
a(dp3628
g11
F1.0
saa.