(dp0
Vrepresent
p1
F5.337538079701318
sVall
p2
F3.5553480614894135
sVconcept
p3
F4.248495242049359
sVgs
p4
F3.9512437185814275
sVconsider
p5
F5.337538079701318
sVtionari
p6
F5.337538079701318
sVqueri
p7
F2.0794415416798357
sVfocus
p8
F4.6443908991413725
sValthough
p9
F4.248495242049359
sVsignific
p10
F4.6443908991413725
sVcode
p11
F5.337538079701318
sV/
p12
F4.248495242049359
sVfollow
p13
F4.6443908991413725
sVgh
p14
F3.9512437185814275
sVcompact
p15
F5.337538079701318
sVwhose
p16
F5.337538079701318
sVdecid
p17
F5.337538079701318
sVspecif
p18
F3.4011973816621555
sVtv
p19
F3.9512437185814275
sVincap
p20
F5.337538079701318
sVinteract
p21
F5.337538079701318
sVts
p22
F5.337538079701318
sVarticl
p23
F4.6443908991413725
sVto
p24
F1.3862943611198906
sVdecis
p25
F4.248495242049359
sVmwe
p26
F2.302585092994046
sVpreprocess
p27
F4.6443908991413725
sV/titl
p28
F4.6443908991413725
sVsourc
p29
F5.337538079701318
sVfals
p30
F4.248495242049359
sVfeasibl
p31
F5.337538079701318
sVcandid
p32
F3.4011973816621555
sVmechan
p33
F4.6443908991413725
sVveri
p34
F4.6443908991413725
sVevert
p35
F5.337538079701318
sVexact
p36
F5.337538079701318
sVrelev
p37
F2.6390573296152584
sVlevel
p38
F4.6443908991413725
sVlist
p39
F3.5553480614894135
sVp
p40
F2.302585092994046
sVcosin
p41
F5.337538079701318
sVquick
p42
F5.337538079701318
sVwork
p43
F3.4011973816621555
sVten
p44
F4.6443908991413725
sVbe
p45
F2.4849066497880004
sVnatur
p46
F4.6443908991413725
sVresourc
p47
F4.6443908991413725
sVdirect
p48
F5.337538079701318
sVzettair
p49
F4.6443908991413725
sVpast
p50
F5.337538079701318
sVconsequ
p51
F4.6443908991413725
sVsecond
p52
F4.248495242049359
sVmonolingu
p53
F4.6443908991413725
sVfurther
p54
F4.248495242049359
sVn
p55
F3.1780538303479458
sVeven
p56
F5.337538079701318
sVindex
p57
F2.0794415416798357
sVwhat
p58
F3.9512437185814275
sVappear
p59
F5.337538079701318
sVcompar
p60
F3.1780538303479458
sVsum
p61
F5.337538079701318
sVabl
p62
F5.337538079701318
sVaccess
p63
F5.337538079701318
sVexperiment
p64
F5.337538079701318
sV;
p65
F5.337538079701318
sVmethod
p66
F3.258096538021482
sVimpact
p67
F4.6443908991413725
sVelimin
p68
F5.337538079701318
sVchose
p69
F4.6443908991413725
sVdespit
p70
F5.337538079701318
sVvariat
p71
F3.9512437185814275
sVcoeffici
p72
F4.6443908991413725
sVonli
p73
F3.4011973816621555
sVbodi
p74
F5.337538079701318
sVstudio
p75
F4.6443908991413725
sVeval
p76
F5.337538079701318
sVratio
p77
F5.337538079701318
sValong
p78
F5.337538079701318
sVbecom
p79
F5.337538079701318
sVmodifi
p80
F3.5553480614894135
sVsinc
p81
F5.337538079701318
sVinterpret
p82
F5.337538079701318
sVdice
p83
F4.248495242049359
sVsearch
p84
F4.6443908991413725
sVgenr
p85
F4.6443908991413725
sVprecis
p86
F3.4011973816621555
sVchang
p87
F5.337538079701318
sVmagnitud
p88
F5.337538079701318
sVsemant
p89
F4.6443908991413725
sVdictionari
p90
F2.3978952727983707
sVappli
p91
F4.6443908991413725
sVnewspap
p92
F5.337538079701318
sVprompt
p93
F5.337538079701318
sVtotal
p94
F3.9512437185814275
sVunit
p95
F3.5553480614894135
sVuse
p96
F1.791759469228055
sVfrom
p97
F2.5649493574615367
sVdescrib
p98
F3.9512437185814275
sVwould
p99
F4.248495242049359
sVprove
p100
F3.9512437185814275
sVtwo
p101
F4.248495242049359
sVnext
p102
F4.248495242049359
sVcall
p103
F3.258096538021482
sVcriteria
p104
F4.6443908991413725
sVtype
p105
F3.9512437185814275
sVis
p106
F1.791759469228055
sVpearc
p107
F5.337538079701318
sVmore
p108
F3.1780538303479458
sV``
p109
F4.248495242049359
sVavp
p110
F5.337538079701318
sVrelat
p111
F4.248495242049359
sVyahoo
p112
F5.337538079701318
sVtrain
p113
F4.6443908991413725
sVexamin
p114
F5.337538079701318
sVloss
p115
F3.1780538303479458
sVknown
p116
F5.337538079701318
sVhole
p117
F3.9512437185814275
sVhigh
p118
F5.337538079701318
sVarabella
p119
F4.6443908991413725
sVword
p120
F2.772588722239781
sVcalzolari
p121
F5.337538079701318
sVthis
p122
F1.791759469228055
sVprepar
p123
F4.248495242049359
sVtelescop
p124
F3.9512437185814275
sVannot
p125
F5.337538079701318
sVmj
p126
F4.6443908991413725
sVwors
p127
F4.6443908991413725
sVcan
p128
F2.5649493574615367
sVpurpos
p129
F4.6443908991413725
sVentropi
p130
F5.337538079701318
sVunderestim
p131
F5.337538079701318
sVblack_hol
p132
F4.6443908991413725
sVprocess
p133
F4.6443908991413725
sVchalleng
p134
F4.6443908991413725
sVindic
p135
F2.772588722239781
sVlema
p136
F4.6443908991413725
sVtopic
p137
F1.791759469228055
sVtag
p138
F4.248495242049359
sVpointwis
p139
F4.6443908991413725
sVexplor
p140
F5.337538079701318
sVexplos
p141
F4.6443908991413725
sVmorphosyntact
p142
F4.6443908991413725
sVattract
p143
F5.337538079701318
sVoccur
p144
F4.248495242049359
sVcontribut
p145
F4.248495242049359
sV!
p146
F5.337538079701318
sVsurfac
p147
F5.337538079701318
sVend
p148
F5.337538079701318
sVgoal
p149
F5.337538079701318
sVsit
p150
F4.6443908991413725
sVanoth
p151
F5.337538079701318
sVclassifi
p152
F4.6443908991413725
sVhow
p153
F4.6443908991413725
sVvital
p154
F5.337538079701318
sVnari
p155
F5.337538079701318
sVsever
p156
F3.9512437185814275
sVfourth
p157
F4.248495242049359
sVlexicograph
p158
F5.337538079701318
sVverifi
p159
F4.6443908991413725
sVmanmachin
p160
F5.337538079701318
sVconfid
p161
F5.337538079701318
sVmap
p162
F3.5553480614894135
sVexpress
p163
F2.772588722239781
sVrecogn
p164
F5.337538079701318
sVmay
p165
F4.248495242049359
sVafter
p166
F3.5553480614894135
sVexemplifi
p167
F5.337538079701318
sVbefor
p168
F4.6443908991413725
sVattent
p169
F5.337538079701318
sVsuch
p170
F4.248495242049359
sVassoci
p171
F3.9512437185814275
sVaverag
p172
F3.7376696182833684
sVa
p173
F1.3862943611198906
sVnoun
p174
F3.7376696182833684
sVpractic
p175
F5.337538079701318
sVthird
p176
F5.337538079701318
sVdivid
p177
F5.337538079701318
sVcorrespond
p178
F5.337538079701318
sVlemmat
p179
F5.337538079701318
sV/num
p180
F4.6443908991413725
sVcaus
p181
F5.337538079701318
sVinform
p182
F2.8903717578961645
sVso
p183
F5.337538079701318
sVworst
p184
F5.337538079701318
sV<
p185
F3.5553480614894135
sVover
p186
F3.9512437185814275
sVbecaus
p187
F3.4011973816621555
sVpaper
p188
F3.7376696182833684
sVaffect
p189
F4.6443908991413725
sVentitl
p190
F5.337538079701318
sVvari
p191
F4.6443908991413725
sVentiti
p192
F5.337538079701318
sVsuperior
p193
F5.337538079701318
sVle
p194
F5.337538079701318
sVla
p195
F5.337538079701318
sV,
p196
F0.6931471805599453
sVquantit
p197
F5.337538079701318
sVbetter
p198
F3.4011973816621555
sVcreat
p199
F3.258096538021482
sVtherefor
p200
F5.337538079701318
sVeasier
p201
F5.337538079701318
sVthem
p202
F3.4011973816621555
sVgood
p203
F5.337538079701318
sVreturn
p204
F3.7376696182833684
sVgreater
p205
F5.337538079701318
sVhandl
p206
F5.337538079701318
sVoveral
p207
F5.337538079701318
sVautomat
p208
F3.9512437185814275
sVthey
p209
F3.5553480614894135
sVhalf
p210
F5.337538079701318
sVnot
p211
F2.8903717578961645
sVthus
p212
F3.9512437185814275
sVdiscuss
p213
F4.6443908991413725
sVchoic
p214
F4.6443908991413725
sVterm
p215
F2.3978952727983707
sVname
p216
F5.337538079701318
sVl
p217
F3.7376696182833684
sVsepar
p218
F5.337538079701318
sVachiev
p219
F4.6443908991413725
sVeach
p220
F2.70805020110221
sVfound
p221
F4.248495242049359
sVhigher
p222
F4.248495242049359
sVmean
p223
F4.6443908991413725
sVsubset
p224
F5.337538079701318
sVdomain
p225
F4.6443908991413725
sVen
p226
F5.337538079701318
sVindividu
p227
F4.248495242049359
sVidea
p228
F5.337538079701318
sVprocedur
p229
F5.337538079701318
sVexpect
p230
F5.337538079701318
sVaim
p231
F3.5553480614894135
sVyear
p232
F5.337538079701318
sVour
p233
F3.7376696182833684
sVhappen
p234
F4.6443908991413725
sVextract
p235
F3.1780538303479458
sVspecial
p236
F5.337538079701318
sVbaselin
p237
F2.9444389791664403
sVshown
p238
F4.6443908991413725
sVitem
p239
F5.337538079701318
sVinfluenc
p240
F4.6443908991413725
sVresearch
p241
F4.6443908991413725
sVcontent
p242
F4.6443908991413725
sVrational
p243
F5.337538079701318
sVgot
p244
F5.337538079701318
sVmodel
p245
F5.337538079701318
sVvillavicencio
p246
F5.337538079701318
sVmanipul
p247
F5.337538079701318
sVdiffer
p248
F2.70805020110221
sVstandard
p249
F4.248495242049359
sVreason
p250
F5.337538079701318
sVbase
p251
F3.7376696182833684
sVase
p252
F5.337538079701318
sVreleas
p253
F5.337538079701318
sVlikelihood
p254
F5.337538079701318
sVsetbas
p255
F5.337538079701318
sVg
p256
F2.4849066497880004
sVcapabl
p257
F5.337538079701318
sVfrequenc
p258
F3.7376696182833684
sVcould
p259
F4.6443908991413725
sVbritish
p260
F5.337538079701318
sVfilter
p261
F5.337538079701318
sVamerican
p262
F5.337538079701318
sVplace
p263
F5.337538079701318
sVw
p264
F5.337538079701318
sVsubtl
p265
F5.337538079701318
sVassign
p266
F5.337538079701318
sVfirst
p267
F3.4011973816621555
sVorigin
p268
F3.9512437185814275
sVcarri
p269
F5.337538079701318
sVqualiti
p270
F3.4011973816621555
sVnumber
p271
F2.8903717578961645
sVrank
p272
F2.9444389791664403
sVone
p273
F3.5553480614894135
sVwill
p274
F4.6443908991413725
sVconstruct
p275
F5.337538079701318
sVpredefin
p276
F5.337538079701318
sVsmadja
p277
F5.337538079701318
sVgiven
p278
F4.248495242049359
sVweka
p279
F5.337538079701318
sVnomin
p280
F5.337538079701318
sVdata
p281
F4.248495242049359
sVtop
p282
F4.248495242049359
sVsystem
p283
F2.4849066497880004
sVleast
p284
F4.6443908991413725
sVdownsid
p285
F5.337538079701318
sVtheir
p286
F4.6443908991413725
sVcorpus
p287
F2.772588722239781
sVconveni
p288
F5.337538079701318
sVfinal
p289
F4.6443908991413725
sVnoisi
p290
F5.337538079701318
sVdictio
p291
F5.337538079701318
sVway
p292
F4.248495242049359
sVthat
p293
F1.9459101490553132
sVtool
p294
F3.5553480614894135
sVappropri
p295
F3.9512437185814275
sVpars
p296
F5.337538079701318
sVthan
p297
F3.044522437723423
sVwide
p298
F4.6443908991413725
sVb
p299
F4.6443908991413725
sVtarget
p300
F5.337538079701318
sVprovid
p301
F3.5553480614894135
sVtrec
p302
F5.337538079701318
sVtree
p303
F4.248495242049359
sVstructur
p304
F4.248495242049359
sVnevertheless
p305
F4.6443908991413725
sVr
p306
F4.6443908991413725
sVchisquar
p307
F4.248495242049359
sVwere
p308
F2.70805020110221
sVposit
p309
F3.9512437185814275
sVtoward
p310
F5.337538079701318
sVresult
p311
F1.791759469228055
sVand
p312
F1.3862943611198906
sVlowest
p313
F4.6443908991413725
sVcomput
p314
F4.248495242049359
sVentail
p315
F5.337538079701318
sVangel
p316
F4.6443908991413725
sVpro
p317
F4.6443908991413725
sVmodern
p318
F5.337538079701318
sVani
p319
F5.337538079701318
sVhave
p320
F2.9444389791664403
sVtabl
p321
F2.9444389791664403
sVneed
p322
F5.337538079701318
sVseem
p323
F5.337538079701318
sVkiesbauer
p324
F4.6443908991413725
sVengin
p325
F5.337538079701318
sVtechniqu
p326
F3.5553480614894135
sVaccuraci
p327
F4.6443908991413725
sValso
p328
F3.258096538021482
sVideal
p329
F5.337538079701318
sVexampl
p330
F4.6443908991413725
sVtake
p331
F5.337538079701318
sVwhich
p332
F3.044522437723423
sVcombin
p333
F5.337538079701318
sV=
p334
F4.6443908991413725
sVmethodolog
p335
F5.337538079701318
sVsingl
p336
F2.772588722239781
sVwcn
p337
F3.7376696182833684
sV/wf
p338
F4.248495242049359
sVreach
p339
F5.337538079701318
sVwhi
p340
F5.337538079701318
sVmost
p341
F4.6443908991413725
sVeight
p342
F5.337538079701318
sVletter
p343
F3.9512437185814275
sVcontain
p344
F2.772588722239781
sV]
p345
F5.337538079701318
sVclass
p346
F5.337538079701318
sVhereaft
p347
F5.337538079701318
sVm
p348
F3.044522437723423
sVorder
p349
F3.044522437723423
sVinde
p350
F5.337538079701318
sVdetermin
p351
F5.337538079701318
sVusual
p352
F5.337538079701318
sVsection
p353
F4.248495242049359
sVfact
p354
F5.337538079701318
sVnlp
p355
F4.248495242049359
sVlexicon
p356
F5.337538079701318
sVbomb
p357
F3.7376696182833684
sVshow
p358
F3.9512437185814275
sVtext
p359
F3.4011973816621555
sVbring
p360
F4.6443908991413725
sVmwetoolkit
p361
F5.337538079701318
sVfind
p362
F4.6443908991413725
sVinvolv
p363
F5.337538079701318
sVabsolut
p364
F5.337538079701318
sVcolloc
p365
F5.337538079701318
sVlocat
p366
F5.337538079701318
sVnois
p367
F4.6443908991413725
sVrjk
p368
F5.337538079701318
sVexplain
p369
F5.337538079701318
sVfigur
p370
F3.9512437185814275
sVshould
p371
F4.248495242049359
sVlemma
p372
F3.9512437185814275
sVtheme
p373
F5.337538079701318
sVblack
p374
F3.9512437185814275
sVanalyz
p375
F4.6443908991413725
sVfactor
p376
F5.337538079701318
sVidiosyncrat
p377
F5.337538079701318
sVdo
p378
F4.248495242049359
sVdk
p379
F5.337538079701318
sVde
p380
F5.337538079701318
sVnativ
p381
F5.337538079701318
sVincreas
p382
F4.248495242049359
sVrequir
p383
F4.248495242049359
sVh
p384
F2.5649493574615367
sVtwice
p385
F5.337538079701318
sVqc
p386
F5.337538079701318
sVstatist
p387
F4.248495242049359
sVbilingu
p388
F5.337538079701318
sVx
p389
F4.6443908991413725
sVlinguist
p390
F3.5553480614894135
sVwhere
p391
F3.9512437185814275
sVremov
p392
F5.337538079701318
sVview
p393
F5.337538079701318
sVj=
p394
F5.337538079701318
sVset
p395
F3.4011973816621555
sVspecialist
p396
F5.337538079701318
sVaccord
p397
F3.9512437185814275
sVup
p398
F5.337538079701318
sVsee
p399
F4.248495242049359
sVnum
p400
F4.6443908991413725
sVare
p401
F2.5649493574615367
sVrespons
p402
F4.6443908991413725
sVclef
p403
F4.6443908991413725
sVbest
p404
F3.258096538021482
sVsubject
p405
F4.6443908991413725
sV#
p406
F3.9512437185814275
sVdetect
p407
F4.6443908991413725
sVheterogen
p408
F5.337538079701318
sVboundari
p409
F4.6443908991413725
sVdiscoveri
p410
F4.6443908991413725
sVbehind
p411
F5.337538079701318
sVscore
p412
F3.4011973816621555
sVbetween
p413
F3.5553480614894135
sVimport
p414
F5.337538079701318
sVexperi
p415
F3.044522437723423
sVapproach
p416
F4.6443908991413725
sVattribut
p417
F5.337538079701318
sVwf
p418
F4.248495242049359
sVwe
p419
F1.791759469228055
sVcomplement
p420
F5.337538079701318
sVextens
p421
F5.337538079701318
sVentir
p422
F5.337538079701318
sVkey
p423
F5.337538079701318
sVnews
p424
F5.337538079701318
sVdecreas
p425
F4.248495242049359
sVcome
p426
F5.337538079701318
sVaddit
p427
F5.337538079701318
sVboth
p428
F3.7376696182833684
sVc
p429
F3.4011973816621555
sVhowev
p430
F4.6443908991413725
sVagainst
p431
F5.337538079701318
sVs
p432
F3.9512437185814275
sVinstanc
p433
F4.6443908991413725
sVequat
p434
F5.337538079701318
sVcontext
p435
F5.337538079701318
sVimprov
p436
F2.70805020110221
sVseri
p437
F5.337538079701318
sVwhole
p438
F4.6443908991413725
sVcn
p439
F3.4011973816621555
sVcelesti
p440
F5.337538079701318
sVpoint
p441
F4.248495242049359
sVletter_bomb
p442
F5.337538079701318
sVoverview
p443
F5.337538079701318
sVpos
p444
F4.6443908991413725
sVpermut
p445
F5.337538079701318
sVcarbon
p446
F5.337538079701318
sVtypic
p447
F5.337538079701318
sVguid
p448
F5.337538079701318
sVsummar
p449
F5.337538079701318
sVquit
p450
F5.337538079701318
sVultim
p451
F5.337538079701318
sVunderworld
p452
F4.248495242049359
sVkrenn
p453
F5.337538079701318
sVpu
p454
F5.337538079701318
sVdue
p455
F4.6443908991413725
sVbeen
p456
F3.7376696182833684
sVttest
p457
F5.337538079701318
sV|q|
p458
F4.6443908991413725
sVvalu
p459
F3.1780538303479458
sVinterest
p460
F3.9512437185814275
sVpo
p461
F4.6443908991413725
sV>
p462
F3.5553480614894135
sVdeeper
p463
F5.337538079701318
sVemphas
p464
F5.337538079701318
sVunderstand
p465
F4.6443908991413725
sVtogeth
p466
F5.337538079701318
sVlema=
p467
F4.248495242049359
sVrepres
p468
F5.337538079701318
sVpresent
p469
F3.9512437185814275
sVcase
p470
F3.9512437185814275
sVthese
p471
F3.044522437723423
sVcorpora
p472
F3.9512437185814275
sValter
p473
F5.337538079701318
sVemploy
p474
F5.337538079701318
sVdefin
p475
F5.337538079701318
sVcalcul
p476
F3.5553480614894135
sVunifi
p477
F5.337538079701318
sVaid
p478
F5.337538079701318
sVmargin
p479
F4.6443908991413725
sVobserv
p480
F5.337538079701318
sValmost
p481
F5.337538079701318
sVmetric
p482
F3.9512437185814275
sVir
p483
F2.5649493574615367
sVcanon
p484
F5.337538079701318
sVit
p485
F2.9444389791664403
sVbias
p486
F5.337538079701318
sVmotiv
p487
F5.337538079701318
sVio
p488
F4.6443908991413725
sVin
p489
F1.0986122886681098
sVrecal
p490
F3.9512437185814275
sVwordnet
p491
F5.337538079701318
sVif
p492
F3.7376696182833684
sVirrelev
p493
F5.337538079701318
sVperform
p494
F3.4011973816621555
sVmake
p495
F3.9512437185814275
sVsatisfi
p496
F5.337538079701318
sVcross
p497
F5.337538079701318
sVsame
p498
F3.7376696182833684
sVspeaker
p499
F5.337538079701318
sVlargest
p500
F5.337538079701318
sVdocument
p501
F1.791759469228055
sVcomplet
p502
F5.337538079701318
sVfinish
p503
F5.337538079701318
sVdrink
p504
F5.337538079701318
sVeffect
p505
F3.5553480614894135
sVhand
p506
F5.337538079701318
sVion
p507
F5.337538079701318
sVuser
p508
F5.337538079701318
sVmani
p509
F4.6443908991413725
sVjudgment
p510
F4.6443908991413725
sVstudi
p511
F3.9512437185814275
sVbuilt
p512
F4.6443908991413725
sVtask
p513
F3.9512437185814275
sVscenario
p514
F5.337538079701318
sVchoos
p515
F5.337538079701318
sVi
p516
F5.337538079701318
sVentri
p517
F4.6443908991413725
sVwell
p518
F4.6443908991413725
sVhubbl
p519
F3.9512437185814275
sVwithout
p520
F4.6443908991413725
sVenglish
p521
F5.337538079701318
sVnicholson
p522
F5.337538079701318
sVthe
p523
F0.6931471805599453
sVpropos
p524
F5.337538079701318
sVidentifi
p525
F3.5553480614894135
sVjust
p526
F4.6443908991413725
sVless
p527
F4.248495242049359
sVtrue
p528
F4.248495242049359
sVcompound
p529
F3.5553480614894135
sVobtain
p530
F3.044522437723423
sVbaldwin
p531
F5.337538079701318
sVlanguag
p532
F3.7376696182833684
sVprevious
p533
F4.248495242049359
sVweb
p534
F4.6443908991413725
sVhad
p535
F3.9512437185814275
sVidentif
p536
F3.5553480614894135
sVother
p537
F2.9444389791664403
sVgenerat
p538
F3.7376696182833684
sVtreatment
p539
F3.4011973816621555
sVmultiword
p540
F3.5553480614894135
sVhas
p541
F3.044522437723423
sVapplic
p542
F4.248495242049359
sVhypothesi
p543
F5.337538079701318
sVformat
p544
F5.337538079701318
sVintuit
p545
F4.6443908991413725
sVknow
p546
F5.337538079701318
sVinsert
p547
F2.9444389791664403
sVcharacterist
p548
F4.6443908991413725
sVd
p549
F2.5649493574615367
sVmeasur
p550
F3.5553480614894135
sVlike
p551
F5.337538079701318
sVsuccess
p552
F5.337538079701318
sVxtract
p553
F5.337538079701318
sVmanual
p554
F3.7376696182833684
sVcollect
p555
F3.9512437185814275
sVnecessari
p556
F4.6443908991413725
sVt
p557
F3.7376696182833684
sVpage
p558
F5.337538079701318
sVwho
p559
F4.6443908991413725
sVdeal
p560
F5.337538079701318
sVnegat
p561
F5.337538079701318
sVsuppli
p562
F5.337538079701318
sVsome
p563
F3.1780538303479458
sVpercentag
p564
F3.9512437185814275
sVpos=
p565
F4.248495242049359
sVtv_channel
p566
F5.337538079701318
sVsurpris
p567
F5.337538079701318
sVherald
p568
F4.6443908991413725
sVid=
p569
F4.248495242049359
sVimplement
p570
F4.6443908991413725
sVfor
p571
F1.6094379124341003
sVchannel
p572
F3.9512437185814275
sVavoid
p573
F5.337538079701318
sVtoken
p574
F5.337538079701318
sVper
p575
F5.337538079701318
sVestim
p576
F5.337538079701318
sVlarg
p577
F5.337538079701318
sVselect
p578
F3.7376696182833684
sVsynset
p579
F4.248495242049359
sVapplicationori
p580
F5.337538079701318
sV?
p581
F3.9512437185814275
sVrefer
p582
F5.337538079701318
sVter_bmombullettitewr_obormdbetv_xcpharnensesl
p583
F5.337538079701318
sVverbparticl
p584
F5.337538079701318
sVrun
p585
F5.337538079701318
sVbl
p586
F4.248495242049359
sVpose
p587
F5.337538079701318
sVbi
p588
F5.337538079701318
sVstem
p589
F4.6443908991413725
sVstep
p590
F3.9512437185814275
sVinvestig
p591
F3.9512437185814275
sVby
p592
F2.4849066497880004
sVearlier
p593
F5.337538079701318
sV/term
p594
F4.248495242049359
sVon
p595
F2.6390573296152584
sVabout
p596
F4.248495242049359
sVactual
p597
F5.337538079701318
sVk=
p598
F5.337538079701318
sVof
p599
F0.6931471805599453
sVmateri
p600
F4.6443908991413725
sVoc
p601
F5.337538079701318
sVmeaning
p602
F5.337538079701318
sVo
p603
F4.248495242049359
sVact
p604
F4.6443908991413725
sVor
p605
F3.258096538021482
sVconflat
p606
F4.6443908991413725
sVeffici
p607
F5.337538079701318
sVvocabulari
p608
F5.337538079701318
sVinto
p609
F3.9512437185814275
sVterminolog
p610
F4.6443908991413725
sVcompos
p611
F3.9512437185814275
sVassess
p612
F5.337538079701318
sVwordsens
p613
F5.337538079701318
sVmerg
p614
F4.6443908991413725
sVinclus
p615
F5.337538079701318
sVthere
p616
F3.7376696182833684
sVtextual
p617
F5.337538079701318
sVavail
p618
F5.337538079701318
sVlos
p619
F4.6443908991413725
sVinclud
p620
F4.6443908991413725
sVfraction
p621
F5.337538079701318
sVdisambigu
p622
F4.248495242049359
sV:
p623
F2.5649493574615367
sVwas
p624
F2.0794415416798357
sVtreat
p625
F4.248495242049359
sVanalysi
p626
F3.9512437185814275
sVan
p627
F2.70805020110221
sVform
p628
F3.5553480614894135
sVconclud
p629
F4.248495242049359
sVbut
p630
F3.9512437185814275
sVgain
p631
F2.9444389791664403
sVatom
p632
F5.337538079701318
sVhighest
p633
F4.248495242049359
sVwith
p634
F2.0794415416798357
sVconclus
p635
F5.337538079701318
sVcount
p636
F5.337538079701318
sVconcaten
p637
F4.6443908991413725
sVmade
p638
F4.6443908991413725
sVconsist
p639
F4.6443908991413725
sVpossibl
p640
F3.9512437185814275
sVwhether
p641
F4.248495242049359
sVj
p642
F5.337538079701318
sVmaximum
p643
F5.337538079701318
sVus
p644
F5.337538079701318
sVuntil
p645
F5.337538079701318
sVbelow
p646
F4.6443908991413725
sVadequ
p647
F4.248495242049359
sVthose
p648
F5.337538079701318
sVproblem
p649
F5.337538079701318
sVsimilar
p650
F5.337538079701318
sVinstead
p651
F4.6443908991413725
sVclassif
p652
F5.337538079701318
sVab
p653
F5.337538079701318
sVbigram
p654
F3.1780538303479458
sVevalu
p655
F2.5649493574615367
sVretriev
p656
F2.3978952727983707
sVrobustwsd
p657
F5.337538079701318
sVal
p658
F5.337538079701318
sVgeneral
p659
F5.337538079701318
sV''
p660
F4.248495242049359
sVap
p661
F5.337538079701318
sVas
p662
F1.791759469228055
sVexist
p663
F3.9512437185814275
sVat
p664
F3.9512437185814275
sVet
p665
F5.337538079701318
sVscore=
p666
F4.248495242049359
sVdoe
p667
F5.337538079701318
sVprobabl
p668
F5.337538079701318
sVmutual
p669
F3.9512437185814275
sV%
p670
F3.258096538021482
sVnn
p671
F3.7376696182833684
sVno
p672
F4.248495242049359
sVmwes
p673
F1.3862943611198906
sVtitl
p674
F4.6443908991413725
sVwhen
p675
F3.9512437185814275
sVdetail
p676
F4.6443908991413725
sVfield
p677
F5.337538079701318
sVvalid
p678
F4.248495242049359
sVrole
p679
F3.9512437185814275
sVfutur
p680
F4.6443908991413725
sVtest
p681
F4.6443908991413725
sVtie
p682
F4.6443908991413725
sVout
p683
F5.337538079701318
sVsequenc
p684
F3.9512437185814275
sVbriefli
p685
F5.337538079701318
sVrecent
p686
F4.6443908991413725
sVconsid
p687
F3.1780538303479458
sVreduc
p688
F5.337538079701318
sVbcn
p689
F3.5553480614894135
sVe
p690
F4.248495242049359
sVlead
p691
F5.337538079701318
sValgorithm
p692
F5.337538079701318
sVcode=
p693
F4.248495242049359
sVportion
p694
F5.337538079701318
sVu
p695
F4.248495242049359
sVpotenti
p696
F5.337538079701318
sVtime
p697
F4.248495242049359
sVdegrad
p698
F4.6443908991413725
s.