(lp0
(lp1
S'X96-1048151'
p2
a(dp3
Vheavy
p4
F1.0
sVand
p5
F1.0
sVall
p6
F1.0
sV,
p7
F3.0
sVas
p8
F2.0
sVexpect
p9
F1.0
sVin
p10
F2.0
sVproper
p11
F2.0
sVslots
p12
F1.0
sVcanonical
p13
F1.0
sVslot
p14
F2.0
sVdepending
p15
F1.0
sV(
p16
F1.0
sVsince
p17
F1.0
sVne
p18
F1.0
sVrecognizing
p19
F1.0
sVorg_descriptor
p20
F1.0
sVexcept
p21
F1.0
sVemphasis
p22
F1.0
sVstring
p23
F1.0
sVform
p24
F1.0
sVpertitle
p25
F1.0
sVT-FLOAT
p26
F1.0
sVon
p27
F2.0
sVtask
p28
F2.0
sVnoun
p29
F1.0
sVplaces
p30
F1.0
sVphrases
p31
F1.0
sVthe
p32
F3.0
sVor
p33
F1.0
sVfillers
p34
F1.0
sVnames
p35
F1.0
saa(lp36
S'X96-104878'
p37
a(dp38
Vand
p39
F1.0
sVbecause
p40
F1.0
sVsystem
p41
F1.0
sVdurham
p42
F1.0
sVhave
p43
F1.0
sVuse
p44
F1.0
sVtheir
p45
F1.0
sVhad
p46
F1.0
sg7
F2.0
sVto
p47
F1.0
sVmuch
p48
F1.0
sVperformance
p49
F1.0
sV's
p50
F1.0
sVintended
p51
F1.0
sVthat
p52
F2.0
sVcompany
p53
F1.0
sVeffect
p54
F1.0
sVlists
p55
F2.0
sVreported
p56
F1.0
sVbut
p57
F1.0
sVthey
p58
F2.0
sVnot
p59
F1.0
sVT-FLOAT
p60
F1.0
sVon
p61
F1.0
sVgazetteer
p62
F1.0
sVname
p63
F1.0
sVdid
p64
F2.0
sVof
p65
F1.0
sVuniversity
p66
F1.0
sVn't
p67
F1.0
sVfound
p68
F1.0
sVthe
p69
F2.0
saa(lp70
S'X96-104879'
p71
a(dp72
Vand
p73
F1.0
sVless
p74
F1.0
sVexpressions
p75
F1.0
sV%
p76
F1.0
sVT-INT
p77
F1.0
sVfor
p78
F2.0
sVto
p79
F1.0
sg7
F2.0
sVmajority
p80
F1.0
sVsystems
p81
F1.0
sVwas
p82
F1.0
sVmonetary
p83
F1.0
sVpersons
p84
F1.0
sVscores
p85
F1.0
sVthan
p86
F1.0
sVdates
p87
F1.0
sVof
p88
F1.0
sVequal
p89
F1.0
sVlarge
p90
F1.0
sVT-FLOAT
p91
F1.0
sVerror
p92
F1.0
sVthe
p93
F2.0
sVor
p94
F1.0
saa(lp95
S'X96-104876'
p96
a(dp97
Vand
p98
F1.0
sVlexicon
p99
F1.0
sVis
p100
F1.0
sVknown
p101
F1.0
sVare
p102
F1.0
sVin
p103
F1.0
sVcomparative
p104
F1.0
sVT-FLOAT
p105
F1.0
sVbbn
p106
F1.0
sVconfiguration
p107
F2.0
sVbaseline
p108
F1.0
sg7
F1.0
sVwhich
p109
F1.0
sVtest
p110
F1.0
sVperformance
p111
F1.0
sVused
p112
F1.0
sVnature
p113
F1.0
sVvery
p114
F1.0
sVdifferences
p115
F1.0
sVbut
p116
F1.0
sVnot
p117
F1.0
sVdifference
p118
F1.0
sVexact
p119
F1.0
sVthan
p120
F1.0
sVa
p121
F2.0
sVof
p122
F1.0
sVlarger
p123
F1.0
sVconducted
p124
F1.0
sVsmall
p125
F1.0
sVthe
p126
F5.0
sVexperimental
p127
F1.0
saa(lp128
S'X96-104877'
p129
a(dp130
Vbbn
p131
F1.0
sVsra
p132
F1.0
sVorganization
p133
F1.0
sVtype
p134
F1.0
sVdifferences
p135
F1.0
sg7
F1.0
sVtwo
p136
F1.0
sVT-FLOAT
p137
F1.0
sVas
p138
F1.0
sVexperiment
p139
F1.0
sVare
p140
F1.0
sVin
p141
F1.0
sVperformance
p142
F1.0
sVthe
p143
F4.0
sVonly
p144
F1.0
sVwith
p145
F2.0
sVbetween
p146
F1.0
sVconfigurations
p147
F1.0
saa(lp148
S'X96-104874'
p149
a(dp150
g121
F1.0
sVand
p151
F1.0
sVcompared
p152
F1.0
sVbaseline
p153
F1.0
sVpoint
p154
F2.0
sVrecall
p155
F1.0
sVof
p156
F1.0
sVthree
p157
F1.0
sVone
p158
F1.0
sVto
p159
F1.0
sVdecrease
p160
F2.0
sVT-FLOAT
p161
F1.0
sVprecision
p162
F1.0
sVin
p163
F3.0
sVresulted
p164
F1.0
sVperformance
p165
F1.0
sVthe
p166
F3.0
sVconfiguration
p167
F2.0
sg7
F1.0
sVexperimental
p168
F1.0
sVsystem
p169
F1.0
saa(lp170
S'X96-104875'
p171
a(dp172
Von
p173
F1.0
sVidentifying
p174
F1.0
sVoccurred
p175
F1.0
sVorganizations
p176
F1.0
sVonly
p177
F1.0
sVin
p178
F1.0
sVperformance
p179
F1.0
sVthe
p180
F1.0
sVchanges
p181
F1.0
sVT-FLOAT
p182
F1.0
saa(lp183
S'X96-104872'
p184
a(dp185
Vand
p186
F2.0
sVabbreviated
p187
F1.0
sVpeople
p188
F1.0
sVtext
p189
F1.0
sVis
p190
F1.0
sVdrawbacks
p191
F1.0
sVsome
p192
F1.0
sVit
p193
F1.0
sVone
p194
F1.0
sVas
p195
F1.0
sVnames
p196
F4.0
sVin
p197
F1.0
sVT-FLOAT
p198
F3.0
sVhandled
p199
F1.0
sVneeded
p200
F1.0
sV)
p201
F1.0
sg16
F1.0
sVthere
p202
F1.0
sg7
F7.0
sVthan
p203
F1.0
sVto
p204
F1.0
sVlookup
p205
F1.0
sVlocation
p206
F1.0
sV:
p207
F1.0
sVmatch
p208
F1.0
sVcommon
p209
F1.0
sVbe
p210
F3.0
sVcomplete
p211
F2.0
sVform
p212
F1.0
sVetc
p213
F1.0
sVmay
p214
F4.0
sVcover
p215
F2.0
sVlists
p216
F1.0
sValthough
p217
F1.0
sVnot
p218
F4.0
sVe
p219
F1.0
sVan
p220
F1.0
sVby
p221
F1.0
sVon
p222
F1.0
sVrealized
p223
F1.0
sVrecourse
p224
F1.0
sVname
p225
F3.0
sVg
p226
F1.0
sVof
p227
F2.0
sVlist
p228
F2.0
sVwill
p229
F1.0
sVmore
p230
F1.0
sVperson
p231
F1.0
sVcan
p232
F1.0
sVorganization
p233
F2.0
sVthe
p234
F5.0
sVfirst
p235
F1.0
sVare
p236
F1.0
saa(lp237
S'X96-104873'
p238
a(dp239
Vruns
p240
F1.0
sVmade
p241
F1.0
sVrecourse
p242
F1.0
sVthat
p243
F1.0
sVT-FLOAT
p244
F1.0
sVmake
p245
F1.0
sVcomparing
p246
F1.0
sVlists
p247
F1.0
sVby
p248
F2.0
sVseen
p249
F1.0
sVto
p250
F1.0
sVsra
p251
F1.0
sVcan
p252
F1.0
sVin
p253
F1.0
sVperformance
p254
F1.0
sVthe
p255
F1.0
sVdifference
p256
F1.0
sVis
p257
F1.0
sVtwo
p258
F1.0
saa(lp259
S'X96-104870'
p260
a(dp261
Vand
p262
F2.0
sVbe
p263
F1.0
sVor
p264
F1.0
sVpunctuation
p265
F1.0
sVhave
p266
F1.0
sVcommas
p267
F1.0
sg121
F1.0
sVeven
p268
F1.0
sVlong
p269
F1.0
sVquite
p270
F1.0
sValso
p271
F1.0
sVas
p272
F1.0
sVcomplex
p273
F1.0
sVampersand
p274
F1.0
sVcan
p275
F2.0
sVthey
p276
F1.0
sVsuch
p277
F1.0
sVT-FLOAT
p278
F1.0
sVan
p279
F1.0
sVinternal
p280
F1.0
saa(lp281
S'X96-104871'
p282
a(dp283
Vthem
p284
F1.0
sVfrom
p285
F2.0
sVespecially
p286
F1.0
sVperson
p287
F1.0
sVof
p288
F1.0
sVis
p289
F1.0
sVsometimes
p290
F1.0
sVit
p291
F1.0
sg7
F1.0
sVto
p292
F1.0
sVother
p293
F1.0
sVnames
p294
F2.0
sVdistinguish
p295
F1.0
sVT-FLOAT
p296
F1.0
sVtypes
p297
F1.0
sVdifficult
p298
F1.0
saa(lp299
S'X96-1048154'
p300
a(dp301
Vsentence
p302
F1.0
sVrelate
p303
F1.0
sVis
p304
F2.0
sVartists
p305
F1.0
sV``
p306
F2.0
sVpieces
p307
F1.0
sVas
p308
F1.0
sVidentify
p309
F1.0
sVrelations
p310
F1.0
sVin
p311
F3.0
sVinformation
p312
F1.0
sVbased
p313
F1.0
sVto
p314
F2.0
sVagency
p315
F2.0
sVsame
p316
F1.0
sVcreative
p317
F1.0
sVgrammatical
p318
F1.0
sVhollywood
p319
F1.0
sVstructures
p320
F1.0
sVpredicate
p321
F1.0
sVbig
p322
F1.0
sVsuch
p323
F1.0
sVneeded
p324
F1.0
sVthose
p325
F1.0
sg121
F1.0
sVtalent
p326
F1.0
sVnominals
p327
F1.0
sVof
p328
F2.0
sVanalysis
p329
F1.0
sVT-FLOAT
p330
F1.0
sVorder
p331
F1.0
saa(lp332
S'X96-1048155'
p333
a(dp334
Vrelationships
p335
F1.0
sVto
p336
F1.0
sVof
p337
F1.0
sVis
p338
F1.0
sVanalysis
p339
F1.0
sVneeded
p340
F1.0
sVdiscourse
p341
F1.0
sVidentify
p342
F1.0
sVin
p343
F1.0
sVT-FLOAT
p344
F1.0
sVorder
p345
F1.0
sVstructure
p346
F1.0
sVlong-distance
p347
F1.0
saa(lp348
S'X96-1048138'
p349
a(dp350
Vinto
p351
F1.0
sVinsight
p352
F1.0
sVsome
p353
F1.0
sVsites
p354
F1.0
sVwalkthrough
p355
F1.0
sVin
p356
F1.0
sVaspects
p357
F1.0
sVT-FLOAT
p358
F1.0
sVdominant
p359
F1.0
sVsystem
p360
F1.0
sVtheir
p361
F1.0
sVprovides
p362
F1.0
sVperformance
p363
F2.0
sV's
p364
F1.0
sVcoreference
p365
F1.0
sVthat
p366
F2.0
sVarticle
p367
F2.0
sVan
p368
F1.0
sVby
p369
F1.0
sVon
p370
F2.0
sVtask
p371
F1.0
sVof
p372
F2.0
sVanalysis
p373
F1.0
sVparticipating
p374
F1.0
sVwere
p375
F1.0
sVthe
p376
F3.0
saa(lp377
S'X96-1048139'
p378
a(dp379
Vand
p380
F1.0
sVall
p381
F1.0
sVlinks
p382
F1.0
sVindividual
p383
F2.0
sVreferences
p384
F1.0
sVare
p385
F1.0
sVdozen
p386
F1.0
sVT-INT
p387
F2.0
sVcontains
p388
F1.0
sg7
F1.0
sVapproximately
p389
F1.0
sVto
p390
F1.0
sVcoreference
p391
F1.0
sVwhich
p392
F1.0
sVbut
p393
F1.0
sVpersons
p394
F1.0
sVwords
p395
F1.0
sVarticle
p396
F1.0
sVT-FLOAT
p397
F1.0
sg121
F1.0
sVorganizations
p398
F1.0
sVabout
p399
F2.0
sVof
p400
F1.0
sVthe
p401
F1.0
sVor
p402
F1.0
saa(lp403
S'X96-1048134'
p404
a(dp405
Vand
p406
F2.0
sVco
p407
F1.0
sVsimple
p408
F1.0
sVsome
p409
F1.0
sVresults
p410
F1.0
sV''
p411
F1.0
sVwalkthrough
p412
F1.0
sVsubcategorize
p413
F1.0
sVplanning
p414
F1.0
sVdesign
p415
F1.0
sVcommittee
p416
F1.0
sVin
p417
F1.0
sVT-FLOAT
p418
F1.0
sVany
p419
F1.0
sVT-INT
p420
F1.0
sVmarkables
p421
F1.0
sg7
F1.0
sVlinkages
p422
F1.0
sVto
p423
F3.0
sVmuc
p424
F1.0
sVevaluation
p425
F1.0
sVfairly
p426
F1.0
sV``
p427
F1.0
sVaspects
p428
F1.0
sVway
p429
F1.0
sVnotation
p430
F1.0
sVnot
p431
F1.0
sVarticle
p432
F1.0
sVdata
p433
F1.0
sVannotation
p434
F1.0
sVon
p435
F2.0
sVtask
p436
F1.0
sVof
p437
F2.0
sVkeep
p438
F1.0
sVdecided
p439
F1.0
sVthe
p440
F4.0
saa(lp441
S'X96-1048135'
p442
a(dp443
Vand
p444
F1.0
sVuseful
p445
F1.0
sVone
p446
F2.0
sVcurrency
p447
F1.0
sVas
p448
F1.0
sVindividual
p449
F1.0
sVidentify
p450
F1.0
sVsemantic
p451
F1.0
sVT-FLOAT
p452
F2.0
sVfrom
p453
F1.0
sVwould
p454
F1.0
sVetc
p455
F1.0
sg201
F1.0
sg16
F1.0
sVequivalence
p456
F1.0
sVtwo
p457
F1.0
sVto
p458
F2.0
sVlocation
p459
F1.0
sVcoreference
p460
F2.0
sVtype
p461
F2.0
sVbe
p462
F1.0
sg7
F5.0
sVorganization
p463
F1.0
sVdistinguish
p464
F1.0
sVgeneral
p465
F1.0
sVclass
p466
F2.0
sg121
F1.0
sVfor
p467
F1.0
sVof
p468
F1.0
sVperson
p469
F1.0
sVtime
p470
F1.0
sVattributes
p471
F1.0
sVthe
p472
F3.0
sVwhole
p473
F1.0
saa(lp474
S'X96-1048136'
p475
a(dp476
Vuseful
p477
F1.0
sVpronoun
p478
F1.0
sVit
p479
F1.0
sVidentify
p480
F1.0
sVin
p481
F1.0
sVproper
p482
F1.0
sVphrase
p483
F3.0
sVT-FLOAT
p484
F2.0
sVits
p485
F1.0
sg201
F1.0
sVwould
p486
F1.0
sVto
p487
F1.0
sVpersonal
p488
F1.0
sg16
F1.0
sVequivalence
p489
F1.0
sVdefinite
p490
F1.0
sg7
F5.0
sVgrammatical
p491
F1.0
sVnp
p492
F1.0
sVtype
p493
F1.0
sVbe
p494
F1.0
sVsingular
p495
F1.0
sVclass
p496
F1.0
sVnoun
p497
F3.0
sVfor
p498
F1.0
sVetc
p499
F1.0
sVcommon
p500
F2.0
sVeach
p501
F1.0
sVbare
p502
F1.0
sVthe
p503
F1.0
saa(lp504
S'X96-1048137'
p505
a(dp506
Vdetailed
p507
F1.0
sVdo
p508
F1.0
sVminimize
p509
F1.0
sVmakes
p510
F1.0
sVdecision
p511
F1.0
sVit
p512
F1.0
sVanalysis
p513
F1.0
sVresults
p514
F1.0
sVto
p515
F2.0
sVT-FLOAT
p516
F1.0
sVof
p517
F1.0
sVquantitative
p518
F1.0
sVthe
p519
F3.0
sVeffort
p520
F1.0
sVannotation
p521
F1.0
sVdifficult
p522
F1.0
saa(lp523
S'X96-1048130'
p524
a(dp525
Vprogram
p526
F1.0
sg7
F1.0
sV''
p527
F1.0
sVin
p528
F1.0
sVT-FLOAT
p529
F1.0
sVscoring
p530
F2.0
sVto
p531
F1.0
sVtwo
p532
F1.0
sVT-INT
p533
F1.0
sVother
p534
F1.0
sVannotations
p535
F1.0
sVscored
p536
F1.0
sV``
p537
F1.0
sVnormal
p538
F1.0
sVwere
p539
F1.0
sVprepared
p540
F1.0
sVkey
p541
F1.0
sVusing
p542
F1.0
sVresponse
p543
F1.0
sVarticles
p544
F1.0
sVindependently
p545
F1.0
sVversions
p546
F1.0
sVof
p547
F2.0
sVmanual
p548
F1.0
sVagainst
p549
F1.0
sVmode
p550
F1.0
sVeach
p551
F1.0
sVthe
p552
F4.0
saa(lp553
S'X96-1048131'
p554
a(dp555
Vand
p556
F1.0
sVbe
p557
F1.0
sg76
F2.0
sVT-INT
p558
F2.0
sVof
p559
F1.0
sVtwo
p560
F1.0
sVagreement
p561
F1.0
sVto
p562
F1.0
sVamount
p563
F1.0
sVannotators
p564
F1.0
sVprecision
p565
F1.0
sVbetween
p566
F1.0
sVfound
p567
F1.0
sVthe
p568
F2.0
sVwas
p569
F1.0
sVT-FLOAT
p570
F1.0
sVrecall
p571
F1.0
saa(lp572
S'X96-1048132'
p573
a(dp574
Vand
p575
F1.0
sVwhen
p576
F1.0
sVguidelines
p577
F1.0
sVnumber
p578
F1.0
sVan
p579
F1.0
sVincluding
p580
F1.0
sVarticle
p581
F1.0
sVT-FLOAT
p582
F1.0
sVdecisions
p583
F1.0
sVdifferent
p584
F2.0
sg76
F1.0
sVfactors
p585
F1.0
sVthere
p586
F1.0
sVcontributed
p587
F1.0
sg7
F5.0
sVT-INT
p588
F1.0
sVtext
p589
F1.0
sVwas
p590
F2.0
sVto
p591
F1.0
sVthat
p592
F1.0
sVdisagreement
p593
F1.0
sVsloppy
p594
F1.0
sVsubjective
p595
F1.0
sVcoreferential
p596
F1.0
sVusing
p597
F1.0
sVvague
p598
F1.0
sVnps
p599
F1.0
sg121
F1.0
sVambiguous
p600
F1.0
sVinterpretations
p601
F1.0
sVportions
p602
F1.0
sVoverlooking
p603
F1.0
sVof
p604
F4.0
sVlarge
p605
F1.0
sVetc
p606
F1.0
sVmaking
p607
F1.0
sVthe
p608
F3.0
saa(lp609
S'X96-1048133'
p610
a(dp611
Vand
p612
F2.0
sVerrors
p613
F1.0
sVto
p614
F2.0
sVpertained
p615
F1.0
sVdefinite
p616
F1.0
sVnominals
p617
F1.0
sg7
F1.0
sVmost
p618
F1.0
sVpronouns
p619
F1.0
sVbare
p620
F1.0
sVdescriptions
p621
F1.0
sVhuman
p622
F1.0
sVnot
p623
F1.0
sVT-FLOAT
p624
F1.0
sVnames
p625
F1.0
saa(lp626
S'X96-1048233'
p627
a(dp628
Vfiltering
p629
F1.0
sVtext
p630
F1.0
sVhigh
p631
F1.0
sVas
p632
F2.0
sVin
p633
F2.0
sg76
F2.0
sVfor
p634
F1.0
sg201
F2.0
sg16
F2.0
sg7
F1.0
sVT-INT
p635
F5.0
sVth
p636
F2.0
sVmuc
p637
F1.0
sVprecision
p638
F2.0
sVpercentile
p639
F2.0
sVscores
p640
F1.0
sVwith
p641
F2.0
sVthe
p642
F2.0
sVrecall
p643
F2.0
sVwere
p644
F1.0
sVT-FLOAT
p645
F1.0
sVor
p646
F1.0
saa(lp647
S'X96-1048232'
p648
a(dp649
Vand
p650
F1.0
sVrelevant
p651
F1.0
sVnonrelevant
p652
F1.0
sVclassic
p653
F1.0
sVtext
p654
F1.0
sVmetric
p655
F1.0
sVtexts
p656
F1.0
sVvia
p657
F1.0
sVare
p658
F1.0
sVinformation
p659
F1.0
sVfrom
p660
F1.0
sVfor
p661
F1.0
sg7
F1.0
sVtheir
p662
F1.0
sVdistinguishing
p663
F1.0
sVsystems
p664
F1.0
sVwhich
p665
F1.0
sVperformance
p666
F1.0
sVfiltering
p667
F1.0
sVprecision
p668
F1.0
sVuses
p669
F1.0
sVmeasured
p670
F1.0
sVT-FLOAT
p671
F1.0
sVon
p672
F1.0
sVof
p673
F1.0
sVrecall
p674
F1.0
sVdefinitions
p675
F1.0
sVthe
p676
F2.0
sVretrieval
p677
F1.0
saa(lp678
S'X96-1048231'
p679
a(dp680
g121
F1.0
sVused
p681
F1.0
sVfor
p682
F1.0
sVtexts
p683
F1.0
sVrelevant
p684
F1.0
sg16
F1.0
sVof
p685
F1.0
sVhad
p686
F1.0
sg201
F1.0
sVproportion
p687
F1.0
sVT-INT
p688
F1.0
sVmuch
p689
F1.0
sVmuc
p690
F1.0
sVsets
p691
F1.0
sVtest
p692
F1.0
sVthe
p693
F1.0
sVT-FLOAT
p694
F1.0
sVhigher
p695
F1.0
saa(lp696
S'X96-1048230'
p697
a(dp698
Vand
p699
F2.0
sVcomparable
p700
F1.0
sVmanagement
p701
F1.0
sVmuc
p702
F2.0
sVtst
p703
F2.0
sVrichness
p704
F1.0
sVof
p705
F1.0
sVis
p706
F1.0
sV``
p707
F4.0
sVto
p708
F1.0
sVset
p709
F2.0
sVT-FLOAT
p710
F1.0
sVtemplate
p711
F1.0
sVsuccession
p712
F1.0
sVtest
p713
F2.0
sVthe
p714
F3.0
sVintentional
p715
F1.0
sVT-INT
p716
F4.0
sVstructure
p717
F1.0
saa(lp718
S'X96-1048237'
p719
a(dp720
Vand
p721
F1.0
sVall
p722
F1.0
sVfiltering
p723
F1.0
sVshow
p724
F1.0
sVtext
p725
F2.0
sg7
F1.0
sVdetection
p726
F1.0
sVindividual
p727
F1.0
sVin
p728
F1.0
sVrow
p729
F2.0
sVslot
p730
F1.0
sVinformation
p731
F1.0
sVrows
p732
F1.0
sVextraction
p733
F1.0
sg201
F1.0
sg16
F1.0
sVwhereas
p734
F1.0
sVsystem
p735
F2.0
sVto
p736
F2.0
sVscore
p737
F1.0
sVdocument
p738
F1.0
sVshows
p739
F1.0
sVdo
p740
F2.0
sV's
p741
F2.0
sVability
p742
F2.0
sVobjects
p743
F1.0
sVreport
p744
F1.0
sVT-FLOAT
p745
F1.0
sVfilter
p746
F1.0
sVthe
p747
F6.0
saa(lp748
S'X96-1048236'
p749
a(dp750
Vand
p751
F1.0
sVshown
p752
F1.0
sVfiltering
p753
F1.0
sVfigure
p754
F1.0
sVfor
p755
F1.0
sVtext
p756
F1.0
sVresults
p757
F1.0
sg7
F1.0
sVT-INT
p758
F4.0
sVare
p759
F1.0
sVmuc
p760
F3.0
sVin
p761
F1.0
sVthe
p762
F1.0
sVT-FLOAT
p763
F1.0
saa(lp764
S'X96-1048235'
p765
a(dp766
g121
F1.0
sVon
p767
F1.0
sVset
p768
F1.0
sVgroup
p769
F1.0
sVof
p770
F1.0
sVis
p771
F1.0
sVhowever
p772
F1.0
sg7
F1.0
sVbetter
p773
F1.0
sVT-INT
p774
F1.0
sVas
p775
F1.0
sVsystems
p776
F1.0
sVmuc
p777
F1.0
sVtest
p778
F1.0
sVperformance
p779
F1.0
sVthe
p780
F2.0
sVT-FLOAT
p781
F1.0
saa(lp782
S'X96-1048234'
p783
a(dp784
Vand
p785
F3.0
sVupper
p786
F1.0
sVresults
p787
F1.0
sVsee
p788
F1.0
sVin
p789
F3.0
sVseen
p790
F1.0
sg201
F1.0
sg16
F1.0
sVT-INT
p791
F5.0
sVscore
p792
F1.0
sVperformance
p793
F1.0
sVtst
p794
F2.0
sVsections
p795
F1.0
sVbe
p796
F1.0
sVtradeoffs
p797
F1.0
sVappendix
p798
F1.0
sV[
p799
F1.0
sV]
p800
F1.0
sVT-FLOAT
p801
F1.0
sVon
p802
F1.0
sg226
F1.0
sVof
p803
F1.0
sVbounds
p804
F1.0
sVreports
p805
F1.0
sVcan
p806
F1.0
sVthe
p807
F1.0
sVsimilar
p808
F1.0
saa(lp809
S'X96-1048239'
p810
a(dp811
Vfiltering
p812
F1.0
sVtext
p813
F1.0
sVis
p814
F1.0
sVnumber
p815
F1.0
sVan
p816
F1.0
sVaccounts
p817
F1.0
sVin
p818
F1.0
sVinformation
p819
F1.0
sVdifferent
p820
F1.0
sVfrom
p821
F1.0
sVfor
p822
F1.0
sVlatter
p823
F1.0
sVextraction
p824
F1.0
sVtemplate
p825
F1.0
sVformula
p826
F1.0
sV;
p827
F1.0
sVthat
p828
F1.0
sVspurious
p829
F1.0
sVprecision
p830
F2.0
sVincludes
p831
F1.0
sVgenerated
p832
F1.0
sVT-FLOAT
p833
F1.0
sVdefinition
p834
F3.0
sVfills
p835
F1.0
sVof
p836
F3.0
sVelement
p837
F1.0
sVthe
p838
F5.0
saa(lp839
S'X96-1048238'
p840
a(dp841
Vand
p842
F3.0
sVovergeneration
p843
F1.0
sg7
F7.0
sVT-FLOAT
p844
F1.0
sVfill
p845
F1.0
sVinformation
p846
F1.0
sVfor
p847
F1.0
sg201
F1.0
sg16
F1.0
sVtwo
p848
F1.0
sVper
p849
F1.0
sVextraction
p850
F1.0
sVother
p851
F1.0
sVseveral
p852
F1.0
sVmore
p853
F1.0
sVused
p854
F1.0
sVf-measure
p855
F1.0
sVmeasures
p856
F1.0
sVoverall
p857
F1.0
sVprecision
p858
F1.0
sVdiagnostic
p859
F1.0
sVones
p860
F2.0
sVsubstitution
p861
F1.0
sVresponse
p862
F1.0
sVinclude
p863
F1.0
sVundergeneration
p864
F1.0
sVrecall
p865
F1.0
sVerror
p866
F1.0
sVthe
p867
F2.0
saa(lp868
S'X96-1048294'
p869
a(dp870
Vrepresent
p871
F1.0
sVset
p872
F1.0
sVas
p873
F3.0
sVin
p874
F2.0
sVits
p875
F1.0
sVissues
p876
F1.0
sVcurrent
p877
F1.0
sValternate
p878
F1.0
sg7
F5.0
sVconjoined
p879
F1.0
sVpresents
p880
F1.0
sVto
p881
F1.0
sVfinally
p882
F1.0
sVambiguity
p883
F1.0
sVcase
p884
F1.0
sVmultiple
p885
F1.0
sVnotation
p886
F1.0
sVreferential
p887
F1.0
sVsuch
p888
F1.0
sVT-FLOAT
p889
F1.0
sVnps
p890
F1.0
sg121
F1.0
sVof
p891
F2.0
sVinability
p892
F1.0
sVantecedents
p893
F2.0
sVthe
p894
F2.0
sVor
p895
F1.0
saa(lp896
S'X96-104869'
p897
a(dp898
g121
F1.0
sVor
p899
F1.0
sVvaried
p900
F1.0
sVform
p901
F1.0
sVof
p902
F2.0
sVT-FLOAT
p903
F1.0
sg7
F3.0
sVgeneral
p904
F1.0
sVtheir
p905
F1.0
sVmixture
p906
F1.0
sVnames
p907
F1.0
sVnouns
p908
F1.0
sVin
p909
F1.0
sVproper
p910
F1.0
sVorganization
p911
F1.0
sVthe
p912
F1.0
sVvocabulary
p913
F1.0
sVconsisting
p914
F1.0
sVtwo
p915
F1.0
sVare
p916
F1.0
saa(lp917
S'X96-104868'
p918
a(dp919
Vand
p920
F1.0
sVall
p921
F2.0
sVindicated
p922
F1.0
sVas
p923
F1.0
sVnames
p924
F4.0
sVin
p925
F1.0
sVtable
p926
F1.0
sVfew
p927
F1.0
sg7
F2.0
sVbetter
p928
F2.0
sVT-INT
p929
F1.0
sVlocation
p930
F2.0
sVsystems
p931
F2.0
sVbut
p932
F1.0
sVthan
p933
F2.0
sg121
F1.0
sVon
p934
F4.0
sVidentifying
p935
F2.0
sVperson
p936
F1.0
sVorganization
p937
F2.0
sVT-FLOAT
p938
F1.0
sVor
p939
F1.0
sVperformed
p940
F2.0
saa(lp941
S'X96-104865'
p942
a(dp943
Vtagged
p944
F1.0
sVright
p945
F1.0
sVcertain
p946
F1.0
sVguidelines
p947
F1.0
sVresults
p948
F1.0
sVas
p949
F2.0
sVin
p950
F2.0
sVT-FLOAT
p951
F1.0
sVif
p952
F1.0
sVdepend
p953
F1.0
sVwould
p954
F2.0
sg201
F1.0
sVdistinctions
p955
F1.0
sVwhen
p956
F1.0
sg7
F1.0
sVbetter
p957
F1.0
sVthemselves
p958
F1.0
sVbe
p959
F2.0
sVsuch
p960
F1.0
sVstring
p961
F1.0
sg121
F1.0
sVspan
p962
F1.0
sVboundary
p963
F1.0
sVname
p964
F1.0
sVcase
p965
F1.0
sVon
p966
F1.0
sVtask
p967
F1.0
sVfor
p968
F1.0
sVidentifying
p969
F1.0
sVdid
p970
F1.0
sVn't
p971
F1.0
sVsituations
p972
F1.0
sVcase-insensitive
p973
F1.0
sVorganization
p974
F1.0
sVthe
p975
F4.0
sVslightly
p976
F1.0
saa(lp977
S'X96-104864'
p978
a(dp979
g121
F1.0
sVrepresents
p980
F1.0
sVf-measure
p981
F1.0
sVbaseline
p982
F1.0
sVthat
p983
F1.0
sVT-FLOAT
p984
F1.0
sVofficial
p985
F1.0
sVT-INT
p986
F1.0
sV-point
p987
F1.0
sVdecrease
p988
F1.0
sVresult
p989
F1.0
sVfrom
p990
F1.0
sVthe
p991
F1.0
sVon
p992
F1.0
sVtheir
p993
F1.0
sVnearly
p994
F1.0
saa(lp995
S'X96-104867'
p996
a(dp997
Vand
p998
F1.0
sg76
F1.0
sVnames
p999
F1.0
sVthat
p1000
F2.0
sValmost
p1001
F1.0
sVof
p1002
F2.0
sVhalf
p1003
F1.0
sVtags
p1004
F1.0
sVas
p1005
F1.0
sVnote
p1006
F1.0
sVT-INT
p1007
F1.0
sVenamex
p1008
F1.0
sVnearly
p1009
F1.0
sVwere
p1010
F2.0
sVorganization
p1011
F1.0
sVthe
p1012
F1.0
sVT-FLOAT
p1013
F1.0
sVthose
p1014
F1.0
sVsubcategofized
p1015
F1.0
saa(lp1016
S'X96-104866'
p1017
a(dp1018
Vand
p1019
F2.0
sVon
p1020
F1.0
sVtask
p1021
F1.0
sVaspects
p1022
F1.0
sVfor
p1023
F1.0
sVshow
p1024
F1.0
sVof
p1025
F1.0
sVsome
p1026
F1.0
sVne
p1027
F1.0
sVresults
p1028
F1.0
sVsample
p1029
F1.0
sVT-INT
p1030
F2.0
sVtag
p1031
F1.0
sVfigures
p1032
F1.0
sVvalues
p1033
F1.0
sVvarious
p1034
F1.0
sVthe
p1035
F2.0
sVtype
p1036
F1.0
sVT-FLOAT
p1037
F1.0
sVelements
p1038
F1.0
sVsize
p1039
F1.0
saa(lp1040
S'X96-104861'
p1041
a(dp1042
Vand
p1043
F1.0
sVsaying
p1044
F1.0
sVupper
p1045
F1.0
sVaccurate
p1046
F1.0
sVresults
p1047
F1.0
sVT-FLOAT
p1048
F1.0
sVdistinctions
p1049
F1.0
sVshould
p1050
F1.0
sValso
p1051
F1.0
sVusage
p1052
F1.0
sVperformance
p1053
F1.0
sVbe
p1054
F1.0
sVthat
p1055
F2.0
sVreflect
p1056
F1.0
sVqualified
p1057
F1.0
sVthey
p1058
F1.0
sVdata
p1059
F1.0
sVby
p1060
F1.0
sVcase
p1061
F1.0
sVon
p1062
F1.0
sVlower
p1063
F1.0
sVof
p1064
F1.0
sVthe
p1065
F1.0
sVmakes
p1066
F1.0
saa(lp1067
S'X96-104860'
p1068
a(dp1069
Vand
p1070
F1.0
sg121
F1.0
sVset
p1071
F1.0
sVin
p1072
F1.0
sVno
p1073
F1.0
sVT-FLOAT
p1074
F1.0
sVthere
p1075
F2.0
sg7
F1.0
sVpercentage
p1076
F1.0
sVfew
p1077
F1.0
sVwere
p1078
F2.0
sVmarkable
p1079
F2.0
sVtime
p1080
F1.0
sVtest
p1081
F1.0
sVexpressions
p1082
F2.0
sVonly
p1083
F1.0
sVthe
p1084
F1.0
saa(lp1085
S'X96-104863'
p1086
a(dp1087
Vand
p1088
F1.0
sVset
p1089
F1.0
sVran
p1090
F1.0
sVuppercase
p1091
F1.0
sVan
p1092
F2.0
sVnames
p1093
F1.0
sVT-FLOAT
p1094
F1.0
sg76
F2.0
sg7
F1.0
sVT-INT
p1095
F2.0
sVversion
p1096
F1.0
sVidentification
p1097
F1.0
sVtest
p1098
F1.0
sVgreatest
p1099
F1.0
sVexperiment
p1100
F1.0
sVthat
p1101
F1.0
sVoverall
p1102
F1.0
sVprecision
p1103
F1.0
sVwith
p1104
F1.0
sVproblem
p1105
F1.0
sVon
p1106
F1.0
sVsra
p1107
F1.0
sVshowed
p1108
F1.0
sVof
p1109
F2.0
sVpresenting
p1110
F1.0
sVrecall
p1111
F1.0
sVorganization
p1112
F1.0
sVthe
p1113
F2.0
saa(lp1114
S'X96-104862'
p1115
a(dp1116
Vcase
p1117
F2.0
sVon
p1118
F1.0
sVwhat
p1119
F1.0
sVprovided
p1120
F1.0
sVand
p1121
F1.0
sVwould
p1122
F1.0
sVbe
p1123
F1.0
sVwhere
p1124
F2.0
sVno
p1125
F1.0
sVfor
p1126
F1.0
sVlanguages
p1127
F1.0
sVn't
p1128
F1.0
sVdoes
p1129
F1.0
sVnames
p1130
F1.0
sVclues
p1131
F1.0
sVdistinguish
p1132
F1.0
sVperformance
p1133
F1.0
sVdata
p1134
F1.0
sV?
p1135
F1.0
saa(lp1136
S'X96-1048300'
p1137
a(dp1138
Vand
p1139
F4.0
sVamong
p1140
F1.0
sVlimited
p1141
F1.0
sVlack
p1142
F1.0
sVthree
p1143
F1.0
sVas
p1144
F1.0
sVare
p1145
F1.0
sVfuzzy
p1146
F1.0
sVsubtypes
p1147
F1.0
sVissues
p1148
F1.0
sVslot
p1149
F2.0
sValias
p1150
F1.0
sVrather
p1151
F1.0
sVdistinctions
p1152
F1.0
sVthere
p1153
F1.0
sg7
F3.0
sVto
p1154
F1.0
sVbetween
p1155
F1.0
sVscope
p1156
F1.0
sVwith
p1157
F1.0
sVobjects
p1158
F1.0
sVsuch
p1159
F1.0
sVrespect
p1160
F1.0
sVT-FLOAT
p1161
F1.0
sg121
F1.0
sVname
p1162
F1.0
sVof
p1163
F2.0
sVtitle
p1164
F1.0
sVextremely
p1165
F1.0
sVdescriptor
p1166
F1.0
sVperson
p1167
F3.0
sVorganization
p1168
F3.0
sVthe
p1169
F6.0
saa(lp1170
S'X96-1048295'
p1171
a(dp1172
Vand
p1173
F2.0
sVunmotivated
p1174
F1.0
sVshort
p1175
F1.0
sVnotation
p1176
F1.0
sVnature
p1177
F1.0
sVof
p1178
F1.0
sVis
p1179
F1.0
sVin
p1180
F4.0
sg7
F1.0
sVreflected
p1181
F1.0
sVboundaries
p1182
F1.0
sVT-FLOAT
p1183
F1.0
sVtask
p1184
F1.0
sVdesign
p1185
F1.0
sVmarkables
p1186
F1.0
sVsomewhat
p1187
F1.0
sVpreliminary
p1188
F1.0
sVthe
p1189
F4.0
sVbetween
p1190
F1.0
sVweaknesses
p1191
F1.0
sVnonmarkables
p1192
F1.0
saa(lp1193
S'X96-1048269'
p1194
a(dp1195
Vdetermine
p1196
F1.0
sVit
p1197
F1.0
sg7
F1.0
sVat
p1198
F1.0
sVmccannefickson
p1199
F1.0
sVin
p1200
F1.0
sVevent
p1201
F2.0
sVbest
p1202
F1.0
sVeven
p1203
F1.0
sValso
p1204
F1.0
sVaddition
p1205
F1.0
sVsystem
p1206
F1.0
sVnote
p1207
F1.0
sVto
p1208
F1.0
sVonly
p1209
F1.0
sVunable
p1210
F1.0
sVcaptured
p1211
F1.0
sg827
F1.0
sVpartially
p1212
F1.0
sVwas
p1213
F2.0
sVfull
p1214
F1.0
sVthat
p1215
F2.0
sVpost
p1216
F1.0
sVT-FLOAT
p1217
F1.0
sVoccurring
p1218
F1.0
sVon
p1219
F1.0
sVthird
p1220
F1.0
sVof
p1221
F1.0
sVtitle
p1222
F1.0
sVsuccession
p1223
F1.0
sVthe
p1224
F5.0
saa(lp1225
S'X96-1048101'
p1226
a(dp1227
g121
F2.0
sV``
p1228
F1.0
sVweight
p1229
F1.0
sg201
F1.0
sVmonetary
p1230
F1.0
sVvalue
p1231
F1.0
sVignoring
p1232
F1.0
sVrather
p1233
F1.0
sVas
p1234
F2.0
sVit
p1235
F1.0
sVT-FLOAT
p1236
F1.0
sVthan
p1237
F1.0
saa(lp1238
S'X96-1048100'
p1239
a(dp1240
Vand
p1241
F1.0
sVmonths
p1242
F1.0
sVcentury
p1243
F1.0
sVappeared
p1244
F1.0
sVover
p1245
F1.0
sV''
p1246
F2.0
sVincluded
p1247
F1.0
sVmistakes
p1248
F1.0
sVin
p1249
F1.0
sVT-FLOAT
p1250
F2.0
sVthree-and-a-half
p1251
F1.0
sg16
F1.0
sg7
F4.0
sVT-INT
p1252
F3.0
sVsystems
p1253
F1.0
sVwhich
p1254
F1.0
sV``
p1255
F3.0
sVwho
p1256
F1.0
sVrecently
p1257
F1.0
sVmissing
p1258
F1.0
sVmr
p1259
F1.0
sVdate
p1260
F1.0
sVby
p1261
F1.0
sVdooner
p1262
F1.0
sVmade
p1263
F1.0
sVlost
p1264
F1.0
sVpounds
p1265
F2.0
sVidentifying
p1266
F1.0
sVst
p1267
F1.0
sVcommon
p1268
F1.0
sVcontext
p1269
F1.0
sVspuriously
p1270
F1.0
sVthe
p1271
F4.0
sVexpression
p1272
F1.0
saa(lp1273
S'X96-1048103'
p1274
a(dp1275
Vand
p1276
F2.0
sVlimited
p1277
F1.0
sVdefined
p1278
F1.0
sVeasy
p1279
F1.0
sVphenomena
p1280
F1.0
sVas
p1281
F1.0
sVrelatively
p1282
F1.0
sVfor
p1283
F1.0
sVT-INT
p1284
F1.0
sVrestricted
p1285
F1.0
sVintended
p1286
F1.0
sVnoncontroversial
p1287
F1.0
sVto
p1288
F4.0
sVmuc
p1289
F1.0
sVwas
p1290
F2.0
sVbe
p1291
F1.0
sVdescribe
p1292
F1.0
sVcoreference
p1293
F1.0
sVthat
p1294
F1.0
sVT-FLOAT
p1295
F1.0
sVtask
p1296
F1.0
sVnoun
p1297
F1.0
sVphrases
p1298
F1.0
sVwere
p1299
F1.0
sVthe
p1300
F1.0
saa(lp1301
S'X96-1048102'
p1302
a(dp1303
Vand
p1304
F1.0
sVsome
p1305
F1.0
sVnumber
p1306
F1.0
sVentity
p1307
F1.0
sVas
p1308
F1.0
sVpaper
p1309
F1.0
sVnames
p1310
F1.0
sVin
p1311
F2.0
sVerrors
p1312
F3.0
sVdescribed
p1313
F1.0
sVaddition
p1314
F1.0
sVsection
p1315
F1.0
sg7
F1.0
sValso
p1316
F1.0
sVtemplate
p1317
F1.0
sg827
F1.0
sVtask
p1318
F1.0
sVT-FLOAT
p1319
F1.0
sVthose
p1320
F1.0
sg121
F2.0
sVon
p1321
F1.0
sVmade
p1322
F1.0
sVshowed
p1323
F1.0
sVidentifying
p1324
F1.0
sVthis
p1325
F1.0
sVof
p1326
F3.0
sVlater
p1327
F1.0
sVup
p1328
F1.0
sVelement
p1329
F1.0
sVwere
p1330
F1.0
sVthe
p1331
F1.0
sVare
p1332
F1.0
saa(lp1333
S'X96-1048105'
p1334
a(dp1335
Vsaid
p1336
F1.0
sVexecutive
p1337
F1.0
sVT-FLOAT
p1338
F1.0
sVchief
p1339
F1.0
sVresigned
p1340
F1.0
sVofficer
p1341
F1.0
sVmvi
p1342
F1.0
sg799
F1.0
sVhas
p1343
F1.0
sg800
F1.0
sVthe
p1344
F1.0
saa(lp1345
S'X96-1048104'
p1346
a(dp1347
Vall
p1348
F1.0
sVbracketed
p1349
F1.0
sVtext
p1350
F1.0
sVis
p1351
F1.0
sVphenomena
p1352
F1.0
sVmajor
p1353
F1.0
sVare
p1354
F1.0
sVmotor
p1355
F1.0
sVin
p1356
F1.0
sVT-FLOAT
p1357
F2.0
sVmanagement
p1358
F1.0
sVvariety
p1359
F1.0
sVsegments
p1360
F1.0
sg7
F1.0
sVT-INT
p1361
F1.0
sVhypothetical
p1362
F1.0
sVcovered
p1363
F1.0
sg207
F1.0
sVannounced
p1364
F1.0
sVhigh-frequency
p1365
F1.0
sVcorp
p1366
F1.0
sVcoreferential
p1367
F1.0
sVinternational
p1368
F1.0
sVrepresented
p1369
F1.0
sg799
F1.0
sg800
F1.0
sVby
p1370
F1.0
sVpartially
p1371
F1.0
sg121
F1.0
sVtask
p1372
F1.0
sVconsidered
p1373
F1.0
sVof
p1374
F1.0
sVvehicles
p1375
F1.0
sVfollowing
p1376
F1.0
sVthe
p1377
F3.0
sVwhere
p1378
F1.0
sVexample
p1379
F1.0
sVshakeup
p1380
F1.0
saa(lp1381
S'X96-1048107'
p1382
a(dp1383
Vfourth
p1384
F1.0
sVfor
p1385
F1.0
sVlosses
p1386
F1.0
sVit
p1387
F1.0
sVwill
p1388
F1.0
sVT-FLOAT
p1389
F1.0
sVsignificant
p1390
F1.0
sVannounce
p1391
F1.0
sg799
F1.0
sVquarter
p1392
F1.0
sg800
F1.0
sVthe
p1393
F1.0
saa(lp1394
S'X96-1048106'
p1395
a(dp1396
Vregain
p1397
F1.0
sVthe
p1398
F1.0
sVto
p1399
F1.0
sVattempting
p1400
F1.0
sVbig
p1401
F1.0
sVis
p1402
F1.0
sVshare
p1403
F1.0
sVT-INT
p1404
F1.0
sVT-FLOAT
p1405
F1.0
sVauto
p1406
F1.0
sg799
F1.0
sg800
F1.0
sVmaker
p1407
F1.0
sVmarket
p1408
F1.0
saa(lp1409
S'X96-1048109'
p1410
a(dp1411
Vis
p1412
F1.0
sVmove
p1413
F1.0
sVtrade
p1414
F1.0
sVfrom
p1415
F1.0
sVworkers
p1416
F1.0
sVsince
p1417
F1.0
sg7
F2.0
sVpassage
p1418
F1.0
sVto
p1419
F1.0
sVunionized
p1420
F1.0
sVnew
p1421
F1.0
sVincreasing
p1422
F1.0
sVdemands
p1423
F1.0
sVcompany
p1424
F1.0
sVagreement
p1425
F1.0
sVannounce
p1426
F1.0
sVinternational
p1427
F1.0
sVsuch
p1428
F1.0
sg799
F2.0
sg800
F2.0
sVT-FLOAT
p1429
F1.0
sg121
F1.0
sVof
p1430
F1.0
sVfacing
p1431
F1.0
sVmvi
p1432
F1.0
sVthe
p1433
F3.0
sVfirst
p1434
F1.0
saa(lp1435
S'X96-1048108'
p1436
a(dp1437
g121
F2.0
sVoperations
p1438
F1.0
sVsaid
p1439
F1.0
sVto
p1440
F1.0
sVeffort
p1441
F1.0
sVcompany
p1442
F1.0
sVmexico
p1443
F1.0
sVspokesman
p1444
F1.0
sVtheir
p1445
F1.0
sVmoving
p1446
F1.0
sVare
p1447
F1.0
sVthey
p1448
F1.0
sVin
p1449
F1.0
sVcost-saving
p1450
F1.0
sg799
F3.0
sg800
F3.0
sVT-FLOAT
p1451
F1.0
saa(lp1452
S'X96-1048259'
p1453
a(dp1454
Vand
p1455
F1.0
sVon
p1456
F1.0
sg7
F1.0
sVhis
p1457
F2.0
sVold
p1458
F1.0
sVbe
p1459
F1.0
sVmay
p1460
F2.0
sVwith
p1461
F1.0
sVas
p1462
F2.0
sVsame
p1463
F1.0
sVyet
p1464
F1.0
sVceo
p1465
F1.0
sVjob
p1466
F3.0
sVT-FLOAT
p1467
F1.0
sVnew
p1468
F1.0
sVnot
p1469
F1.0
sVorg
p1470
F1.0
sVthe
p1471
F2.0
sVwas
p1472
F1.0
sVor
p1473
F1.0
saa(lp1474
S'X96-1048218'
p1475
a(dp1476
Vinformation
p1477
F1.0
sVobject
p1478
F1.0
sVthat
p1479
F1.0
sVin_and_out
p1480
F1.0
sVT-FLOAT
p1481
F1.0
sVcontains
p1482
F1.0
sVpersons
p1483
F1.0
sVrelates
p1484
F1.0
sVst-specific
p1485
F1.0
sVthe
p1486
F3.0
sVwith
p1487
F1.0
sVevent
p1488
F1.0
saa(lp1489
S'X96-1048189'
p1490
a(dp1491
Vmatched
p1492
F1.0
sVpartial
p1493
F1.0
sVsignificant
p1494
F1.0
sVis
p1495
F1.0
sVin
p1496
F2.0
sVT-FLOAT
p1497
F1.0
sVfill
p1498
F4.0
sVscoring
p1499
F1.0
sVor
p1500
F1.0
sVfor
p1501
F1.0
sVno
p1502
F1.0
sVthere
p1503
F1.0
sVhad
p1504
F1.0
sVto
p1505
F2.0
sVonly
p1506
F1.0
sg827
F1.0
sVif
p1507
F1.0
sVwas
p1508
F1.0
sVcorrect
p1509
F1.0
sVmatch
p1510
F1.0
sVbe
p1511
F1.0
sVfull
p1512
F1.0
sVthat
p1513
F1.0
sVexactly
p1514
F1.0
sVreason
p1515
F1.0
sVkey
p1516
F2.0
sVassigning
p1517
F1.0
sVresponse
p1518
F2.0
sVpartially
p1519
F1.0
sg121
F1.0
sVmade
p1520
F1.0
sVthird
p1521
F1.0
sVcounted
p1522
F1.0
sVcredit
p1523
F1.0
sVthe
p1524
F5.0
sVsoftware
p1525
F1.0
sVorder
p1526
F1.0
sVallowance
p1527
F1.0
saa(lp1528
S'X96-1048188'
p1529
a(dp1530
Vand
p1531
F1.0
sVthis
p1532
F1.0
sVis
p1533
F2.0
sVsome
p1534
F1.0
sVit
p1535
F1.0
sVlikely
p1536
F1.0
sVidentify
p1537
F1.0
sVin
p1538
F1.0
sVclose
p1539
F1.0
sVmiss
p1540
F1.0
sVinformation
p1541
F1.0
sVfor
p1542
F1.0
sValso
p1543
F1.0
sVrequ~ed
p1544
F1.0
sg7
F2.0
sVincrease
p1545
F1.0
sVto
p1546
F4.0
sVdiscourse
p1547
F1.0
sVsystems
p1548
F1.0
sVbe
p1549
F1.0
sVmay
p1550
F1.0
sVprocessing
p1551
F1.0
sVnot
p1552
F1.0
sVopportunity
p1553
F1.0
sVT-FLOAT
p1554
F1.0
sVname
p1555
F1.0
sV--
p1556
F1.0
sValways
p1557
F1.0
sVdescriptor
p1558
F1.0
sVthe
p1559
F4.0
sVorder
p1560
F1.0
saa(lp1561
S'X96-1048222'
p1562
a(dp1563
Vand
p1564
F1.0
sVrepresent
p1565
F1.0
sVassociated
p1566
F1.0
sVsome
p1567
F1.0
sVit
p1568
F1.0
sVan
p1569
F1.0
sVvacancy
p1570
F1.0
sVrepresented
p1571
F1.0
sVare
p1572
F1.0
sVin
p1573
F1.0
sVevent
p1574
F1.0
sVinformation
p1575
F1.0
sVmanagement
p1576
F2.0
sVrather
p1577
F1.0
sg7
F4.0
sVactually
p1578
F1.0
sVstate
p1579
F1.0
sVdoes
p1580
F1.0
sVthat
p1581
F1.0
sVobject
p1582
F2.0
sVbut
p1583
F1.0
sVsuccession_event
p1584
F1.0
sValthough
p1585
F1.0
sVnot
p1586
F1.0
sVpost
p1587
F2.0
sVwith
p1588
F1.0
sVT-FLOAT
p1589
F3.0
sg121
F1.0
sg219
F1.0
sVi
p1590
F1.0
sVof
p1591
F1.0
sVthe
p1592
F3.0
saa(lp1593
S'X96-1048223'
p1594
a(dp1595
Vrepresent
p1596
F1.0
sVrelational-level
p1597
F1.0
sVpertaining
p1598
F1.0
sVpersonnel
p1599
F1.0
sVthat
p1600
F1.0
sVto
p1601
F1.0
sVstate
p1602
F1.0
sVobjects
p1603
F1.0
sViih~and_out
p1604
F1.0
sVthe
p1605
F2.0
sVchanges
p1606
F1.0
sVT-FLOAT
p1607
F1.0
saa(lp1608
S'X96-1048224'
p1609
a(dp1610
g121
F1.0
sVon
p1611
F1.0
sVtotal
p1612
F1.0
sVfor
p1613
F1.0
sVof
p1614
F1.0
sVoverall
p1615
F1.0
sVsites
p1616
F1.0
sVsubmitted
p1617
F1.0
sVresults
p1618
F1.0
sVeleven
p1619
F1.0
sVtask
p1620
F1.0
sVnine
p1621
F1.0
sVsystems
p1622
F1.0
sVthe
p1623
F1.0
sVst
p1624
F2.0
sVevaluation
p1625
F1.0
sVT-FLOAT
p1626
F1.0
saa(lp1627
S'X96-1048225'
p1628
a(dp1629
Vand
p1630
F1.0
sVon
p1631
F1.0
sVall
p1632
F1.0
sVtasks
p1633
F1.0
sVfor
p1634
F1.0
sVsites
p1635
F1.0
sVsubmitted
p1636
F1.0
sVne
p1637
F1.0
sVparticipating
p1638
F1.0
sValso
p1639
F1.0
sVsystems
p1640
F1.0
sVthe
p1641
F2.0
sVte
p1642
F1.0
sVevaluation
p1643
F1.0
sVT-FLOAT
p1644
F1.0
saa(lp1645
S'X96-1048226'
p1646
a(dp1647
Vdevelopment
p1648
F1.0
sVall
p1649
F1.0
sVmuc
p1650
F1.0
sVof
p1651
F2.0
sVwho
p1652
F1.0
sVhad
p1653
F1.0
sVbut
p1654
F1.0
sVone
p1655
F1.0
sVT-INT
p1656
F1.0
sVmembers
p1657
F1.0
sVwere
p1658
F1.0
sVthe
p1659
F1.0
sVteams
p1660
F1.0
sVveterans
p1661
F1.0
sVT-FLOAT
p1662
F1.0
saa(lp1663
S'X96-1048227'
p1664
a(dp1665
Vset
p1666
F1.0
sVto
p1667
F1.0
sVscenario
p1668
F1.0
sVT-INT
p1669
F2.0
sVof
p1670
F1.0
sVwere
p1671
F2.0
sg7
F2.0
sVonly
p1672
F1.0
sVtexts
p1673
F1.0
sVthat
p1674
F1.0
sVrelevant
p1675
F2.0
sVincluding
p1676
F1.0
sVT-FLOAT
p1677
F1.0
sVin
p1678
F1.0
sVtest
p1679
F1.0
sVmanagement
p1680
F1.0
sVthe
p1681
F3.0
sVsuccession
p1682
F1.0
sVsix
p1683
F1.0
sVmarginally
p1684
F1.0
saa(lp1685
S'X96-1048181'
p1686
a(dp1687
Vall
p1688
F1.0
sVtext
p1689
F1.0
sVit
p1690
F1.0
sVentity
p1691
F1.0
sVare
p1692
F1.0
sVin
p1693
F1.0
sVT-FLOAT
p1694
F1.0
sVextract
p1695
F2.0
sVone
p1696
F1.0
sg201
F1.0
sg16
F1.0
sVsystem
p1697
F2.0
sVto
p1698
F1.0
sVcontained
p1699
F1.0
sVdoes
p1700
F1.0
sg827
F1.0
sVonly
p1701
F1.0
sVthat
p1702
F2.0
sVdescriptors
p1703
F1.0
sVhowever
p1704
F1.0
sVnot
p1705
F1.0
sVan
p1706
F1.0
sg7
F1.0
sVnone
p1707
F1.0
sVtask
p1708
F1.0
sVof
p1709
F1.0
sVrequire
p1710
F1.0
sVthe
p1711
F4.0
sVrequires
p1712
F1.0
sVor
p1713
F1.0
saa(lp1714
S'X96-1048180'
p1715
a(dp1716
Vand
p1717
F1.0
sVtext
p1718
F1.0
sVin
p1719
F1.0
sVrespect
p1720
F1.0
sVT-FLOAT
p1721
F1.0
sVbest
p1722
F1.0
sVfill
p1723
F1.0
sVslot
p1724
F1.0
sVfor
p1725
F1.0
sg201
F1.0
sg16
F1.0
sVthere
p1726
F1.0
sg7
F1.0
sVper
p1727
F1.0
sVnote
p1728
F1.0
sVto
p1729
F1.0
sVorg_descriptor
p1730
F1.0
sVperformance
p1731
F1.0
sVte
p1732
F1.0
sVbe
p1733
F1.0
sVmultiple
p1734
F1.0
sVthat
p1735
F1.0
sVmay
p1736
F1.0
sVdescriptors
p1737
F1.0
sVobject
p1738
F1.0
sVscores
p1739
F1.0
sVwith
p1740
F1.0
sVresponse
p1741
F1.0
sVon
p1742
F1.0
sVnone
p1743
F1.0
sVtask
p1744
F1.0
sVaverage
p1745
F1.0
sVerror
p1746
F1.0
sVorganization
p1747
F1.0
sVthe
p1748
F1.0
sVor
p1749
F1.0
saa(lp1750
S'X96-1048183'
p1751
a(dp1752
Vslot
p1753
F1.0
sVon
p1754
F2.0
sVlower
p1755
F1.0
sVnonetheless
p1756
F1.0
sVthis
p1757
F1.0
sVis
p1758
F1.0
sg7
F1.0
sVmuch
p1759
F1.0
sVothers
p1760
F1.0
sVperformance
p1761
F1.0
sVT-FLOAT
p1762
F1.0
sVthan
p1763
F1.0
saa(lp1764
S'X96-1048182'
p1765
a(dp1766
Vtalent
p1767
F1.0
sVproximity
p1768
F1.0
sVartists
p1769
F1.0
sVone
p1770
F1.0
sVappositive
p1771
F1.0
sVas
p1772
F1.0
sVat
p1773
F1.0
sVin
p1774
F1.0
sVclose
p1775
F1.0
sg201
F1.0
sg16
F1.0
sVagency
p1776
F2.0
sg7
F4.0
sVleast
p1777
F1.0
sVcreative
p1778
F1.0
sVto
p1779
F1.0
sVhollywood
p1780
F1.0
sVbe
p1781
F1.0
sV``
p1782
F1.0
sV's
p1783
F1.0
sVbig
p1784
F1.0
sVfound
p1785
F1.0
sVfrequently
p1786
F1.0
sVan
p1787
F2.0
sVthe
p1788
F1.0
sV''
p1789
F1.0
sg219
F1.0
sVname
p1790
F1.0
sg226
F1.0
sVcan
p1791
F1.0
sVorganization
p1792
F1.0
sVT-FLOAT
p1793
F3.0
saa(lp1794
S'X96-1048185'
p1795
a(dp1796
Vand
p1797
F1.0
sVthe
p1798
F3.0
sVrelevant
p1799
F1.0
sVtext
p1800
F1.0
sVis
p1801
F2.0
sVone
p1802
F1.0
sVin
p1803
F2.0
sVfill
p1804
F1.0
sVslot
p1805
F1.0
sVfor
p1806
F2.0
sg7
F2.0
sVlow
p1807
F1.0
sVnp
p1808
F1.0
sVperformance
p1809
F1.0
sVlocal
p1810
F1.0
sVtherefore
p1811
F1.0
sVorg_name
p1812
F1.0
sVbe
p1813
F1.0
sVthat
p1814
F2.0
sVmay
p1815
F1.0
sVreason
p1816
F1.0
sVclues
p1817
F1.0
sVan
p1818
F1.0
sVby
p1819
F1.0
sg121
F4.0
sg219
F1.0
sg1590
F1.0
sVidentified
p1820
F1.0
sVdescriptor
p1821
F2.0
sVwithout
p1822
F2.0
sVorganization
p1823
F1.0
sVT-FLOAT
p1824
F3.0
sVsolely
p1825
F1.0
sVfact
p1826
F1.0
sVusual
p1827
F1.0
saa(lp1828
S'X96-1048184'
p1829
a(dp1830
Vless
p1831
F1.0
sVreasons
p1832
F1.0
sVwe
p1833
F1.0
sg7
F2.0
sVare
p1834
F1.0
sVproper
p1835
F1.0
sVfind
p1836
F1.0
sVrelatively
p1837
F1.0
sVslot
p1838
F1.0
sVwhat
p1839
F1.0
sVwould
p1840
F1.0
sVto
p1841
F1.0
sVaside
p1842
F1.0
sVextraction
p1843
F1.0
sVcandidates
p1844
F1.0
sVlow
p1845
F1.0
sVwhich
p1846
F1.0
sVorg_descriptor
p1847
F1.0
sVperformance
p1848
F1.0
sg1135
F1.0
sVcan
p1849
F1.0
sVbe
p1850
F1.0
sVthem
p1851
F1.0
sVthat
p1852
F1.0
sVdescriptors
p1853
F1.0
sVthan
p1854
F1.0
sVon
p1855
F1.0
sVaccount
p1856
F1.0
sVnoun
p1857
F2.0
sVfor
p1858
F2.0
sVphrases
p1859
F2.0
sVleaving
p1860
F1.0
sVobvious
p1861
F1.0
sVcommon
p1862
F1.0
sVthe
p1863
F3.0
sVmakes
p1864
F1.0
sVfact
p1865
F1.0
saa(lp1866
S'X96-1048187'
p1867
a(dp1868
Vboth
p1869
F1.0
sVincreased
p1870
F1.0
sVfor
p1871
F1.0
sVopportunities
p1872
F1.0
sVpossibilities
p1873
F1.0
sVto
p1874
F1.0
sVovergenerate
p1875
F1.0
sVsystems
p1876
F1.0
sVundergenerate
p1877
F1.0
sVT-FLOAT
p1878
F1.0
sVor
p1879
F1.0
sVpresent
p1880
F1.0
saa(lp1881
S'X96-1048186'
p1882
a(dp1883
g121
F1.0
sVname
p1884
F1.0
sVcourse
p1885
F1.0
sVmay
p1886
F1.0
sVof
p1887
F1.0
sVis
p1888
F1.0
sVthat
p1889
F1.0
sVit
p1890
F1.0
sg7
F2.0
sValso
p1891
F1.0
sVidentify
p1892
F1.0
sVtext
p1893
F1.0
sVorganization
p1894
F1.0
sVT-FLOAT
p1895
F1.0
sVan
p1896
F1.0
sVsolely
p1897
F1.0
sVby
p1898
F1.0
sVpossible
p1899
F1.0
saa(lp1900
S'X96-104850'
p1901
a(dp1902
Vand
p1903
F1.0
sVover
p1904
F1.0
sVresults
p1905
F1.0
sVtwo
p1906
F1.0
sVhigh
p1907
F1.0
sVin
p1908
F1.0
sVfind
p1909
F1.0
sVevaluation
p1910
F1.0
sg76
F1.0
sVT-INT
p1911
F1.0
sVwould
p1912
F1.0
sVbasis
p1913
F1.0
sVperform
p1914
F1.0
sg7
F3.0
sVto
p1915
F1.0
sVsystems
p1916
F2.0
sVwhich
p1917
F1.0
sVexpected
p1918
F1.0
sVso
p1919
F2.0
sVmany
p1920
F1.0
sVwas
p1921
F1.0
sVsurprised
p1922
F1.0
sVscored
p1923
F1.0
sVwe
p1924
F1.0
sVrun
p1925
F1.0
sVthat
p1926
F2.0
sVenter
p1927
F1.0
sVbut
p1928
F1.0
sVit
p1929
F1.0
sVsimilarly
p1930
F1.0
sVscores
p1931
F1.0
sVnot
p1932
F2.0
sVT-FLOAT
p1933
F1.0
sVformal
p1934
F1.0
sVdry
p1935
F1.0
sVon
p1936
F1.0
sVof
p1937
F3.0
sVofficial
p1938
F1.0
sVwell
p1939
F1.0
sVnine
p1940
F1.0
sVwere
p1941
F2.0
sVthe
p1942
F5.0
saa(lp1943
S'X96-104851'
p1944
a(dp1945
Von
p1946
F1.0
sVunexpected
p1947
F1.0
sVwould
p1948
F1.0
sVthat
p1949
F1.0
sVof
p1950
F1.0
sVit
p1951
F1.0
sVone
p1952
F1.0
sValso
p1953
F1.0
sVtask
p1954
F1.0
sVsystems
p1955
F1.0
sVhuman
p1956
F1.0
sVperformance
p1957
F1.0
sVthe
p1958
F2.0
sVwas
p1959
F1.0
sVT-FLOAT
p1960
F1.0
sVmatch
p1961
F1.0
saa(lp1962
S'X96-104852'
p1963
a(dp1964
Vsaic
p1965
F1.0
sVT-INT
p1966
F1.0
sVkeys
p1967
F1.0
sVmeasured
p1968
F1.0
sVT-FLOAT
p1969
F1.0
sVwith
p1970
F1.0
sVannotator
p1971
F2.0
sVproduced
p1972
F2.0
sVcomparing
p1973
F1.0
sVdraft
p1974
F1.0
sVat
p1975
F2.0
sVhuman
p1976
F1.0
sVanswer
p1977
F1.0
sVperformance
p1978
F1.0
sVthe
p1979
F3.0
sVnrad
p1980
F1.0
sVwas
p1981
F1.0
sVby
p1982
F3.0
sVthose
p1983
F1.0
saa(lp1984
S'X96-104853'
p1985
a(dp1986
Vvariability
p1987
F1.0
sVthis
p1988
F1.0
sVof
p1989
F1.0
sVmeasures
p1990
F1.0
sVamount
p1991
F1.0
sVannotators
p1992
F1.0
sVbetween
p1993
F1.0
sVtest
p1994
F1.0
sVthe
p1995
F2.0
sVT-FLOAT
p1996
F1.0
saa(lp1997
S'X96-104854'
p1998
a(dp1999
Vand
p2000
F2.0
sVachieved
p2001
F1.0
sVhumans
p2002
F1.0
sVone
p2003
F1.0
sV''
p2004
F3.0
sVas
p2005
F1.0
sVare
p2006
F1.0
sVin
p2007
F1.0
sVf-measure
p2008
F1.0
sVT-FLOAT
p2009
F2.0
sVfill
p2010
F1.0
sg76
F1.0
sVscore
p2011
F1.0
sVwhen
p2012
F1.0
sg7
F2.0
sVper
p2013
F1.0
sVT-INT
p2014
F3.0
sVother
p2015
F1.0
sVscored
p2016
F1.0
sV``
p2017
F3.0
sV's
p2018
F1.0
sVthough
p2019
F1.0
sVoutputs
p2020
F1.0
sVoverall
p2021
F1.0
sVannotator
p2022
F1.0
sVcorresponding
p2023
F1.0
sVkey
p2024
F1.0
sVrepresented
p2025
F1.0
sVan
p2026
F1.0
sVresponse
p2027
F2.0
sg121
F1.0
sVkey-to-response
p2028
F1.0
sVof
p2029
F2.0
sVmode
p2030
F1.0
sVerror
p2031
F1.0
sVoutput
p2032
F1.0
sVthe
p2033
F5.0
saa(lp2034
S'X96-104855'
p2035
a(dp2036
Vand
p2037
F1.0
sg121
F1.0
sVsra
p2038
F1.0
sVan
p2039
F1.0
sVbaseline
p2040
F1.0
sVachieved
p2041
F1.0
sVcorresponding
p2042
F1.0
sVof
p2043
F3.0
sVtop-scoring
p2044
F1.0
sg7
F2.0
sVsystem
p2045
F2.0
sVT-INT
p2046
F3.0
sVscore
p2047
F1.0
sVerror
p2048
F1.0
sVf-measure
p2049
F1.0
sVthe
p2050
F3.0
sVconfiguration
p2051
F1.0
sVT-FLOAT
p2052
F2.0
sg76
F1.0
saa(lp2053
S'X96-104856'
p2054
a(dp2055
Vset
p2056
F1.0
sVresults
p2057
F1.0
sVgeneral
p2058
F1.0
sVneed
p2059
F1.0
sVin
p2060
F1.0
sVfacts
p2061
F1.0
sVtable
p2062
F1.0
sVconsidering
p2063
F1.0
sVfrom
p2064
F1.0
sVT-INT
p2065
F81.0
sg7
F1.0
sVto
p2066
F1.0
sVsignificance
p2067
F1.0
sVtest
p2068
F1.0
sg207
F1.0
sVbe
p2069
F1.0
sVremembered
p2070
F1.0
sVstandpoint
p2071
F1.0
sVT-FLOAT
p2072
F17.0
sg121
F1.0
sVabout
p2073
F1.0
sVthese
p2074
F1.0
sVof
p2075
F1.0
sVfollowing
p2076
F1.0
sVthe
p2077
F3.0
saa(lp2078
S'X96-104857'
p2079
a(dp2080
Vsri
p2081
F1.0
sVprimary
p2082
F1.0
sg7
F16.0
sV''
p2083
F3.0
sVusheffield
p2084
F1.0
sVin
p2085
F1.0
sVout
p2086
F1.0
sVbbn
p2087
F2.0
sVlockheed-martin
p2088
F1.0
sVnmsu
p2089
F1.0
sVbaseline
p2090
F3.0
sVfor
p2091
F1.0
sV&
p2092
F1.0
sg201
F2.0
sg16
F2.0
sVtop
p2093
F1.0
sVne
p2094
F1.0
sVfast
p2095
F1.0
sVnyu
p2096
F1.0
sVT-INT
p2097
F36.0
sVumass
p2098
F1.0
sVsystems
p2099
F1.0
sVmitre
p2100
F1.0
sg207
F1.0
sVsterling
p2101
F1.0
sVumanitoba
p2102
F1.0
sV``
p2103
F3.0
sVf-measure
p2104
F2.0
sVto
p2105
F1.0
sVmetrics
p2106
F1.0
sVtested
p2107
F1.0
sVfastest
p2108
F1.0
sVkey
p2109
F1.0
sVscores
p2110
F2.0
sVconfiguration
p2111
F7.0
sVT-FLOAT
p2112
F17.0
sVon
p2113
F1.0
sVsra
p2114
F4.0
sVknight-ridder
p2115
F1.0
sVof
p2116
F2.0
sVnonames
p2117
F1.0
sVsummary
p2118
F1.0
sVp
p2119
F1.0
sVr
p2120
F1.0
sVcrl
p2121
F1.0
sVdecreasing
p2122
F1.0
sVthe
p2123
F1.0
sVorder
p2124
F1.0
sVexperimental
p2125
F1.0
sVsoftware
p2126
F1.0
saa(lp2127
S'X96-1048288'
p2128
a(dp2129
Vpractice
p2130
F1.0
sVtask
p2131
F1.0
sVco
p2132
F1.0
sVtheory
p2133
F1.0
sVfor
p2134
F1.0
sVreasons
p2135
F1.0
sVmany
p2136
F1.0
sVreview
p2137
F1.0
sVin
p2138
F1.0
sVdefinite
p2139
F1.0
sVT-FLOAT
p2140
F1.0
sVare
p2141
F1.0
sVcoreference
p2142
F1.0
sVof
p2143
F3.0
sVneed
p2144
F1.0
sVaspects
p2145
F1.0
sVthe
p2146
F1.0
sVor
p2147
F1.0
sVeither
p2148
F1.0
saa(lp2149
S'X96-1048289'
p2150
a(dp2151
Vare
p2152
F1.0
sVset
p2153
F1.0
sVthat
p2154
F1.0
sVconsidered
p2155
F1.0
sVof
p2156
F2.0
sVmarkable
p2157
F1.0
sVphenomena
p2158
F1.0
sVgoverned
p2159
F1.0
sVone
p2160
F1.0
sVrange
p2161
F1.0
sVconcerns
p2162
F1.0
sVsyntactically
p2163
F1.0
sVthe
p2164
F1.0
sVT-FLOAT
p2165
F1.0
sVissues
p2166
F1.0
sVcorreference
p2167
F1.0
saa(lp2168
S'X96-1048219'
p2169
a(dp2170
Vand
p2171
F1.0
sVpointed
p2172
F1.0
sVare
p2173
F2.0
sVT-FLOAT
p2174
F1.0
sValso
p2175
F1.0
sg7
F1.0
sVto
p2176
F1.0
sVonly
p2177
F1.0
sVtemplate
p2178
F1.0
sVlowest
p2179
F1.0
sVin_and_out
p2180
F1.0
sVobject
p2181
F2.0
sVbut
p2182
F1.0
sVsuccession_event
p2183
F1.0
sVobjects
p2184
F2.0
sVthey
p2185
F1.0
sVnot
p2186
F1.0
sValong
p2187
F1.0
sVwith
p2188
F1.0
sVby
p2189
F2.0
sVpresent
p2190
F1.0
sVlevel
p2191
F1.0
sVelement
p2192
F1.0
sVperson
p2193
F1.0
sVorganization
p2194
F1.0
sVthe
p2195
F5.0
sVat
p2196
F1.0
saa(lp2197
S'X96-1048116'
p2198
a(dp2199
Vand
p2200
F1.0
sVscoring
p2201
F1.0
sVused
p2202
F1.0
sVsaic
p2203
F1.0
sVfor
p2204
F2.0
sValgorithm
p2205
F1.0
sVdeveloped
p2206
F1.0
sVan
p2207
F1.0
sVT-INT
p2208
F1.0
sVtask
p2209
F1.0
sVT-FLOAT
p2210
F1.0
sVmuc
p2211
F1.0
sVcorporation
p2212
F1.0
sVmitre
p2213
F1.0
sVthe
p2214
F2.0
sVimplemented
p2215
F1.0
sVwas
p2216
F1.0
sVby
p2217
F2.0
saa(lp2218
S'X96-1048117'
p2219
a(dp2220
Vkey
p2221
F1.0
sVand
p2222
F1.0
sVlinks
p2223
F1.0
sValgorithm
p2224
F1.0
sVdefined
p2225
F1.0
sVmanually-generated
p2226
F1.0
sVequivalence
p2227
F1.0
sVresponse
p2228
F1.0
sVT-FLOAT
p2229
F1.0
sVclasses
p2230
F1.0
sVcompares
p2231
F1.0
sVcoreference
p2232
F1.0
sVin
p2233
F1.0
sVanswer
p2234
F1.0
sVthe
p2235
F5.0
sVby
p2236
F1.0
sVsystem-generated
p2237
F1.0
saa(lp2238
S'X96-1048114'
p2239
a(dp2240
Vand
p2241
F1.0
sVsince
p2242
F1.0
sVis
p2243
F2.0
sVmove
p2244
F1.0
sVphenomena
p2245
F1.0
sV``
p2246
F2.0
sVsyntax
p2247
F1.0
sV''
p2248
F2.0
sVas
p2249
F2.0
sVlatin
p2250
F1.0
sVare
p2251
F1.0
sVmotor
p2252
F1.0
sVexpressions
p2253
F1.0
sVwhose
p2254
F1.0
sVT-INT
p2255
F15.0
sg201
F2.0
sg16
F2.0
sVmarkables
p2256
F1.0
sg7
F2.0
sVpassage
p2257
F1.0
sVto
p2258
F2.0
sVperiphery
p2259
F1.0
sVappositives
p2260
F1.0
sVbiggest
p2261
F1.0
sVinternational
p2262
F2.0
sVstatus
p2263
F1.0
sVpredicate
p2264
F1.0
sVexporter
p2265
F1.0
sVauto
p2266
F1.0
sVcompany
p2267
F1.0
sVcoreferring
p2268
F1.0
sVnew
p2269
F1.0
sVagreement
p2270
F1.0
sVannounce
p2271
F1.0
sVtrade
p2272
F1.0
sVsuch
p2273
F2.0
sVamerica
p2274
F1.0
sVby
p2275
F1.0
sg121
F1.0
sVon
p2276
F1.0
sVcentral
p2277
F1.0
sVnominals
p2278
F1.0
sVof
p2279
F2.0
sVvehicles
p2280
F1.0
sVT-FLOAT
p2281
F1.0
sVamerican
p2282
F1.0
sVdetermined
p2283
F1.0
sVmvi
p2284
F1.0
sVthe
p2285
F6.0
sVfirst
p2286
F1.0
saa(lp2287
S'X96-1048115'
p2288
a(dp2289
Vquestionable
p2290
F1.0
sVspectrum
p2291
F1.0
sV''
p2292
F1.0
sVas
p2293
F2.0
sVbare
p2294
F1.0
sVat
p2295
F1.0
sVin
p2296
F1.0
sVwhose
p2297
F1.0
sVend
p2298
F1.0
sVreferring
p2299
F1.0
sVprenominal
p2300
F1.0
sg7
F2.0
sVmay
p2301
F1.0
sVstatus
p2302
F1.0
sVbe
p2303
F1.0
sV``
p2304
F1.0
sVfar
p2305
F1.0
sVcompany
p2306
F1.0
sVnouns
p2307
F1.0
sVsuch
p2308
F1.0
sVT-FLOAT
p2309
F1.0
sg121
F1.0
sVof
p2310
F1.0
sVcommon
p2311
F1.0
sVthe
p2312
F4.0
sVexpression
p2313
F1.0
sVexample
p2314
F1.0
sVare
p2315
F1.0
saa(lp2316
S'X96-1048112'
p2317
a(dp2318
Vand
p2319
F2.0
sVtext
p2320
F1.0
sVspectrum
p2321
F1.0
sVone
p2322
F1.0
sVnames
p2323
F1.0
sVin
p2324
F1.0
sVproper
p2325
F1.0
sValiases
p2326
F1.0
sVare
p2327
F2.0
sVwhose
p2328
F1.0
sVend
p2329
F1.0
sVappear
p2330
F1.0
sVdefinite
p2331
F1.0
sg7
F1.0
sVwhich
p2332
F1.0
sVmay
p2333
F1.0
sVinherently
p2334
F1.0
sVreferent
p2335
F1.0
sVT-FLOAT
p2336
F1.0
sVof
p2337
F1.0
sVanywhere
p2338
F1.0
sVthe
p2339
F3.0
sVat
p2340
F1.0
saa(lp2341
S'X96-1048113'
p2342
a(dp2343
Vand
p2344
F2.0
sVis
p2345
F1.0
sVspectrum
p2346
F1.0
sVmiddle
p2347
F1.0
sVas
p2348
F1.0
sVare
p2349
F1.0
sVin
p2350
F1.0
sVT-FLOAT
p2351
F1.0
sVconstrained
p2352
F1.0
sVwhose
p2353
F1.0
sVfactors
p2354
F1.0
sVdefinite
p2355
F1.0
sVrelations
p2356
F1.0
sVdiscourse
p2357
F1.0
sVpronouns
p2358
F1.0
sVfocus
p2359
F1.0
sVchoice
p2360
F1.0
sVreferent
p2361
F1.0
sVsuch
p2362
F1.0
sVby
p2363
F1.0
sVstructural
p2364
F1.0
sVof
p2365
F2.0
sVthe
p2366
F2.0
sVdescriptions
p2367
F1.0
saa(lp2368
S'X96-1048110'
p2369
a(dp2370
Vexporter
p2371
F1.0
sVauto
p2372
F1.0
sVis
p2373
F1.0
sVvehicles
p2374
F1.0
sVto
p2375
F1.0
sVamerican
p2376
F1.0
sVlatin
p2377
F1.0
sVT-FLOAT
p2378
F1.0
sVmotor
p2379
F1.0
sVbiggest
p2380
F1.0
sVinternational
p2381
F1.0
sg799
F2.0
sVamerica
p2382
F1.0
sg800
F2.0
sVthe
p2383
F1.0
saa(lp2384
S'X96-1048111'
p2385
a(dp2386
g121
F1.0
sVtask
p2387
F1.0
sVbroad
p2388
F1.0
sVin
p2389
F1.0
sVphenomena
p2390
F1.0
sVspectrum
p2391
F1.0
sVcovers
p2392
F1.0
sVpassage
p2393
F1.0
sVT-FLOAT
p2394
F1.0
sVof
p2395
F1.0
sVincluded
p2396
F1.0
sVthe
p2397
F3.0
sVexample
p2398
F1.0
saa(lp2399
S'X96-1048118'
p2400
a(dp2401
Vmodels
p2402
F1.0
sVof
p2403
F1.0
sVequivalence
p2404
F2.0
sVclasses
p2405
F1.0
sVrelation
p2406
F1.0
sVare
p2407
F1.0
sVcoreference
p2408
F1.0
sVthe
p2409
F3.0
sVT-FLOAT
p2410
F1.0
sVidentity
p2411
F1.0
saa(lp2412
S'X96-1048119'
p2413
a(dp2414
Vand
p2415
F2.0
sVsimple
p2416
F1.0
sVobtains
p2417
F1.0
sVin
p2418
F1.0
sVT-FLOAT
p2419
F1.0
sVcounting
p2420
F1.0
sVequivalence
p2421
F1.0
sg7
F1.0
sVresponse
p2422
F1.0
sVto
p2423
F1.0
sVperturbations
p2424
F1.0
sVscheme
p2425
F1.0
sVminimal
p2426
F1.0
sVprecision
p2427
F1.0
sVkey
p2428
F1.0
sVscores
p2429
F1.0
sVusing
p2430
F1.0
sVby
p2431
F1.0
sg121
F1.0
sValgorithm
p2432
F1.0
sVrecall
p2433
F1.0
sValign
p2434
F1.0
sVrequired
p2435
F1.0
sVclasses
p2436
F1.0
sVdetermining
p2437
F1.0
sVthe
p2438
F4.0
saa(lp2439
S'X96-1048215'
p2440
a(dp2441
Vone
p2442
F1.0
sVdown
p2443
F1.0
sVin
p2444
F1.0
sVevent
p2445
F1.0
sVif
p2446
F1.0
sVgiven
p2447
F1.0
sVto
p2448
F1.0
sVcriteria
p2449
F1.0
sVrelevance
p2450
F1.0
sVdocument
p2451
F1.0
sVmore
p2452
F1.0
sVmeets
p2453
F1.0
sVobject
p2454
F1.0
sVsuccession_event
p2455
F1.0
sVobjects
p2456
F1.0
sVthe
p2457
F3.0
sVtask
p2458
F1.0
sVthis
p2459
F1.0
sVdocumentation
p2460
F1.0
sVpoints
p2461
F1.0
sVT-FLOAT
p2462
F1.0
sVor
p2463
F1.0
saa(lp2464
S'X96-1048214'
p2465
a(dp2466
Vthere
p2467
F1.0
sVwhich
p2468
F1.0
sVfor
p2469
F1.0
sVlevel
p2470
F1.0
sVinstantiated
p2471
F1.0
sVof
p2472
F1.0
sVtop
p2473
F1.0
sVobject
p2474
F1.0
sg7
F1.0
sVone
p2475
F1.0
sVT-FLOAT
p2476
F1.0
sVevery
p2477
F1.0
sVat
p2478
F1.0
sVtemplate
p2479
F1.0
sVthe
p2480
F2.0
sVdocument
p2481
F1.0
sVis
p2482
F2.0
saa(lp2483
S'X96-1048217'
p2484
a(dp2485
Vrepresent
p2486
F1.0
sVdown
p2487
F2.0
sVin
p2488
F2.0
sVevent
p2489
F1.0
sVib~and_out
p2490
F1.0
sVturn
p2491
F1.0
sg7
F1.0
sVto
p2492
F2.0
sVtemplate
p2493
F1.0
sVwhich
p2494
F1.0
sVthat
p2495
F1.0
sVobject
p2496
F2.0
sVsuccession_event
p2497
F1.0
sVpersons
p2498
F1.0
sVobjects
p2499
F1.0
sVthe
p2500
F4.0
sVinvolved
p2501
F1.0
sVelement
p2502
F1.0
sVperson
p2503
F1.0
sVpoints
p2504
F2.0
sVsuccession
p2505
F1.0
sVT-FLOAT
p2506
F1.0
saa(lp2507
S'X96-1048216'
p2508
a(dp2509
g121
F1.0
sVwithin
p2510
F1.0
sVwith
p2511
F1.0
sVcaptures
p2512
F1.0
sVcompany
p2513
F1.0
sVobject
p2514
F1.0
sVone
p2515
F1.0
sVto
p2516
F1.0
sVpost
p2517
F1.0
sVmanagement
p2518
F1.0
sVT-FLOAT
p2519
F1.0
sVeach
p2520
F1.0
sVrespect
p2521
F1.0
sVthe
p2522
F1.0
sVchanges
p2523
F1.0
sVevent
p2524
F1.0
sVoccurring
p2525
F1.0
saa(lp2526
S'X96-1048211'
p2527
a(dp2528
Vand
p2529
F1.0
sVall
p2530
F1.0
sVdefined
p2531
F1.0
sVgeneral
p2532
F2.0
sVcourse
p2533
F1.0
sVin
p2534
F1.0
sVevent
p2535
F1.0
sVone
p2536
F1.0
sVT-INT
p2537
F2.0
sg7
F1.0
sVscenarios
p2538
F1.0
sVto
p2539
F2.0
sVmuc
p2540
F2.0
sVformalize
p2541
F1.0
sVwas
p2542
F1.0
sVtemplates
p2543
F1.0
sVthat
p2544
F1.0
sVconformed
p2545
F1.0
sVinnovations
p2546
F1.0
sVT-FLOAT
p2547
F1.0
sVstructure
p2548
F2.0
sVof
p2549
F4.0
sVthree
p2550
F1.0
sVthe
p2551
F3.0
saa(lp2552
S'X96-1048210'
p2553
a(dp2554
Vand
p2555
F1.0
sVan
p2556
F1.0
sVsecond
p2557
F1.0
sVdesign
p2558
F1.0
sVfor
p2559
F2.0
sg7
F2.0
sVT-INT
p2560
F1.0
sVmuc
p2561
F1.0
sVevauation
p2562
F1.0
sVevaluation
p2563
F1.0
sVused
p2564
F3.0
sVrun
p2565
F1.0
sVwas
p2566
F3.0
sVgeneral
p2567
F1.0
sVT-FLOAT
p2568
F1.0
sVformal
p2569
F1.0
sVdry
p2570
F1.0
sVtask
p2571
F1.0
sVthird
p2572
F1.0
sVscenario
p2573
F1.0
sVof
p2574
F2.0
sVas
p2575
F1.0
sVst
p2576
F1.0
sVthe
p2577
F7.0
sVexample
p2578
F1.0
sVfirst
p2579
F1.0
saa(lp2580
S'X96-1048198'
p2581
a(dp2582
Vorg_name
p2583
F1.0
sVorganization
p2584
F1.0
sVmiscategorizations
p2585
F1.0
sVorg_alias
p2586
F1.0
sVentities
p2587
F1.0
sg201
F2.0
sg16
F2.0
sVper_name
p2588
F1.0
sVperson
p2589
F1.0
sVas
p2590
F1.0
sVper_alias
p2591
F1.0
sVof
p2592
F2.0
sVinstead
p2593
F1.0
sVT-FLOAT
p2594
F1.0
sVor
p2595
F2.0
saa(lp2596
S'X96-1048212'
p2597
a(dp2598
Vbe
p2599
F1.0
sVmanagement
p2600
F1.0
sVfor
p2601
F1.0
sVscenario
p2602
F1.0
sVbasis
p2603
F1.0
sVthis
p2604
F1.0
sVdiscussion
p2605
F1.0
sVsuccession
p2606
F1.0
sg7
F1.0
sVwill
p2607
F1.0
sVas
p2608
F1.0
sVused
p2609
F1.0
sVin
p2610
F1.0
sVarticle
p2611
F1.0
sVthe
p2612
F2.0
sVT-FLOAT
p2613
F1.0
saa(lp2614
S'X96-1048196'
p2615
a(dp2616
Vand
p2617
F1.0
sVis
p2618
F1.0
sVthus
p2619
F1.0
sVdisregarded
p2620
F1.0
sVsystem
p2621
F1.0
sVproduced
p2622
F1.0
sVas
p2623
F1.0
sVbeen
p2624
F1.0
sVin
p2625
F1.0
sVtotal
p2626
F1.0
sVconfiguration
p2627
F2.0
sVbaseline
p2628
F1.0
sg201
F1.0
sg16
F1.0
sg7
F1.0
sVsame
p2629
F1.0
sVeleven
p2630
F1.0
sVsystems
p2631
F1.0
sg827
F1.0
sVhas
p2632
F1.0
sVtallies
p2633
F1.0
sVnumber
p2634
F1.0
sVan
p2635
F1.0
sVT-FLOAT
p2636
F1.0
sVtallied
p2637
F1.0
sVsra
p2638
F1.0
sVof
p2639
F2.0
sVoutput
p2640
F1.0
sVthe
p2641
F5.0
sVexperimental
p2642
F1.0
saa(lp2643
S'X96-1048197'
p2644
a(dp2645
VT-INT
p2646
F1.0
sVT-FLOAT
p2647
F1.0
saa(lp2648
S'X96-1048194'
p2649
a(dp2650
g121
F1.0
sVinformation
p2651
F1.0
sVerrors
p2652
F1.0
sVkinds
p2653
F1.0
sVsince
p2654
F1.0
sVwrong
p2655
F1.0
sVlevel
p2656
F1.0
sVthese
p2657
F1.0
sVof
p2658
F2.0
sVis
p2659
F1.0
sVobject
p2660
F2.0
sg7
F1.0
sVpenalty
p2661
F1.0
sVextracted
p2662
F1.0
sVcontained
p2663
F1.0
sVresult
p2664
F1.0
sVin
p2665
F2.0
sVthe
p2666
F3.0
sVtype
p2667
F1.0
sVT-FLOAT
p2668
F1.0
sVat
p2669
F1.0
saa(lp2670
S'X96-1048195'
p2671
a(dp2672
Vappear
p2673
F1.0
sVthat
p2674
F1.0
sVthese
p2675
F1.0
sVof
p2676
F4.0
sVeach
p2677
F1.0
sg7
F1.0
sVnumber
p2678
F1.0
sVT-FLOAT
p2679
F1.0
sVbelow
p2680
F1.0
sVexamples
p2681
F1.0
sVcommitted
p2682
F1.0
sVerror
p2683
F2.0
sValong
p2684
F1.0
sVwith
p2685
F1.0
sVthe
p2686
F2.0
sVtypes
p2687
F1.0
sVsystems
p2688
F1.0
saa(lp2689
S'X96-1048192'
p2690
a(dp2691
Vnumber
p2692
F1.0
sVentity
p2693
F1.0
sVwalkthrough
p2694
F1.0
sVresult
p2695
F1.0
sVviewed
p2696
F1.0
sVfrom
p2697
F2.0
sVexamples
p2698
F1.0
sVinteresting
p2699
F1.0
sg7
F1.0
sVpresents
p2700
F1.0
sVconfusions
p2701
F1.0
sVte
p2702
F1.0
sVtype
p2703
F1.0
sVthat
p2704
F1.0
sVprocessing
p2705
F1.0
sVarticle
p2706
F1.0
sVT-FLOAT
p2707
F1.0
sg121
F1.0
sVtask
p2708
F1.0
sVof
p2709
F3.0
sVcan
p2710
F1.0
sVinsufficient
p2711
F1.0
sVthe
p2712
F3.0
sVperspective
p2713
F1.0
saa(lp2714
S'X96-1048193'
p2715
a(dp2716
Vand
p2717
F1.0
sVnonrelevant
p2718
F1.0
sVis
p2719
F1.0
sVan
p2720
F1.0
sVas
p2721
F3.0
sVreferences
p2722
F1.0
sVnames
p2723
F2.0
sVindefinite
p2724
F1.0
sVetc
p2725
F1.0
sg201
F1.0
sg16
F1.0
sVthere
p2726
F3.0
sg7
F5.0
sVlocation
p2727
F1.0
sVmisidentified
p2728
F3.0
sVcase
p2729
F1.0
sVcases
p2730
F2.0
sVentity
p2731
F1.0
sVtypes
p2732
F1.0
sg121
F2.0
sVorganizations
p2733
F1.0
sVname
p2734
F2.0
sVof
p2735
F3.0
sVperson
p2736
F1.0
sVproducts
p2737
F1.0
sVpublications
p2738
F1.0
sVorganization
p2739
F2.0
sVT-FLOAT
p2740
F2.0
sVare
p2741
F2.0
saa(lp2742
S'X96-1048190'
p2743
a(dp2744
Vunclear
p2745
F1.0
sVprimarily
p2746
F1.0
sVfinalized
p2747
F1.0
sVreasons
p2748
F1.0
sVwhen
p2749
F1.0
sVis
p2750
F2.0
sVguidelines
p2751
F1.0
sVit
p2752
F2.0
sVat
p2753
F1.0
sVhuman
p2754
F1.0
sVT-FLOAT
p2755
F1.0
sVattributable
p2756
F1.0
sVtheir
p2757
F1.0
sVrelatively
p2758
F1.0
sVslot
p2759
F1.0
sVgiven
p2760
F1.0
sVfor
p2761
F2.0
sVto
p2762
F1.0
sVhad
p2763
F1.0
sg7
F1.0
sVbeen
p2764
F1.0
sVshould
p2765
F1.0
sValso
p2766
F1.0
sVversion
p2767
F1.0
sVlow
p2768
F1.0
sVabove
p2769
F1.0
sVperformance
p2770
F1.0
sVwas
p2771
F1.0
sVannotators
p2772
F1.0
sVbe
p2773
F2.0
sVdegree
p2774
F1.0
sVthat
p2775
F3.0
sVkeys
p2776
F1.0
sVdisagreement
p2777
F2.0
sVbut
p2778
F1.0
sVnot
p2779
F1.0
sVby
p2780
F1.0
sVon
p2781
F1.0
sVtask
p2782
F1.0
sVcreated
p2783
F1.0
sVthis
p2784
F1.0
sVof
p2785
F2.0
sVor
p2786
F1.0
sVwhether
p2787
F2.0
sVaccounted
p2788
F1.0
sVcan
p2789
F1.0
sVtime
p2790
F1.0
sVthe
p2791
F8.0
sVnoted
p2792
F1.0
sVfact
p2793
F1.0
saa(lp2794
S'X96-1048191'
p2795
a(dp2796
Vall
p2797
F1.0
sVset
p2798
F1.0
sVis
p2799
F1.0
sVresults
p2800
F1.0
sV''
p2801
F1.0
sVwalkthrough
p2802
F2.0
sVas
p2803
F3.0
sVfor
p2804
F1.0
sg7
F1.0
sVsystems
p2805
F2.0
sVtest
p2806
F1.0
sVperformance
p2807
F2.0
sVte
p2808
F2.0
sVwas
p2809
F1.0
sV``
p2810
F1.0
sVgood
p2811
F1.0
sVbut
p2812
F1.0
sVhalf
p2813
F1.0
sVnot
p2814
F1.0
sVarticle
p2815
F2.0
sVdifference
p2816
F1.0
sVT-FLOAT
p2817
F1.0
sg121
F1.0
sVon
p2818
F3.0
sVabout
p2819
F1.0
sVof
p2820
F1.0
sVsmall
p2821
F1.0
sVthe
p2822
F4.0
sVwhole
p2823
F1.0
saa(lp2824
S'X96-104846'
p2825
a(dp2826
Vtemplate-filling
p2827
F1.0
sVand
p2828
F1.0
sVessentially
p2829
F1.0
sVused
p2830
F2.0
sVscenario
p2831
F1.0
sVfor
p2832
F2.0
sVne
p2833
F1.0
sVsame
p2834
F1.0
sVtwo
p2835
F1.0
sVmetrics
p2836
F1.0
sVT-FLOAT
p2837
F1.0
sVas
p2838
F1.0
sVtasks
p2839
F1.0
sVare
p2840
F1.0
sVtemplate
p2841
F2.0
sVthe
p2842
F3.0
sVelement
p2843
F1.0
sVevaluation
p2844
F1.0
sg7
F1.0
sVthose
p2845
F1.0
saa(lp2846
S'X96-104845'
p2847
a(dp2848
Vand
p2849
F6.0
sVusages
p2850
F1.0
sVindustrial
p2851
F1.0
sVaddresses
p2852
F1.0
sVreference
p2853
F1.0
sVpeople
p2854
F1.0
sVwall
p2855
F1.0
sVyear
p2856
F1.0
sVuses
p2857
F1.0
sVdates
p2858
F1.0
sVadjectival
p2859
F1.0
sV''
p2860
F13.0
sVcurrency
p2861
F1.0
sVas
p2862
F1.0
sVstreet
p2863
F1.0
sVincluding
p2864
F1.0
sVnames
p2865
F5.0
sVperiodical
p2866
F1.0
sVin
p2867
F1.0
sVindirect
p2868
F1.0
sVfew
p2869
F1.0
sV/
p2870
F1.0
sVphysical
p2871
F1.0
sVare
p2872
F1.0
sVrd
p2873
F1.0
sVor
p2874
F1.0
sVend
p2875
F1.0
sVT-INT
p2876
F7.0
sVperson
p2877
F1.0
sg201
F6.0
sg16
F6.0
sg7
F9.0
sVexpressions
p2878
F1.0
sVvague
p2879
F1.0
sVforms
p2880
F1.0
sVto
p2881
F2.0
sVother
p2882
F1.0
sVlocation
p2883
F1.0
sVbefore
p2884
F1.0
sg827
F4.0
sVinclude
p2885
F1.0
sVnumbers
p2886
F1.0
sVjones
p2887
F1.0
sV``
p2888
F13.0
sVrepublicans
p2889
F1.0
sV's
p2890
F1.0
sVthat
p2891
F1.0
sVsome
p2892
F1.0
sVjournal
p2893
F1.0
sVobject
p2894
F1.0
sVmiscellaneous
p2895
F3.0
sVfees
p2896
F1.0
sValzheimer
p2897
F1.0
sVgroups
p2898
F1.0
sVmentions
p2899
F1.0
sg799
F2.0
sg800
F2.0
sVT-FLOAT
p2900
F3.0
sVafter
p2901
F1.0
sg121
F2.0
sVgrammrudman
p2902
F1.0
sVthirty
p2903
F1.0
sVhour
p2904
F1.0
sVof
p2905
F8.0
sVaverage
p2906
F1.0
sVpercentage
p2907
F1.0
sVdays
p2908
F1.0
sVtimes
p2909
F2.0
sVnon-markables
p2910
F1.0
sVgatchell
p2911
F1.0
sVpoints
p2912
F1.0
sVproducts
p2913
F1.0
sVamerican
p2914
F1.0
sVthe
p2915
F4.0
sVsimilar
p2916
F1.0
sVminutes
p2917
F1.0
sVdow
p2918
F1.0
sVmacintosh
p2919
F1.0
saa(lp2920
S'X96-104844'
p2921
a(dp2922
Vand
p2923
F3.0
sVorganizations
p2924
F1.0
sVdates
p2925
F1.0
sVindicated
p2926
F1.0
sVcurrency
p2927
F1.0
sVpercentages
p2928
F1.0
sVof
p2929
F2.0
sVmarkables
p2930
F1.0
sg7
F6.0
sVlocations
p2931
F1.0
sVdirect
p2932
F1.0
sVpersons
p2933
F1.0
sVas
p2934
F1.0
sVvalues
p2935
F1.0
sVnames
p2936
F1.0
sVabove
p2937
F1.0
sVmentions
p2938
F1.0
sVT-FLOAT
p2939
F1.0
sVinclude
p2940
F1.0
sVtimes
p2941
F1.0
saa(lp2942
S'X96-104843'
p2943
a(dp2944
Vbe
p2945
F1.0
sVmarkables
p2946
F1.0
sVannotated
p2947
F1.0
sVthat
p2948
F1.0
sVtext
p2949
F1.0
sVtermed
p2950
F1.0
sVto
p2951
F1.0
sVare
p2952
F2.0
sVT-FLOAT
p2953
F1.0
sVstrings
p2954
F1.0
saa(lp2955
S'X96-104842'
p2956
a(dp2957
Vand
p2958
F2.0
sVtagged
p2959
F1.0
sVattribute
p2960
F1.0
sVtag
p2961
F1.0
sVvalue
p2962
F3.0
sVT-FLOAT
p2963
F1.0
sVfor
p2964
F3.0
sVperson
p2965
F1.0
sVpercent
p2966
F1.0
sg7
F5.0
sVlocation
p2967
F1.0
sVmoney
p2968
F1.0
sg827
F2.0
sg207
F1.0
sVtype
p2969
F4.0
sVbe
p2970
F3.0
sVnumex
p2971
F1.0
sVstring
p2972
F1.0
sVtime
p2973
F1.0
sVdate
p2974
F1.0
sVthe
p2975
F4.0
sg121
F1.0
sVtimex
p2976
F1.0
sVof
p2977
F1.0
sVaccompanies
p2978
F1.0
sVelement
p2979
F1.0
sVsubtype
p2980
F1.0
sVenamex
p2981
F1.0
sVcan
p2982
F3.0
sVeach
p2983
F2.0
sVorganization
p2984
F1.0
sVidentifies
p2985
F1.0
sVor
p2986
F3.0
saa(lp2987
S'X96-104841'
p2988
a(dp2989
Vand
p2990
F4.0
sVlocations
p2991
F1.0
sVentity
p2992
F1.0
sVcurrency
p2993
F1.0
sVnamely
p2994
F1.0
sVtag
p2995
F1.0
sVare
p2996
F1.0
sVexpressions
p2997
F2.0
sVnumber
p2998
F1.0
sVfor
p2999
F3.0
sg201
F3.0
sg16
F3.0
sVtemporal
p3000
F1.0
sg7
F7.0
sVonly
p3001
F1.0
sVconsisting
p3002
F1.0
sVnumex
p3003
F1.0
sVelements
p3004
F1.0
sVdirect
p3005
F2.0
sVpersons
p3006
F1.0
sVT-FLOAT
p3007
F1.0
sVorganizations
p3008
F1.0
sVdates
p3009
F1.0
sVtimex
p3010
F1.0
sVpercentages
p3011
F1.0
sVof
p3012
F3.0
sVcomprising
p3013
F1.0
sVtimes
p3014
F1.0
sVenamex
p3015
F1.0
sVvalues
p3016
F1.0
sVmentions
p3017
F2.0
sVthe
p3018
F1.0
sVnames
p3019
F1.0
saa(lp3020
S'X96-104840'
p3021
a(dp3022
Vnamed
p3023
F2.0
sVtask
p3024
F1.0
sVstream
p3025
F1.0
sVtags
p3026
F1.0
sVof
p3027
F1.0
sVinto
p3028
F1.0
sVsgml
p3029
F1.0
sVentity
p3030
F2.0
sVinsertion
p3031
F1.0
sVtext
p3032
F1.0
sVthe
p3033
F2.0
sVrequires
p3034
F1.0
sVT-FLOAT
p3035
F1.0
saa(lp3036
S'X96-1048248'
p3037
a(dp3038
Veme
p3039
F1.0
sVjjv
p3040
F1.0
sVT-INT
p3041
F16.0
sVmuc
p3042
F5.0
sVtable
p3043
F1.0
sVT-FLOAT
p3044
F6.0
sVejv
p3045
F1.0
sVjme
p3046
F1.0
saa(lp3047
S'X96-1048281'
p3048
a(dp3049
Vlimited
p3050
F1.0
sVnamed
p3051
F1.0
sVtasks
p3052
F1.0
sVfinancial
p3053
F1.0
sVne
p3054
F1.0
sVis
p3055
F2.0
sVexecutive
p3056
F1.0
sVprimary
p3057
F1.0
sVone
p3058
F1.0
sV''
p3059
F6.0
sVincluding
p3060
F1.0
sVin
p3061
F1.0
sVcritique
p3062
F1.0
sVits
p3063
F1.0
sVfill
p3064
F1.0
sVlarge
p3065
F1.0
sVfor
p3066
F2.0
sVdiscussion
p3067
F1.0
sg7
F9.0
sVT-INT
p3068
F1.0
sVchairman
p3069
F1.0
sVscope
p3070
F1.0
sg207
F1.0
sVevaluation
p3071
F1.0
sVevents
p3072
F1.0
sV``
p3073
F6.0
sVceo
p3074
F1.0
sVhandful
p3075
F1.0
sVsubject
p3076
F1.0
sVhowever
p3077
F1.0
sVmost
p3078
F1.0
sVoperating
p3079
F1.0
sVpresident
p3080
F1.0
sg799
F1.0
sVentity
p3081
F1.0
sg800
F1.0
sVT-FLOAT
p3082
F2.0
sg121
F1.0
sVof
p3083
F3.0
sVpossibilities
p3084
F1.0
sVetc
p3085
F1.0
sVchief
p3086
F3.0
sVofficer
p3087
F3.0
sVthe
p3088
F3.0
sVreview
p3089
F1.0
saa(lp3090
S'X96-104849'
p3091
a(dp3092
Vseven
p3093
F1.0
sVover
p3094
F1.0
sVne
p3095
F1.0
sVas
p3096
F1.0
sVin
p3097
F1.0
sVtable
p3098
F1.0
sVshown
p3099
F1.0
sg76
F1.0
sVfor
p3100
F1.0
sg7
F2.0
sVT-INT
p3101
F2.0
sVsystems
p3102
F2.0
sVwhich
p3103
F1.0
sVperformance
p3104
F1.0
sVwas
p3105
F1.0
sVf-measure
p3106
F1.0
sVsites
p3107
F1.0
sVoverall
p3108
F1.0
sVdifferent
p3109
F1.0
sVincludes
p3110
F1.0
sVtested
p3111
F1.0
sVhalf
p3112
F1.0
sVfrom
p3113
F1.0
sVT-FLOAT
p3114
F1.0
sVon
p3115
F2.0
sVtask
p3116
F1.0
sVof
p3117
F1.0
sVthe
p3118
F3.0
saa(lp3119
S'X96-104848'
p3120
a(dp3121
Vand
p3122
F1.0
sVne
p3123
F2.0
sVtesting
p3124
F1.0
sVresults
p3125
F1.0
sVsites
p3126
F1.0
sVfour
p3127
F1.0
sVincluding
p3128
F1.0
sVin
p3129
F1.0
sVT-FLOAT
p3130
F1.0
sVtotal
p3131
F1.0
sVfor
p3132
F2.0
sVsystem
p3133
F1.0
sVT-INT
p3134
F1.0
sVsystems
p3135
F1.0
sVevaluation
p3136
F1.0
sVthat
p3137
F2.0
sVoverall
p3138
F1.0
sVtwo
p3139
F2.0
sVone
p3140
F1.0
sVfifteen
p3141
F1.0
sg7
F2.0
sg121
F1.0
sVparticipated
p3142
F1.0
sVsubmitted
p3143
F2.0
sVof
p3144
F1.0
sVthe
p3145
F1.0
sVconfigurations
p3146
F1.0
saa(lp3147
S'X96-1048228'
p3148
a(dp3149
Vrelevant
p3150
F1.0
sVbeing
p3151
F1.0
sVis
p3152
F1.0
sVit
p3153
F1.0
sVmarked
p3154
F1.0
sVsystem
p3155
F1.0
sVas
p3156
F1.0
sVare
p3157
F1.0
sVin
p3158
F1.0
sVevent
p3159
F2.0
sVif
p3160
F1.0
sVthat
p3161
F1.0
sg7
F1.0
sVdoes
p3162
F1.0
sVwhich
p3163
F1.0
sVanswer
p3164
F1.0
sVmarginally
p3165
F1.0
sVmeans
p3166
F1.0
sVobject
p3167
F1.0
sVobjects
p3168
F1.0
sVkey
p3169
F1.0
sVnot
p3170
F2.0
sVsuch
p3171
F1.0
sVan
p3172
F1.0
sVoptional
p3173
F1.0
sVT-FLOAT
p3174
F1.0
sg121
F1.0
sVproduce
p3175
F1.0
sVthe
p3176
F1.0
sVpenalized
p3177
F1.0
saa(lp3178
S'X96-1048229'
p3179
a(dp3180
Vand
p3181
F1.0
sVother_org
p3182
F1.0
sVrelevant
p3183
F1.0
sVnonrelevant
p3184
F1.0
sVorg_alias
p3185
F1.0
sVnew_status
p3186
F1.0
sVorg_country
p3187
F1.0
sg7
F10.0
sVtexts
p3188
F1.0
sVper_alias
p3189
F1.0
sVio
p3190
F1.0
sVrg_type
p3191
F1.0
sVon_the_job
p3192
F1.0
sg201
F4.0
sg16
F3.0
sVapproximate
p3193
F1.0
sV~q
p3194
F1.0
sVT-INT
p3195
F4.0
sVsplit
p3196
F1.0
sVtemplate
p3197
F2.0
sVbetween
p3198
F1.0
sVorg_descriptor
p3199
F1.0
sVfigure
p3200
F1.0
sVwas
p3201
F1.0
sVvacancy_reason
p3202
F1.0
sV``
p3203
F1.0
sVrel
p3204
F1.0
sVin_and_out
p3205
F2.0
sVame
p3206
F1.0
sVorg
p3207
F1.0
sVpost
p3208
F1.0
sVorg_name
p3209
F1.0
sVT-FLOAT
p3210
F1.0
sVper_title
p3211
F1.0
sVlevel
p3212
F2.0
sVjccession_eve/~
p3213
F1.0
sVj
p3214
F1.0
sVelement
p3215
F1.0
sVperson
p3216
F1.0
sg2120
F1.0
sVorg_locale
p3217
F1.0
sVsuccession
p3218
F1.0
sVorganization
p3219
F1.0
sVthe
p3220
F1.0
saa(lp3221
S'X96-1048208'
p3222
a(dp3223
g121
F1.0
sVinformation
p3224
F1.0
sVtask
p3225
F1.0
sVdomain-and
p3226
F1.0
sVscenario
p3227
F2.0
sVcaptures
p3228
F1.0
sVtask-specific
p3229
F1.0
sVdescriptor
p3230
F1.0
sVidentify
p3231
F1.0
sVT-FLOAT
p3232
F1.0
sVtemplate
p3233
F2.0
sVthe
p3234
F1.0
sVor
p3235
F1.0
saa(lp3236
S'X96-1048209'
p3237
a(dp3238
Vand
p3239
F1.0
sVmanagers
p3240
F1.0
sVdefined
p3241
F1.0
sVposts
p3242
F1.0
sVexecutive
p3243
F1.0
sV''
p3244
F3.0
sVcourse
p3245
F1.0
sVin
p3246
F2.0
sVlabor
p3247
F2.0
sVorders
p3248
F1.0
sVnegotiations
p3249
F2.0
sVoccupying
p3250
F1.0
sVmanagement
p3251
F1.0
sVT-INT
p3252
F1.0
sg201
F3.0
sg16
F3.0
sVplacing
p3253
F1.0
sVthree
p3254
F1.0
sVevent
p3255
F2.0
sVscenarios
p3256
F1.0
sVto
p3257
F1.0
sVunions
p3258
F1.0
sVmuc
p3259
F1.0
sVbetween
p3260
F1.0
sg827
F2.0
sg207
F1.0
sVcorporate
p3261
F1.0
sV``
p3262
F3.0
sVbuy
p3263
F1.0
sVmanufacturers
p3264
F1.0
sVconcerning
p3265
F3.0
sVsuccession
p3266
F1.0
sVaircraft
p3267
F3.0
sVwith
p3268
F1.0
sVT-FLOAT
p3269
F1.0
sg121
F3.0
sVorganizations
p3270
F1.0
sVscenario
p3271
F6.0
sVof
p3272
F3.0
sVcompanies
p3273
F1.0
sVcontract
p3274
F1.0
sVwere
p3275
F1.0
sVthe
p3276
F6.0
sVchanges
p3277
F1.0
sVorder
p3278
F1.0
saa(lp3279
S'X96-1048254'
p3280
a(dp3281
Vbe
p3282
F1.0
sVsucceeded
p3283
F1.0
sVdooner
p3284
F1.0
sg7
F1.0
sVwill
p3285
F1.0
sVT-INT
p3286
F1.0
sVmr
p3287
F1.0
sVT-FLOAT
p3288
F2.0
sVby
p3289
F1.0
sVhe
p3290
F1.0
saa(lp3291
S'X96-1048249'
p3292
a(dp3293
Vand
p3294
F2.0
sVtasks
p3295
F1.0
sVjapanese
p3296
F2.0
sVone
p3297
F1.0
sVfour
p3298
F1.0
sVtable
p3299
F1.0
sVfor
p3300
F3.0
sg2092
F1.0
sVtop
p3301
F1.0
sg7
F4.0
sVnote
p3302
F1.0
sVT-INT
p3303
F4.0
sVmuc
p3304
F3.0
sg207
F1.0
sVshows
p3305
F1.0
sVf-measure
p3306
F1.0
sVthat
p3307
F1.0
sVenglish
p3308
F2.0
sVlanguage-domain
p3309
F1.0
sVjoint
p3310
F2.0
sVscores
p3311
F2.0
sVpair
p3312
F1.0
sVhighest
p3313
F1.0
sVposted
p3314
F1.0
sVventures
p3315
F2.0
sVmicroelectronics
p3316
F2.0
sVst
p3317
F1.0
sg2119
F1.0
sg2120
F1.0
sVeach
p3318
F1.0
sVT-FLOAT
p3319
F1.0
saa(lp3320
S'X96-1048202'
p3321
a(dp3322
Vand
p3323
F1.0
sVall
p3324
F1.0
sVten
p3325
F1.0
sVare
p3326
F1.0
sVin
p3327
F1.0
sVT-FLOAT
p3328
F1.0
sVcertainly
p3329
F1.0
sg201
F1.0
sg16
F1.0
sVentities
p3330
F3.0
sVsystems
p3331
F1.0
sVmiscategofized
p3332
F1.0
sg827
F1.0
sVte
p3333
F1.0
sVwas
p3334
F1.0
sVproblems
p3335
F1.0
sVbut
p3336
F1.0
sVfive
p3337
F1.0
sVkey
p3338
F1.0
sVfifteen
p3339
F1.0
sVby
p3340
F1.0
sVnone
p3341
F1.0
sVtractable
p3342
F1.0
sVof
p3343
F2.0
sVperson
p3344
F1.0
sVorganization
p3345
F1.0
sVthe
p3346
F4.0
saa(lp3347
S'X96-1048203'
p3348
a(dp3349
Vand
p3350
F1.0
sVtext
p3351
F1.0
sVnumber
p3352
F1.0
sVsystem
p3353
F2.0
sVwalkthrough
p3354
F1.0
sVexamples
p3355
F2.0
sVin
p3356
F1.0
sVmiscategorization
p3357
F1.0
sVslot
p3358
F1.0
sVerrors
p3359
F2.0
sVaddition
p3360
F1.0
sVinteresting
p3361
F1.0
sg7
F2.0
sVto
p3362
F1.0
sVother
p3363
F1.0
sVprovides
p3364
F1.0
sVobject
p3365
F1.0
sVT-FLOAT
p3366
F1.0
sg121
F1.0
sVlevel
p3367
F2.0
sVsuccesses
p3368
F1.0
sVof
p3369
F3.0
sVplus
p3370
F1.0
sVthe
p3371
F3.0
sVat
p3372
F1.0
saa(lp3373
S'X96-1048200'
p3374
a(dp3375
Vnonrelevant
p3376
F1.0
sVindicated
p3377
F1.0
sVis
p3378
F1.0
sV''
p3379
F1.0
sVas
p3380
F1.0
sVartists
p3381
F1.0
sVT-FLOAT
p3382
F2.0
sVmiscategorization
p3383
F1.0
sVcategory
p3384
F1.0
sVorg_alias
p3385
F1.0
sVdescriptor
p3386
F1.0
sg201
F3.0
sg16
F3.0
sVagency
p3387
F2.0
sg7
F5.0
sVcreative
p3388
F1.0
sVentities
p3389
F1.0
sVlocation
p3390
F2.0
sVorg_descriptor
p3391
F1.0
sVinstead
p3392
F1.0
sVhollywood
p3393
F2.0
sg207
F1.0
sVsystems
p3394
F1.0
sV``
p3395
F1.0
sVbig
p3396
F1.0
sVorg
p3397
F2.0
sVetwo
p3398
F1.0
sVby
p3399
F1.0
sVtalent
p3400
F1.0
sVname
p3401
F3.0
sVof
p3402
F2.0
sValias
p3403
F1.0
sVcontext
p3404
F1.0
sVorganization
p3405
F2.0
sVthe
p3406
F1.0
sVor
p3407
F1.0
saa(lp3408
S'X96-1048206'
p3409
a(dp3410
Vand
p3411
F1.0
sg7
F2.0
sVare
p3412
F1.0
sVartists
p3413
F1.0
sVcoca-cola
p3414
F1.0
sVfor
p3415
F1.0
sVagency
p3416
F1.0
sVthree
p3417
F1.0
sVcreative
p3418
F1.0
sVsystems
p3419
F1.0
sVgot
p3420
F1.0
sVperfectly
p3421
F1.0
sVcorrect
p3422
F1.0
sVthat
p3423
F1.0
sVmccannerickson
p3424
F1.0
sVobjects
p3425
F1.0
sVT-FLOAT
p3426
F1.0
sVnone
p3427
F1.0
sVof
p3428
F1.0
sVlarger
p3429
F1.0
sVcompanies
p3430
F1.0
sVorganization
p3431
F1.0
sVthe
p3432
F3.0
saa(lp3433
S'X96-1048207'
p3434
a(dp3435
Valias
p3436
F1.0
sVerrors
p3437
F1.0
sV's
p3438
F1.0
sVname
p3439
F1.0
sVmissing
p3440
F1.0
sVthese
p3441
F1.0
sVT-FLOAT
p3442
F1.0
sVlocale/country
p3443
F1.0
sVthree
p3444
F1.0
sVits
p3445
F1.0
sVto
p3446
F1.0
sVobjects
p3447
F1.0
sVcommon
p3448
F1.0
sVin
p3449
F1.0
sVincluded
p3450
F1.0
sVorganization
p3451
F2.0
sVthe
p3452
F1.0
sVwith
p3453
F1.0
sVor
p3454
F1.0
sVfailing
p3455
F1.0
saa(lp3456
S'X96-1048204'
p3457
a(dp3458
Vand
p3459
F2.0
sVsmaller
p3460
F2.0
sVjust
p3461
F1.0
sVis
p3462
F1.0
sVone
p3463
F5.0
sVfour
p3464
F1.0
sVas
p3465
F1.0
sVat
p3466
F2.0
sVin
p3467
F2.0
sVslots
p3468
F1.0
sVaddition
p3469
F1.0
sVgroup
p3470
F1.0
sVsystem
p3471
F2.0
sVfor
p3472
F1.0
sg201
F1.0
sg16
F1.0
sVsix
p3473
F1.0
sVtwo
p3474
F2.0
sVleast
p3475
F2.0
sVsystems
p3476
F1.0
sg827
F1.0
sVperfectly
p3477
F2.0
sVwas
p3478
F1.0
sVfilled
p3479
F1.0
sg7
F1.0
sVthat
p3480
F1.0
sVT-FLOAT
p3481
F1.0
sVobject
p3482
F1.0
sVwere
p3483
F1.0
sVobjects
p3484
F3.0
sVkey
p3485
F1.0
sVwith
p3486
F1.0
sVby
p3487
F2.0
sVthose
p3488
F1.0
sVmatched
p3489
F2.0
sg121
F1.0
sVsuccess
p3490
F1.0
sVof
p3491
F1.0
sVlarger
p3492
F2.0
sVperson
p3493
F2.0
sVeach
p3494
F1.0
sVorganization
p3495
F2.0
sVthe
p3496
F3.0
sVor
p3497
F1.0
saa(lp3498
S'X96-1048148'
p3499
a(dp3500
Vin
p3501
F1.0
sVentity
p3502
F2.0
sV''
p3503
F1.0
sVtype
p3504
F1.0
sVfor
p3505
F1.0
sVcontains
p3506
F1.0
sg7
F1.0
sVT-INT
p3507
F2.0
sVmuc
p3508
F1.0
sVwas
p3509
F1.0
sV``
p3510
F1.0
sVused
p3511
F1.0
sVrun
p3512
F2.0
sVthat
p3513
F1.0
sVobject
p3514
F1.0
sVartifact
p3515
F1.0
sVincludes
p3516
F1.0
sVbut
p3517
F1.0
sVnot
p3518
F1.0
sVan
p3519
F1.0
sVT-FLOAT
p3520
F1.0
sVformal
p3521
F1.0
sVdry
p3522
F1.0
sVdefinition
p3523
F1.0
sVtask
p3524
F1.0
sVof
p3525
F1.0
sVdocumentation
p3526
F1.0
sVperson
p3527
F1.0
sVeither
p3528
F1.0
sVthe
p3529
F4.0
sVor
p3530
F1.0
saa(lp3531
S'X96-1048163'
p3532
a(dp3533
Vand
p3534
F1.0
sVset
p3535
F2.0
sVas
p3536
F2.0
sVin
p3537
F1.0
sVmentioned
p3538
F1.0
sVnegotiations
p3539
F1.0
sVbased
p3540
F1.0
sVfor
p3541
F2.0
sVunion
p3542
F1.0
sVthere
p3543
F2.0
sg7
F2.0
sVlabor
p3544
F1.0
sVT-INT
p3545
F1.0
sVonly
p3546
F1.0
sVwhich
p3547
F1.0
sVtest
p3548
F2.0
sVwas
p3549
F1.0
sg121
F1.0
sVused
p3550
F2.0
sVrun
p3551
F2.0
sVmuc
p3552
F1.0
sVorganizations
p3553
F1.0
sVconcerning
p3554
F1.0
sVpersons
p3555
F1.0
sVhalf
p3556
F1.0
sVT-FLOAT
p3557
F1.0
sVformal
p3558
F1.0
sVdry
p3559
F1.0
sVon
p3560
F1.0
sVabout
p3561
F1.0
sVscenario
p3562
F1.0
sVmany
p3563
F1.0
sVcontract
p3564
F1.0
sVwere
p3565
F2.0
sVthe
p3566
F3.0
saa(lp3567
S'X96-1048162'
p3568
a(dp3569
Vset
p3570
F1.0
sVis
p3571
F2.0
sVnumber
p3572
F1.0
sVone
p3573
F1.0
sVbias
p3574
F1.0
sVsimply
p3575
F1.0
sVat
p3576
F1.0
sVin
p3577
F1.0
sVmentioned
p3578
F1.0
sVdescribed
p3579
F1.0
sVfor
p3580
F3.0
sVT-INT
p3581
F2.0
sVentities
p3582
F1.0
sVtest
p3583
F1.0
sg207
F1.0
sVmethod
p3584
F1.0
sVused
p3585
F1.0
sVselecting
p3586
F1.0
sVeffect
p3587
F1.0
sVarticle
p3588
F1.0
sVbeginning
p3589
F1.0
sVT-FLOAT
p3590
F1.0
sVarticles
p3591
F2.0
sVthis
p3592
F2.0
sVof
p3593
F3.0
sVthe
p3594
F7.0
saa(lp3595
S'X96-1048161'
p3596
a(dp3597
Vand
p3598
F1.0
sVset
p3599
F1.0
sVis
p3600
F1.0
sVas
p3601
F1.0
sVin
p3602
F1.0
sVT-FLOAT
p3603
F1.0
sVsubject
p3604
F1.0
sVcontent
p3605
F1.0
sVmanagement
p3606
F1.0
sVfor
p3607
F2.0
sg7
F2.0
sVsame
p3608
F1.0
sVoriented
p3609
F1.0
sVconcerns
p3610
F1.0
sVtherefore
p3611
F1.0
sVwhich
p3612
F1.0
sVcovered
p3613
F1.0
sg827
F1.0
sVte
p3614
F1.0
sVwas
p3615
F1.0
sVcorporate
p3616
F1.0
sVused
p3617
F1.0
sVterms
p3618
F1.0
sVby
p3619
F1.0
sVarticles
p3620
F2.0
sVtask
p3621
F1.0
sVof
p3622
F2.0
sVst
p3623
F2.0
sVmatter
p3624
F1.0
sVthe
p3625
F5.0
sVtoward
p3626
F1.0
sVchanges
p3627
F1.0
saa(lp3628
S'X96-1048160'
p3629
a(dp3630
Vand
p3631
F2.0
sVversus
p3632
F1.0
sVin
p3633
F2.0
sVfor
p3634
F1.0
sVperson
p3635
F2.0
sVthere
p3636
F1.0
sg7
F2.0
sVst
p3637
F1.0
sVT-INT
p3638
F4.0
sVobjects
p3639
F2.0
sVkey
p3640
F2.0
sVwere
p3641
F1.0
sVorganization
p3642
F2.0
sVthe
p3643
F3.0
sVte
p3644
F1.0
sVevaluation
p3645
F1.0
sVT-FLOAT
p3646
F1.0
sVformal
p3647
F1.0
saa(lp3648
S'X96-1048167'
p3649
a(dp3650
Vand
p3651
F2.0
sVone
p3652
F1.0
sV''
p3653
F2.0
sVas
p3654
F2.0
sVin
p3655
F1.0
sVf-measure
p3656
F1.0
sVT-FLOAT
p3657
F2.0
sVscoring
p3658
F1.0
sg76
F2.0
sVscore
p3659
F1.0
sg7
F2.0
sVT-INT
p3660
F4.0
sVother
p3661
F1.0
sVdraft
p3662
F2.0
sVwhich
p3663
F1.0
sVwas
p3664
F1.0
sVmethod
p3665
F1.0
sV``
p3666
F2.0
sV's
p3667
F2.0
sVoverall
p3668
F1.0
sVannotator
p3669
F2.0
sVprecision
p3670
F1.0
sVkey
p3671
F3.0
sVusing
p3672
F1.0
sVwith
p3673
F1.0
sVresponse
p3674
F1.0
sVon
p3675
F1.0
sVrecall
p3676
F1.0
sVserves
p3677
F2.0
sVconsistency
p3678
F1.0
sVthe
p3679
F6.0
saa(lp3680
S'X96-1048166'
p3681
a(dp3682
Vand
p3683
F2.0
sVset
p3684
F1.0
sVco
p3685
F1.0
sVtesting
p3686
F1.0
sVne
p3687
F1.0
sVproduced
p3688
F1.0
sVhuman
p3689
F1.0
sVin
p3690
F2.0
sVT-FLOAT
p3691
F1.0
sVsaic
p3692
F1.0
sVfor
p3693
F2.0
sg201
F1.0
sg16
F1.0
sVtwo
p3694
F1.0
sVsame
p3695
F1.0
sVT-INT
p3696
F2.0
sVbetween
p3697
F1.0
sVtest
p3698
F1.0
sVperformance
p3699
F1.0
sVwas
p3700
F1.0
sVevaluators
p3701
F1.0
sVvariability
p3702
F1.0
sVused
p3703
F1.0
sVterms
p3704
F1.0
sVthat
p3705
F1.0
sVoutputs
p3706
F1.0
sVmeasured
p3707
F1.0
sVby
p3708
F1.0
sVarticles
p3709
F2.0
sVof
p3710
F2.0
sVwere
p3711
F1.0
sVthe
p3712
F5.0
sVnrad
p3713
F1.0
saa(lp3714
S'X96-1048165'
p3715
a(dp3716
Vand
p3717
F1.0
sVall
p3718
F1.0
sVfigure
p3719
F1.0
sVwhile
p3720
F1.0
sg7
F2.0
sVfour
p3721
F1.0
sVas
p3722
F1.0
sVin
p3723
F4.0
sVshown
p3724
F1.0
sg76
F3.0
sVT-INT
p3725
F4.0
sVable
p3726
F1.0
sVtwo
p3727
F1.0
sVto
p3728
F1.0
sVsystems
p3729
F2.0
sVachieve
p3730
F1.0
sVf-measure
p3731
F1.0
sVwere
p3732
F1.0
sVprecision
p3733
F1.0
sVbut
p3734
F1.0
sVscores
p3735
F1.0
sVT-FLOAT
p3736
F1.0
sVmaintaining
p3737
F1.0
sVposted
p3738
F1.0
sVrecall
p3739
F1.0
sVrange
p3740
F3.0
sVof
p3741
F2.0
sVthe
p3742
F6.0
saa(lp3743
S'X96-1048164'
p3744
a(dp3745
Vtwelve
p3746
F1.0
sVtesting
p3747
F1.0
sVresults
p3748
F1.0
sVone
p3749
F1.0
sVincluding
p3750
F1.0
sVT-FLOAT
p3751
F1.0
sVfor
p3752
F1.0
sVeleven
p3753
F1.0
sVsystem
p3754
F1.0
sVsites
p3755
F1.0
sVsystems
p3756
F1.0
sVte
p3757
F2.0
sVthat
p3758
F1.0
sVoverall
p3759
F1.0
sVtested
p3760
F1.0
sVtwo
p3761
F1.0
sg7
F1.0
sVon
p3762
F1.0
sVtask
p3763
F1.0
sV--
p3764
F1.0
sVsubmitted
p3765
F1.0
sVwere
p3766
F1.0
sVthe
p3767
F1.0
sV-from
p3768
F1.0
sVconfigurations
p3769
F1.0
saa(lp3770
S'X96-1048169'
p3771
a(dp3772
Vslots
p3773
F1.0
sVobject
p3774
F1.0
sVin
p3775
F1.0
sVfigure
p3776
F1.0
sVindicates
p3777
F1.0
sVof
p3778
F2.0
sVeach
p3779
F1.0
sVcontributed
p3780
F1.0
sVrelative
p3781
F1.0
sVT-INT
p3782
F1.0
sVamount
p3783
F1.0
sVT-FLOAT
p3784
F1.0
sVerror
p3785
F1.0
sVorganization
p3786
F1.0
sVthe
p3787
F3.0
sVby
p3788
F1.0
saa(lp3789
S'X96-1048168'
p3790
a(dp3791
Vfigure
p3792
F1.0
sVis
p3793
F2.0
sVsome
p3794
F1.0
sVresults
p3795
F1.0
sVas
p3796
F3.0
sVin
p3797
F1.0
sVgiven
p3798
F1.0
sVrequirements
p3799
F1.0
sVvaried
p3800
F1.0
sVfor
p3801
F1.0
sVT-INT
p3802
F2.0
sg7
F2.0
sVextraction
p3803
F1.0
sVperformance
p3804
F1.0
sVte
p3805
F2.0
sVwas
p3806
F1.0
sVmore
p3807
F1.0
sVgood
p3808
F1.0
sVaspects
p3809
F1.0
sVthat
p3810
F2.0
sVobject
p3811
F2.0
sVit
p3812
F1.0
sVnot
p3813
F2.0
sVT-FLOAT
p3814
F1.0
sVon
p3815
F3.0
sVtask
p3816
F2.0
sVsurprising
p3817
F1.0
sVof
p3818
F2.0
sVclear
p3819
F1.0
sVperson
p3820
F1.0
sVportion
p3821
F1.0
sVorganization
p3822
F1.0
sVthe
p3823
F4.0
saa(lp3824
S'X96-1048220'
p3825
a(dp3826
Vrelevant
p3827
F1.0
sVexists
p3828
F1.0
sVpointed
p3829
F2.0
sVin
p3830
F1.0
sVT-FLOAT
p3831
F1.0
sVevent
p3832
F1.0
sVout
p3833
F1.0
sVmanagement
p3834
F1.0
sVfrom
p3835
F1.0
sVto
p3836
F3.0
sVgoing
p3837
F1.0
sVrelational
p3838
F1.0
sg827
F1.0
sVis
p3839
F4.0
sVwho
p3840
F1.0
sVthat
p3841
F1.0
sVobject
p3842
F2.0
sVmoving
p3843
F1.0
sVcoming
p3844
F1.0
sVpost
p3845
F2.0
sVby
p3846
F2.0
sVof
p3847
F1.0
sVperson
p3848
F1.0
sVorganization
p3849
F4.0
sVthe
p3850
F9.0
sVwhere
p3851
F1.0
sVor
p3852
F2.0
saa(lp3853
S'X96-1048283'
p3854
a(dp3855
Vand
p3856
F1.0
sVlimited
p3857
F1.0
sVrestriction
p3858
F1.0
sVis
p3859
F1.0
sVone
p3860
F1.0
sVrelative
p3861
F1.0
sVas
p3862
F1.0
sVexclude
p3863
F1.0
sVexpressions
p3864
F3.0
sValso
p3865
F1.0
sVtemporal
p3866
F2.0
sVto
p3867
F1.0
sVcovered
p3868
F1.0
sg827
F1.0
sVwas
p3869
F1.0
sVweek
p3870
F1.0
sV``
p3871
F2.0
sVnumerical
p3872
F1.0
sVnotable
p3873
F1.0
sVsuch
p3874
F1.0
sVby
p3875
F1.0
sV''
p3876
F2.0
sVtask
p3877
F1.0
sVlast
p3878
F1.0
sVof
p3879
F2.0
sVT-FLOAT
p3880
F1.0
sVrange
p3881
F1.0
sVtime
p3882
F1.0
sVthe
p3883
F3.0
sVexample
p3884
F1.0
saa(lp3885
S'X96-1048282'
p3886
a(dp3887
g121
F1.0
sVproduct
p3888
F1.0
sg219
F1.0
sVname
p3889
F1.0
sg226
F1.0
sVvariety
p3890
F1.0
sVof
p3891
F1.0
sg7
F1.0
sVnames
p3892
F1.0
sVexcluded
p3893
F1.0
sVwere
p3894
F1.0
sVproper
p3895
F1.0
sVT-FLOAT
p3896
F3.0
sVtypes
p3897
F1.0
saa(lp3898
S'X96-1048280'
p3899
a(dp3900
Vin
p3901
F1.0
sVan
p3902
F1.0
sVwalkthrough
p3903
F1.0
sVas
p3904
F2.0
sVarticle
p3905
F1.0
sVseen
p3906
F1.0
sVevent
p3907
F1.0
sVfill
p3908
F1.0
sVtitle
p3909
F1.0
sg7
F3.0
sVstrategy
p3910
F1.0
sVchairman
p3911
F1.0
sVofficer
p3912
F1.0
sVworldwide
p3913
F1.0
sVbe
p3914
F1.0
sV``
p3915
F2.0
sVextended
p3916
F1.0
sVsuch
p3917
F1.0
sVT-FLOAT
p3918
F1.0
sVthird
p3919
F1.0
sVvice
p3920
F1.0
sVof
p3921
F1.0
sVchief
p3922
F1.0
sVcan
p3923
F1.0
sVthe
p3924
F3.0
saa(lp3925
S'X96-1048265'
p3926
a(dp3927
Vparaphrased
p3928
F1.0
sVtable
p3929
F1.0
sVT-FLOAT
p3930
F1.0
sVfor
p3931
F2.0
sVT-INT
p3932
F2.0
sVcontains
p3933
F1.0
sg7
F1.0
sVactually
p3934
F1.0
sVto
p3935
F1.0
sVsystems
p3936
F1.0
sVmuc
p3937
F1.0
sVwas
p3938
F2.0
sVevents
p3939
F1.0
sVbe
p3940
F1.0
sVthat
p3941
F2.0
sVgenerated
p3942
F2.0
sValong
p3943
F1.0
sVwith
p3944
F1.0
sVby
p3945
F1.0
sg121
F2.0
sVthese
p3946
F1.0
sVof
p3947
F3.0
sVevaluated
p3948
F1.0
sVsummary
p3949
F2.0
sVeach
p3950
F1.0
sVoutput
p3951
F2.0
sVthe
p3952
F2.0
saa(lp3953
S'X96-104832'
p3954
a(dp3955
Vbe
p3956
F1.0
sVused
p3957
F1.0
sVretrievals
p3958
F1.0
sVdo
p3959
F1.0
sVto
p3960
F1.0
sVit
p3961
F1.0
sg7
F1.0
sValso
p3962
F1.0
sVboolean
p3963
F1.0
sVcan
p3964
F1.0
sVunranked
p3965
F1.0
sVT-FLOAT
p3966
F1.0
saa(lp3967
S'X96-104833'
p3968
a(dp3969
Vand
p3970
F1.0
sVall
p3971
F1.0
sVbecause
p3972
F1.0
sVnonrelevant
p3973
F1.0
sVscan
p3974
F1.0
sVfeel
p3975
F1.0
sVis
p3976
F1.0
sVsome
p3977
F1.0
sVresults
p3978
F1.0
sVas
p3979
F2.0
sVboolean
p3980
F2.0
sVidentify
p3981
F1.0
sVare
p3982
F1.0
sVin
p3983
F1.0
sVquery
p3984
F1.0
sVrelatively
p3985
F1.0
sVdocuments
p3986
F1.0
sVfor
p3987
F2.0
sVvariety
p3988
F1.0
sVinitial
p3989
F1.0
sg7
F2.0
sVfast
p3990
F1.0
sVto
p3991
F3.0
sVthat
p3992
F1.0
sVcandidates
p3993
F1.0
sVtemplate
p3994
F1.0
sVcorpus
p3995
F1.0
sVwas
p3996
F1.0
sVmethod
p3997
F1.0
sVmatch
p3998
F1.0
sVused
p3999
F1.0
sVterms
p4000
F1.0
sVeasy
p4001
F1.0
sVget
p4002
F1.0
sVrelevant
p4003
F1.0
sVprobing
p4004
F1.0
sVT-FLOAT
p4005
F1.0
sg121
F1.0
sVtask
p4006
F1.0
sVscenario
p4007
F1.0
sVof
p4008
F3.0
sVwell
p4009
F1.0
sVor
p4010
F1.0
sVunranked
p4011
F1.0
sVthe
p4012
F8.0
sVretrieval
p4013
F2.0
saa(lp4014
S'X96-104830'
p4015
a(dp4016
Vand
p4017
F1.0
sVwall
p4018
F1.0
sVagreed
p4019
F1.0
sVsites
p4020
F1.0
sVphase
p4021
F1.0
sVas
p4022
F1.0
sVstreet
p4023
F1.0
sVbegun
p4024
F1.0
sVin
p4025
F1.0
sVseek
p4026
F1.0
sVout
p4027
F1.0
sVfrom
p4028
F1.0
sVfor
p4029
F2.0
sVhad
p4030
F2.0
sg7
F3.0
sVbeen
p4031
F1.0
sVto
p4032
F2.0
sVepoch
p4033
F1.0
sVdisclosed
p4034
F1.0
sVtemplate
p4035
F1.0
sVevaluation
p4036
F2.0
sVparticipation
p4037
F1.0
sVthat
p4038
F1.0
sVjournal
p4039
F1.0
sVnot
p4040
F1.0
sVT-FLOAT
p4041
F3.0
sVcondition
p4042
F1.0
sg121
F1.0
sVarticles
p4043
F1.0
sVtraining
p4044
F1.0
sVtask
p4045
F1.0
sg219
F1.0
sVscenario
p4046
F2.0
sg1590
F1.0
sVof
p4047
F1.0
sVexploit
p4048
F1.0
sVparticipants
p4049
F1.0
sVthe
p4050
F7.0
sVonce
p4051
F2.0
saa(lp4052
S'X96-104831'
p4053
a(dp4054
Vand
p4055
F2.0
sVset
p4056
F2.0
sVtext
p4057
F1.0
sVis
p4058
F1.0
sg7
F2.0
sVsearch
p4059
F1.0
sVquery
p4060
F1.0
sVT-FLOAT
p4061
F1.0
sVbased
p4062
F1.0
sVwhose
p4063
F1.0
sVfrom
p4064
F1.0
sVto
p4065
F1.0
sVmanaging
p4066
F1.0
sVwith
p4067
F1.0
sVsystem
p4068
F1.0
sVT-INT
p4069
F1.0
sVtest
p4070
F1.0
sVdrawn
p4071
F1.0
sVcorpus
p4072
F1.0
sVmatch
p4073
F1.0
sVengine
p4074
F1.0
sVcontext-vector
p4075
F1.0
sVdegree
p4076
F1.0
sVon
p4077
F1.0
sVgigabytes
p4078
F1.0
sVeach
p4079
F1.0
sVhits
p4080
F1.0
sVranked
p4081
F1.0
sVusing
p4082
F1.0
sVproducing
p4083
F1.0
sVmodel
p4084
F1.0
sg121
F4.0
sVarticles
p4085
F1.0
sVtraining
p4086
F1.0
sVkeyword
p4087
F1.0
sVof
p4088
F3.0
sVlist
p4089
F1.0
sVaccording
p4090
F1.0
sVretrieval
p4091
F2.0
sVwere
p4092
F1.0
sVthe
p4093
F2.0
sVcalled
p4094
F1.0
sVconsisted
p4095
F1.0
saa(lp4096
S'X96-104836'
p4097
a(dp4098
Vsubset
p4099
F1.0
sVand
p4100
F1.0
sVnamed
p4101
F1.0
sVrelevant
p4102
F1.0
sVtasks
p4103
F1.0
sVsome
p4104
F1.0
sVentity
p4105
F1.0
sVas
p4106
F1.0
sVset
p4107
F1.0
sVuse
p4108
F1.0
sVfrom
p4109
F1.0
sVfor
p4110
F2.0
sVT-INT
p4111
F2.0
sg201
F1.0
sg16
F1.0
sVselected
p4112
F1.0
sg7
F2.0
sVto
p4113
F1.0
sVtemplate
p4114
F1.0
sVtest
p4115
F2.0
sVwas
p4116
F1.0
sVcoreference
p4117
F1.0
sVothers
p4118
F1.0
sVnot
p4119
F1.0
sVT-FLOAT
p4120
F1.0
sg121
F1.0
sVarticles
p4121
F2.0
sVtask
p4122
F1.0
sVscenario
p4123
F1.0
sVof
p4124
F1.0
sVthe
p4125
F4.0
saa(lp4126
S'X96-104837'
p4127
a(dp4128
Vand
p4129
F1.0
sVselection
p4130
F1.0
sVset
p4131
F1.0
sVdone
p4132
F1.0
sVin
p4133
F1.0
sVagain
p4134
F1.0
sVtype
p4135
F1.0
sg7
F1.0
sVto
p4136
F1.0
sVwas
p4137
F2.0
sVchecks
p4138
F1.0
sVfairly
p4139
F1.0
sVterms
p4140
F1.0
sVthat
p4141
F1.0
sVrepresentative
p4142
F1.0
sVblindly
p4143
F1.0
sVarticle
p4144
F1.0
sVwith
p4145
F1.0
sVT-FLOAT
p4146
F1.0
sVof
p4147
F1.0
sVlater
p4148
F1.0
sVlength
p4149
F1.0
sVensure
p4150
F1.0
sVthe
p4151
F2.0
saa(lp4152
S'X96-104834'
p4153
a(dp4154
Vand
p4155
F2.0
sVapproximately
p4156
F1.0
sVnonrelevant
p4157
F1.0
sVfeature
p4158
F1.0
sVrelevant
p4159
F1.0
sVat
p4160
F1.0
sVsampled
p4161
F1.0
sVdifferent
p4162
F1.0
sVto
p4163
F1.0
sg201
F1.0
sg16
F1.0
sVetc
p4164
F1.0
sVhad
p4165
F1.0
sg7
F6.0
sVbeen
p4166
F1.0
sVT-INT
p4167
F2.0
sVnotices
p4168
F1.0
sVwas
p4169
F2.0
sVmethod
p4170
F1.0
sVused
p4171
F1.0
sVeditorials
p4172
F1.0
sVbrief
p4173
F1.0
sVranked
p4174
F2.0
sVarticle
p4175
F1.0
sVrepresenting
p4176
F1.0
sVT-FLOAT
p4177
F2.0
sVtypes
p4178
F1.0
sg121
F1.0
sVarticles
p4179
F2.0
sVscenario
p4180
F1.0
sVof
p4181
F1.0
sVvariety
p4182
F1.0
sVlist
p4183
F1.0
sVidentified
p4184
F1.0
sVcollect
p4185
F1.0
sVpoints
p4186
F1.0
sVthe
p4187
F3.0
sVretrieval
p4188
F1.0
sVonce
p4189
F1.0
saa(lp4190
S'X96-104835'
p4191
a(dp4192
Vand
p4193
F3.0
sVin
p4194
F2.0
sVtypes
p4195
F1.0
sVfrom
p4196
F1.0
sVfor
p4197
F1.0
sVselected
p4198
F1.0
sg7
F2.0
sVthose
p4199
F1.0
sVtest
p4200
F1.0
sVchecks
p4201
F1.0
sVsets
p4202
F1.0
sVblindly
p4203
F1.0
sVarticle
p4204
F1.0
sVwith
p4205
F1.0
sVT-FLOAT
p4206
F1.0
sVcategories
p4207
F1.0
sVarticles
p4208
F1.0
sVtraining
p4209
F1.0
sVcandidate
p4210
F1.0
sVlater
p4211
F1.0
sVrelevant/nonrelevant
p4212
F1.0
sVimbalances
p4213
F1.0
sVwere
p4214
F1.0
sVcorrections
p4215
F1.0
sVthe
p4216
F2.0
saa(lp4217
S'X96-1048286'
p4218
a(dp4219
Vand
p4220
F1.0
sVnamed
p4221
F1.0
sVtext
p4222
F1.0
sVis
p4223
F1.0
sVentity
p4224
F1.0
sVtipster
p4225
F1.0
sVauspices
p4226
F1.0
sVevaluation
p4227
F1.0
sg201
F1.0
sg16
F1.0
sg7
F2.0
sVT-INT
p4228
F1.0
sVprogram
p4229
F1.0
sVmuc
p4230
F1.0
sVunder
p4231
F1.0
sVout
p4232
F1.0
sVwas
p4233
F1.0
sVmultilingual
p4234
F1.0
sVmet
p4235
F1.0
sVT-FLOAT
p4236
F1.0
sVcarried
p4237
F1.0
sVlike
p4238
F1.0
sVthis
p4239
F1.0
sVof
p4240
F1.0
sVthe
p4241
F3.0
sVcalled
p4242
F1.0
saa(lp4243
S'X96-104838'
p4244
a(dp4245
Vand
p4246
F1.0
sVnamed
p4247
F1.0
sVdomain-independent
p4248
F1.0
sVdefined
p4249
F1.0
sVtesting
p4250
F1.0
sVentity
p4251
F1.0
sVas
p4252
F1.0
sVtasks
p4253
F1.0
sVare
p4254
F1.0
sVtemplate
p4255
F2.0
sVfor
p4256
F1.0
sVto
p4257
F1.0
sVselected
p4258
F1.0
sg7
F2.0
sVnote
p4259
F1.0
sVT-INT
p4260
F1.0
sVcoreference
p4261
F1.0
sVcriteria
p4262
F1.0
sVused
p4263
F1.0
sVmuc
p4264
F1.0
sVthat
p4265
F2.0
sValthough
p4266
F1.0
sVusing
p4267
F1.0
sVT-FLOAT
p4268
F1.0
sVdomain-dependent
p4269
F1.0
sVarticles
p4270
F1.0
sVtask
p4271
F1.0
sVpertinent
p4272
F1.0
sVscenario
p4273
F1.0
sVelement
p4274
F1.0
sVwere
p4275
F2.0
sVthe
p4276
F2.0
saa(lp4277
S'X96-104839'
p4278
a(dp4279
Vmanually
p4280
F1.0
sVdeveloped
p4281
F1.0
sVcomputing
p4282
F1.0
sVtipster
p4283
F1.0
sVlaboratory
p4284
F1.0
sVT-FLOAT
p4285
F1.0
sVfor
p4286
F1.0
sVrasa
p4287
F1.0
sVmexico
p4288
F1.0
sg7
F1.0
sVresearch
p4289
F1.0
sVtabula
p4290
F1.0
sVstate
p4291
F1.0
sVprogram
p4292
F1.0
sVtext
p4293
F1.0
sVnew
p4294
F1.0
sVfilled
p4295
F1.0
sVtemplates
p4296
F1.0
sVtool
p4297
F1.0
sVwith
p4298
F1.0
sVby
p4299
F1.0
sg121
F1.0
sVcreated
p4300
F1.0
sVof
p4301
F1.0
sVuniversity
p4302
F1.0
sVwere
p4303
F1.0
sVaid
p4304
F1.0
sVthe
p4305
F3.0
sVsoftware
p4306
F1.0
saa(lp4307
S'X96-1048287'
p4308
a(dp4309
Vgained
p4310
F1.0
sVtask
p4311
F1.0
sVfrom
p4312
F1.0
sVversion
p4313
F1.0
sVthat
p4314
F1.0
sVof
p4315
F1.0
sVserve
p4316
F1.0
sVexperience
p4317
F1.0
sVwill
p4318
F1.0
sVto
p4319
F1.0
sVas
p4320
F1.0
sVcritical
p4321
F1.0
sVT-FLOAT
p4322
F1.0
sVrevising
p4323
F1.0
sVinput
p4324
F1.0
sVthe
p4325
F3.0
sVevaluation
p4326
F1.0
sVengish
p4327
F1.0
saa(lp4328
S'X96-1048284'
p4329
a(dp4330
Vand
p4331
F1.0
sVrestriction
p4332
F1.0
sVlimited
p4333
F1.0
sVwall
p4334
F1.0
sVstreet
p4335
F1.0
sVidentify
p4336
F1.0
sVin
p4337
F2.0
sVT-FLOAT
p4338
F1.0
sVfor
p4339
F1.0
sVvariety
p4340
F1.0
sVmarkables
p4341
F1.0
sVreliance
p4342
F1.0
sVto
p4343
F2.0
sVcandidates
p4344
F1.0
sVresulted
p4345
F1.0
sVcorpus
p4346
F1.0
sVcapitalization
p4347
F1.0
sVon
p4348
F1.0
sVjournal
p4349
F1.0
sVannotation
p4350
F1.0
sg121
F1.0
sVarticles
p4351
F1.0
sVof
p4352
F2.0
sVthe
p4353
F1.0
saa(lp4354
S'X96-1048279'
p4355
a(dp4356
Vslot
p4357
F2.0
sg121
F1.0
sVand
p4358
F1.0
sVstring
p4359
F1.0
sVfills
p4360
F1.0
sVno
p4361
F1.0
sVtext
p4362
F1.0
sVis
p4363
F1.0
sVthere
p4364
F1.0
sVlist
p4365
F1.0
sg7
F1.0
sVpossible
p4366
F1.0
sVT-FLOAT
p4367
F1.0
sVas
p4368
F1.0
sVof
p4369
F1.0
sVfor
p4370
F1.0
sVthe
p4371
F2.0
sVfinite
p4372
F1.0
sVrequires
p4373
F1.0
sVpost
p4374
F1.0
sVfill
p4375
F1.0
saa(lp4376
S'X96-1048278'
p4377
a(dp4378
Vslot
p4379
F1.0
sVon
p4380
F1.0
sVgood
p4381
F1.0
sg76
F2.0
sg201
F1.0
sg16
F1.0
sVlowest
p4382
F1.0
sVerror
p4383
F1.0
sVmedian
p4384
F1.0
sVquite
p4385
F1.0
sVT-INT
p4386
F2.0
sVas
p4387
F1.0
sVof
p4388
F1.0
sVT-FLOAT
p4389
F1.0
sg827
F1.0
sVnot
p4390
F1.0
sVperformance
p4391
F1.0
sVthe
p4392
F2.0
sVwas
p4393
F2.0
sVpost
p4394
F1.0
saa(lp4395
S'X96-1048277'
p4396
a(dp4397
Vand
p4398
F1.0
sVlimited
p4399
F1.0
sVright
p4400
F1.0
sValmost
p4401
F1.0
sVis
p4402
F2.0
sVnumber
p4403
F1.0
sVin
p4404
F1.0
sVinvolved
p4405
F1.0
sVout
p4406
F1.0
sVslot
p4407
F1.0
sVfill
p4408
F1.0
sVdepending
p4409
F1.0
sg7
F2.0
sVassuming
p4410
F1.0
sVanswer
p4411
F1.0
sVhas
p4412
F1.0
sVpost
p4413
F2.0
sVT-FLOAT
p4414
F1.0
sg121
F3.0
sVon
p4415
F1.0
sVvacating
p4416
F1.0
sVthis
p4417
F1.0
sVof
p4418
F1.0
sVoptions
p4419
F1.0
sVwhether
p4420
F1.0
sVperson
p4421
F1.0
sVeither
p4422
F1.0
sValways
p4423
F1.0
sVthe
p4424
F2.0
sVor
p4425
F2.0
saa(lp4426
S'X96-1048276'
p4427
a(dp4428
Vis
p4429
F2.0
sVperformed
p4430
F1.0
sVbest
p4431
F1.0
sVslot
p4432
F2.0
sg76
F2.0
sg201
F1.0
sg16
F1.0
sVT-INT
p4433
F2.0
sVscore
p4434
F1.0
sVsystems
p4435
F1.0
sg827
F1.0
sVlowest
p4436
F1.0
sVthat
p4437
F2.0
sVerror
p4438
F1.0
sVmost
p4439
F1.0
sVthe
p4440
F2.0
sVposted
p4441
F1.0
sVon
p4442
F2.0
sVnewstatus
p4443
F1.0
sVmedian
p4444
F1.0
sVof
p4445
F1.0
sVT-FLOAT
p4446
F1.0
saa(lp4447
S'X96-1048275'
p4448
a(dp4449
Vlowest
p4450
F1.0
sVon
p4451
F2.0
sVand
p4452
F1.0
sVerror
p4453
F1.0
sg76
F4.0
sg201
F2.0
sg16
F2.0
sVwere
p4454
F1.0
sVmedian
p4455
F2.0
sVonzi'he_job
p4456
F1.0
sVT-INT
p4457
F4.0
sVof
p4458
F2.0
sVscores
p4459
F1.0
sVvacancy_reason
p4460
F1.0
sVthe
p4461
F1.0
sVT-FLOAT
p4462
F1.0
saa(lp4463
S'X96-1048274'
p4464
a(dp4465
Vvacancy_reason
p4466
F1.0
sVand
p4467
F1.0
sVall
p4468
F1.0
sVfor
p4469
F1.0
sVon
p4470
F1.0
sVT-FLOAT
p4471
F1.0
sVbetter
p4472
F1.0
sVslots
p4473
F1.0
sVjob
p4474
F1.0
sVnearly
p4475
F1.0
sVperformance
p4476
F1.0
sVthe
p4477
F1.0
sVwas
p4478
F1.0
sVon_the
p4479
F1.0
sVsystems
p4480
F1.0
saa(lp4481
S'X96-1048273'
p4482
a(dp4483
Vand
p4484
F2.0
sVother_org
p4485
F1.0
sValmost
p4486
F1.0
sVscores
p4487
F1.0
sVtwo
p4488
F1.0
sVin
p4489
F1.0
sVslots
p4490
F1.0
sVany
p4491
F1.0
sVbest
p4492
F1.0
sVpoorly
p4493
F1.0
sg76
F4.0
sg201
F2.0
sg16
F2.0
sg7
F1.0
sVT-INT
p4494
F4.0
sVscore
p4495
F1.0
sVsystems
p4496
F1.0
sg827
F1.0
sVmore
p4497
F1.0
sVin_and_out
p4498
F1.0
sVerror
p4499
F2.0
sVsuccession_event
p4500
F1.0
sVobjects
p4501
F1.0
sVothers
p4502
F1.0
sVorg
p4503
F1.0
sVthan
p4504
F1.0
sVthose
p4505
F1.0
sVposted
p4506
F1.0
sVon
p4507
F4.0
sVexception
p4508
F1.0
sVdid
p4509
F1.0
sVof
p4510
F2.0
sVmedian
p4511
F2.0
sVT-FLOAT
p4512
F1.0
sVwithout
p4513
F1.0
sVwere
p4514
F1.0
sVthe
p4515
F2.0
sVrel_other
p4516
F1.0
saa(lp4517
S'X96-1048272'
p4518
a(dp4519
Vother_org
p4520
F2.0
sVoften
p4521
F1.0
sVover
p4522
F1.0
sVhalf
p4523
F1.0
sVtwo
p4524
F2.0
sVin
p4525
F1.0
sVslots
p4526
F2.0
sVits
p4527
F1.0
sVfill
p4528
F1.0
sVslot
p4529
F2.0
sVfor
p4530
F1.0
sg7
F2.0
sVto
p4531
F1.0
sVsystems
p4532
F1.0
sVrel
p4533
F1.0
sVanswer
p4534
F1.0
sg827
F1.0
sVwas
p4535
F1.0
sVfilled
p4536
F1.0
sVin_and_out
p4537
F1.0
sVthat
p4538
F1.0
sVdependent
p4539
F1.0
sVnever
p4540
F1.0
sVobjects
p4541
F1.0
sVkey
p4542
F1.0
sVdespite
p4543
F1.0
sVdata
p4544
F2.0
sVT-FLOAT
p4545
F1.0
sVthose
p4546
F2.0
sVpresent
p4547
F1.0
sVcontain
p4548
F1.0
sVthe
p4549
F4.0
sVor
p4550
F1.0
sVfact
p4551
F1.0
saa(lp4552
S'X96-1048271'
p4553
a(dp4554
g121
F1.0
sV``
p4555
F1.0
sVindicator
p4556
F1.0
sVto
p4557
F1.0
sVsimple
p4558
F1.0
sVrecognize
p4559
F1.0
sVsuccession
p4560
F1.0
sVhire
p4561
F1.0
sVone
p4562
F1.0
sV''
p4563
F1.0
sVfailure
p4564
F1.0
sVas
p4565
F1.0
sVcommon
p4566
F1.0
sVT-FLOAT
p4567
F1.0
sVof
p4568
F1.0
sVthe
p4569
F1.0
sVan
p4570
F1.0
sVwas
p4571
F1.0
sVproblem
p4572
F1.0
saa(lp4573
S'X96-1048270'
p4574
a(dp4575
Vpertaining
p4576
F1.0
sVrelevant
p4577
F1.0
sVrecognize
p4578
F1.0
sVis
p4579
F1.0
sVit
p4580
F1.0
sVtwo
p4581
F1.0
sVproduced
p4582
F1.0
sVas
p4583
F1.0
sVrecognizable
p4584
F1.0
sVevent
p4585
F2.0
sg7
F2.0
sVits
p4586
F1.0
sVto
p4587
F2.0
sVonly
p4588
F1.0
sVsystems
p4589
F1.0
sg827
F1.0
sVwas
p4590
F1.0
sVthat
p4591
F2.0
sVhowever
p4592
F1.0
sVT-FLOAT
p4593
F1.0
sVdid
p4594
F1.0
sVthis
p4595
F1.0
sVcredit
p4596
F1.0
sVoutput
p4597
F1.0
sVthe
p4598
F1.0
saa(lp4599
S'X96-1048170'
p4600
a(dp4601
g121
F1.0
sVslot
p4602
F2.0
sVnecessary
p4603
F1.0
sVevident
p4604
F1.0
sVthat
p4605
F1.0
sVis
p4606
F2.0
sVprocessing
p4607
F1.0
sVharder
p4608
F1.0
sVit
p4609
F1.0
sg7
F1.0
sVto
p4610
F2.0
sVcorrectly
p4611
F1.0
sVlinguistic
p4612
F1.0
sVthe
p4613
F3.0
sVfill
p4614
F2.0
sVT-FLOAT
p4615
F1.0
sVmore
p4616
F1.0
saa(lp4617
S'X96-1048171'
p4618
a(dp4619
Vslot
p4620
F2.0
sg121
F2.0
sVorg_country
p4621
F1.0
sVrequired
p4622
F1.0
sVorg_locale
p4623
F1.0
sVto
p4624
F1.0
sVbe
p4625
F1.0
sVis
p4626
F3.0
sVsince
p4627
F1.0
sVwhen
p4628
F1.0
sg7
F1.0
sVit
p4629
F1.0
sVcase
p4630
F1.0
sVfilled
p4631
F2.0
sVway
p4632
F1.0
sVin
p4633
F1.0
sVthe
p4634
F2.0
sVT-FLOAT
p4635
F1.0
sVspecial
p4636
F1.0
saa(lp4637
S'X96-1048172'
p4638
a(dp4639
Vis
p4640
F3.0
sVorg_locale
p4641
F1.0
sVrelatively
p4642
F1.0
sVeven
p4643
F1.0
sg201
F1.0
sg16
F1.0
sg7
F3.0
sVif
p4644
F1.0
sVfilled
p4645
F1.0
sVbe
p4646
F1.0
sVorg_country
p4647
F1.0
sVmay
p4648
F1.0
sVbut
p4649
F1.0
sVnot
p4650
F2.0
sVrare
p4651
F1.0
sVT-FLOAT
p4652
F3.0
sVcase
p4653
F1.0
sg219
F1.0
sVreverse
p4654
F1.0
sg1590
F1.0
sVthis
p4655
F1.0
sVsituation
p4656
F1.0
sVthe
p4657
F2.0
saa(lp4658
S'X96-1048173'
p4659
a(dp4660
Vis
p4661
F1.0
sg7
F1.0
sVlikely
p4662
F1.0
sVare
p4663
F1.0
sVin
p4664
F1.0
sVslots
p4665
F1.0
sVfor
p4666
F1.0
sVto
p4667
F1.0
sVsince
p4668
F1.0
sVorg_locale
p4669
F1.0
sVsame
p4670
F1.0
sVunderstandably
p4671
F1.0
sVorg_country
p4672
F1.0
sVmissing
p4673
F1.0
sVspurious
p4674
F1.0
sVincur
p4675
F1.0
sVtwo
p4676
F1.0
sVscores
p4677
F1.0
sVT-FLOAT
p4678
F1.0
sg121
F1.0
sVerror
p4679
F2.0
sVthe
p4680
F3.0
sVsimilar
p4681
F1.0
sVor
p4682
F1.0
saa(lp4683
S'X96-1048174'
p4684
a(dp4685
Vand
p4686
F2.0
sVon
p4687
F1.0
sg76
F4.0
sVto
p4688
F1.0
sVfor
p4689
F2.0
sVperson
p4690
F2.0
sVrecall
p4691
F2.0
sVis
p4692
F1.0
sVobject
p4693
F1.0
sg7
F3.0
sVprecision
p4694
F2.0
sVT-INT
p4695
F5.0
sVscore
p4696
F2.0
sVwas
p4697
F1.0
sVwhich
p4698
F1.0
sVclose
p4699
F1.0
sVthe
p4700
F4.0
sVhighest
p4701
F2.0
sVne
p4702
F1.0
sVT-FLOAT
p4703
F1.0
sVsubcategorization
p4704
F1.0
saa(lp4705
S'X96-1048176'
p4706
a(dp4707
g1590
F1.0
sVfigure
p4708
F1.0
sg201
F2.0
sVrecall
p4709
F1.0
sVT-INT
p4710
F12.0
sg16
F1.0
sVT-FLOAT
p4711
F1.0
saa(lp4712
S'X96-1048178'
p4713
a(dp4714
Vand
p4715
F3.0
sV''
p4716
F1.0
sVusheffield
p4717
F1.0
sVte
p4718
F1.0
sVbbn
p4719
F1.0
sVlockheed-martin
p4720
F1.0
sVbaseline
p4721
F1.0
sVT-INT
p4722
F25.0
sg7
F11.0
sVnyu
p4723
F1.0
sVto
p4724
F1.0
sVumass
p4725
F1.0
sVmitre
p4726
F1.0
sg207
F1.0
sVsterling
p4727
F1.0
sVumanitoba
p4728
F1.0
sV``
p4729
F1.0
sVobject
p4730
F1.0
sVprecision
p4731
F2.0
sVsra
p4732
F2.0
sVkey
p4733
F1.0
sVscores
p4734
F1.0
sVconfiguration
p4735
F2.0
sVT-FLOAT
p4736
F1.0
sVon
p4737
F1.0
sVtask
p4738
F1.0
sVrecall
p4739
F2.0
sVsri
p4740
F1.0
sVudurham
p4741
F1.0
sg2119
F12.0
sVperson
p4742
F1.0
sVnoref
p4743
F1.0
sVorganization
p4744
F1.0
sVthe
p4745
F1.0
sVr/
p4746
F12.0
sVsoftware
p4747
F1.0
saa(lp4748
S'X96-1048179'
p4749
a(dp4750
Vname
p4751
F1.0
sVfigure
p4752
F1.0
sValias
p4753
F1.0
sg1590
F1.0
sVcountry
p4754
F1.0
sg7
F2.0
sVo
p4755
F4.0
sVl
p4756
F1.0
sVii
p4757
F2.0
sVT-INT
p4758
F7.0
sVslot=
p4759
F1.0
sVdescriptor
p4760
F1.0
sVorganization
p4761
F1.0
sVlocale
p4762
F1.0
sVtype
p4763
F1.0
sVT-FLOAT
p4764
F1.0
sV~
p4765
F1.0
saa(lp4766
S'X96-1048258'
p4767
a(dp4768
Vand
p4769
F1.0
sVold
p4770
F2.0
sVis
p4771
F2.0
sVas
p4772
F4.0
sVat
p4773
F1.0
sVyet
p4774
F1.0
sg7
F2.0
sVsame
p4775
F2.0
sVany
p4776
F1.0
sVnew
p4777
F2.0
sg827
F1.0
sVwas
p4778
F1.0
sVmore
p4779
F1.0
sVhis
p4780
F4.0
sVceo
p4781
F2.0
sVjob
p4782
F6.0
sVnot
p4783
F1.0
sVorg
p4784
F1.0
sVwith
p4785
F1.0
sVT-FLOAT
p4786
F1.0
sVon
p4787
F2.0
sVdooner
p4788
F2.0
sVthe
p4789
F4.0
saa(lp4790
S'X96-1048246'
p4791
a(dp4792
Vand
p4793
F1.0
sVmeasuring
p4794
F1.0
sVinto
p4795
F1.0
sVrelative
p4796
F1.0
sVaddressed
p4797
F1.0
sVcomputation
p4798
F1.0
sVin
p4799
F1.0
sVT-FLOAT
p4800
F1.0
sVadequately
p4801
F1.0
sVeven
p4802
F1.0
sVadditional
p4803
F1.0
sVwould
p4804
F1.0
sVto
p4805
F1.0
sg7
F3.0
sVbeen
p4806
F1.0
sVT-INT
p4807
F1.0
sVmuc
p4808
F1.0
sVfactor
p4809
F2.0
sVobjective
p4810
F1.0
sVhas
p4811
F1.0
sVdifficult
p4812
F1.0
sVdevelopment
p4813
F1.0
sVbe
p4814
F1.0
sVway
p4815
F1.0
sVthat
p4816
F1.0
sVdifficulty
p4817
F1.0
sVcoming
p4818
F1.0
sVnot
p4819
F1.0
sVwith
p4820
F1.0
sVproblem
p4821
F1.0
sg121
F1.0
sVon
p4822
F1.0
sVlimitation
p4823
F1.0
sVtask
p4824
F1.0
sVfor
p4825
F1.0
sVof
p4826
F2.0
sVone-month
p4827
F1.0
sVup
p4828
F1.0
sVpreparation
p4829
F1.0
sVwithout
p4830
F1.0
sVreasonable
p4831
F1.0
sVthe
p4832
F3.0
saa(lp4833
S'X96-1048247'
p4834
a(dp4835
Vand
p4836
F1.0
sVconsider
p4837
F1.0
sVtop-scoring
p4838
F1.0
sVmeasure
p4839
F1.0
sVone
p4840
F1.0
sVas
p4841
F2.0
sVin
p4842
F1.0
sVrough
p4843
F1.0
sVinformation
p4844
F1.0
sVfrom
p4845
F1.0
sVT-INT
p4846
F2.0
sVnonetheless
p4847
F1.0
sg7
F2.0
sVextraction
p4848
F1.0
sVsystems
p4849
F1.0
sVmuc
p4850
F2.0
sVprogress
p4851
F1.0
sVwe
p4852
F1.0
sVevaluations
p4853
F1.0
sVT-FLOAT
p4854
F1.0
sVf-measures
p4855
F1.0
sg121
F1.0
sVof
p4856
F3.0
sVarea
p4857
F1.0
sVcan
p4858
F1.0
sVthe
p4859
F4.0
sVwhole
p4860
F1.0
saa(lp4861
S'X96-1048267'
p4862
a(dp4863
Vand
p4864
F1.0
sVby
p4865
F1.0
sVin
p4866
F1.0
sVindicated
p4867
F1.0
sVdifferences
p4868
F1.0
sVsystem
p4869
F1.0
sVsubstantive
p4870
F1.0
sVT-FLOAT
p4871
F1.0
sVare
p4872
F1.0
sVkey
p4873
F1.0
sVsystem-generated
p4874
F1.0
sVanswer
p4875
F1.0
sVoutput
p4876
F2.0
sVthe
p4877
F4.0
sVbetween
p4878
F1.0
sVunderlining
p4879
F1.0
saa(lp4880
S'X96-1048244'
p4881
a(dp4882
Vand
p4883
F2.0
sVset
p4884
F1.0
sVbe
p4885
F1.0
sVone
p4886
F1.0
sV''
p4887
F2.0
sVtexts
p4888
F1.0
sVas
p4889
F2.0
sVhuman
p4890
F1.0
sVin
p4891
F2.0
sV's
p4892
F2.0
sVT-FLOAT
p4893
F1.0
sg76
F1.0
sVT-INT
p4894
F2.0
sVwhen
p4895
F1.0
sg7
F1.0
sVapproximately
p4896
F1.0
sVto
p4897
F1.0
sVonly
p4898
F1.0
sVother
p4899
F1.0
sVinterannotator
p4900
F1.0
sVtest
p4901
F1.0
sVperformance
p4902
F1.0
sVwas
p4903
F1.0
sVtemplates
p4904
F2.0
sVvariability
p4905
F1.0
sV``
p4906
F2.0
sVterms
p4907
F1.0
sVagreement
p4908
F1.0
sVannotator
p4909
F2.0
sVkey
p4910
F1.0
sVmeasured
p4911
F1.0
sVresponse
p4912
F1.0
sVon
p4913
F1.0
sVshowed
p4914
F1.0
sVof
p4915
F1.0
sVwere
p4916
F2.0
sVthe
p4917
F4.0
sVtreated
p4918
F2.0
saa(lp4919
S'X96-104821'
p4920
a(dp4921
Vand
p4922
F2.0
sVall
p4923
F2.0
sVtasks
p4924
F1.0
sVparticipate
p4925
F1.0
sVsite
p4926
F1.0
sg7
F1.0
sVfour
p4927
F1.0
sVat
p4928
F1.0
sVin
p4929
F2.0
sVextraction
p4930
F1.0
sVsites
p4931
F1.0
sVleast
p4932
F1.0
sVto
p4933
F1.0
sVparticipated
p4934
F1.0
sVchose
p4935
F1.0
sVbut
p4936
F1.0
sVnearly
p4937
F1.0
sVhalf
p4938
F1.0
sVone
p4939
F3.0
sVT-FLOAT
p4940
F1.0
sVtask
p4941
F2.0
sVsgml
p4942
F1.0
sVthe
p4943
F1.0
saa(lp4944
S'X96-104820'
p4945
a(dp4946
Vnamed
p4947
F1.0
sVtasks
p4948
F1.0
sVweight
p4949
F1.0
sVis
p4950
F1.0
sVentity
p4951
F1.0
sV''
p4952
F1.0
sVdetermine
p4953
F1.0
sVeven
p4954
F1.0
sVto
p4955
F1.0
sg7
F4.0
sVT-INT
p4956
F1.0
sVoccasionally
p4957
F1.0
sVsimplest
p4958
F1.0
sV``
p4959
F1.0
sVprocessing
p4960
F1.0
sVmonetary
p4961
F1.0
sVan
p4962
F1.0
sVthe
p4963
F2.0
sg219
F1.0
sg226
F1.0
sVpounds
p4964
F1.0
sVwhether
p4965
F1.0
sVof
p4966
F3.0
sVin-depth
p4967
F1.0
sVvalue
p4968
F1.0
sVexpression
p4969
F1.0
sVT-FLOAT
p4970
F3.0
sVrequires
p4971
F1.0
sVor
p4972
F1.0
saa(lp4973
S'X96-104823'
p4974
a(dp4975
Vand
p4976
F1.0
sVnamed
p4977
F1.0
sVcertain
p4978
F1.0
sVproven
p4979
F1.0
sVentity
p4980
F1.0
sVnames
p4981
F1.0
sVT-FLOAT
p4982
F1.0
sg7
F2.0
sVto
p4983
F1.0
sVcritical
p4984
F1.0
sVidentification
p4985
F1.0
sVconstitutes
p4986
F1.0
sVwhich
p4987
F1.0
sVhas
p4988
F1.0
sVbe
p4989
F1.0
sVtemplate
p4990
F1.0
sVproblem
p4991
F1.0
sVtypes
p4992
F1.0
sg121
F3.0
sVtask
p4993
F2.0
sVlargely
p4994
F1.0
sVof
p4995
F4.0
sVelement
p4996
F1.0
sVlarge
p4997
F1.0
sVsolved
p4998
F1.0
sVportion
p4999
F2.0
sVcommon
p5000
F1.0
sVthe
p5001
F2.0
saa(lp5002
S'X96-104822'
p5003
a(dp5004
Vand
p5005
F3.0
sVsatisfy
p5006
F1.0
sVtasks
p5007
F1.0
sVchallenging
p5008
F1.0
sVfurthering
p5009
F1.0
sVtext
p5010
F2.0
sVsome
p5011
F1.0
sVurgent
p5012
F1.0
sVsolutions
p5013
F1.0
sVin
p5014
F3.0
sVneeds
p5015
F1.0
sVassessing
p5016
F1.0
sVfor
p5017
F1.0
sVvariety
p5018
F1.0
sVresearch
p5019
F1.0
sVT-INT
p5020
F1.0
sVparticipants
p5021
F1.0
sVmuc
p5022
F1.0
sVreflects
p5023
F1.0
sVmore
p5024
F1.0
sVinterests
p5025
F1.0
sVto
p5026
F2.0
sVthat
p5027
F1.0
sVvery
p5028
F1.0
sVprocessing
p5029
F1.0
sVproblems
p5030
F1.0
sVsponsors
p5031
F1.0
sVunderstanding
p5032
F1.0
sVdesigned
p5033
F1.0
sVT-FLOAT
p5034
F1.0
sVlonger
p5035
F1.0
sVboth
p5036
F1.0
sVterm
p5037
F2.0
sVlead
p5038
F1.0
sVof
p5039
F2.0
sVnear
p5040
F1.0
sVcan
p5041
F2.0
sVthe
p5042
F4.0
saa(lp5043
S'X96-104825'
p5044
a(dp5045
Vachieved
p5046
F1.0
sVchallenges
p5047
F1.0
sVare
p5048
F1.0
sVin
p5049
F1.0
sVprevious
p5050
F1.0
sVshown
p5051
F1.0
sVfor
p5052
F1.0
sVmix
p5053
F1.0
sVmucs
p5054
F1.0
sVwith
p5055
F1.0
sg7
F1.0
sVbeen
p5056
F1.0
sVshorter
p5057
F1.0
sVto
p5058
F2.0
sVmuch
p5059
F1.0
sVtemplate
p5060
F1.0
sVporting
p5061
F1.0
sVperformance
p5062
F1.0
sVhas
p5063
F1.0
sVthat
p5064
F2.0
sVbut
p5065
F1.0
sVlevels
p5066
F1.0
sVsmilar
p5067
F1.0
sVT-FLOAT
p5068
F1.0
sVthose
p5069
F1.0
sg121
F1.0
sVrepresents
p5070
F1.0
sVtask
p5071
F1.0
sVscenario
p5072
F1.0
sVthis
p5073
F1.0
sVof
p5074
F2.0
sVrequired
p5075
F1.0
sVyield
p5076
F1.0
sVtime
p5077
F2.0
sVthe
p5078
F2.0
saa(lp5079
S'X96-104824'
p5080
a(dp5081
Vand
p5082
F2.0
sVrepresent
p5083
F1.0
sVan
p5084
F1.0
sVare
p5085
F1.0
sVanother
p5086
F1.0
sValternative
p5087
F1.0
sVrecognition
p5088
F1.0
sVtemplate
p5089
F1.0
sVshown
p5090
F1.0
sVreferents
p5091
F1.0
sVways
p5092
F1.0
sVwhen
p5093
F1.0
sVbeen
p5094
F1.0
sVto
p5095
F1.0
sVonly
p5096
F1.0
sVcritical
p5097
F1.0
sVcoreference
p5098
F1.0
sVpronouns
p5099
F1.0
sVhas
p5100
F1.0
sVconstitutes
p5101
F1.0
sVmodest
p5102
F1.0
sVentity
p5103
F1.0
sVT-FLOAT
p5104
F1.0
sg121
F2.0
sVtask
p5105
F2.0
sVidentifying
p5106
F1.0
sVof
p5107
F4.0
sVchallenge
p5108
F1.0
sVelement
p5109
F1.0
sVlarge
p5110
F1.0
sVportion
p5111
F2.0
sVthe
p5112
F3.0
sVor
p5113
F1.0
sVnames
p5114
F1.0
saa(lp5115
S'X96-104827'
p5116
a(dp5117
Vprovided
p5118
F1.0
sVwall
p5119
F1.0
sVdata
p5120
F1.0
sVjournal
p5121
F1.0
sVtesting
p5122
F1.0
sVconsortium
p5123
F1.0
sVthe
p5124
F1.0
sVtexts
p5125
F1.0
sVconducted
p5126
F1.0
sVstreet
p5127
F1.0
sVT-FLOAT
p5128
F1.0
sVlinguistic
p5129
F1.0
sVusing
p5130
F1.0
sVcorpus
p5131
F1.0
sVwas
p5132
F1.0
sVby
p5133
F1.0
saa(lp5134
S'X96-104826'
p5135
a(dp5136
Vand
p5137
F1.0
sVall
p5138
F1.0
sVtasks
p5139
F1.0
sVin
p5140
F1.0
sVfor
p5141
F1.0
sVT-INT
p5142
F2.0
sVsystems
p5143
F1.0
sVmuc
p5144
F1.0
sVbe
p5145
F1.0
sVscores
p5146
F1.0
sg799
F1.0
sg800
F1.0
sVthe
p5147
F2.0
sVof
p5148
F2.0
sVdocumentation
p5149
F1.0
sVevaluated
p5150
F1.0
sVsummary
p5151
F1.0
sVproceedings
p5152
F1.0
sVcan
p5153
F1.0
sVeach
p5154
F1.0
sVfound
p5155
F1.0
sVT-FLOAT
p5156
F1.0
saa(lp5157
S'X96-104829'
p5158
a(dp5159
V``
p5160
F2.0
sVthis
p5161
F1.0
sVperiod
p5162
F1.0
sVcomprised
p5163
F1.0
sVepoch
p5164
F1.0
sVthe
p5165
F1.0
sVevaluation
p5166
F1.0
sVT-FLOAT
p5167
F1.0
saa(lp5168
S'X96-104828'
p5169
a(dp5170
g121
F1.0
sVarticles
p5171
F2.0
sVused
p5172
F1.0
sVfrom
p5173
F1.0
sVjanuary
p5174
F1.0
sVof
p5175
F2.0
sVin
p5176
F1.0
sVjune
p5177
F1.0
sg7
F1.0
sVapproximately
p5178
F1.0
sVperiod
p5179
F1.0
sVT-INT
p5180
F4.0
sVthrough
p5181
F1.0
sVT-FLOAT
p5182
F1.0
sVwere
p5183
F1.0
sVdrawn
p5184
F1.0
sVthe
p5185
F3.0
sVevaluation
p5186
F1.0
sVcorpus
p5187
F1.0
sVspanning
p5188
F1.0
saa(lp5189
S'X96-1048243'
p5190
a(dp5191
Vand
p5192
F1.0
sVinto
p5193
F1.0
sVtesting
p5194
F1.0
sVrank
p5195
F1.0
sVtwo
p5196
F1.0
sVhigh
p5197
F1.0
sVnot
p5198
F1.0
sVsee
p5199
F1.0
sVpaper
p5200
F1.0
sVat
p5201
F1.0
sVstatistical
p5202
F1.0
sVin
p5203
F1.0
sVT-FLOAT
p5204
F1.0
sVclearly
p5205
F1.0
sVend
p5206
F1.0
sg201
F1.0
sg16
F1.0
sg7
F1.0
sVsame
p5207
F1.0
sVby
p5208
F1.0
sVT-INT
p5209
F1.0
sVdoes
p5210
F1.0
sVsystems
p5211
F1.0
sVsignificance
p5212
F1.0
sVevaluation
p5213
F1.0
sVmore
p5214
F1.0
sVmost
p5215
F1.0
sVfall
p5216
F1.0
sVdistinguish
p5217
F1.0
sg799
F1.0
sg800
F1.0
sVthan
p5218
F1.0
sVon
p5219
F1.0
sVranks
p5220
F1.0
sVof
p5221
F1.0
sVchinchor
p5222
F1.0
sVthe
p5223
F5.0
saa(lp5224
S'X96-1048268'
p5225
a(dp5226
Vand
p5227
F2.0
sVis
p5228
F1.0
sVin
p5229
F1.0
sVprevious
p5230
F1.0
sVinformation
p5231
F2.0
sVwould
p5232
F1.0
sVcurrently
p5233
F1.0
sVsystem
p5234
F1.0
sVnext
p5235
F1.0
sVinclude
p5236
F1.0
sVrecurring
p5237
F1.0
sVbe
p5238
F1.0
sVoutgoing
p5239
F1.0
sV's
p5240
F2.0
sVoutputs
p5241
F1.0
sVproblems
p5242
F1.0
sVjob
p5243
F3.0
sVnot
p5244
F1.0
sVT-FLOAT
p5245
F1.0
sVon
p5246
F2.0
sVabout
p5247
F1.0
sVincoming
p5248
F1.0
sVwhether
p5249
F1.0
sVwas
p5250
F1.0
sVperson
p5251
F3.0
sVthe
p5252
F7.0
sVwhere
p5253
F2.0
sVor
p5254
F1.0
saa(lp5255
S'X96-1048129'
p5256
a(dp5257
Vvariability
p5258
F1.0
sVevaluation
p5259
F1.0
sVfor
p5260
F1.0
sVwas
p5261
F1.0
sVof
p5262
F2.0
sg7
F1.0
sVdata
p5263
F1.0
sVmiddle
p5264
F1.0
sVconducted
p5265
F1.0
sVinterannotator
p5266
F1.0
sVpreparing
p5267
F1.0
sVin
p5268
F1.0
sVtest
p5269
F2.0
sVthe
p5270
F4.0
sVan
p5271
F1.0
sVeffort
p5272
F1.0
sVT-FLOAT
p5273
F1.0
sVformal
p5274
F1.0
saa(lp5275
S'X96-1048264'
p5276
a(dp5277
Vand
p5278
F1.0
sVin
p5279
F1.0
sVtwo
p5280
F1.0
sVproduced
p5281
F1.0
sVwalkthrough
p5282
F1.0
sVparaphrased
p5283
F1.0
sVT-FLOAT
p5284
F1.0
sVsummary
p5285
F1.0
sVrelatively
p5286
F1.0
sVfor
p5287
F2.0
sVno
p5288
F1.0
sVthere
p5289
F1.0
sg7
F1.0
sVeach
p5290
F1.0
sVannotators
p5291
F2.0
sVanswer
p5292
F1.0
sVwas
p5293
F1.0
sVdifferences
p5294
F1.0
sVstraightforward
p5295
F1.0
sVoutputs
p5296
F1.0
sVwho
p5297
F1.0
sVprepared
p5298
F1.0
sVkey
p5299
F1.0
sVarticle
p5300
F2.0
sVsubstantive
p5301
F1.0
sVby
p5302
F1.0
sVof
p5303
F2.0
sVst
p5304
F1.0
sVwere
p5305
F1.0
sVoutput
p5306
F1.0
sVthe
p5307
F5.0
saa(lp5308
S'X96-1048255'
p5309
a(dp5310
Vseptember
p5311
F1.0
sVas
p5312
F1.0
sVthrough
p5313
F1.0
sVin
p5314
F1.0
sVpeter
p5315
F1.0
sVevent
p5316
F1.0
sVhalfway
p5317
F1.0
sVfrom
p5318
F1.0
sVbasis
p5319
F1.0
sVaddition
p5320
F1.0
sVtwo-page
p5321
F1.0
sg7
F3.0
sVstrategy
p5322
F1.0
sVchairman
p5323
F1.0
sVthompson
p5324
F1.0
sg207
F1.0
sVwas
p5325
F1.0
sVwalter
p5326
F1.0
sVworldwide
p5327
F1.0
sV's
p5328
F1.0
sVwpp
p5329
F1.0
sVhired
p5330
F1.0
sVkim
p5331
F1.0
sVgroup
p5332
F1.0
sVarticle
p5333
F1.0
sVT-FLOAT
p5334
F2.0
sVlast
p5335
F1.0
sVthird
p5336
F1.0
sVvice
p5337
F1.0
sVof
p5338
F1.0
sg3214
F1.0
sVchief
p5339
F1.0
sVofficer
p5340
F1.0
sVthe
p5341
F3.0
sVcomes
p5342
F1.0
saa(lp5343
S'X96-1048266'
p5344
a(dp5345
Von
p5346
F1.0
sVdifferent
p5347
F1.0
sVfrom
p5348
F1.0
sVsystem
p5349
F1.0
sVno
p5350
F1.0
sVdid
p5351
F1.0
sVoutputs
p5352
F1.0
sVsince
p5353
F1.0
sVthree
p5354
F2.0
sg7
F1.0
sVbetter
p5355
F1.0
sVT-FLOAT
p5356
F1.0
sVother
p5357
F1.0
sVare
p5358
F1.0
sVall
p5359
F2.0
sVsystem-generated
p5360
F1.0
sVevents
p5361
F1.0
sVthe
p5362
F1.0
sVone
p5363
F1.0
sVthan
p5364
F1.0
sVsystems
p5365
F2.0
saa(lp5366
S'X96-1048128'
p5367
a(dp5368
Vand
p5369
F1.0
sVnamed
p5370
F1.0
sVover
p5371
F1.0
sVnumber
p5372
F1.0
sVentity
p5373
F1.0
sVindividual
p5374
F1.0
sVin
p5375
F1.0
sg76
F1.0
sVentities
p5376
F1.0
sVfor
p5377
F2.0
sVbasis
p5378
F1.0
sg7
F2.0
sVT-INT
p5379
F1.0
sVsystems
p5380
F1.0
sVcoreference
p5381
F1.0
sVperformance
p5382
F1.0
sVevaluation
p5383
F1.0
sVscored
p5384
F1.0
sVsound
p5385
F1.0
sVgood
p5386
F1.0
sVthat
p5387
F1.0
sVprecision
p5388
F1.0
sVmetrics
p5389
F1.0
sVT-FLOAT
p5390
F1.0
sg121
F2.0
sVon
p5391
F2.0
sVtask
p5392
F1.0
sVof
p5393
F1.0
sVrecall
p5394
F1.0
sVthe
p5395
F2.0
sVproviding
p5396
F1.0
saa(lp5397
S'X96-1048260'
p5398
a(dp5399
Vand
p5400
F2.0
sValready
p5401
F1.0
sVold
p5402
F2.0
sVdeparting
p5403
F2.0
sVis
p5404
F4.0
sg7
F4.0
sVas
p5405
F9.0
sVresult
p5406
F2.0
sVin
p5407
F2.0
sVstill
p5408
F1.0
sVyet
p5409
F1.0
sVevent
p5410
F1.0
sVout
p5411
F2.0
sV#
p5412
F1.0
sg201
F1.0
sg16
F1.0
sVsystem
p5413
F1.0
sVsame
p5414
F1.0
sVany
p5415
F1.0
sVT-INT
p5416
F2.0
sVchairman
p5417
F6.0
sVnew
p5418
F1.0
sg827
F4.0
sVwas
p5419
F2.0
sVmore
p5420
F1.0
sVhis
p5421
F3.0
sVsatie_base
p5422
F1.0
sVworkforce
p5423
F2.0
sVmccannerickson
p5424
F2.0
sVnot
p5425
F1.0
sVorg
p5426
F1.0
sVwith
p5427
F2.0
sVT-FLOAT
p5428
F1.0
sg121
F2.0
sVon
p5429
F4.0
sVsra
p5430
F1.0
sVammirati
p5431
F1.0
sVdooner
p5432
F4.0
sVof
p5433
F4.0
sVjob
p5434
F7.0
sVno_
p5435
F1.0
sVjames
p5436
F6.0
sVthe
p5437
F7.0
saa(lp5438
S'X96-1048261'
p5439
a(dp5440
VT-FLOAT
p5441
F1.0
sVpuris
p5442
F1.0
sg2092
F1.0
saa(lp5443
S'X96-1048262'
p5444
a(dp5445
Vand
p5446
F2.0
sValready
p5447
F1.0
sVold
p5448
F2.0
sVreasons
p5449
F2.0
sVis
p5450
F1.0
sg7
F6.0
sV''
p5451
F1.0
sVas
p5452
F2.0
sVin
p5453
F4.0
sVstrategy
p5454
F1.0
sVyet
p5455
F1.0
sVevent
p5456
F1.0
sVexisted
p5457
F2.0
sg5412
F1.0
sVgroup
p5458
F1.0
sVfor
p5459
F2.0
sg201
F1.0
sg16
F1.0
sVthat
p5460
F1.0
sVsystem
p5461
F1.0
sVnyu
p5462
F1.0
sVT-INT
p5463
F1.0
sVdoes
p5464
F1.0
sVchairman
p5465
F2.0
sVthompson
p5466
F1.0
sg827
F2.0
sVwas
p5467
F2.0
sVwalter
p5468
F1.0
sVworldwide
p5469
F1.0
sVbe
p5470
F1.0
sV``
p5471
F1.0
sVhis
p5472
F2.0
sVon
p5473
F2.0
sVmay
p5474
F2.0
sVwpp
p5475
F1.0
sVmccannerickson
p5476
F1.0
sVkim
p5477
F2.0
sVnot
p5478
F1.0
sVarticle
p5479
F1.0
sVpost
p5480
F2.0
sVwith
p5481
F1.0
sVT-FLOAT
p5482
F2.0
sVhe
p5483
F2.0
sVvacancy
p5484
F2.0
sVvice
p5485
F2.0
sVof
p5486
F2.0
sg3214
F1.0
sVjob
p5487
F4.0
sVn't
p5488
F1.0
sVother/unknown
p5489
F2.0
sVchief
p5490
F1.0
sVofficer
p5491
F1.0
sVthe
p5492
F6.0
sVwhere
p5493
F3.0
sVor
p5494
F1.0
sVsay
p5495
F1.0
saa(lp5496
S'X96-1048263'
p5497
a(dp5498
Vbbn
p5499
F1.0
sg201
F1.0
sg16
F1.0
sVsystem
p5500
F1.0
sVT-INT
p5501
F1.0
sVtable
p5502
F1.0
sVT-FLOAT
p5503
F1.0
saa(lp5504
S'X96-1048145'
p5505
a(dp5506
Vand
p5507
F1.0
sVall
p5508
F1.0
sVrecognize
p5509
F1.0
sVconsistent
p5510
F1.0
sVflexibility
p5511
F1.0
sVanother
p5512
F1.0
sVin
p5513
F1.0
sVT-FLOAT
p5514
F1.0
sVits
p5515
F1.0
sVcontents
p5516
F1.0
sVnonetheless
p5517
F1.0
sVsince
p5518
F1.0
sVhad
p5519
F2.0
sg7
F3.0
sVto
p5520
F3.0
sVsystems
p5521
F1.0
sVnp
p5522
F1.0
sVbe
p5523
F2.0
sVhead
p5524
F1.0
sVfull
p5525
F1.0
sVimplicitly
p5526
F1.0
sVexpected
p5527
F1.0
sVmarkable
p5528
F1.0
sVcoreferential
p5529
F1.0
sVdespite
p5530
F1.0
sVwith
p5531
F1.0
sVresponse
p5532
F1.0
sVmodifiers
p5533
F1.0
sVconsidered
p5534
F1.0
sVof
p5535
F1.0
sVthis
p5536
F1.0
sVthe
p5537
F5.0
saa(lp5538
S'X96-1048144'
p5539
a(dp5540
Vin
p5541
F1.0
sVT-FLOAT
p5542
F1.0
sVminimally
p5543
F1.0
sVfor
p5544
F1.0
sg7
F1.0
sVto
p5545
F1.0
sVonly
p5546
F1.0
sVsystems
p5547
F1.0
sVnp
p5548
F1.0
sg827
F1.0
sVinclude
p5549
F1.0
sVhead
p5550
F1.0
sVwere
p5551
F1.0
sVnot
p5552
F1.0
sVresponse
p5553
F2.0
sVentire
p5554
F1.0
sVnoun
p5555
F2.0
sVphrases
p5556
F1.0
sVcould
p5557
F1.0
sVrequired
p5558
F1.0
sVcommon
p5559
F1.0
sVcontain
p5560
F1.0
sVthe
p5561
F5.0
saa(lp5562
S'X96-1048147'
p5563
a(dp5564
Vand
p5565
F5.0
sVlimited
p5566
F1.0
sVabbreviated
p5567
F1.0
sVsubcategory
p5568
F1.0
sVlocale
p5569
F1.0
sVparticular
p5570
F1.0
sVorg_country
p5571
F1.0
sVgeneral
p5572
F1.0
sV''
p5573
F1.0
sVare
p5574
F1.0
sVextracted
p5575
F1.0
sVslots
p5576
F1.0
sVstring
p5577
F2.0
sVwhose
p5578
F1.0
sVfor
p5579
F6.0
sVT-INT
p5580
F1.0
sg201
F5.0
sg16
F4.0
sVcontains
p5581
F1.0
sg7
F7.0
sVany
p5582
F1.0
sVforms
p5583
F1.0
sVentities
p5584
F1.0
sVdescribes
p5585
F1.0
sVlocation
p5586
F1.0
sVmuc
p5587
F1.0
sVcanonical
p5588
F1.0
sVtype
p5589
F1.0
sVcompany
p5590
F1.0
sVbe
p5591
F1.0
sV``
p5592
F1.0
sVto
p5593
F2.0
sVthat
p5594
F2.0
sVgovernment
p5595
F1.0
sVobject
p5596
F1.0
sVpersons
p5597
F1.0
sVpermissible
p5598
F1.0
sVattributes
p5599
F1.0
sVorg
p5600
F2.0
sVrepresenting
p5601
F2.0
sVT-FLOAT
p5602
F1.0
sg121
F2.0
sVorganizations
p5603
F1.0
sVname
p5604
F3.0
sVversions
p5605
F1.0
sVof
p5606
F5.0
sVspecific
p5607
F1.0
sVorg_type
p5608
F1.0
sVvalues
p5609
F1.0
sVwere
p5610
F2.0
sVorganization
p5611
F5.0
sVthe
p5612
F9.0
sVother
p5613
F1.0
sVstrings
p5614
F1.0
saa(lp5615
S'X96-1048146'
p5616
a(dp5617
Vand
p5618
F1.0
sVcertain
p5619
F1.0
sVentity
p5620
F1.0
sV''
p5621
F1.0
sVin
p5622
F1.0
sVany
p5623
F1.0
sVbefore
p5624
F1.0
sVinformation
p5625
F2.0
sVgiven
p5626
F1.0
sVextraction
p5627
F1.0
sg201
F1.0
sg16
F1.0
sVentities
p5628
F1.0
sVtemplate
p5629
F3.0
sVpresentation
p5630
F1.0
sV``
p5631
F1.0
sVform
p5632
F1.0
sVobject
p5633
F1.0
sVgeneral
p5634
F1.0
sVT-FLOAT
p5635
F1.0
sVtypes
p5636
F1.0
sg121
F1.0
sVabout
p5637
F2.0
sVtask
p5638
F1.0
sVof
p5639
F4.0
sVelement
p5640
F2.0
sVmerging
p5641
F1.0
sVthe
p5642
F3.0
sVrequires
p5643
F1.0
sVor
p5644
F1.0
saa(lp5645
S'X96-1048141'
p5646
a(dp5647
Vset
p5648
F1.0
sVtext
p5649
F1.0
sVis
p5650
F2.0
sVan
p5651
F1.0
sVhigh
p5652
F1.0
sVas
p5653
F1.0
sVnames
p5654
F1.0
sVproper
p5655
F1.0
sVrelatively
p5656
F1.0
sVcompared
p5657
F1.0
sg76
F4.0
sVT-INT
p5658
F4.0
sg201
F3.0
sg16
F3.0
sg7
F2.0
sVto
p5659
F1.0
sVtest
p5660
F1.0
sVpercentage
p5661
F2.0
sVversus
p5662
F1.0
sVoverall
p5663
F2.0
sVpronouns
p5664
F1.0
sVestimate
p5665
F1.0
sVT-FLOAT
p5666
F1.0
sVon
p5667
F1.0
sVthis
p5668
F1.0
sVof
p5669
F3.0
sVpersonal
p5670
F1.0
sVthe
p5671
F3.0
saa(lp5672
S'X96-1048140'
p5673
a(dp5674
Vand
p5675
F3.0
sg201
F1.0
sVpersonal
p5676
F1.0
sVof
p5677
F2.0
sVproper
p5678
F1.0
sVmarkables
p5679
F1.0
sVanaphors
p5680
F2.0
sg7
F3.0
sVapproximately
p5681
F1.0
sVT-INT
p5682
F2.0
sVT-FLOAT
p5683
F1.0
sVincluding
p5684
F2.0
sVare
p5685
F2.0
sVpossessives
p5686
F1.0
sg16
F1.0
sVpronouns
p5687
F1.0
sVantecedents
p5688
F1.0
sVthe
p5689
F2.0
sValiases
p5690
F1.0
sVreflexives
p5691
F1.0
sVnames
p5692
F1.0
saa(lp5693
S'X96-1048143'
p5694
a(dp5695
Vpronoun
p5696
F1.0
sVas
p5697
F2.0
sVreferences
p5698
F1.0
sVare
p5699
F1.0
sVdetermine
p5700
F1.0
sVproper
p5701
F1.0
sVmatching
p5702
F1.0
sVtechniques
p5703
F3.0
sVcompared
p5704
F1.0
sVindicate
p5705
F1.0
sg7
F1.0
sVto
p5706
F2.0
sVgood
p5707
F1.0
sVthat
p5708
F1.0
sVinvolving
p5709
F1.0
sVscores
p5710
F1.0
sVT-FLOAT
p5711
F1.0
sVnoun
p5712
F2.0
sVthese
p5713
F1.0
sVphrases
p5714
F1.0
sVrequired
p5715
F1.0
sVwell
p5716
F1.0
sVcommon
p5717
F1.0
sVthe
p5718
F1.0
sVresolution
p5719
F1.0
saa(lp5720
S'X96-1048142'
p5721
a(dp5722
Vand
p5723
F1.0
sVset
p5724
F1.0
sVsome
p5725
F1.0
sVhigh
p5726
F1.0
sVas
p5727
F2.0
sVT-FLOAT
p5728
F1.0
sg76
F2.0
sVfor
p5729
F1.0
sg7
F1.0
sVT-INT
p5730
F2.0
sVsystems
p5731
F1.0
sVtest
p5732
F1.0
sVperformance
p5733
F2.0
sVwas
p5734
F1.0
sVhigher
p5735
F1.0
sVreaching
p5736
F1.0
sVoverall
p5737
F1.0
sVprecision
p5738
F1.0
sVparticular
p5739
F1.0
sVarticle
p5740
F1.0
sVthan
p5741
F1.0
sVon
p5742
F2.0
sVthis
p5743
F1.0
sVrecall
p5744
F1.0
sVthe
p5745
F1.0
saa(lp5746
S'X96-1048156'
p5747
a(dp5748
Vand
p5749
F1.0
sVtask
p5750
F1.0
sVin
p5751
F1.0
sVfor
p5752
F2.0
sVtext
p5753
F1.0
sVcontains
p5754
F1.0
sVmentioned
p5755
F1.0
sVobject
p5756
F1.0
sVone
p5757
F1.0
sVspecific
p5758
F1.0
sVperson
p5759
F1.0
sVkey
p5760
F1.0
sVeach
p5761
F1.0
sVanswer
p5762
F1.0
sVorganization
p5763
F1.0
sVthe
p5764
F3.0
sVte
p5765
F1.0
sVT-FLOAT
p5766
F1.0
saa(lp5767
S'X96-1048149'
p5768
a(dp5769
Vrequired
p5770
F1.0
sVscenario
p5771
F1.0
sVfor
p5772
F1.0
sVthat
p5773
F1.0
sVinvolved
p5774
F1.0
sVin
p5775
F1.0
sVsame
p5776
F1.0
sVentity
p5777
F1.0
sVas
p5778
F1.0
sVtask
p5779
F1.0
sVthose
p5780
F1.0
sVare
p5781
F1.0
sVtemplate
p5782
F1.0
sVwere
p5783
F1.0
sVthe
p5784
F4.0
sVevaluation
p5785
F1.0
sVT-FLOAT
p5786
F1.0
sVtypes
p5787
F1.0
saa(lp5788
S'X96-1048125'
p5789
a(dp5790
Von
p5791
F1.0
sVabout
p5792
F1.0
sVtasks
p5793
F1.0
sVwhich
p5794
F1.0
sVT-INT
p5795
F1.0
sVT-FLOAT
p5796
F1.0
sg7
F1.0
sVdirect
p5797
F1.0
sVto
p5798
F1.0
sVonly
p5799
F1.0
sVindividual
p5800
F1.0
sVfocused
p5801
F1.0
sVsystems
p5802
F1.0
sVcoreference
p5803
F1.0
sVhalf
p5804
F1.0
sVrelevance
p5805
F1.0
sVthe
p5806
F2.0
sVhas
p5807
F1.0
sVevaluation
p5808
F1.0
sVother
p5809
F1.0
sVmuc
p5810
F1.0
saa(lp5811
S'X96-1048241'
p5812
a(dp5813
Vf-measure
p5814
F1.0
sg201
F1.0
sg16
F1.0
sg7
F1.0
sVst
p5815
F1.0
sVT-INT
p5816
F4.0
sVscore
p5817
F1.0
sVprecision
p5818
F1.0
sVrecall
p5819
F1.0
sg76
F2.0
sVthe
p5820
F1.0
sVhighest
p5821
F1.0
sVwas
p5822
F1.0
sVT-FLOAT
p5823
F2.0
saa(lp5824
S'X96-1048245'
p5825
a(dp5826
Vtask
p5827
F1.0
sVT-INT
p5828
F1.0
sVno
p5829
F1.0
sVtasks
p5830
F1.0
sVof
p5831
F2.0
sVextraction
p5832
F1.0
sVbeen
p5833
F1.0
sVst
p5834
F1.0
sVrelative
p5835
F1.0
sVdifficulty
p5836
F1.0
sVcompared
p5837
F1.0
sVdone
p5838
F1.0
sVanalysis
p5839
F1.0
sVmuc
p5840
F1.0
sVthe
p5841
F2.0
sVhas
p5842
F1.0
sVevaluation
p5843
F1.0
sVT-FLOAT
p5844
F1.0
sVto
p5845
F1.0
sVprevious
p5846
F1.0
saa(lp5847
S'X96-1048124'
p5848
a(dp5849
Vand
p5850
F1.0
sg76
F2.0
sVprecision
p5851
F1.0
sVT-INT
p5852
F2.0
sVrange
p5853
F2.0
sVT-FLOAT
p5854
F1.0
saa(lp5855
S'X96-104816'
p5856
a(dp5857
Vtasks
p5858
F1.0
sVtext
p5859
F2.0
sVtwo
p5860
F1.0
sVin
p5861
F1.0
sVT-FLOAT
p5862
F1.0
sVany
p5863
F1.0
sVsgml-based
p5864
F1.0
sVdata
p5865
F1.0
sVsystem
p5866
F1.0
sVto
p5867
F2.0
sVother
p5868
F1.0
sVway
p5869
F1.0
sVtie
p5870
F1.0
sVstructures
p5871
F1.0
sVannotations
p5872
F1.0
sVbe
p5873
F1.0
sVthat
p5874
F1.0
sVsystem-internal
p5875
F1.0
sVinnovations
p5876
F1.0
sVinserted
p5877
F1.0
sVby
p5878
F1.0
sValtering
p5879
F1.0
sVcould
p5880
F1.0
sVrequired
p5881
F1.0
sVwithout
p5882
F1.0
sVso
p5883
F1.0
sVthe
p5884
F5.0
sVoriginal
p5885
F2.0
saa(lp5886
S'X96-104817'
p5887
a(dp5888
g121
F1.0
sVenables
p5889
F1.0
sVuseful
p5890
F1.0
sg226
F1.0
sVthis
p5891
F1.0
sVtext
p5892
F1.0
sVin
p5893
F1.0
sVwell
p5894
F1.0
sg7
F2.0
sVit
p5895
F1.0
sVcapability
p5896
F1.0
sVapplications
p5897
F1.0
sVas
p5898
F1.0
sVother
p5899
F1.0
sVhighlighting
p5900
F1.0
sg219
F1.0
sVT-FLOAT
p5901
F3.0
sVhas
p5902
F1.0
sVbrowser
p5903
F1.0
saa(lp5904
S'X96-104810'
p5905
a(dp5906
Vset
p5907
F1.0
sVfrom
p5908
F1.0
sVis
p5909
F1.0
sVselected
p5910
F1.0
sVan
p5911
F1.0
sVwalkthrough
p5912
F1.0
sVtest
p5913
F1.0
sVarticle
p5914
F2.0
sVthe
p5915
F2.0
sVT-FLOAT
p5916
F1.0
saa(lp5917
S'X96-104811'
p5918
a(dp5919
Vand
p5920
F2.0
sVon
p5921
F2.0
sVpapers
p5922
F1.0
sV's
p5923
F1.0
sVin
p5924
F1.0
sVto
p5925
F1.0
sVT-FLOAT
p5926
F1.0
sVthat
p5927
F1.0
sVsystem
p5928
F1.0
sVcomment
p5929
F1.0
sVit
p5930
F1.0
sVtheir
p5931
F2.0
sVparticipants
p5932
F1.0
sVpresentations
p5933
F1.0
sVwere
p5934
F1.0
sVperformance
p5935
F1.0
sVarticle
p5936
F1.0
sVanalyze
p5937
F1.0
sVasked
p5938
F1.0
saa(lp5939
S'X96-1048221'
p5940
a(dp5941
Vmanagement
p5942
F1.0
sVaround
p5943
F2.0
sVscenario
p5944
F1.0
sVrather
p5945
F1.0
sVis
p5946
F1.0
sVact
p5947
F1.0
sVthan
p5948
F1.0
sVT-FLOAT
p5949
F1.0
sVitself
p5950
F1.0
sVdesigned
p5951
F1.0
sVsuccession
p5952
F1.0
sVthe
p5953
F3.0
sVpost
p5954
F1.0
saa(lp5955
S'X96-1048157'
p5956
a(dp5957
g121
F2.0
sVprovide
p5958
F1.0
sVname
p5959
F3.0
sVfor
p5960
F1.0
sg201
F1.0
sVgeneration
p5961
F1.0
sVof
p5962
F3.0
sVobject
p5963
F1.0
sg7
F1.0
sVperson
p5964
F2.0
sVfull
p5965
F1.0
sg16
F1.0
sVT-FLOAT
p5966
F1.0
sVtext
p5967
F1.0
sVthe
p5968
F3.0
sVpart
p5969
F1.0
sVor
p5970
F1.0
sVmust
p5971
F1.0
saa(lp5972
S'X96-1048205'
p5973
a(dp5974
Vand
p5975
F1.0
sVseven
p5976
F1.0
sVten
p5977
F1.0
sVthus
p5978
F1.0
sg7
F1.0
sVat
p5979
F1.0
sVin
p5980
F2.0
sVT-FLOAT
p5981
F1.0
sVsystem
p5982
F1.0
sVleast
p5983
F1.0
sVperfectly
p5984
F1.0
sVeach
p5985
F1.0
sVobjects
p5986
F2.0
sVfive
p5987
F1.0
sVkey
p5988
F2.0
sVone
p5989
F1.0
sVby
p5990
F1.0
sVmatched
p5991
F1.0
sVof
p5992
F2.0
sVperson
p5993
F1.0
sVwere
p5994
F1.0
sVorganization
p5995
F1.0
sVthe
p5996
F4.0
saa(lp5997
S'X96-104818'
p5998
a(dp5999
Vtext
p6000
F1.0
sVis
p6001
F1.0
sVsome
p6002
F2.0
sVit
p6003
F1.0
sVpast
p6004
F1.0
sVhave
p6005
F1.0
sVin
p6006
F4.0
sVfacilitates
p6007
F1.0
sVtheir
p6008
F1.0
sVinformation
p6009
F2.0
sValso
p6010
F1.0
sVsince
p6011
F1.0
sVhad
p6012
F1.0
sg7
F2.0
sVextraction
p6013
F2.0
sVliteral
p6014
F1.0
sVsystems
p6015
F1.0
sVwhich
p6016
F1.0
sVtemplates
p6017
F1.0
sVform
p6018
F1.0
sVdifficulty
p6019
F1.0
sVT-FLOAT
p6020
F1.0
sVof
p6021
F2.0
sVoutput
p6022
F1.0
sVthe
p6023
F4.0
sVstrings
p6024
F1.0
sVreproducing
p6025
F1.0
saa(lp6026
S'X96-104819'
p6027
a(dp6028
Vall
p6029
F1.0
sVtasks
p6030
F2.0
sVinclusion
p6031
F1.0
sVfour
p6032
F1.0
sVsingle
p6033
F1.0
sVdesign
p6034
F1.0
sVin
p6035
F2.0
sVinternal
p6036
F1.0
sVencouraged
p6037
F1.0
sVdifferent
p6038
F1.0
sVfrom
p6039
F1.0
sVfor
p6040
F1.0
sVvariety
p6041
F1.0
sVsites
p6042
F1.0
sVto
p6043
F2.0
sVproduction
p6044
F1.0
sVtechniques
p6045
F1.0
sVevaluation
p6046
F1.0
sVfull
p6047
F1.0
sVthat
p6048
F1.0
sVimplicitly
p6049
F1.0
sVuse
p6050
F1.0
sVgeneral-purpose
p6051
F1.0
sVarchitectures
p6052
F1.0
sVrepresentation
p6053
F1.0
sVT-FLOAT
p6054
F1.0
sVtypes
p6055
F1.0
sg121
F2.0
sVof
p6056
F6.0
sVanalysis
p6057
F1.0
sVrange
p6058
F1.0
sVallow
p6059
F2.0
sVoutput
p6060
F1.0
sVthe
p6061
F4.0
sVorder
p6062
F1.0
saa(lp6063
S'X96-1048298'
p6064
a(dp6065
Vand
p6066
F1.0
sVis
p6067
F1.0
sVcommunity
p6068
F1.0
sg7
F1.0
sVincluding
p6069
F1.0
sVspoken-language
p6070
F1.0
sVin
p6071
F1.0
sVT-FLOAT
p6072
F1.0
sVgroup
p6073
F1.0
sVworking
p6074
F1.0
sVreview
p6075
F1.0
sVrepresentatives
p6076
F2.0
sVT-INT
p6077
F1.0
sVdiscourse
p6078
F1.0
sVmuc
p6079
F1.0
sVunder
p6080
F1.0
sVoutside
p6081
F1.0
sVboth
p6082
F1.0
sVformed
p6083
F1.0
sVcommuity
p6084
F1.0
sVfrom
p6085
F2.0
sVnow
p6086
F1.0
sVwith
p6087
F1.0
sVby
p6088
F1.0
sg121
F1.0
sVdefinition
p6089
F1.0
sVtask
p6090
F1.0
sVinside
p6091
F1.0
sVthe
p6092
F3.0
saa(lp6093
S'X96-1048251'
p6094
a(dp6095
Vand
p6096
F1.0
sVon
p6097
F2.0
sV``
p6098
F1.0
sVtask
p6099
F1.0
sVaspects
p6100
F1.0
sVreported
p6101
F1.0
sVof
p6102
F1.0
sVin
p6103
F1.0
sVsome
p6104
F1.0
sVresults
p6105
F1.0
sVst
p6106
F1.0
sV''
p6107
F1.0
sVwalkthrough
p6108
F2.0
sVthree
p6109
F1.0
sVT-FLOAT
p6110
F1.0
sVsuccession
p6111
F1.0
sVarticle
p6112
F2.0
sVthe
p6113
F1.0
sVevents
p6114
F1.0
sVare
p6115
F1.0
saa(lp6116
S'X96-1048250'
p6117
a(dp6118
Vand
p6119
F1.0
sVleast
p6120
F1.0
sVconclude
p6121
F1.0
sVis
p6122
F1.0
sVit
p6123
F1.0
sVthree
p6124
F1.0
sVhigh
p6125
F1.0
sVas
p6126
F2.0
sVtasks
p6127
F1.0
sVat
p6128
F1.0
sVreached
p6129
F1.0
sVtable
p6130
F1.0
sVfrom
p6131
F1.0
sVfor
p6132
F1.0
sVT-INT
p6133
F2.0
sVsince
p6134
F2.0
sg7
F2.0
sVbeen
p6135
F1.0
sVshorter
p6136
F1.0
sVto
p6137
F1.0
sVmuch
p6138
F1.0
sVmuc
p6139
F2.0
sVperformance
p6140
F2.0
sVhas
p6141
F1.0
sVwas
p6142
F1.0
sVbe
p6143
F1.0
sVthat
p6144
F2.0
sVmay
p6145
F1.0
sVafter
p6146
F1.0
sVprogress
p6147
F1.0
sVT-FLOAT
p6148
F1.0
sg121
F1.0
sVfour
p6149
F1.0
sVmade
p6150
F1.0
sVlevel
p6151
F2.0
sVthis
p6152
F1.0
sVof
p6153
F1.0
sVreasonable
p6154
F1.0
sVtime
p6155
F1.0
sVthe
p6156
F2.0
saa(lp6157
S'X96-1048158'
p6158
a(dp6159
g121
F1.0
sVfull
p6160
F1.0
sVname
p6161
F1.0
sVfor
p6162
F1.0
sg201
F1.0
sVgeneration
p6163
F1.0
sVof
p6164
F2.0
sVobject
p6165
F1.0
sg7
F1.0
sVdescriptor
p6166
F1.0
sVan
p6167
F1.0
sVprovide
p6168
F1.0
sVpart
p6169
F1.0
sVeither
p6170
F1.0
sVT-FLOAT
p6171
F1.0
sVtext
p6172
F1.0
sg16
F1.0
sVorganization
p6173
F2.0
sVthe
p6174
F3.0
sVor
p6175
F2.0
sVmust
p6176
F1.0
saa(lp6177
S'X96-1048159'
p6178
a(dp6179
Vand
p6180
F1.0
sVsince
p6181
F1.0
sVgeneration
p6182
F1.0
sVis
p6183
F1.0
sVare
p6184
F1.0
sVin
p6185
F2.0
sVT-FLOAT
p6186
F1.0
sVthere
p6187
F1.0
sg7
F1.0
sVthan
p6188
F1.0
sVtemplate
p6189
F1.0
sVcriteria
p6190
F1.0
sVrelevance
p6191
F1.0
sVte
p6192
F1.0
sVmore
p6193
F1.0
sVindependent
p6194
F1.0
sVobjects
p6195
F2.0
sVkey
p6196
F2.0
sVby
p6197
F1.0
sVtask
p6198
F1.0
sVimposed
p6199
F1.0
sVscenario
p6200
F1.0
sVthese
p6201
F1.0
sVof
p6202
F2.0
sVst
p6203
F1.0
sVperson
p6204
F1.0
sVmany
p6205
F1.0
sVorganization
p6206
F1.0
sVthe
p6207
F5.0
saa(lp6208
S'X96-104898'
p6209
a(dp6210
Vand
p6211
F1.0
sVsix
p6212
F2.0
sVresults
p6213
F1.0
sg7
F1.0
sV''
p6214
F1.0
sVwalkthrough
p6215
F2.0
sVincluding
p6216
F1.0
sVare
p6217
F1.0
sVin
p6218
F1.0
sVfor
p6219
F1.0
sVfew
p6220
F1.0
sg201
F1.0
sg16
F1.0
sVthere
p6221
F1.0
sVne
p6222
F1.0
sVT-INT
p6223
F1.0
sVanswer
p6224
F1.0
sV``
p6225
F1.0
sVtags
p6226
F3.0
sVones
p6227
F1.0
sVkey
p6228
F1.0
sVarticle
p6229
F2.0
sVoptional
p6230
F1.0
sVT-FLOAT
p6231
F1.0
sg121
F1.0
sVon
p6232
F1.0
sVtimex
p6233
F1.0
sVnumex
p6234
F1.0
sVenamex
p6235
F1.0
sVthe
p6236
F2.0
saa(lp6237
S'X96-104899'
p6238
a(dp6239
Vand
p6240
F1.0
sVseptember
p6241
F1.0
sVone
p6242
F3.0
sV''
p6243
F2.0
sVas
p6244
F1.0
sVscoring
p6245
F1.0
sVmissed
p6246
F2.0
sg201
F1.0
sg16
F1.0
sg7
F1.0
sVinstance
p6247
F1.0
sVother
p6248
F1.0
sVinterannotator
p6249
F1.0
sV``
p6250
F2.0
sVthat
p6251
F1.0
sVcoke
p6252
F1.0
sVannotator
p6253
F2.0
sVdate
p6254
F1.0
sVan
p6255
F1.0
sVT-FLOAT
p6256
F1.0
sVtagging
p6257
F1.0
sVshowed
p6258
F1.0
sVof
p6259
F1.0
sVorganization
p6260
F1.0
sVthe
p6261
F1.0
sVexpression
p6262
F1.0
saa(lp6263
S'X96-1048257'
p6264
a(dp6265
Vdeparting
p6266
F1.0
sVis
p6267
F2.0
sVno__
p6268
F1.0
sg7
F2.0
sVas
p6269
F5.0
sVresult
p6270
F2.0
sVin
p6271
F2.0
sVstill
p6272
F1.0
sVevent
p6273
F1.0
sVout
p6274
F2.0
sV!
p6275
F1.0
sg5412
F1.0
sVsystem
p6276
F1.0
sVT-INT
p6277
F2.0
sVanswer
p6278
F1.0
sg827
F3.0
sVceo
p6279
F3.0
sVworkforce
p6280
F1.0
sVjob
p6281
F1.0
sVkey
p6282
F1.0
sVmccannjames
p6283
F1.0
sg121
F3.0
sVon
p6284
F1.0
sVerickson
p6285
F2.0
sVdooner
p6286
F2.0
sVjames
p6287
F5.0
sVreassignment
p6288
F1.0
sVmccann
p6289
F1.0
sVof
p6290
F5.0
sVoutput
p6291
F1.0
sVthe
p6292
F2.0
saa(lp6293
S'X96-1048256'
p6294
a(dp6295
Vand
p6296
F1.0
sV''
p6297
F2.0
sVusheffield
p6298
F1.0
sVbbn
p6299
F1.0
sVlockheed-martin
p6300
F1.0
sVbaseline
p6301
F1.0
sVT-INT
p6302
F23.0
sg7
F10.0
sVnyu
p6303
F1.0
sVto
p6304
F1.0
sVumass
p6305
F1.0
sg207
F1.0
sVumanitoba
p6306
F1.0
sV``
p6307
F2.0
sVprecision
p6308
F2.0
sVkey
p6309
F1.0
sVscores
p6310
F1.0
sVconfiguration
p6311
F3.0
sVsra
p6312
F3.0
sVrecall
p6313
F2.0
sVsri
p6314
F1.0
sVudurham
p6315
F1.0
sg2119
F11.0
sVT-FLOAT
p6316
F1.0
sVr/
p6317
F11.0
saa(lp6318
S'X96-104894'
p6319
a(dp6320
Vand
p6321
F2.0
sVon
p6322
F3.0
sg76
F3.0
sVshow
p6323
F1.0
sVheadline
p6324
F1.0
sVtext
p6325
F1.0
sVsection
p6326
F1.0
sVresults
p6327
F1.0
sg7
F2.0
sVT-INT
p6328
F3.0
sVT-FLOAT
p6329
F1.0
sVerror
p6330
F3.0
sVdate
p6331
F1.0
sVthe
p6332
F1.0
sVdocument
p6333
F2.0
sVdateline
p6334
F1.0
saa(lp6335
S'X96-104895'
p6336
a(dp6337
Vand
p6338
F3.0
sVon
p6339
F5.0
sVerror
p6340
F1.0
sg76
F5.0
sVsubcategory
p6341
F1.0
sVperson
p6342
F1.0
sVmoney
p6343
F1.0
sVwere
p6344
F1.0
sVpercent
p6345
F1.0
sg7
F4.0
sVT-INT
p6346
F5.0
sVlocation
p6347
F1.0
sVscores
p6348
F1.0
sVdate
p6349
F1.0
sVorganization
p6350
F1.0
sVthe
p6351
F1.0
sVT-FLOAT
p6352
F1.0
saa(lp6353
S'X96-104896'
p6354
a(dp6355
Vall
p6356
F1.0
sVshow
p6357
F1.0
sVis
p6358
F1.0
sVhumans
p6359
F1.0
sVresults
p6360
F1.0
sVone
p6361
F1.0
sVhuman
p6362
F1.0
sVin
p6363
F2.0
sVrespects
p6364
F1.0
sVfor
p6365
F1.0
sVpatterns
p6366
F1.0
sVperhaps
p6367
F1.0
sVexcept
p6368
F1.0
sVto
p6369
F1.0
sVsystems
p6370
F1.0
sVway
p6371
F1.0
sVperformance
p6372
F1.0
sg207
F1.0
sVwas
p6373
F1.0
sVvariability
p6374
F1.0
sVthat
p6375
F2.0
sVmost
p6376
F1.0
sVT-FLOAT
p6377
F1.0
sVsource
p6378
F1.0
sg121
F1.0
sVon
p6379
F2.0
sVdates
p6380
F1.0
sVtask
p6381
F1.0
sVdifficulty
p6382
F1.0
sVthese
p6383
F1.0
sVof
p6384
F3.0
sVidentifying
p6385
F1.0
sVthis
p6386
F1.0
sVgreatest
p6387
F1.0
sVthe
p6388
F4.0
sVsimilar
p6389
F1.0
saa(lp6390
S'X96-104897'
p6391
a(dp6392
Vand
p6393
F2.0
sVsimple
p6394
F1.0
sVguidelines
p6395
F2.0
sVsome
p6396
F1.0
sVresults
p6397
F1.0
sV''
p6398
F1.0
sVended
p6399
F1.0
sVsecond
p6400
F2.0
sVresult
p6401
F1.0
sVin
p6402
F1.0
sVrespect
p6403
F1.0
sVerrors
p6404
F1.0
sVspan
p6405
F1.0
sVaug
p6406
F2.0
sVto
p6407
F1.0
sg201
F2.0
sg16
F2.0
sVdetermining
p6408
F1.0
sVsingle
p6409
F1.0
sg7
F4.0
sVthan
p6410
F1.0
sVT-INT
p6411
F5.0
sVoversight
p6412
F1.0
sVshows
p6413
F1.0
sVmaximal
p6414
F1.0
sVfiscal
p6415
F3.0
sV``
p6416
F7.0
sVquarter
p6417
F2.0
sV's
p6418
F2.0
sVthat
p6419
F1.0
sVothers
p6420
F1.0
sVdate
p6421
F2.0
sVwith
p6422
F2.0
sVT-FLOAT
p6423
F7.0
sVtagging
p6424
F2.0
sg121
F3.0
sVtask
p6425
F2.0
sg219
F2.0
sg226
F2.0
sVaccordance
p6426
F1.0
sVof
p6427
F4.0
sVrather
p6428
F1.0
sVas
p6429
F1.0
sVanalysis
p6430
F1.0
sVseparately
p6431
F1.0
sVforgetting
p6432
F1.0
sVwere
p6433
F2.0
sVconsequence
p6434
F1.0
sVthe
p6435
F5.0
sVmisinterpreting
p6436
F1.0
sVexpression
p6437
F2.0
sVor
p6438
F1.0
saa(lp6439
S'X96-104890'
p6440
a(dp6441
Vfor
p6442
F1.0
sVstrategy
p6443
F1.0
sVT-INT
p6444
F94.0
sVbasic
p6445
F1.0
sVtable
p6446
F1.0
sVT-FLOAT
p6447
F17.0
sVits
p6448
F1.0
saa(lp6449
S'X96-104891'
p6450
a(dp6451
Vtext
p6452
F2.0
sVmetric
p6453
F1.0
sVit
p6454
F1.0
sg7
F1.0
sVas
p6455
F1.0
sVtag
p6456
F1.0
sVnames
p6457
F1.0
sVin
p6458
F4.0
sVheadlines
p6459
F1.0
sVif
p6460
F2.0
sVbased
p6461
F1.0
sVsystem
p6462
F2.0
sg2092
F1.0
sg201
F2.0
sg16
F2.0
sVhad
p6463
F2.0
sVne
p6464
F1.0
sVconservative
p6465
F1.0
sVonly
p6466
F1.0
sVsubsection
p6467
F1.0
sVdocument
p6468
F1.0
sVwas
p6469
F1.0
sVpredicted
p6470
F1.0
sVbody
p6471
F2.0
sVf-measure
p6472
F1.0
sVstring
p6473
F1.0
sVoverall
p6474
F1.0
sVscores
p6475
F1.0
sVone
p6476
F1.0
sVT-FLOAT
p6477
F1.0
sVtruncation
p6478
F1.0
sg121
F3.0
sVon
p6479
F1.0
sg207
F1.0
sVname
p6480
F2.0
sVerr
p6481
F1.0
sVof
p6482
F4.0
sVor
p6483
F1.0
sg2119
F1.0
sg2120
F1.0
sVheadline
p6484
F1.0
sVdecreasing
p6485
F1.0
sVfound
p6486
F2.0
sVthe
p6487
F8.0
sVorder
p6488
F1.0
saa(lp6489
S'X96-104892'
p6490
a(dp6491
Vall
p6492
F1.0
sVtext
p6493
F1.0
sVne
p6494
F1.0
sVif
p6495
F1.0
sVheadline
p6496
F1.0
sg7
F2.0
sVadopted
p6497
F1.0
sVstrategy
p6498
F1.0
sVsystems
p6499
F1.0
sVbasic
p6500
F1.0
sVbody
p6501
F1.0
sVafter
p6502
F1.0
sVthat
p6503
F1.0
sVprocessing
p6504
F2.0
sVmost
p6505
F1.0
sVnot
p6506
F1.0
sVT-FLOAT
p6507
F1.0
sVon
p6508
F1.0
sVtask
p6509
F1.0
sVof
p6510
F2.0
sVevaluated
p6511
F1.0
sVwere
p6512
F1.0
sVthe
p6513
F6.0
saa(lp6514
S'X96-104893'
p6515
a(dp6516
Vvariability
p6517
F1.0
sVdifferent
p6518
F1.0
sVtask
p6519
F1.0
sVaspects
p6520
F1.0
sVhuman
p6521
F1.0
sVreference
p6522
F1.0
sVon
p6523
F1.0
sVof
p6524
F1.0
sVne
p6525
F1.0
sVpoints
p6526
F1.0
sVinterannotator
p6527
F1.0
sVprovides
p6528
F1.0
sVtest
p6529
F1.0
sVperformance
p6530
F1.0
sVthe
p6531
F3.0
sVT-FLOAT
p6532
F1.0
sVindicating
p6533
F1.0
saa(lp6534
S'X96-10482'
p6535
a(dp6536
Vconcluded
p6537
F1.0
sVand
p6538
F1.0
sVseries
p6539
F1.0
sVtopic
p6540
F1.0
sVin
p6541
F3.0
sVmessage
p6542
F1.0
sVevaluations
p6543
F1.0
sVconference
p6544
F1.0
sVsystem
p6545
F1.0
sVT-INT
p6546
F1.0
sVwas
p6547
F2.0
sVsixth
p6548
F1.0
sVprocessing
p6549
F1.0
sVunderstanding
p6550
F1.0
sVnovember
p6551
F1.0
sVT-FLOAT
p6552
F1.0
sg121
F1.0
sVoctober
p6553
F1.0
sVnatural
p6554
F1.0
sVlanguage
p6555
F1.0
sVof
p6556
F2.0
sVthe
p6557
F3.0
sVlatest
p6558
F1.0
saa(lp6559
S'X96-10483'
p6560
a(dp6561
Vdifferent
p6562
F1.0
sVin
p6563
F1.0
sVto
p6564
F1.0
sVmany
p6565
F1.0
sVinvited
p6566
F1.0
sVwere
p6567
F1.0
sVas
p6568
F2.0
sVtask-oriented
p6569
F1.0
sVfour
p6570
F1.0
sVtheir
p6571
F1.0
sVparticipants
p6572
F1.0
sVsystems
p6573
F1.0
sVenter
p6574
F1.0
sVevaluations
p6575
F1.0
sVT-FLOAT
p6576
F1.0
saa(lp6577
S'X96-10481'
p6578
a(dp6579
Vtest
p6580
F1.0
sVabstract
p6581
F1.0
saa(lp6582
S'X96-10486'
p6583
a(dp6584
Vand
p6585
F2.0
sVsundheim
p6586
F1.0
sVevolution
p6587
F1.0
sVthis
p6588
F1.0
sVof
p6589
F1.0
sVT-FLOAT
p6590
F1.0
sVgrishman
p6591
F1.0
sVdiscussed
p6592
F1.0
sVvolume
p6593
F1.0
sVT-INT
p6594
F1.0
sVpaper
p6595
F1.0
sVdesign
p6596
F1.0
sVare
p6597
F1.0
sVmuc
p6598
F1.0
sVin
p6599
F2.0
sVthe
p6600
F3.0
sVevaluation
p6601
F1.0
sVby
p6602
F1.0
saa(lp6603
S'X96-10487'
p6604
a(dp6605
Vindependently
p6606
F1.0
sVall
p6607
F1.0
sVtask
p6608
F1.0
sVscenario
p6609
F1.0
sVdefined
p6610
F1.0
sVof
p6611
F1.0
sVexcept
p6612
F1.0
sVT-FLOAT
p6613
F1.0
sVare
p6614
F1.0
sVtemplate
p6615
F1.0
sVparticular
p6616
F1.0
sVdomain
p6617
F1.0
sVthe
p6618
F1.0
sVany
p6619
F1.0
saa(lp6620
S'X96-10484'
p6621
a(dp6622
Vand
p6623
F2.0
sVnamed
p6624
F1.0
sVtasks
p6625
F1.0
sVfor
p6626
F1.0
sVlanguage
p6627
F1.0
sVT-FLOAT
p6628
F1.0
sVentailed
p6629
F1.0
sVof
p6630
F1.0
sVmarkup
p6631
F1.0
sVtime
p6632
F1.0
sVbeing
p6633
F1.0
sVentity
p6634
F1.0
sVtexts
p6635
F1.0
sVconducted
p6636
F1.0
sVgeneralized
p6637
F1.0
sVcoreference
p6638
F1.0
sVwere
p6639
F1.0
sVthe
p6640
F2.0
sVstandard
p6641
F1.0
sVannotation
p6642
F1.0
sVfirst
p6643
F1.0
saa(lp6644
S'X96-10485'
p6645
a(dp6646
Vand
p6647
F1.0
sVtasks
p6648
F2.0
sVfollowed
p6649
F1.0
sg7
F2.0
sVin
p6650
F1.0
sVprevious
p6651
F1.0
sVinformation
p6652
F1.0
sVfrom
p6653
F1.0
sVtwo
p6654
F1.0
sVextraction
p6655
F1.0
sVother
p6656
F1.0
sVmuc
p6657
F1.0
sVtemplate
p6658
F2.0
sVthat
p6659
F1.0
sVevaluations
p6660
F1.0
sVyears
p6661
F1.0
sVT-FLOAT
p6662
F1.0
sVon
p6663
F1.0
sVscenario
p6664
F1.0
sVelement
p6665
F1.0
sVconducted
p6666
F1.0
sVwere
p6667
F1.0
sVthe
p6668
F2.0
saa(lp6669
S'X96-10488'
p6670
a(dp6671
Vand
p6672
F1.0
sVon
p6673
F1.0
sVsurveys
p6674
F1.0
sVtask
p6675
F1.0
sVlimited
p6676
F1.0
sVthis
p6677
F1.0
sVof
p6678
F1.0
sVT-FLOAT
p6679
F1.0
sVtasks
p6680
F1.0
sVresults
p6681
F1.0
sg7
F2.0
sVto
p6682
F1.0
sVpaper
p6683
F1.0
sg121
F1.0
sVextent
p6684
F1.0
sVeach
p6685
F1.0
sVthe
p6686
F2.0
sVevaluation
p6687
F1.0
sVacross
p6688
F1.0
sVmore
p6689
F1.0
saa(lp6690
S'X96-1048297'
p6691
a(dp6692
Vto
p6693
F1.0
sg201
F1.0
sg16
F1.0
sVin
p6694
F1.0
sVsystems
p6695
F1.0
sVoutput
p6696
F1.0
sVlinkages
p6697
F1.0
sVfailed
p6698
F1.0
sVpenalized
p6699
F1.0
sVthey
p6700
F1.0
sVwere
p6701
F1.0
sVnot
p6702
F1.0
sVsuch
p6703
F1.0
sVT-FLOAT
p6704
F1.0
sVinclude
p6705
F1.0
sVtheir
p6706
F1.0
sVif
p6707
F1.0
saa(lp6708
S'X96-1048296'
p6709
a(dp6710
Vten
p6711
F1.0
sVis
p6712
F1.0
sVmarked
p6713
F1.0
sVone
p6714
F1.0
sVas
p6715
F3.0
sVin
p6716
F1.0
sVimmaturity
p6717
F1.0
sVgenuine
p6718
F1.0
sg201
F1.0
sg16
F1.0
sVpercent
p6719
F1.0
sVtextual
p6720
F1.0
sVlinkages
p6721
F1.0
sVambiguity
p6722
F1.0
sVanswer
p6723
F1.0
sVover
p6724
F1.0
sV``
p6725
F2.0
sVthat
p6726
F1.0
sVkey
p6727
F1.0
sVan
p6728
F1.0
sVoptional
p6729
F1.0
sVT-FLOAT
p6730
F1.0
sVdefinition
p6731
F1.0
sVtask
p6732
F1.0
sVof
p6733
F5.0
sVwell
p6734
F1.0
sVamount
p6735
F1.0
sVindication
p6736
F2.0
sVwere
p6737
F1.0
sVthe
p6738
F5.0
sVfact
p6739
F1.0
saa(lp6740
S'X96-1048291'
p6741
a(dp6742
Vand
p6743
F2.0
sVset
p6744
F1.0
sVsemantic
p6745
F1.0
sVanother
p6746
F1.0
sVreference
p6747
F1.0
sVis
p6748
F1.0
sVas
p6749
F1.0
sVincluding
p6750
F1.0
sVquestions
p6751
F1.0
sVin
p6752
F2.0
sVissues
p6753
F1.0
sVtype
p6754
F1.0
sVversus
p6755
F1.0
sVnature
p6756
F1.0
sVlegitimacy
p6757
F1.0
sVvalidity
p6758
F1.0
sVincludes
p6759
F1.0
sVcoreferrence
p6760
F1.0
sVsuch
p6761
F1.0
sVT-FLOAT
p6762
F1.0
sVdefinition
p6763
F1.0
sVtask
p6764
F1.0
sVof
p6765
F4.0
sVimplied
p6766
F1.0
sVfimdamental
p6767
F1.0
sVcoteference
p6768
F1.0
sVthe
p6769
F4.0
saa(lp6770
S'X96-1048253'
p6771
a(dp6772
Vand
p6773
F1.0
sVold
p6774
F1.0
sVis
p6775
F1.0
sVexecutive
p6776
F1.0
sVtwo
p6777
F1.0
sVdown
p6778
F1.0
sVsecond
p6779
F1.0
sVat
p6780
F2.0
sVstepping
p6781
F1.0
sVyear
p6782
F1.0
sVwhat
p6783
F1.0
sVend
p6784
F2.0
sVjames
p6785
F1.0
sVhad
p6786
F1.0
sg7
F3.0
sVbeen
p6787
F1.0
sVT-INT
p6788
F2.0
sVchairman
p6789
F1.0
sVwidely
p6790
F1.0
sg207
F2.0
sVevents
p6791
F1.0
sVretire
p6792
F1.0
sVyesterday
p6793
F1.0
sVanticipated
p6794
F1.0
sVjuly
p6795
F1.0
sVyears
p6796
F1.0
sVT-FLOAT
p6797
F2.0
sVtipoff
p6798
F1.0
sVon
p6799
F2.0
sVmade
p6800
F1.0
sVof
p6801
F2.0
sVofficial
p6802
F1.0
sVas
p6803
F2.0
sVwill
p6804
F1.0
sVchief
p6805
F1.0
sVparagraph
p6806
F1.0
sVofficer
p6807
F1.0
sVmccann
p6808
F1.0
sVmr
p6809
F1.0
sVthe
p6810
F6.0
sVcomes
p6811
F1.0
sVfirst
p6812
F1.0
saa(lp6813
S'X96-1048290'
p6814
a(dp6815
Vphenomenon
p6816
F1.0
sVdefined
p6817
F1.0
sVexecutive
p6818
F2.0
sVhead
p6819
F1.0
sVidentify
p6820
F1.0
sVan
p6821
F1.0
sV''
p6822
F2.0
sVas
p6823
F4.0
sVscott
p6824
F1.0
sVexclude
p6825
F1.0
sVlacks
p6826
F1.0
sVclearly
p6827
F1.0
sVfor
p6828
F1.0
sVrather
p6829
F1.0
sVpunctuation
p6830
F1.0
sg7
F3.0
sVto
p6831
F1.0
sVwhich
p6832
F1.0
sVmodification
p6833
F1.0
sVwas
p6834
F1.0
sVapposition
p6835
F1.0
sVbe
p6836
F1.0
sV``
p6837
F2.0
sVthat
p6838
F2.0
sVconstructs
p6839
F1.0
sVrestrictively
p6840
F1.0
sVmarkable
p6841
F1.0
sVanalyzed
p6842
F1.0
sVsuch
p6843
F1.0
sVT-FLOAT
p6844
F1.0
sg121
F1.0
sVappositive
p6845
F1.0
sVmcnealy
p6846
F1.0
sVwould
p6847
F1.0
sVof
p6848
F1.0
sVcould
p6849
F1.0
sVchief
p6850
F1.0
sVconstruction
p6851
F1.0
sVcomma
p6852
F1.0
sVthe
p6853
F2.0
sVexample
p6854
F1.0
sVleft
p6855
F1.0
saa(lp6856
S'X96-1048252'
p6857
a(dp6858
Von
p6859
F1.0
sVfrom
p6860
F1.0
sVnecessary
p6861
F1.0
sVfor
p6862
F1.0
sVsuccessful
p6863
F1.0
sVof
p6864
F1.0
sVis
p6865
F1.0
sVperformance
p6866
F1.0
sVthree
p6867
F1.0
sVarticle
p6868
F1.0
sVhigh
p6869
F1.0
sVwalkthrough
p6870
F1.0
sVthese
p6871
F1.0
sVT-FLOAT
p6872
F1.0
sVsentences
p6873
F1.0
sVinterpretation
p6874
F1.0
sVthe
p6875
F1.0
sVevents
p6876
F1.0
saa(lp6877
S'X96-1048293'
p6878
a(dp6879
Vreferring
p6880
F1.0
sVcorefer
p6881
F1.0
sVonly
p6882
F1.0
sVcan
p6883
F1.0
sVexpressions
p6884
F1.0
sVor
p6885
F1.0
sg1135
F1.0
saa(lp6886
S'X96-1048240'
p6887
a(dp6888
Vand
p6889
F1.0
sVall
p6890
F1.0
sVfigure
p6891
F1.0
sVrecall
p6892
F1.0
sVin
p6893
F1.0
sVprecision
p6894
F1.0
sVT-INT
p6895
F1.0
sVobjects
p6896
F1.0
sVare
p6897
F1.0
sVscores
p6898
F1.0
sVthe
p6899
F1.0
sVT-FLOAT
p6900
F1.0
sVshown
p6901
F1.0
saa(lp6902
S'X96-1048292'
p6903
a(dp6904
Vantecedent
p6905
F1.0
sVnonetheless
p6906
F1.0
sVconsidered
p6907
F1.0
sVwith
p6908
F1.0
sVis
p6909
F1.0
sg7
F1.0
sVan
p6910
F1.0
sVanaphoric
p6911
F1.0
sVnonreferential
p6912
F1.0
sVcan
p6913
F1.0
sVcoreferential
p6914
F1.0
sVsubsequent
p6915
F1.0
sVit
p6916
F1.0
sVbe
p6917
F1.0
sVexpression
p6918
F1.0
sVexpressions
p6919
F1.0
sg1135
F1.0
sVif
p6920
F1.0
saa(lp6921
S'X96-1048285'
p6922
a(dp6923
Vspring
p6924
F1.0
sVsome
p6925
F1.0
sVin
p6926
F2.0
sVout
p6927
F1.0
sVne
p6928
F2.0
sVbeen
p6929
F1.0
sVT-INT
p6930
F1.0
sVexpanding
p6931
F1.0
sVscope
p6932
F1.0
sVhas
p6933
F1.0
sVevaluation
p6934
F1.0
sVforeignlanguage
p6935
F1.0
sVT-FLOAT
p6936
F1.0
sg121
F1.0
sVon
p6937
F1.0
sVtask
p6938
F1.0
sVcarried
p6939
F1.0
sVof
p6940
F3.0
sVwork
p6941
F1.0
sVconducted
p6942
F1.0
sVcontext
p6943
F1.0
sVthe
p6944
F4.0
saa(lp6945
S'X96-1048213'
p6946
a(dp6947
Vvia
p6948
F1.0
sVfour
p6949
F1.0
sVone-way
p6950
F1.0
sVare
p6951
F1.0
sVconsists
p6952
F1.0
sVlinked
p6953
F1.0
sVmanagement
p6954
F1.0
sg7
F1.0
sVto
p6955
F1.0
sVtypes
p6956
F1.0
sVwhich
p6957
F1.0
sVtemplate
p6958
F1.0
sVform
p6959
F1.0
sVobject
p6960
F1.0
sVhierarchical
p6961
F1.0
sVT-FLOAT
p6962
F1.0
sVstructure
p6963
F1.0
sg121
F1.0
sVof
p6964
F1.0
sVpointers
p6965
F1.0
sVtogether
p6966
F1.0
sVsuccession
p6967
F1.0
sVthe
p6968
F1.0
saa(lp6969
S'X96-104883'
p6970
a(dp6971
g121
F1.0
sVon
p6972
F2.0
sVdifferent
p6973
F1.0
sVfrom
p6974
F1.0
sVand
p6975
F1.0
sVfor
p6976
F1.0
sVfollows
p6977
F1.0
sVslot-level
p6978
F2.0
sVnumex
p6979
F1.0
sVmost
p6980
F1.0
sVenamex
p6981
F1.0
sVsystems
p6982
F1.0
sVpattern
p6983
F1.0
sVtimex
p6984
F1.0
sVperformance
p6985
F2.0
sVT-FLOAT
p6986
F1.0
saa(lp6987
S'X96-104882'
p6988
a(dp6989
Vset
p6990
F1.0
sVis
p6991
F1.0
sVnumber
p6992
F1.0
sVan
p6993
F1.0
sVinstances
p6994
F1.0
sVsingle
p6995
F1.0
sVresult
p6996
F1.0
sVin
p6997
F2.0
sg76
F1.0
sVnote
p6998
F1.0
sVT-INT
p6999
F1.0
sVtest
p7000
F1.0
sVthat
p7001
F2.0
sVT-FLOAT
p7002
F1.0
sg121
F1.0
sVpercentages
p7003
F1.0
sVof
p7004
F3.0
sVcould
p7005
F1.0
sVso
p7006
F1.0
sVerror
p7007
F1.0
sVsmall
p7008
F1.0
sVthe
p7009
F2.0
sVmistake
p7010
F1.0
saa(lp7011
S'X96-104881'
p7012
a(dp7013
Vsimplicity
p7014
F1.0
sVabout
p7015
F1.0
sg76
F1.0
sVfor
p7016
F1.0
sVthat
p7017
F1.0
sVpercentages
p7018
F1.0
sVof
p7019
F1.0
sVerror
p7020
F1.0
sVhad
p7021
F1.0
sg7
F2.0
sVT-INT
p7022
F1.0
sVsubtask
p7023
F1.0
sVsystems
p7024
F1.0
sVwhich
p7025
F1.0
sVhalf
p7026
F1.0
sVthe
p7027
F2.0
sVT-FLOAT
p7028
F1.0
sVreflects
p7029
F1.0
sVparticular
p7030
F1.0
saa(lp7031
S'X96-104880'
p7032
a(dp7033
Vdo
p7034
F1.0
sVnone
p7035
F1.0
sVerror
p7036
F1.0
sg76
F1.0
sVfor
p7037
F2.0
sVto
p7038
F1.0
sVscores
p7039
F1.0
sVable
p7040
F1.0
sVlocations
p7041
F1.0
sVbut
p7042
F1.0
sg7
F1.0
sVoganizations
p7043
F1.0
sVT-INT
p7044
F1.0
sVso
p7045
F1.0
sVsystems
p7046
F1.0
sVunder
p7047
F1.0
sVT-FLOAT
p7048
F1.0
sVseveral
p7049
F1.0
sVwas
p7050
F1.0
sVposted
p7051
F1.0
saa(lp7052
S'X96-104887'
p7053
a(dp7054
Vand
p7055
F3.0
sVit
p7056
F2.0
sVone
p7057
F1.0
sVnames
p7058
F4.0
sVanother
p7059
F1.0
sVthree-way
p7060
F1.0
sVconfusing
p7061
F2.0
sVfor
p7062
F2.0
sg7
F2.0
sVonly
p7063
F1.0
sVoffers
p7064
F1.0
sVtype
p7065
F1.0
sVnumex
p7066
F1.0
sVtwo-way
p7067
F1.0
sVpossibility
p7068
F2.0
sVorganization
p7069
F1.0
sVwith
p7070
F2.0
sVT-FLOAT
p7071
F1.0
sg121
F2.0
sVtimex
p7072
F1.0
sVespecially
p7073
F1.0
sVof
p7074
F4.0
sVperson
p7075
F1.0
sVenamex
p7076
F1.0
sVdistinction
p7077
F2.0
sVthe
p7078
F2.0
sVinvolves
p7079
F1.0
saa(lp7080
S'X96-104886'
p7081
a(dp7082
Vslot
p7083
F2.0
sg121
F1.0
sVsubcategories
p7084
F1.0
sVfor
p7085
F2.0
sVis
p7086
F1.0
sg7
F2.0
sVhowever
p7087
F1.0
sVT-FLOAT
p7088
F1.0
sVenamex
p7089
F1.0
sVother
p7090
F1.0
sVthe
p7091
F2.0
sVdifficult
p7092
F1.0
sVtype
p7093
F1.0
sVthan
p7094
F1.0
sVmore
p7095
F1.0
saa(lp7096
S'X96-104885'
p7097
a(dp7098
Vand
p7099
F1.0
sVtagged
p7100
F1.0
sVright
p7101
F1.0
sVtext
p7102
F1.0
sVall
p7103
F1.0
sVthree
p7104
F1.0
sVsubcategories
p7105
F1.0
sVare
p7106
F1.0
sVin
p7107
F1.0
sVT-FLOAT
p7108
F1.0
sVslot
p7109
F1.0
sVerrors
p7110
F2.0
sVspan
p7111
F1.0
sVfor
p7112
F2.0
sg7
F1.0
sVfinding
p7113
F1.0
sVbe
p7114
F1.0
sVstring
p7115
F1.0
sVproblem
p7116
F1.0
sg121
F1.0
sVon
p7117
F1.0
sVthis
p7118
F1.0
sVof
p7119
F1.0
sVtag
p7120
F1.0
sVcan
p7121
F1.0
sVthe
p7122
F3.0
saa(lp7123
S'X96-104884'
p7124
a(dp7125
Vslot
p7126
F4.0
sVon
p7127
F4.0
sVand
p7128
F2.0
sVtimex
p7129
F1.0
sVfor
p7130
F4.0
sVtags
p7131
F2.0
sVpattern
p7132
F1.0
sVis
p7133
F1.0
sVT-FLOAT
p7134
F1.0
sVnumex
p7135
F1.0
sVgeneral
p7136
F1.0
sVbetter
p7137
F2.0
sVto
p7138
F2.0
sVenamex
p7139
F1.0
sVdone
p7140
F2.0
sVsystems
p7141
F2.0
sVhave
p7142
F2.0
sVtext
p7143
F2.0
sVthe
p7144
F5.0
sVtype
p7145
F2.0
sVthan
p7146
F2.0
saa(lp7147
S'X96-1048127'
p7148
a(dp7149
Vfrom
p7150
F1.0
sVfigure
p7151
F1.0
sVne
p7152
F1.0
sVis
p7153
F1.0
sVsupported
p7154
F1.0
sVprecision
p7155
F1.0
sVevidence
p7156
F1.0
sVT-FLOAT
p7157
F1.0
sVthe
p7158
F2.0
sVevaluation
p7159
F1.0
sVby
p7160
F1.0
saa(lp7161
S'X96-1048126'
p7162
a(dp7163
Vand
p7164
F2.0
sVsystem
p7165
F1.0
sVbuy
p7166
F1.0
sVnames
p7167
F1.0
sVproper
p7168
F1.0
sVT-FLOAT
p7169
F1.0
sVrecognition
p7170
F1.0
sVconstituted
p7171
F1.0
sg76
F2.0
sVwould
p7172
F1.0
sVT-INT
p7173
F2.0
sVperhaps
p7174
F1.0
sg16
F1.0
sVsince
p7175
F1.0
sVsites
p7176
F1.0
sVfew
p7177
F1.0
sVlot
p7178
F1.0
sVevaluation
p7179
F1.0
sVannotations
p7180
F1.0
sVgood
p7181
F1.0
sVminority
p7182
F1.0
sVthat
p7183
F1.0
sVprecision
p7184
F2.0
sVreported
p7185
F1.0
sValone
p7186
F1.0
sVname/alias
p7187
F1.0
sg7
F1.0
sg121
F4.0
sVon
p7188
F1.0
sVabout
p7189
F1.0
sVtask
p7190
F1.0
sVthis
p7191
F1.0
sVof
p7192
F3.0
sVlarge
p7193
F1.0
sg201
F1.0
sVpoints
p7194
F1.0
sVrecall
p7195
F2.0
sVthe
p7196
F2.0
saa(lp7197
S'X96-104889'
p7198
a(dp7199
Vand
p7200
F1.0
sVjust
p7201
F1.0
sVis
p7202
F1.0
sVsystem
p7203
F2.0
sVconfiguration
p7204
F1.0
sVin
p7205
F1.0
sVT-FLOAT
p7206
F1.0
sVnmsu
p7207
F1.0
sVbaseline
p7208
F1.0
sVheadline
p7209
F2.0
sVfact
p7210
F1.0
sVthere
p7211
F1.0
sg7
F2.0
sVto
p7212
F2.0
sVdifference
p7213
F1.0
sVscore
p7214
F1.0
sVwas
p7215
F1.0
sVhigher
p7216
F1.0
sVbody
p7217
F2.0
sVgreater
p7218
F1.0
sVthat
p7219
F2.0
sVovergenerated
p7220
F1.0
sVextent
p7221
F1.0
sVscores
p7222
F1.0
sVone
p7223
F1.0
sVthan
p7224
F2.0
sVposted
p7225
F1.0
sg121
F2.0
sVon
p7226
F4.0
sVlargely
p7227
F1.0
sVdue
p7228
F1.0
sVerror
p7229
F1.0
sVthe
p7230
F8.0
sVcrl
p7231
F1.0
saa(lp7232
S'X96-104888'
p7233
a(dp7234
Vall
p7235
F1.0
sVtext
p7236
F1.0
sVsee
p7237
F1.0
sVat
p7238
F1.0
sVin
p7239
F1.0
sVtable
p7240
F1.0
sVT-FLOAT
p7241
F1.0
sVscore
p7242
F1.0
sVfor
p7243
F1.0
sVfew
p7244
F1.0
sVheadline
p7245
F1.0
sVsection
p7246
F1.0
sg7
F1.0
sVlooking
p7247
F1.0
sVT-INT
p7248
F1.0
sVmuch
p7249
F1.0
sVsystems
p7250
F1.0
sVdocument
p7251
F1.0
sVwas
p7252
F1.0
sVbody
p7253
F1.0
sVwe
p7254
F1.0
sVthat
p7255
F1.0
sVbut
p7256
F1.0
sVscores
p7257
F1.0
sVthan
p7258
F1.0
sg121
F1.0
sVon
p7259
F2.0
sVlower
p7260
F1.0
sVof
p7261
F1.0
sVerror
p7262
F1.0
sVthe
p7263
F5.0
saa(lp7264
S'X96-1048123'
p7265
a(dp7266
Vand
p7267
F2.0
sVco
p7268
F1.0
sVusheffield
p7269
F1.0
sVT-INT
p7270
F16.0
sg7
F6.0
sVnyu
p7271
F1.0
sVto
p7272
F1.0
sVumass
p7273
F1.0
sg207
F1.0
sVumanitoba
p7274
F1.0
sVoverall
p7275
F1.0
sVprecision
p7276
F2.0
sVkey
p7277
F1.0
sVscores
p7278
F1.0
sVT-FLOAT
p7279
F1.0
sVon
p7280
F1.0
sVtask
p7281
F1.0
sVrecall
p7282
F2.0
sVsri
p7283
F1.0
sVudurham
p7284
F1.0
sg2119
F7.0
sVupenn
p7285
F1.0
sVthe
p7286
F1.0
sVr/
p7287
F7.0
saa(lp7288
S'X96-1048121'
p7289
a(dp7290
Vall
p7291
F1.0
sVco
p7292
F1.0
sVcoreference
p7293
F1.0
sVT-INT
p7294
F1.0
sVevaluation
p7295
F1.0
sVoverall
p7296
F1.0
sVresults
p7297
F1.0
sVseven
p7298
F1.0
sg7
F1.0
sVsites
p7299
F1.0
sVmuc
p7300
F1.0
sVin
p7301
F2.0
sVthe
p7302
F1.0
sVparticipated
p7303
F1.0
sVT-FLOAT
p7304
F1.0
saa(lp7305
S'X96-1048120'
p7306
a(dp7307
Vand
p7308
F2.0
sVdefined
p7309
F1.0
sVtesting
p7310
F1.0
sVperformed
p7311
F1.0
sVstatistical
p7312
F1.0
sVfor
p7313
F1.0
sVno
p7314
F2.0
sg7
F1.0
sVthan
p7315
F1.0
sVother
p7316
F1.0
sVsignificance
p7317
F1.0
sVwas
p7318
F1.0
sVprecision
p7319
F1.0
sVmetrics
p7320
F1.0
sVscores
p7321
F1.0
sVthe
p7322
F1.0
sVon
p7323
F1.0
sVtask
p7324
F1.0
sVthis
p7325
F1.0
sVrecall
p7326
F1.0
sVwere
p7327
F1.0
sVT-FLOAT
p7328
F1.0
saa(lp7329
S'X96-1048299'
p7330
a(dp7331
Vtask
p7332
F1.0
sVoutstanding
p7333
F1.0
sVthere
p7334
F1.0
sVproblems
p7335
F1.0
sVmiscellaneous
p7336
F1.0
sVelement
p7337
F1.0
sVare
p7338
F1.0
sVtemplate
p7339
F1.0
sVthe
p7340
F1.0
sVte
p7341
F1.0
sVwith
p7342
F1.0
sVT-FLOAT
p7343
F1.0
saa(lp7344
S'X96-1048152'
p7345
a(dp7346
Vand
p7347
F2.0
sVlimited
p7348
F1.0
sVall
p7349
F1.0
sVshortened
p7350
F1.0
sVlocative
p7351
F1.0
sVtext
p7352
F2.0
sVis
p7353
F1.0
sVit
p7354
F1.0
sVentity
p7355
F1.0
sVappropriate
p7356
F1.0
sVnames
p7357
F1.0
sVtechniques
p7358
F1.0
sVinformation
p7359
F1.0
sVuse
p7360
F1.0
sg7
F1.0
sVto
p7361
F2.0
sVreferential
p7362
F1.0
sVstructure
p7363
F1.0
sVbetween
p7364
F1.0
sg827
F1.0
sVte
p7365
F1.0
sVfull
p7366
F1.0
sVdescriptive
p7367
F1.0
sVassociate
p7368
F1.0
sVhowever
p7369
F1.0
sVlevels
p7370
F1.0
sVnot
p7371
F1.0
sVwith
p7372
F1.0
sVT-FLOAT
p7373
F1.0
sVidentity
p7374
F1.0
sVtask
p7375
F1.0
sVof
p7376
F3.0
sVanalysis
p7377
F1.0
sVportion
p7378
F1.0
sVat
p7379
F1.0
sVorganization
p7380
F1.0
sVthe
p7381
F6.0
sVrequires
p7382
F1.0
sVrecognizing
p7383
F1.0
saa(lp7384
S'X96-1048153'
p7385
a(dp7386
Vand
p7387
F3.0
sVlocale
p7388
F1.0
sVrelate
p7389
F1.0
sVis
p7390
F1.0
sVartists
p7391
F2.0
sV``
p7392
F3.0
sV''
p7393
F1.0
sVas
p7394
F1.0
sVin
p7395
F4.0
sVappositional
p7396
F1.0
sVadjuncts
p7397
F1.0
sVbased
p7398
F1.0
sVneeded
p7399
F1.0
sVagency
p7400
F4.0
sg7
F4.0
sVcreative
p7401
F2.0
sVto
p7402
F2.0
sVcomplex
p7403
F1.0
sVnp
p7404
F1.0
sVhollywood
p7405
F2.0
sVstructures
p7406
F2.0
sVpostposed
p7407
F1.0
sVbig
p7408
F2.0
sVsuch
p7409
F1.0
sVT-FLOAT
p7410
F1.0
sg121
F1.0
sVtalent
p7411
F2.0
sVname
p7412
F1.0
sVof
p7413
F1.0
sVanalysis
p7414
F1.0
sVdescriptor
p7415
F1.0
sVthe
p7416
F3.0
sVmodifier
p7417
F1.0
sVorder
p7418
F1.0
saa(lp7419
S'X96-1048242'
p7420
a(dp7421
g121
F1.0
sVbe
p7422
F1.0
sVreflected
p7423
F1.0
sVstatistically
p7424
F1.0
sVranking
p7425
F1.0
sVT-INT
p7426
F1.0
sVmay
p7427
F1.0
sVof
p7428
F2.0
sVdifferences
p7429
F1.0
sVup
p7430
F1.0
sg7
F1.0
sVlarge
p7431
F1.0
sVto
p7432
F1.0
sVas
p7433
F1.0
sVpoints
p7434
F1.0
sVsystems
p7435
F1.0
sVin
p7436
F1.0
sVnot
p7437
F1.0
sVthe
p7438
F2.0
sVdifference
p7439
F1.0
sVT-FLOAT
p7440
F1.0
saa(lp7441
S'X96-1048150'
p7442
a(dp7443
Vand
p7444
F1.0
sg121
F1.0
sVabbreviated
p7445
F1.0
sVlimited
p7446
F1.0
sVstring
p7447
F1.0
sVfor
p7448
F3.0
sVversions
p7449
F1.0
sVany
p7450
F1.0
sVof
p7451
F2.0
sg7
F2.0
sVstrings
p7452
F2.0
sVperson
p7453
F1.0
sVonly
p7454
F1.0
sVtitles
p7455
F1.0
sVT-FLOAT
p7456
F1.0
sVvery
p7457
F1.0
sVrange
p7458
F1.0
sVthe
p7459
F3.0
sVrepresenting
p7460
F3.0
sVslots
p7461
F1.0
sVname
p7462
F2.0
saa.